
========================================================================

** ELF Header Information

    File Name: .\obj\A06TEST_ReadTAB0000.axf

    Machine class: ELFCLASS32 (32-bit)
    Data encoding: ELFDATA2LSB (Little endian)
    Header version: EV_CURRENT (Current version)
    Operating System ABI: none
    ABI Version: 0
    File Type: ET_EXEC (Executable) (2)
    Machine: EM_ARM (ARM)

    Image Entry point: 0x00000000
    Flags: EF_ARM_HASENTRY + EF_ARM_ABI_FLOAT_SOFT (0x05000202)

    ARM ELF revision: 5 (ABI version 2)

    Conforms to Soft float procedure-call standard

    Built with
    Component: ARM Compiler 5.06 update 5 (build 528) Tool: armasm [4d35e1]
    Component: ARM Compiler 5.06 update 5 (build 528) Tool: armlink [4d35e2]

    Header size: 52 bytes (0x34)
    Program header entry size: 32 bytes (0x20)
    Section header entry size: 40 bytes (0x28)

    Program header entries: 1
    Section header entries: 16

    Program header offset: 555496 (0x000879e8)
    Section header offset: 555528 (0x00087a08)

    Section header string table index: 15

========================================================================

** Program header #0 (PT_LOAD) [PF_X + PF_W + PF_R + PF_ARM_ENTRY]
    Size : 426776 bytes (54484 bytes in file)
    Virtual address: 0x00000000 (Alignment 16384)


========================================================================

** Section #1 'ER_IROM1' (SHT_PROGBITS) [SHF_ALLOC + SHF_EXECINSTR]
    Size   : 54232 bytes (alignment 4)
    Address: 0x00000000

    $a
    NUC_INIT
    Vector_Table
        0x00000000:    ea000014    ....    B        Reset_Go ; 0x58
        0x00000004:    e59ff018    ....    LDR      pc,[pc,#24] ; [0x24] = 0x40
        0x00000008:    e59ff018    ....    LDR      pc,[pc,#24] ; [0x28] = 0x44
        0x0000000c:    e59ff018    ....    LDR      pc,[pc,#24] ; [0x2c] = 0x48
        0x00000010:    e59ff018    ....    LDR      pc,[pc,#24] ; [0x30] = 0x4c
    $d
        0x00000014:    00000000    ....    DCD    0
    $a
        0x00000018:    e59ff018    ....    LDR      pc,[pc,#24] ; [0x38] = 0x50
        0x0000001c:    e59ff018    ....    LDR      pc,[pc,#24] ; [0x3c] = 0x54
    $d
        0x00000020:    00000058    X...    DCD    88
        0x00000024:    00000040    @...    DCD    64
        0x00000028:    00000044    D...    DCD    68
        0x0000002c:    00000048    H...    DCD    72
        0x00000030:    0000004c    L...    DCD    76
        0x00000034:    00000000    ....    DCD    0
        0x00000038:    00000050    P...    DCD    80
        0x0000003c:    00000054    T...    DCD    84
    $a
    Undefined_Handler
        0x00000040:    eafffffe    ....    B        Undefined_Handler ; 0x40
    SWI_Handler1
        0x00000044:    eafffffe    ....    B        SWI_Handler1 ; 0x44
    Prefetch_Handler
        0x00000048:    eafffffe    ....    B        Prefetch_Handler ; 0x48
    Abort_Handler
        0x0000004c:    eafffffe    ....    B        Abort_Handler ; 0x4c
    IRQ_Handler
        0x00000050:    eafffffe    ....    B        IRQ_Handler ; 0x50
    FIQ_Handler
        0x00000054:    eafffffe    ....    B        FIQ_Handler ; 0x54
    Reset_Go
        0x00000058:    e59f0090    ....    LDR      r0,[pc,#144] ; [0xf0] = 0xb8002138
        0x0000005c:    e3e01000    ....    MVN      r1,#0
        0x00000060:    e5801000    ....    STR      r1,[r0,#0]
        0x00000064:    e59f0088    ....    LDR      r0,[pc,#136] ; [0xf4] = 0xb800213c
        0x00000068:    e5801000    ....    STR      r1,[r0,#0]
        0x0000006c:    e59f2084    . ..    LDR      r2,[pc,#132] ; [0xf8] = 0xb0001800
        0x00000070:    e5923010    .0..    LDR      r3,[r2,#0x10]
        0x00000074:    e2033007    .0..    AND      r3,r3,#7
        0x00000078:    e3a01002    ....    MOV      r1,#2
        0x0000007c:    e3a00001    ....    MOV      r0,#1
        0x00000080:    e1500003    ..P.    CMP      r0,r3
        0x00000084:    0a000002    ....    BEQ      0x94 ; Reset_Go + 60
        0x00000088:    e1a01081    ....    LSL      r1,r1,#1
        0x0000008c:    e2800001    ....    ADD      r0,r0,#1
        0x00000090:    eafffffa    ....    B        0x80 ; Reset_Go + 40
        0x00000094:    e1a00a01    ....    LSL      r0,r1,#20
        0x00000098:    e321f0db    ..!.    MSR      CPSR_c,#0xdb
        0x0000009c:    e1a0d000    ....    MOV      sp,r0
        0x000000a0:    e2400a01    ..@.    SUB      r0,r0,#0x1000
        0x000000a4:    e321f0d7    ..!.    MSR      CPSR_c,#0xd7
        0x000000a8:    e1a0d000    ....    MOV      sp,r0
        0x000000ac:    e2400a01    ..@.    SUB      r0,r0,#0x1000
        0x000000b0:    e321f0d2    ..!.    MSR      CPSR_c,#0xd2
        0x000000b4:    e1a0d000    ....    MOV      sp,r0
        0x000000b8:    e2400906    ..@.    SUB      r0,r0,#0x18000
        0x000000bc:    e321f0d1    ..!.    MSR      CPSR_c,#0xd1
        0x000000c0:    e1a0d000    ....    MOV      sp,r0
        0x000000c4:    e2400a02    ..@.    SUB      r0,r0,#0x2000
        0x000000c8:    e321f0df    ..!.    MSR      CPSR_c,#0xdf
        0x000000cc:    e1a0d000    ....    MOV      sp,r0
        0x000000d0:    e2400501    ..@.    SUB      r0,r0,#0x400000
        0x000000d4:    e321f0d3    ..!.    MSR      CPSR_c,#0xd3
        0x000000d8:    e1a0d000    ....    MOV      sp,r0
        0x000000dc:    e2400903    ..@.    SUB      r0,r0,#0xc000
        0x000000e0:    ee110f10    ....    MRC      p15,#0x0,r0,c1,c0,#0
        0x000000e4:    e3c00a02    ....    BIC      r0,r0,#0x2000
        0x000000e8:    ee010f10    ....    MCR      p15,#0x0,r0,c1,c0,#0
        0x000000ec:    ea000002    ....    B        __main ; 0xfc
    $d
        0x000000f0:    b8002138    8!..    DCD    3087016248
        0x000000f4:    b800213c    <!..    DCD    3087016252
        0x000000f8:    b0001800    ....    DCD    2952796160
    $a
    !!!main
    __main
        0x000000fc:    eb000000    ....    BL       __scatterload ; 0x104
        0x00000100:    eb000075    u...    BL       __rt_entry ; 0x2dc
    !!!scatter
    __scatterload
    __scatterload_rt2
        0x00000104:    e28f002c    ,...    ADR      r0,{pc}+0x34 ; 0x138
        0x00000108:    e8900c00    ....    LDM      r0,{r10,r11}
        0x0000010c:    e08aa000    ....    ADD      r10,r10,r0
        0x00000110:    e08bb000    ....    ADD      r11,r11,r0
        0x00000114:    e24a7001    .pJ.    SUB      r7,r10,#1
    __scatterload_null
        0x00000118:    e15a000b    ..Z.    CMP      r10,r11
        0x0000011c:    1a000000    ....    BNE      0x124 ; __scatterload_null + 12
        0x00000120:    eb00006d    m...    BL       __rt_entry ; 0x2dc
        0x00000124:    e8ba000f    ....    LDM      r10!,{r0-r3}
        0x00000128:    e24fe018    ..O.    ADR      lr,{pc}-0x10 ; 0x118
        0x0000012c:    e3130001    ....    TST      r3,#1
        0x00000130:    1047f003    ..G.    SUBNE    pc,r7,r3
        0x00000134:    e12fff13    ../.    BX       r3
    $d
        0x00000138:    0000d144    D...    DCD    53572
        0x0000013c:    0000d174    t...    DCD    53620
    $a
    !!dczerorl2
    __decompress
    __decompress1
        0x00000140:    e28fc001    ....    ADR      r12,{pc}+9 ; 0x149
        0x00000144:    e12fff1c    ../.    BX       r12
    $t
        0x00000148:    188a        ..      ADDS     r2,r1,r2
    _decompress_loop
        0x0000014a:    7803        .x      LDRB     r3,[r0,#0]
        0x0000014c:    3001        .0      ADDS     r0,#1
        0x0000014e:    075c        \.      LSLS     r4,r3,#29
        0x00000150:    0f64        d.      LSRS     r4,r4,#29
        0x00000152:    d101        ..      BNE      _decompress_zerolen ; 0x158
        0x00000154:    7804        .x      LDRB     r4,[r0,#0]
        0x00000156:    3001        .0      ADDS     r0,#1
    _decompress_zerolen
        0x00000158:    111d        ..      ASRS     r5,r3,#4
        0x0000015a:    d101        ..      BNE      _decompress_litn ; 0x160
        0x0000015c:    7805        .x      LDRB     r5,[r0,#0]
        0x0000015e:    3001        .0      ADDS     r0,#1
    _decompress_litn
        0x00000160:    3c01        .<      SUBS     r4,#1
        0x00000162:    d005        ..      BEQ      _decompress_copyorzero ; 0x170
    _decompress_lit
        0x00000164:    7806        .x      LDRB     r6,[r0,#0]
        0x00000166:    3001        .0      ADDS     r0,#1
        0x00000168:    700e        .p      STRB     r6,[r1,#0]
        0x0000016a:    3101        .1      ADDS     r1,#1
        0x0000016c:    3c01        .<      SUBS     r4,#1
        0x0000016e:    d1f9        ..      BNE      _decompress_lit ; 0x164
    _decompress_copyorzero
        0x00000170:    071e        ..      LSLS     r6,r3,#28
        0x00000172:    d406        ..      BMI      _decompress_copyn ; 0x182
        0x00000174:    1c2e        ..      ADDS     r6,r5,#0
        0x00000176:    d00e        ..      BEQ      _decompress_end ; 0x196
    _decompress_zero
        0x00000178:    3e01        .>      SUBS     r6,#1
        0x0000017a:    558c        .U      STRB     r4,[r1,r6]
        0x0000017c:    d1fc        ..      BNE      _decompress_zero ; 0x178
        0x0000017e:    1949        I.      ADDS     r1,r1,r5
        0x00000180:    e009        ..      B        _decompress_end ; 0x196
    _decompress_copyn
        0x00000182:    7804        .x      LDRB     r4,[r0,#0]
        0x00000184:    3001        .0      ADDS     r0,#1
        0x00000186:    1b0c        ..      SUBS     r4,r1,r4
        0x00000188:    3501        .5      ADDS     r5,#1
    _decompress_copy
        0x0000018a:    7826        &x      LDRB     r6,[r4,#0]
        0x0000018c:    3401        .4      ADDS     r4,#1
        0x0000018e:    700e        .p      STRB     r6,[r1,#0]
        0x00000190:    3101        .1      ADDS     r1,#1
        0x00000192:    3d01        .=      SUBS     r5,#1
        0x00000194:    d5f9        ..      BPL      _decompress_copy ; 0x18a
    _decompress_end
        0x00000196:    4291        .B      CMP      r1,r2
        0x00000198:    d3d7        ..      BCC      _decompress_loop ; 0x14a
        0x0000019a:    4770        pG      BX       lr
    $a
    !!handler_copy
    __scatterload_copy
        0x0000019c:    e2522010    . R.    SUBS     r2,r2,#0x10
        0x000001a0:    28b00078    x..(    LDMCS    r0!,{r3-r6}
        0x000001a4:    28a10078    x..(    STMCS    r1!,{r3-r6}
        0x000001a8:    8afffffb    ....    BHI      __scatterload_copy ; 0x19c
        0x000001ac:    e1b02e82    ....    LSLS     r2,r2,#29
        0x000001b0:    28b00030    0..(    LDMCS    r0!,{r4,r5}
        0x000001b4:    28a10030    0..(    STMCS    r1!,{r4,r5}
        0x000001b8:    45904000    .@.E    LDRMI    r4,[r0,#0]
        0x000001bc:    45814000    .@.E    STRMI    r4,[r1,#0]
        0x000001c0:    e12fff1e    ../.    BX       lr
    !!handler_zi
    __scatterload_zeroinit
        0x000001c4:    e3b03000    .0..    MOVS     r3,#0
        0x000001c8:    e3b04000    .@..    MOVS     r4,#0
        0x000001cc:    e3b05000    .P..    MOVS     r5,#0
        0x000001d0:    e3b06000    .`..    MOVS     r6,#0
        0x000001d4:    e2522010    . R.    SUBS     r2,r2,#0x10
        0x000001d8:    28a10078    x..(    STMCS    r1!,{r3-r6}
        0x000001dc:    8afffffc    ....    BHI      0x1d4 ; __scatterload_zeroinit + 16
        0x000001e0:    e1b02e82    ....    LSLS     r2,r2,#29
        0x000001e4:    28a10030    0..(    STMCS    r1!,{r4,r5}
        0x000001e8:    45813000    .0.E    STRMI    r3,[r1,#0]
        0x000001ec:    e12fff1e    ../.    BX       lr
    .ARM.Collect$$_printf_percent$$00000000
    .ARM.Collect$$_printf_percent$$00000001
    _printf_n
    _printf_percent
        0x000001f0:    e351006e    n.Q.    CMP      r1,#0x6e
        0x000001f4:    0a0002ed    ....    BEQ      $Ven$AT$I$$_printf_charcount ; 0xdb0
    .ARM.Collect$$_printf_percent$$00000002
    _printf_p
        0x000001f8:    e3510070    p.Q.    CMP      r1,#0x70
        0x000001fc:    0a0000ce    ....    BEQ      $Ven$AT$I$$_printf_hex_ptr ; 0x53c
    .ARM.Collect$$_printf_percent$$00000003
    _printf_f
        0x00000200:    e3510066    f.Q.    CMP      r1,#0x66
        0x00000204:    0a003249    I2..    BEQ      _printf_fp_dec ; 0xcb30
    .ARM.Collect$$_printf_percent$$00000004
    _printf_e
        0x00000208:    e3510065    e.Q.    CMP      r1,#0x65
        0x0000020c:    0a003247    G2..    BEQ      _printf_fp_dec ; 0xcb30
    .ARM.Collect$$_printf_percent$$00000005
    _printf_g
        0x00000210:    e3510067    g.Q.    CMP      r1,#0x67
        0x00000214:    0a003245    E2..    BEQ      _printf_fp_dec ; 0xcb30
    .ARM.Collect$$_printf_percent$$00000006
    _printf_a
        0x00000218:    e3510061    a.Q.    CMP      r1,#0x61
        0x0000021c:    0a003244    D2..    BEQ      _printf_fp_hex ; 0xcb34
    .ARM.Collect$$_printf_percent$$00000007
    _printf_ll
        0x00000220:    e5903000    .0..    LDR      r3,[r0,#0]
        0x00000224:    e1b03423    #4..    LSRS     r3,r3,#8
        0x00000228:    23811080    ...#    ORRCS    r1,r1,#0x80
    .ARM.Collect$$_printf_percent$$00000008
    _printf_i
        0x0000022c:    e3510069    i.Q.    CMP      r1,#0x69
        0x00000230:    0a0000a4    ....    BEQ      $Ven$AT$I$$_printf_int_dec ; 0x4c8
    .ARM.Collect$$_printf_percent$$00000009
    _printf_d
        0x00000234:    e3510064    d.Q.    CMP      r1,#0x64
        0x00000238:    0a0000a2    ....    BEQ      $Ven$AT$I$$_printf_int_dec ; 0x4c8
    .ARM.Collect$$_printf_percent$$0000000A
    _printf_u
        0x0000023c:    e3510075    u.Q.    CMP      r1,#0x75
        0x00000240:    0a0000a0    ....    BEQ      $Ven$AT$I$$_printf_int_dec ; 0x4c8
    .ARM.Collect$$_printf_percent$$0000000B
    _printf_o
        0x00000244:    e351006f    o.Q.    CMP      r1,#0x6f
        0x00000248:    0a00034e    N...    BEQ      $Ven$AT$I$$_printf_int_oct ; 0xf88
    .ARM.Collect$$_printf_percent$$0000000C
    _printf_x
        0x0000024c:    e3510078    x.Q.    CMP      r1,#0x78
        0x00000250:    0a000836    6...    BEQ      $Ven$AT$L$$_printf_int_hex ; 0x2330
    .ARM.Collect$$_printf_percent$$0000000D
    _printf_lli
        0x00000254:    e35100e9    ..Q.    CMP      r1,#0xe9
        0x00000258:    0a00032c    ,...    BEQ      $Ven$AT$I$$_printf_longlong_dec ; 0xf10
    .ARM.Collect$$_printf_percent$$0000000E
    _printf_lld
        0x0000025c:    e35100e4    ..Q.    CMP      r1,#0xe4
        0x00000260:    0a00032a    *...    BEQ      $Ven$AT$I$$_printf_longlong_dec ; 0xf10
    .ARM.Collect$$_printf_percent$$0000000F
    _printf_llu
        0x00000264:    e35100f5    ..Q.    CMP      r1,#0xf5
        0x00000268:    0a000328    (...    BEQ      $Ven$AT$I$$_printf_longlong_dec ; 0xf10
    .ARM.Collect$$_printf_percent$$00000010
    _printf_llo
        0x0000026c:    e35100ef    ..Q.    CMP      r1,#0xef
        0x00000270:    0a000830    0...    BEQ      $Ven$AT$L$$_printf_ll_oct ; 0x2338
    .ARM.Collect$$_printf_percent$$00000011
    _printf_llx
        0x00000274:    e35100f8    ..Q.    CMP      r1,#0xf8
        0x00000278:    0a000830    0...    BEQ      $Ven$AT$L$$_printf_ll_hex ; 0x2340
    .ARM.Collect$$_printf_percent$$00000012
    _printf_l
        0x0000027c:    e5903000    .0..    LDR      r3,[r0,#0]
        0x00000280:    e1b033a3    .3..    LSRS     r3,r3,#7
        0x00000284:    23811080    ...#    ORRCS    r1,r1,#0x80
    .ARM.Collect$$_printf_percent$$00000013
    _printf_c
        0x00000288:    e3510063    c.Q.    CMP      r1,#0x63
        0x0000028c:    0a0002e2    ....    BEQ      $Ven$AT$I$$_printf_char ; 0xe1c
    .ARM.Collect$$_printf_percent$$00000014
    _printf_s
        0x00000290:    e3510073    s.Q.    CMP      r1,#0x73
        0x00000294:    0a00082b    +...    BEQ      $Ven$AT$L$$_printf_string ; 0x2348
    .ARM.Collect$$_printf_percent$$00000015
    _printf_lc
        0x00000298:    e35100e3    ..Q.    CMP      r1,#0xe3
        0x0000029c:    0a000552    R...    BEQ      $Ven$AT$I$$_printf_wchar ; 0x17ec
    .ARM.Collect$$_printf_percent$$00000016
    _printf_ls
        0x000002a0:    e35100f3    ..Q.    CMP      r1,#0xf3
        0x000002a4:    0a000829    )...    BEQ      $Ven$AT$L$$_printf_wstring ; 0x2350
    .ARM.Collect$$_printf_percent$$00000017
    _printf_percent_end
        0x000002a8:    e3b00000    ....    MOVS     r0,#0
        0x000002ac:    e12fff1e    ../.    BX       lr
    $t
    .ARM.Collect$$libinit$$00000000
    __rt_lib_init
        0x000002b0:    b51f        ..      PUSH     {r0-r4,lr}
    .ARM.Collect$$libinit$$00000002
    .ARM.Collect$$libinit$$00000004
    .ARM.Collect$$libinit$$00000005
    __rt_lib_init_fp_1
    __rt_lib_init_heap_2
    __rt_lib_init_preinit_1
        0x000002b2:    9800        ..      LDR      r0,[sp,#0]
        0x000002b4:    9901        ..      LDR      r1,[sp,#4]
        0x000002b6:    f000fcd8    ....    BL       _init_alloc ; 0xc6a
    .ARM.Collect$$libinit$$0000000A
    .ARM.Collect$$libinit$$0000000C
    .ARM.Collect$$libinit$$0000000E
    .ARM.Collect$$libinit$$0000000F
    __rt_lib_init_heap_1
    __rt_lib_init_lc_common
    __rt_lib_init_rand_1
    __rt_lib_init_user_alloc_1
        0x000002ba:    f001eb0c    ....    BLX      __rt_locale ; 0x18d4
        0x000002be:    0004        ..      MOVS     r4,r0
    .ARM.Collect$$libinit$$00000011
    .ARM.Collect$$libinit$$00000012
    __rt_lib_init_lc_collate_1
    __rt_lib_init_lc_ctype_2
        0x000002c0:    2000        .       MOVS     r0,#0
        0x000002c2:    2100        .!      MOVS     r1,#0
        0x000002c4:    f00beff6    ....    BLX      _get_lc_ctype ; 0xc2b4
        0x000002c8:    1c40        @.      ADDS     r0,r0,#1
        0x000002ca:    6060        ``      STR      r0,[r4,#4]
    .ARM.Collect$$libinit$$00000013
    .ARM.Collect$$libinit$$00000015
    .ARM.Collect$$libinit$$00000016
    __rt_lib_init_lc_ctype_1
    __rt_lib_init_lc_monetary_1
    __rt_lib_init_lc_numeric_2
        0x000002cc:    2000        .       MOVS     r0,#0
        0x000002ce:    2100        .!      MOVS     r1,#0
        0x000002d0:    f00befcc    ....    BLX      _get_lc_numeric ; 0xc26c
        0x000002d4:    60e0        .`      STR      r0,[r4,#0xc]
    .ARM.Collect$$libinit$$00000017
    .ARM.Collect$$libinit$$00000019
    .ARM.Collect$$libinit$$0000001B
    .ARM.Collect$$libinit$$0000001D
    .ARM.Collect$$libinit$$0000001F
    .ARM.Collect$$libinit$$00000021
    .ARM.Collect$$libinit$$00000023
    .ARM.Collect$$libinit$$00000025
    .ARM.Collect$$libinit$$0000002C
    .ARM.Collect$$libinit$$0000002E
    .ARM.Collect$$libinit$$00000030
    .ARM.Collect$$libinit$$00000032
    .ARM.Collect$$libinit$$00000033
    __rt_lib_init_alloca_1
    __rt_lib_init_argv_1
    __rt_lib_init_atexit_1
    __rt_lib_init_clock_1
    __rt_lib_init_cpp_1
    __rt_lib_init_exceptions_1
    __rt_lib_init_fp_trap_1
    __rt_lib_init_getenv_1
    __rt_lib_init_lc_numeric_1
    __rt_lib_init_lc_time_1
    __rt_lib_init_return
    __rt_lib_init_signal_1
    __rt_lib_init_stdio_1
        0x000002d6:    bd1f        ..      POP      {r0-r4,pc}
    .ARM.Collect$$libshutdown$$00000000
    __rt_lib_shutdown
        0x000002d8:    b510        ..      PUSH     {r4,lr}
    .ARM.Collect$$libshutdown$$00000002
    .ARM.Collect$$libshutdown$$00000004
    .ARM.Collect$$libshutdown$$00000007
    .ARM.Collect$$libshutdown$$0000000A
    .ARM.Collect$$libshutdown$$0000000C
    .ARM.Collect$$libshutdown$$0000000F
    .ARM.Collect$$libshutdown$$00000010
    __rt_lib_shutdown_cpp_1
    __rt_lib_shutdown_fp_trap_1
    __rt_lib_shutdown_heap_1
    __rt_lib_shutdown_return
    __rt_lib_shutdown_signal_1
    __rt_lib_shutdown_stdio_1
    __rt_lib_shutdown_user_alloc_1
        0x000002da:    bd10        ..      POP      {r4,pc}
    $a
    .ARM.Collect$$rtentry$$00000000
    .ARM.Collect$$rtentry$$00000002
    .ARM.Collect$$rtentry$$00000004
    __rt_entry
    __rt_entry_presh_1
    __rt_entry_sh
        0x000002dc:    eb0018b9    ....    BL       __user_setup_stackheap ; 0x65c8
        0x000002e0:    e1a01002    ....    MOV      r1,r2
    .ARM.Collect$$rtentry$$00000009
    .ARM.Collect$$rtentry$$0000000A
    __rt_entry_li
    __rt_entry_postsh_1
        0x000002e4:    fafffff1    ....    BLX      __rt_lib_init ; 0x2b0
    .ARM.Collect$$rtentry$$0000000C
    .ARM.Collect$$rtentry$$0000000D
    __rt_entry_main
    __rt_entry_postli_1
        0x000002e8:    e59fc01c    ....    LDR      r12,[pc,#28] ; [0x30c] = 0x7d44
        0x000002ec:    e08cc00f    ....    ADD      r12,r12,pc
        0x000002f0:    e31c0001    ....    TST      r12,#1
        0x000002f4:    128fe00d    ....    ADRNE    lr,{pc}+0x15 ; 0x309
        0x000002f8:    01a0e00f    ....    MOVEQ    lr,pc
        0x000002fc:    e12fff1c    ../.    BX       r12
        0x00000300:    e28fc001    ....    ADR      r12,{pc}+9 ; 0x309
        0x00000304:    e12fff1c    ../.    BX       r12
    $t
        0x00000308:    f001fb9a    ....    BL       exit ; 0x1a40
    $d
        0x0000030c:    00007d44    D}..    DCD    32068
    $a
    .ARM.Collect$$rtexit$$00000000
    __rt_exit
        0x00000310:    e92d0003    ..-.    PUSH     {r0,r1}
    .ARM.Collect$$rtexit$$00000002
    .ARM.Collect$$rtexit$$00000003
    __rt_exit_ls
    __rt_exit_prels_1
        0x00000314:    faffffef    ....    BLX      __rt_lib_shutdown ; 0x2d8
    .ARM.Collect$$rtexit$$00000004
    __rt_exit_exit
        0x00000318:    e8bd0003    ....    POP      {r0,r1}
        0x0000031c:    eb0018b5    ....    BL       _sys_exit ; 0x65f8
    $t
    .text
    .emb_text
    _maybe_terminate_alloc
    malloc
        0x00000320:    b570        p.      PUSH     {r4-r6,lr}
        0x00000322:    0006        ..      MOVS     r6,r0
        0x00000324:    f000ec82    ....    BLX      __rt_heap_descriptor ; 0xc2c
        0x00000328:    6805        .h      LDR      r5,[r0,#0]
        0x0000032a:    0030        0.      MOVS     r0,r6
        0x0000032c:    300b        .0      ADDS     r0,r0,#0xb
        0x0000032e:    08c4        ..      LSRS     r4,r0,#3
        0x00000330:    00e4        ..      LSLS     r4,r4,#3
        0x00000332:    42b4        .B      CMP      r4,r6
        0x00000334:    d801        ..      BHI      0x33a ; _maybe_terminate_alloc + 26
        0x00000336:    2000        .       MOVS     r0,#0
        0x00000338:    bd70        p.      POP      {r4-r6,pc}
        0x0000033a:    6868        hh      LDR      r0,[r5,#4]
        0x0000033c:    002a        *.      MOVS     r2,r5
        0x0000033e:    2800        .(      CMP      r0,#0
        0x00000340:    d018        ..      BEQ      0x374 ; _maybe_terminate_alloc + 84
        0x00000342:    6801        .h      LDR      r1,[r0,#0]
        0x00000344:    42a1        .B      CMP      r1,r4
        0x00000346:    d311        ..      BCC      0x36c ; _maybe_terminate_alloc + 76
        0x00000348:    000b        ..      MOVS     r3,r1
        0x0000034a:    0021        !.      MOVS     r1,r4
        0x0000034c:    3108        .1      ADDS     r1,r1,#8
        0x0000034e:    428b        .B      CMP      r3,r1
        0x00000350:    d308        ..      BCC      0x364 ; _maybe_terminate_alloc + 68
        0x00000352:    6843        Ch      LDR      r3,[r0,#4]
        0x00000354:    1901        ..      ADDS     r1,r0,r4
        0x00000356:    604b        K`      STR      r3,[r1,#4]
        0x00000358:    6803        .h      LDR      r3,[r0,#0]
        0x0000035a:    1b1b        ..      SUBS     r3,r3,r4
        0x0000035c:    600b        .`      STR      r3,[r1,#0]
        0x0000035e:    6051        Q`      STR      r1,[r2,#4]
        0x00000360:    6004        .`      STR      r4,[r0,#0]
        0x00000362:    e001        ..      B        0x368 ; _maybe_terminate_alloc + 72
        0x00000364:    6841        Ah      LDR      r1,[r0,#4]
        0x00000366:    6051        Q`      STR      r1,[r2,#4]
        0x00000368:    1d00        ..      ADDS     r0,r0,#4
        0x0000036a:    bd70        p.      POP      {r4-r6,pc}
        0x0000036c:    0002        ..      MOVS     r2,r0
        0x0000036e:    6840        @h      LDR      r0,[r0,#4]
        0x00000370:    2800        .(      CMP      r0,#0
        0x00000372:    d1e6        ..      BNE      0x342 ; _maybe_terminate_alloc + 34
        0x00000374:    0021        !.      MOVS     r1,r4
        0x00000376:    0028        (.      MOVS     r0,r5
        0x00000378:    f000fc62    ..b.    BL       __Heap_Full ; 0xc40
        0x0000037c:    2800        .(      CMP      r0,#0
        0x0000037e:    d1dc        ..      BNE      0x33a ; _maybe_terminate_alloc + 26
        0x00000380:    bd70        p.      POP      {r4-r6,pc}
    .text
    free
        0x00000382:    b570        p.      PUSH     {r4-r6,lr}
        0x00000384:    0004        ..      MOVS     r4,r0
        0x00000386:    1f05        ..      SUBS     r5,r0,#4
        0x00000388:    f000ec50    ..P.    BLX      __rt_heap_descriptor ; 0xc2c
        0x0000038c:    6800        .h      LDR      r0,[r0,#0]
        0x0000038e:    2c00        .,      CMP      r4,#0
        0x00000390:    d01a        ..      BEQ      0x3c8 ; free + 70
        0x00000392:    6844        Dh      LDR      r4,[r0,#4]
        0x00000394:    e001        ..      B        0x39a ; free + 24
        0x00000396:    0020         .      MOVS     r0,r4
        0x00000398:    6864        dh      LDR      r4,[r4,#4]
        0x0000039a:    2c00        .,      CMP      r4,#0
        0x0000039c:    d001        ..      BEQ      0x3a2 ; free + 32
        0x0000039e:    42ac        .B      CMP      r4,r5
        0x000003a0:    d3f9        ..      BCC      0x396 ; free + 20
        0x000003a2:    6801        .h      LDR      r1,[r0,#0]
        0x000003a4:    180a        ..      ADDS     r2,r1,r0
        0x000003a6:    42aa        .B      CMP      r2,r5
        0x000003a8:    d104        ..      BNE      0x3b4 ; free + 50
        0x000003aa:    682a        *h      LDR      r2,[r5,#0]
        0x000003ac:    1889        ..      ADDS     r1,r1,r2
        0x000003ae:    0005        ..      MOVS     r5,r0
        0x000003b0:    6001        .`      STR      r1,[r0,#0]
        0x000003b2:    e000        ..      B        0x3b6 ; free + 52
        0x000003b4:    6045        E`      STR      r5,[r0,#4]
        0x000003b6:    6828        (h      LDR      r0,[r5,#0]
        0x000003b8:    1941        A.      ADDS     r1,r0,r5
        0x000003ba:    42a1        .B      CMP      r1,r4
        0x000003bc:    d105        ..      BNE      0x3ca ; free + 72
        0x000003be:    6861        ah      LDR      r1,[r4,#4]
        0x000003c0:    6069        i`      STR      r1,[r5,#4]
        0x000003c2:    6821        !h      LDR      r1,[r4,#0]
        0x000003c4:    1840        @.      ADDS     r0,r0,r1
        0x000003c6:    6028        (`      STR      r0,[r5,#0]
        0x000003c8:    bd70        p.      POP      {r4-r6,pc}
        0x000003ca:    606c        l`      STR      r4,[r5,#4]
        0x000003cc:    bd70        p.      POP      {r4-r6,pc}
        0x000003ce:    0000        ..      MOVS     r0,r0
    .text
    vsprintf
        0x000003d0:    b51c        ..      PUSH     {r2-r4,lr}
        0x000003d2:    4b07        .K      LDR      r3,[pc,#28] ; [0x3f0] = 0xa37
        0x000003d4:    000c        ..      MOVS     r4,r1
        0x000003d6:    447b        {D      ADD      r3,r3,pc
        0x000003d8:    4669        iF      MOV      r1,sp
        0x000003da:    9000        ..      STR      r0,[sp,#0]
        0x000003dc:    0020         .      MOVS     r0,r4
        0x000003de:    f000fd04    ....    BL       _printf_char_common ; 0xdea
        0x000003e2:    0004        ..      MOVS     r4,r0
        0x000003e4:    4669        iF      MOV      r1,sp
        0x000003e6:    2000        .       MOVS     r0,#0
        0x000003e8:    f000fd12    ....    BL       _sputc ; 0xe10
        0x000003ec:    0020         .      MOVS     r0,r4
        0x000003ee:    bd1c        ..      POP      {r2-r4,pc}
    $d
        0x000003f0:    00000a37    7...    DCD    2615
    $a
    $Ven$AT$I$$__2sprintf
        0x000003f4:    e28fc001    ....    ADR      r12,{pc}+9 ; 0x3fd
        0x000003f8:    e12fff1c    ../.    BX       r12
    $t
    .text
    __2sprintf
        0x000003fc:    b40f        ..      PUSH     {r0-r3}
        0x000003fe:    b51c        ..      PUSH     {r2-r4,lr}
        0x00000400:    4b08        .K      LDR      r3,[pc,#32] ; [0x424] = 0xa09
        0x00000402:    aa06        ..      ADD      r2,sp,#0x18
        0x00000404:    447b        {D      ADD      r3,r3,pc
        0x00000406:    4669        iF      MOV      r1,sp
        0x00000408:    9000        ..      STR      r0,[sp,#0]
        0x0000040a:    9805        ..      LDR      r0,[sp,#0x14]
        0x0000040c:    f000fced    ....    BL       _printf_char_common ; 0xdea
        0x00000410:    0004        ..      MOVS     r4,r0
        0x00000412:    4669        iF      MOV      r1,sp
        0x00000414:    2000        .       MOVS     r0,#0
        0x00000416:    f000fcfb    ....    BL       _sputc ; 0xe10
        0x0000041a:    0020         .      MOVS     r0,r4
        0x0000041c:    bc1c        ..      POP      {r2-r4}
        0x0000041e:    bc08        ..      POP      {r3}
        0x00000420:    b004        ..      ADD      sp,sp,#0x10
        0x00000422:    4718        .G      BX       r3
    $d
        0x00000424:    00000a09    ....    DCD    2569
    $t
    .text
    _printf_pre_padding
        0x00000428:    b570        p.      PUSH     {r4-r6,lr}
        0x0000042a:    6985        .i      LDR      r5,[r0,#0x18]
        0x0000042c:    0004        ..      MOVS     r4,r0
        0x0000042e:    6800        .h      LDR      r0,[r0,#0]
        0x00000430:    06c1        ..      LSLS     r1,r0,#27
        0x00000432:    d501        ..      BPL      0x438 ; _printf_pre_padding + 16
        0x00000434:    2630        0&      MOVS     r6,#0x30
        0x00000436:    e000        ..      B        0x43a ; _printf_pre_padding + 18
        0x00000438:    2620         &      MOVS     r6,#0x20
        0x0000043a:    07c0        ..      LSLS     r0,r0,#31
        0x0000043c:    d007        ..      BEQ      0x44e ; _printf_pre_padding + 38
        0x0000043e:    bd70        p.      POP      {r4-r6,pc}
        0x00000440:    6862        bh      LDR      r2,[r4,#4]
        0x00000442:    68a1        .h      LDR      r1,[r4,#8]
        0x00000444:    0030        0.      MOVS     r0,r6
        0x00000446:    4790        .G      BLX      r2
        0x00000448:    6a20         j      LDR      r0,[r4,#0x20]
        0x0000044a:    1c40        @.      ADDS     r0,r0,#1
        0x0000044c:    6220         b      STR      r0,[r4,#0x20]
        0x0000044e:    1e6d        m.      SUBS     r5,r5,#1
        0x00000450:    d5f6        ..      BPL      0x440 ; _printf_pre_padding + 24
        0x00000452:    bd70        p.      POP      {r4-r6,pc}
    _printf_post_padding
        0x00000454:    b570        p.      PUSH     {r4-r6,lr}
        0x00000456:    6985        .i      LDR      r5,[r0,#0x18]
        0x00000458:    0004        ..      MOVS     r4,r0
        0x0000045a:    7800        .x      LDRB     r0,[r0,#0]
        0x0000045c:    07c0        ..      LSLS     r0,r0,#31
        0x0000045e:    d107        ..      BNE      0x470 ; _printf_post_padding + 28
        0x00000460:    bd70        p.      POP      {r4-r6,pc}
        0x00000462:    6862        bh      LDR      r2,[r4,#4]
        0x00000464:    68a1        .h      LDR      r1,[r4,#8]
        0x00000466:    2020                MOVS     r0,#0x20
        0x00000468:    4790        .G      BLX      r2
        0x0000046a:    6a20         j      LDR      r0,[r4,#0x20]
        0x0000046c:    1c40        @.      ADDS     r0,r0,#1
        0x0000046e:    6220         b      STR      r0,[r4,#0x20]
        0x00000470:    1e6d        m.      SUBS     r5,r5,#1
        0x00000472:    d5f6        ..      BPL      0x462 ; _printf_post_padding + 14
        0x00000474:    bd70        p.      POP      {r4-r6,pc}
    .text
    _printf_str
        0x00000476:    b570        p.      PUSH     {r4-r6,lr}
        0x00000478:    000c        ..      MOVS     r4,r1
        0x0000047a:    0005        ..      MOVS     r5,r0
        0x0000047c:    2a01        .*      CMP      r2,#1
        0x0000047e:    d005        ..      BEQ      0x48c ; _printf_str + 22
        0x00000480:    7828        (x      LDRB     r0,[r5,#0]
        0x00000482:    0680        ..      LSLS     r0,r0,#26
        0x00000484:    d500        ..      BPL      0x488 ; _printf_str + 18
        0x00000486:    69ea        .i      LDR      r2,[r5,#0x1c]
        0x00000488:    2300        .#      MOVS     r3,#0
        0x0000048a:    e002        ..      B        0x492 ; _printf_str + 28
        0x0000048c:    2301        .#      MOVS     r3,#1
        0x0000048e:    e005        ..      B        0x49c ; _printf_str + 38
        0x00000490:    1c5b        [.      ADDS     r3,r3,#1
        0x00000492:    4293        .B      CMP      r3,r2
        0x00000494:    d202        ..      BCS      0x49c ; _printf_str + 38
        0x00000496:    5ce0        .\      LDRB     r0,[r4,r3]
        0x00000498:    2800        .(      CMP      r0,#0
        0x0000049a:    d1f9        ..      BNE      0x490 ; _printf_str + 26
        0x0000049c:    69a8        .i      LDR      r0,[r5,#0x18]
        0x0000049e:    18e6        ..      ADDS     r6,r4,r3
        0x000004a0:    1ac0        ..      SUBS     r0,r0,r3
        0x000004a2:    61a8        .a      STR      r0,[r5,#0x18]
        0x000004a4:    6a28        (j      LDR      r0,[r5,#0x20]
        0x000004a6:    18c0        ..      ADDS     r0,r0,r3
        0x000004a8:    6228        (b      STR      r0,[r5,#0x20]
        0x000004aa:    0028        (.      MOVS     r0,r5
        0x000004ac:    f7ffffbc    ....    BL       _printf_pre_padding ; 0x428
        0x000004b0:    e004        ..      B        0x4bc ; _printf_str + 70
        0x000004b2:    686a        jh      LDR      r2,[r5,#4]
        0x000004b4:    7820         x      LDRB     r0,[r4,#0]
        0x000004b6:    68a9        .h      LDR      r1,[r5,#8]
        0x000004b8:    1c64        d.      ADDS     r4,r4,#1
        0x000004ba:    4790        .G      BLX      r2
        0x000004bc:    42b4        .B      CMP      r4,r6
        0x000004be:    d3f8        ..      BCC      0x4b2 ; _printf_str + 60
        0x000004c0:    0028        (.      MOVS     r0,r5
        0x000004c2:    f7ffffc7    ....    BL       _printf_post_padding ; 0x454
        0x000004c6:    bd70        p.      POP      {r4-r6,pc}
    $a
    $Ven$AT$I$$_printf_int_dec
        0x000004c8:    e28fc001    ....    ADR      r12,{pc}+9 ; 0x4d1
        0x000004cc:    e12fff1c    ../.    BX       r12
    $t
    .text
    _printf_int_dec
        0x000004d0:    b5f7        ..      PUSH     {r0-r2,r4-r7,lr}
        0x000004d2:    2500        .%      MOVS     r5,#0
        0x000004d4:    2975        u)      CMP      r1,#0x75
        0x000004d6:    6810        .h      LDR      r0,[r2,#0]
        0x000004d8:    9900        ..      LDR      r1,[sp,#0]
        0x000004da:    a614        ..      ADR      r6,{pc}+0x52 ; 0x52c
        0x000004dc:    d011        ..      BEQ      0x502 ; _printf_int_dec + 50
        0x000004de:    f000fbf8    ....    BL       _printf_truncate_signed ; 0xcd2
        0x000004e2:    2800        .(      CMP      r0,#0
        0x000004e4:    da02        ..      BGE      0x4ec ; _printf_int_dec + 28
        0x000004e6:    4240        @B      RSBS     r0,r0,#0
        0x000004e8:    a611        ..      ADR      r6,{pc}+0x48 ; 0x530
        0x000004ea:    e008        ..      B        0x4fe ; _printf_int_dec + 46
        0x000004ec:    9900        ..      LDR      r1,[sp,#0]
        0x000004ee:    6809        .h      LDR      r1,[r1,#0]
        0x000004f0:    078a        ..      LSLS     r2,r1,#30
        0x000004f2:    d501        ..      BPL      0x4f8 ; _printf_int_dec + 40
        0x000004f4:    a60f        ..      ADR      r6,{pc}+0x40 ; 0x534
        0x000004f6:    e002        ..      B        0x4fe ; _printf_int_dec + 46
        0x000004f8:    0749        I.      LSLS     r1,r1,#29
        0x000004fa:    d504        ..      BPL      0x506 ; _printf_int_dec + 54
        0x000004fc:    a60e        ..      ADR      r6,{pc}+0x3c ; 0x538
        0x000004fe:    2501        .%      MOVS     r5,#1
        0x00000500:    e001        ..      B        0x506 ; _printf_int_dec + 54
        0x00000502:    f000fbf1    ....    BL       _printf_truncate_unsigned ; 0xce8
        0x00000506:    9f00        ..      LDR      r7,[sp,#0]
        0x00000508:    2400        .$      MOVS     r4,#0
        0x0000050a:    3724        $7      ADDS     r7,r7,#0x24
        0x0000050c:    e004        ..      B        0x518 ; _printf_int_dec + 72
        0x0000050e:    f000ed78    ..x.    BLX      __rt_udiv10 ; 0x1000
        0x00000512:    3130        01      ADDS     r1,r1,#0x30
        0x00000514:    5539        9U      STRB     r1,[r7,r4]
        0x00000516:    1c64        d.      ADDS     r4,r4,#1
        0x00000518:    2800        .(      CMP      r0,#0
        0x0000051a:    d1f8        ..      BNE      0x50e ; _printf_int_dec + 62
        0x0000051c:    9800        ..      LDR      r0,[sp,#0]
        0x0000051e:    002b        +.      MOVS     r3,r5
        0x00000520:    0032        2.      MOVS     r2,r6
        0x00000522:    0021        !.      MOVS     r1,r4
        0x00000524:    f000fbeb    ....    BL       _printf_int_common ; 0xcfe
        0x00000528:    bdfe        ..      POP      {r1-r7,pc}
    $d
        0x0000052a:    0000        ..      DCW    0
        0x0000052c:    00000000    ....    DCD    0
        0x00000530:    0000002d    -...    DCD    45
        0x00000534:    0000002b    +...    DCD    43
        0x00000538:    00000020     ...    DCD    32
    $a
    $Ven$AT$I$$_printf_hex_ptr
        0x0000053c:    e28fc07f    ....    ADR      r12,{pc}+0x87 ; 0x5c3
        0x00000540:    e12fff1c    ../.    BX       r12
    $t
    .text
    _printf_hex_common
    _printf_longlong_hex
        0x00000544:    b5f8        ..      PUSH     {r3-r7,lr}
        0x00000546:    000f        ..      MOVS     r7,r1
        0x00000548:    8801        ..      LDRH     r1,[r0,#0]
        0x0000054a:    0509        ..      LSLS     r1,r1,#20
        0x0000054c:    d502        ..      BPL      0x554 ; _printf_hex_common + 16
        0x0000054e:    4c22        "L      LDR      r4,[pc,#136] ; [0x5d8] = 0xcbe0
        0x00000550:    447c        |D      ADD      r4,r4,pc
        0x00000552:    e002        ..      B        0x55a ; _printf_hex_common + 22
        0x00000554:    4c20         L      LDR      r4,[pc,#128] ; [0x5d8] = 0xcbe0
        0x00000556:    447c        |D      ADD      r4,r4,pc
        0x00000558:    340e        .4      ADDS     r4,r4,#0xe
        0x0000055a:    2100        .!      MOVS     r1,#0
        0x0000055c:    0005        ..      MOVS     r5,r0
        0x0000055e:    3524        $5      ADDS     r5,r5,#0x24
        0x00000560:    e008        ..      B        0x574 ; _printf_hex_common + 48
        0x00000562:    0716        ..      LSLS     r6,r2,#28
        0x00000564:    0912        ..      LSRS     r2,r2,#4
        0x00000566:    0f36        6.      LSRS     r6,r6,#28
        0x00000568:    5da6        .]      LDRB     r6,[r4,r6]
        0x0000056a:    546e        nT      STRB     r6,[r5,r1]
        0x0000056c:    071e        ..      LSLS     r6,r3,#28
        0x0000056e:    4332        2C      ORRS     r2,r2,r6
        0x00000570:    091b        ..      LSRS     r3,r3,#4
        0x00000572:    1c49        I.      ADDS     r1,r1,#1
        0x00000574:    0016        ..      MOVS     r6,r2
        0x00000576:    431e        .C      ORRS     r6,r6,r3
        0x00000578:    d1f3        ..      BNE      0x562 ; _printf_hex_common + 30
        0x0000057a:    0022        ".      MOVS     r2,r4
        0x0000057c:    7804        .x      LDRB     r4,[r0,#0]
        0x0000057e:    2300        .#      MOVS     r3,#0
        0x00000580:    0724        $.      LSLS     r4,r4,#28
        0x00000582:    d505        ..      BPL      0x590 ; _printf_hex_common + 76
        0x00000584:    2f70        p/      CMP      r7,#0x70
        0x00000586:    d006        ..      BEQ      0x596 ; _printf_hex_common + 82
        0x00000588:    2900        .)      CMP      r1,#0
        0x0000058a:    d001        ..      BEQ      0x590 ; _printf_hex_common + 76
        0x0000058c:    2302        .#      MOVS     r3,#2
        0x0000058e:    3211        .2      ADDS     r2,r2,#0x11
        0x00000590:    f000fbb5    ....    BL       _printf_int_common ; 0xcfe
        0x00000594:    bdf8        ..      POP      {r3-r7,pc}
        0x00000596:    2301        .#      MOVS     r3,#1
        0x00000598:    3210        .2      ADDS     r2,r2,#0x10
        0x0000059a:    e7f9        ..      B        0x590 ; _printf_hex_common + 76
    _printf_int_hex
        0x0000059c:    b570        p.      PUSH     {r4-r6,lr}
        0x0000059e:    0004        ..      MOVS     r4,r0
        0x000005a0:    000d        ..      MOVS     r5,r1
        0x000005a2:    6810        .h      LDR      r0,[r2,#0]
        0x000005a4:    0021        !.      MOVS     r1,r4
        0x000005a6:    f000fb9f    ....    BL       _printf_truncate_unsigned ; 0xce8
        0x000005aa:    0002        ..      MOVS     r2,r0
        0x000005ac:    2300        .#      MOVS     r3,#0
        0x000005ae:    0029        ).      MOVS     r1,r5
        0x000005b0:    0020         .      MOVS     r0,r4
        0x000005b2:    f7ffffc7    ....    BL       _printf_hex_common ; 0x544
        0x000005b6:    bd70        p.      POP      {r4-r6,pc}
    _printf_ll_hex
        0x000005b8:    1dd2        ..      ADDS     r2,r2,#7
        0x000005ba:    08d3        ..      LSRS     r3,r2,#3
        0x000005bc:    00db        ..      LSLS     r3,r3,#3
        0x000005be:    cb0c        ..      LDM      r3,{r2,r3}
        0x000005c0:    e7c0        ..      B        _printf_hex_common ; 0x544
    _printf_hex_ptr
        0x000005c2:    b430        0.      PUSH     {r4,r5}
        0x000005c4:    6803        .h      LDR      r3,[r0,#0]
        0x000005c6:    2420         $      MOVS     r4,#0x20
        0x000005c8:    6812        .h      LDR      r2,[r2,#0]
        0x000005ca:    4323        #C      ORRS     r3,r3,r4
        0x000005cc:    6003        .`      STR      r3,[r0,#0]
        0x000005ce:    2308        .#      MOVS     r3,#8
        0x000005d0:    61c3        .a      STR      r3,[r0,#0x1c]
        0x000005d2:    bc30        0.      POP      {r4,r5}
        0x000005d4:    2300        .#      MOVS     r3,#0
        0x000005d6:    e7b5        ..      B        _printf_hex_common ; 0x544
    $d
        0x000005d8:    0000cbe0    ....    DCD    52192
    $t
    .text
    __printf
        0x000005dc:    b5f3        ..      PUSH     {r0,r1,r4-r7,lr}
        0x000005de:    0004        ..      MOVS     r4,r0
        0x000005e0:    2000        .       MOVS     r0,#0
        0x000005e2:    b081        ..      SUB      sp,sp,#4
        0x000005e4:    6220         b      STR      r0,[r4,#0x20]
        0x000005e6:    68e1        .h      LDR      r1,[r4,#0xc]
        0x000005e8:    0020         .      MOVS     r0,r4
        0x000005ea:    4788        .G      BLX      r1
        0x000005ec:    2800        .(      CMP      r0,#0
        0x000005ee:    d072        r.      BEQ      0x6d6 ; __printf + 250
        0x000005f0:    2825        %(      CMP      r0,#0x25
        0x000005f2:    d002        ..      BEQ      0x5fa ; __printf + 30
        0x000005f4:    6862        bh      LDR      r2,[r4,#4]
        0x000005f6:    68a1        .h      LDR      r1,[r4,#8]
        0x000005f8:    e0ab        ..      B        0x752 ; __printf + 374
        0x000005fa:    4f59        YO      LDR      r7,[pc,#356] ; [0x760] = 0xcb5a
        0x000005fc:    2600        .&      MOVS     r6,#0
        0x000005fe:    447f        .D      ADD      r7,r7,pc
        0x00000600:    68e1        .h      LDR      r1,[r4,#0xc]
        0x00000602:    0020         .      MOVS     r0,r4
        0x00000604:    4788        .G      BLX      r1
        0x00000606:    0005        ..      MOVS     r5,r0
        0x00000608:    2820         (      CMP      r0,#0x20
        0x0000060a:    db08        ..      BLT      0x61e ; __printf + 66
        0x0000060c:    2d31        1-      CMP      r5,#0x31
        0x0000060e:    d206        ..      BCS      0x61e ; __printf + 66
        0x00000610:    1978        x.      ADDS     r0,r7,r5
        0x00000612:    3820         8      SUBS     r0,r0,#0x20
        0x00000614:    7800        .x      LDRB     r0,[r0,#0]
        0x00000616:    2800        .(      CMP      r0,#0
        0x00000618:    d001        ..      BEQ      0x61e ; __printf + 66
        0x0000061a:    4306        .C      ORRS     r6,r6,r0
        0x0000061c:    e7f0        ..      B        0x600 ; __printf + 36
        0x0000061e:    07b0        ..      LSLS     r0,r6,#30
        0x00000620:    d501        ..      BPL      0x626 ; __printf + 74
        0x00000622:    2004        .       MOVS     r0,#4
        0x00000624:    4386        .C      BICS     r6,r6,r0
        0x00000626:    2000        .       MOVS     r0,#0
        0x00000628:    61e0        .a      STR      r0,[r4,#0x1c]
        0x0000062a:    0007        ..      MOVS     r7,r0
        0x0000062c:    61a0        .a      STR      r0,[r4,#0x18]
        0x0000062e:    2d2a        *-      CMP      r5,#0x2a
        0x00000630:    d00a        ..      BEQ      0x648 ; __printf + 108
        0x00000632:    0028        (.      MOVS     r0,r5
        0x00000634:    f005ffd8    ....    BL       _is_digit ; 0x65e8
        0x00000638:    2800        .(      CMP      r0,#0
        0x0000063a:    d027        '.      BEQ      0x68c ; __printf + 176
        0x0000063c:    00b8        ..      LSLS     r0,r7,#2
        0x0000063e:    1900        ..      ADDS     r0,r0,r4
        0x00000640:    3d30        0=      SUBS     r5,r5,#0x30
        0x00000642:    9000        ..      STR      r0,[sp,#0]
        0x00000644:    6185        .a      STR      r5,[r0,#0x18]
        0x00000646:    e019        ..      B        0x67c ; __printf + 160
        0x00000648:    9802        ..      LDR      r0,[sp,#8]
        0x0000064a:    00ba        ..      LSLS     r2,r7,#2
        0x0000064c:    1912        ..      ADDS     r2,r2,r4
        0x0000064e:    c802        ..      LDM      r0!,{r1}
        0x00000650:    6191        .a      STR      r1,[r2,#0x18]
        0x00000652:    9002        ..      STR      r0,[sp,#8]
        0x00000654:    68e1        .h      LDR      r1,[r4,#0xc]
        0x00000656:    0020         .      MOVS     r0,r4
        0x00000658:    4788        .G      BLX      r1
        0x0000065a:    0005        ..      MOVS     r5,r0
        0x0000065c:    2f01        ./      CMP      r7,#1
        0x0000065e:    d117        ..      BNE      0x690 ; __printf + 180
        0x00000660:    69e0        .i      LDR      r0,[r4,#0x1c]
        0x00000662:    2800        .(      CMP      r0,#0
        0x00000664:    da1f        ..      BGE      0x6a6 ; __printf + 202
        0x00000666:    2020                MOVS     r0,#0x20
        0x00000668:    4386        .C      BICS     r6,r6,r0
        0x0000066a:    e01c        ..      B        0x6a6 ; __printf + 202
        0x0000066c:    9800        ..      LDR      r0,[sp,#0]
        0x0000066e:    210a        .!      MOVS     r1,#0xa
        0x00000670:    6980        .i      LDR      r0,[r0,#0x18]
        0x00000672:    4348        HC      MULS     r0,r1,r0
        0x00000674:    9900        ..      LDR      r1,[sp,#0]
        0x00000676:    1940        @.      ADDS     r0,r0,r5
        0x00000678:    3830        08      SUBS     r0,r0,#0x30
        0x0000067a:    6188        .a      STR      r0,[r1,#0x18]
        0x0000067c:    68e1        .h      LDR      r1,[r4,#0xc]
        0x0000067e:    0020         .      MOVS     r0,r4
        0x00000680:    4788        .G      BLX      r1
        0x00000682:    0005        ..      MOVS     r5,r0
        0x00000684:    f005ffb0    ....    BL       _is_digit ; 0x65e8
        0x00000688:    2800        .(      CMP      r0,#0
        0x0000068a:    d1ef        ..      BNE      0x66c ; __printf + 144
        0x0000068c:    2f01        ./      CMP      r7,#1
        0x0000068e:    d00a        ..      BEQ      0x6a6 ; __printf + 202
        0x00000690:    2d2e        .-      CMP      r5,#0x2e
        0x00000692:    d108        ..      BNE      0x6a6 ; __printf + 202
        0x00000694:    68e1        .h      LDR      r1,[r4,#0xc]
        0x00000696:    0020         .      MOVS     r0,r4
        0x00000698:    4788        .G      BLX      r1
        0x0000069a:    0005        ..      MOVS     r5,r0
        0x0000069c:    2020                MOVS     r0,#0x20
        0x0000069e:    4306        .C      ORRS     r6,r6,r0
        0x000006a0:    1c7f        ..      ADDS     r7,r7,#1
        0x000006a2:    2f02        ./      CMP      r7,#2
        0x000006a4:    dbc3        ..      BLT      0x62e ; __printf + 82
        0x000006a6:    69a0        .i      LDR      r0,[r4,#0x18]
        0x000006a8:    2800        .(      CMP      r0,#0
        0x000006aa:    da03        ..      BGE      0x6b4 ; __printf + 216
        0x000006ac:    4240        @B      RSBS     r0,r0,#0
        0x000006ae:    61a0        .a      STR      r0,[r4,#0x18]
        0x000006b0:    2001        .       MOVS     r0,#1
        0x000006b2:    4306        .C      ORRS     r6,r6,r0
        0x000006b4:    07f0        ..      LSLS     r0,r6,#31
        0x000006b6:    d001        ..      BEQ      0x6bc ; __printf + 224
        0x000006b8:    2010        .       MOVS     r0,#0x10
        0x000006ba:    4386        .C      BICS     r6,r6,r0
        0x000006bc:    2d6c        l-      CMP      r5,#0x6c
        0x000006be:    d00b        ..      BEQ      0x6d8 ; __printf + 252
        0x000006c0:    2d68        h-      CMP      r5,#0x68
        0x000006c2:    d009        ..      BEQ      0x6d8 ; __printf + 252
        0x000006c4:    2d4c        L-      CMP      r5,#0x4c
        0x000006c6:    d03c        <.      BEQ      0x742 ; __printf + 358
        0x000006c8:    2d6a        j-      CMP      r5,#0x6a
        0x000006ca:    d038        8.      BEQ      0x73e ; __printf + 354
        0x000006cc:    2d74        t-      CMP      r5,#0x74
        0x000006ce:    d038        8.      BEQ      0x742 ; __printf + 358
        0x000006d0:    2d7a        z-      CMP      r5,#0x7a
        0x000006d2:    d036        6.      BEQ      0x742 ; __printf + 358
        0x000006d4:    e016        ..      B        0x704 ; __printf + 296
        0x000006d6:    e040        @.      B        0x75a ; __printf + 382
        0x000006d8:    68e1        .h      LDR      r1,[r4,#0xc]
        0x000006da:    002f        /.      MOVS     r7,r5
        0x000006dc:    0020         .      MOVS     r0,r4
        0x000006de:    4788        .G      BLX      r1
        0x000006e0:    0005        ..      MOVS     r5,r0
        0x000006e2:    42b8        .B      CMP      r0,r7
        0x000006e4:    d109        ..      BNE      0x6fa ; __printf + 286
        0x000006e6:    2f6c        l/      CMP      r7,#0x6c
        0x000006e8:    d029        ).      BEQ      0x73e ; __printf + 354
        0x000006ea:    2001        .       MOVS     r0,#1
        0x000006ec:    0280        ..      LSLS     r0,r0,#10
        0x000006ee:    68e1        .h      LDR      r1,[r4,#0xc]
        0x000006f0:    4306        .C      ORRS     r6,r6,r0
        0x000006f2:    0020         .      MOVS     r0,r4
        0x000006f4:    4788        .G      BLX      r1
        0x000006f6:    0005        ..      MOVS     r5,r0
        0x000006f8:    e004        ..      B        0x704 ; __printf + 296
        0x000006fa:    2f6c        l/      CMP      r7,#0x6c
        0x000006fc:    d01d        ..      BEQ      0x73a ; __printf + 350
        0x000006fe:    20ff        .       MOVS     r0,#0xff
        0x00000700:    3001        .0      ADDS     r0,#1
        0x00000702:    4306        .C      ORRS     r6,r6,r0
        0x00000704:    2d00        .-      CMP      r5,#0
        0x00000706:    d028        (.      BEQ      0x75a ; __printf + 382
        0x00000708:    0028        (.      MOVS     r0,r5
        0x0000070a:    3841        A8      SUBS     r0,r0,#0x41
        0x0000070c:    2819        .(      CMP      r0,#0x19
        0x0000070e:    d803        ..      BHI      0x718 ; __printf + 316
        0x00000710:    2001        .       MOVS     r0,#1
        0x00000712:    02c0        ..      LSLS     r0,r0,#11
        0x00000714:    4306        .C      ORRS     r6,r6,r0
        0x00000716:    3520         5      ADDS     r5,r5,#0x20
        0x00000718:    6026        &`      STR      r6,[r4,#0]
        0x0000071a:    9a02        ..      LDR      r2,[sp,#8]
        0x0000071c:    0029        ).      MOVS     r1,r5
        0x0000071e:    0020         .      MOVS     r0,r4
        0x00000720:    0016        ..      MOVS     r6,r2
        0x00000722:    f7ffed66    ..f.    BLX      _printf_n ; 0x1f0
        0x00000726:    2800        .(      CMP      r0,#0
        0x00000728:    d010        ..      BEQ      0x74c ; __printf + 368
        0x0000072a:    2801        .(      CMP      r0,#1
        0x0000072c:    d00b        ..      BEQ      0x746 ; __printf + 362
        0x0000072e:    1df6        ..      ADDS     r6,r6,#7
        0x00000730:    08f0        ..      LSRS     r0,r6,#3
        0x00000732:    00c0        ..      LSLS     r0,r0,#3
        0x00000734:    3008        .0      ADDS     r0,r0,#8
        0x00000736:    9002        ..      STR      r0,[sp,#8]
        0x00000738:    e755        U.      B        0x5e6 ; __printf + 10
        0x0000073a:    2040        @       MOVS     r0,#0x40
        0x0000073c:    e7e1        ..      B        0x702 ; __printf + 294
        0x0000073e:    2080        .       MOVS     r0,#0x80
        0x00000740:    e7d5        ..      B        0x6ee ; __printf + 274
        0x00000742:    2000        .       MOVS     r0,#0
        0x00000744:    e7d3        ..      B        0x6ee ; __printf + 274
        0x00000746:    1d36        6.      ADDS     r6,r6,#4
        0x00000748:    9602        ..      STR      r6,[sp,#8]
        0x0000074a:    e74c        L.      B        0x5e6 ; __printf + 10
        0x0000074c:    6862        bh      LDR      r2,[r4,#4]
        0x0000074e:    68a1        .h      LDR      r1,[r4,#8]
        0x00000750:    0028        (.      MOVS     r0,r5
        0x00000752:    4790        .G      BLX      r2
        0x00000754:    6a20         j      LDR      r0,[r4,#0x20]
        0x00000756:    1c40        @.      ADDS     r0,r0,#1
        0x00000758:    e744        D.      B        0x5e4 ; __printf + 8
        0x0000075a:    6a20         j      LDR      r0,[r4,#0x20]
        0x0000075c:    bdfe        ..      POP      {r1-r7,pc}
    $d
        0x0000075e:    0000        ..      DCW    0
        0x00000760:    0000cb5a    Z...    DCD    52058
    $t
    .text
    memcmp
        0x00000764:    0003        ..      MOVS     r3,r0
        0x00000766:    430b        .C      ORRS     r3,r3,r1
        0x00000768:    b510        ..      PUSH     {r4,lr}
        0x0000076a:    079b        ..      LSLS     r3,r3,#30
        0x0000076c:    d11c        ..      BNE      0x7a8 ; memcmp + 68
        0x0000076e:    2a04        .*      CMP      r2,#4
        0x00000770:    d31a        ..      BCC      0x7a8 ; memcmp + 68
        0x00000772:    c808        ..      LDM      r0!,{r3}
        0x00000774:    c910        ..      LDM      r1!,{r4}
        0x00000776:    1f12        ..      SUBS     r2,r2,#4
        0x00000778:    42a3        .B      CMP      r3,r4
        0x0000077a:    d0f8        ..      BEQ      0x76e ; memcmp + 10
        0x0000077c:    0618        ..      LSLS     r0,r3,#24
        0x0000077e:    0621        !.      LSLS     r1,r4,#24
        0x00000780:    0e00        ..      LSRS     r0,r0,#24
        0x00000782:    0e09        ..      LSRS     r1,r1,#24
        0x00000784:    1a40        @.      SUBS     r0,r0,r1
        0x00000786:    d10e        ..      BNE      0x7a6 ; memcmp + 66
        0x00000788:    0418        ..      LSLS     r0,r3,#16
        0x0000078a:    0421        !.      LSLS     r1,r4,#16
        0x0000078c:    0c00        ..      LSRS     r0,r0,#16
        0x0000078e:    0c09        ..      LSRS     r1,r1,#16
        0x00000790:    1a40        @.      SUBS     r0,r0,r1
        0x00000792:    d108        ..      BNE      0x7a6 ; memcmp + 66
        0x00000794:    0218        ..      LSLS     r0,r3,#8
        0x00000796:    0221        !.      LSLS     r1,r4,#8
        0x00000798:    0a00        ..      LSRS     r0,r0,#8
        0x0000079a:    0a09        ..      LSRS     r1,r1,#8
        0x0000079c:    1a40        @.      SUBS     r0,r0,r1
        0x0000079e:    d102        ..      BNE      0x7a6 ; memcmp + 66
        0x000007a0:    0e18        ..      LSRS     r0,r3,#24
        0x000007a2:    0e21        !.      LSRS     r1,r4,#24
        0x000007a4:    1a40        @.      SUBS     r0,r0,r1
        0x000007a6:    bd10        ..      POP      {r4,pc}
        0x000007a8:    2a00        .*      CMP      r2,#0
        0x000007aa:    d003        ..      BEQ      0x7b4 ; memcmp + 80
        0x000007ac:    07d3        ..      LSLS     r3,r2,#31
        0x000007ae:    d003        ..      BEQ      0x7b8 ; memcmp + 84
        0x000007b0:    1c52        R.      ADDS     r2,r2,#1
        0x000007b2:    e007        ..      B        0x7c4 ; memcmp + 96
        0x000007b4:    2000        .       MOVS     r0,#0
        0x000007b6:    bd10        ..      POP      {r4,pc}
        0x000007b8:    7803        .x      LDRB     r3,[r0,#0]
        0x000007ba:    780c        .x      LDRB     r4,[r1,#0]
        0x000007bc:    1c40        @.      ADDS     r0,r0,#1
        0x000007be:    1c49        I.      ADDS     r1,r1,#1
        0x000007c0:    1b1b        ..      SUBS     r3,r3,r4
        0x000007c2:    d107        ..      BNE      0x7d4 ; memcmp + 112
        0x000007c4:    7803        .x      LDRB     r3,[r0,#0]
        0x000007c6:    780c        .x      LDRB     r4,[r1,#0]
        0x000007c8:    1c40        @.      ADDS     r0,r0,#1
        0x000007ca:    1c49        I.      ADDS     r1,r1,#1
        0x000007cc:    1b1b        ..      SUBS     r3,r3,r4
        0x000007ce:    d101        ..      BNE      0x7d4 ; memcmp + 112
        0x000007d0:    1e92        ..      SUBS     r2,r2,#2
        0x000007d2:    d1f1        ..      BNE      0x7b8 ; memcmp + 84
        0x000007d4:    0018        ..      MOVS     r0,r3
        0x000007d6:    bd10        ..      POP      {r4,pc}
    .text
    strcat
        0x000007d8:    1e42        B.      SUBS     r2,r0,#1
        0x000007da:    7853        Sx      LDRB     r3,[r2,#1]
        0x000007dc:    1c52        R.      ADDS     r2,r2,#1
        0x000007de:    2b00        .+      CMP      r3,#0
        0x000007e0:    d1fb        ..      BNE      0x7da ; strcat + 2
        0x000007e2:    780b        .x      LDRB     r3,[r1,#0]
        0x000007e4:    1c49        I.      ADDS     r1,r1,#1
        0x000007e6:    7013        .p      STRB     r3,[r2,#0]
        0x000007e8:    1c52        R.      ADDS     r2,r2,#1
        0x000007ea:    2b00        .+      CMP      r3,#0
        0x000007ec:    d1f9        ..      BNE      0x7e2 ; strcat + 10
        0x000007ee:    4770        pG      BX       lr
    $a
    .text
    __aeabi_memcpy
    __rt_memcpy
        0x000007f0:    e3520003    ..R.    CMP      r2,#3
        0x000007f4:    9a00002a    *...    BLS      _memcpy_lastbytes ; 0x8a4
        0x000007f8:    e210c003    ....    ANDS     r12,r0,#3
        0x000007fc:    0a000008    ....    BEQ      0x824 ; __aeabi_memcpy + 52
        0x00000800:    e4d13001    .0..    LDRB     r3,[r1],#1
        0x00000804:    e35c0002    ..\.    CMP      r12,#2
        0x00000808:    e082200c    . ..    ADD      r2,r2,r12
        0x0000080c:    94d1c001    ....    LDRBLS   r12,[r1],#1
        0x00000810:    e4c03001    .0..    STRB     r3,[r0],#1
        0x00000814:    34d13001    .0.4    LDRBCC   r3,[r1],#1
        0x00000818:    94c0c001    ....    STRBLS   r12,[r0],#1
        0x0000081c:    e2422004    . B.    SUB      r2,r2,#4
        0x00000820:    34c03001    .0.4    STRBCC   r3,[r0],#1
        0x00000824:    e2113003    .0..    ANDS     r3,r1,#3
        0x00000828:    0a000025    %...    BEQ      __aeabi_memcpy4 ; 0x8c4
        0x0000082c:    e2522004    . R.    SUBS     r2,r2,#4
        0x00000830:    3a00001b    ...:    BCC      _memcpy_lastbytes ; 0x8a4
        0x00000834:    e731c003    ..1.    LDR      r12,[r1,-r3]!
        0x00000838:    e3530002    ..S.    CMP      r3,#2
        0x0000083c:    0a000008    ....    BEQ      0x864 ; __aeabi_memcpy + 116
        0x00000840:    8a00000f    ....    BHI      0x884 ; __aeabi_memcpy + 148
        0x00000844:    e1a0342c    ,4..    LSR      r3,r12,#8
        0x00000848:    e5b1c004    ....    LDR      r12,[r1,#4]!
        0x0000084c:    e2522004    . R.    SUBS     r2,r2,#4
        0x00000850:    e1833c0c    .<..    ORR      r3,r3,r12,LSL #24
        0x00000854:    e4803004    .0..    STR      r3,[r0],#4
        0x00000858:    2afffff9    ...*    BCS      0x844 ; __aeabi_memcpy + 84
        0x0000085c:    e2811001    ....    ADD      r1,r1,#1
        0x00000860:    ea00000f    ....    B        _memcpy_lastbytes ; 0x8a4
        0x00000864:    e1a0382c    ,8..    LSR      r3,r12,#16
        0x00000868:    e5b1c004    ....    LDR      r12,[r1,#4]!
        0x0000086c:    e2522004    . R.    SUBS     r2,r2,#4
        0x00000870:    e183380c    .8..    ORR      r3,r3,r12,LSL #16
        0x00000874:    e4803004    .0..    STR      r3,[r0],#4
        0x00000878:    2afffff9    ...*    BCS      0x864 ; __aeabi_memcpy + 116
        0x0000087c:    e2811002    ....    ADD      r1,r1,#2
        0x00000880:    ea000007    ....    B        _memcpy_lastbytes ; 0x8a4
        0x00000884:    e1a03c2c    ,<..    LSR      r3,r12,#24
        0x00000888:    e5b1c004    ....    LDR      r12,[r1,#4]!
        0x0000088c:    e2522004    . R.    SUBS     r2,r2,#4
        0x00000890:    e183340c    .4..    ORR      r3,r3,r12,LSL #8
        0x00000894:    e4803004    .0..    STR      r3,[r0],#4
        0x00000898:    2afffff9    ...*    BCS      0x884 ; __aeabi_memcpy + 148
        0x0000089c:    e2811003    ....    ADD      r1,r1,#3
        0x000008a0:    e1a00000    ....    MOV      r0,r0
    _memcpy_lastbytes
        0x000008a4:    e1b02f82    ./..    LSLS     r2,r2,#31
        0x000008a8:    24d13001    .0.$    LDRBCS   r3,[r1],#1
        0x000008ac:    24d1c001    ...$    LDRBCS   r12,[r1],#1
        0x000008b0:    44d12001    . .D    LDRBMI   r2,[r1],#1
        0x000008b4:    24c03001    .0.$    STRBCS   r3,[r0],#1
        0x000008b8:    24c0c001    ...$    STRBCS   r12,[r0],#1
        0x000008bc:    44c02001    . .D    STRBMI   r2,[r0],#1
        0x000008c0:    e12fff1e    ../.    BX       lr
    .text
    __aeabi_memcpy4
    __aeabi_memcpy8
    __rt_memcpy_w
        0x000008c4:    e92d4010    .@-.    PUSH     {r4,lr}
        0x000008c8:    e2522020      R.    SUBS     r2,r2,#0x20
        0x000008cc:    3a000005    ...:    BCC      0x8e8 ; __aeabi_memcpy4 + 36
        0x000008d0:    e8b15018    .P..    LDM      r1!,{r3,r4,r12,lr}
        0x000008d4:    e2522020      R.    SUBS     r2,r2,#0x20
        0x000008d8:    e8a05018    .P..    STM      r0!,{r3,r4,r12,lr}
        0x000008dc:    e8b15018    .P..    LDM      r1!,{r3,r4,r12,lr}
        0x000008e0:    e8a05018    .P..    STM      r0!,{r3,r4,r12,lr}
        0x000008e4:    2afffff9    ...*    BCS      0x8d0 ; __aeabi_memcpy4 + 12
        0x000008e8:    e1b0ce02    ....    LSLS     r12,r2,#28
        0x000008ec:    28b15018    .P.(    LDMCS    r1!,{r3,r4,r12,lr}
        0x000008f0:    28a05018    .P.(    STMCS    r0!,{r3,r4,r12,lr}
        0x000008f4:    48b10018    ...H    LDMMI    r1!,{r3,r4}
        0x000008f8:    48a00018    ...H    STMMI    r0!,{r3,r4}
        0x000008fc:    e8bd4010    .@..    POP      {r4,lr}
        0x00000900:    e1b0cf02    ....    LSLS     r12,r2,#30
        0x00000904:    24913004    .0.$    LDRCS    r3,[r1],#4
        0x00000908:    24803004    .0.$    STRCS    r3,[r0],#4
        0x0000090c:    012fff1e    ../.    BXEQ     lr
    _memcpy_lastbytes_aligned
        0x00000910:    e1b02f82    ./..    LSLS     r2,r2,#31
        0x00000914:    20d130b2    .0.     LDRHCS   r3,[r1],#2
        0x00000918:    44d12001    . .D    LDRBMI   r2,[r1],#1
        0x0000091c:    20c030b2    .0.     STRHCS   r3,[r0],#2
        0x00000920:    44c02001    . .D    STRBMI   r2,[r0],#1
        0x00000924:    e12fff1e    ../.    BX       lr
    .text
    __aeabi_memclr
    __rt_memclr
        0x00000928:    e3a02000    . ..    MOV      r2,#0
    _memset
        0x0000092c:    e3510004    ..Q.    CMP      r1,#4
        0x00000930:    3a000007    ...:    BCC      0x954 ; _memset + 40
        0x00000934:    e210c003    ....    ANDS     r12,r0,#3
        0x00000938:    0a00000b    ....    BEQ      _memset_w ; 0x96c
        0x0000093c:    e26cc004    ..l.    RSB      r12,r12,#4
        0x00000940:    e35c0002    ..\.    CMP      r12,#2
        0x00000944:    14c02001    . ..    STRBNE   r2,[r0],#1
        0x00000948:    e041100c    ..A.    SUB      r1,r1,r12
        0x0000094c:    a0c020b2    . ..    STRHGE   r2,[r0],#2
        0x00000950:    ea000005    ....    B        _memset_w ; 0x96c
        0x00000954:    e1b0cf81    ....    LSLS     r12,r1,#31
        0x00000958:    24c02001    . .$    STRBCS   r2,[r0],#1
        0x0000095c:    24c02001    . .$    STRBCS   r2,[r0],#1
        0x00000960:    44c02001    . .D    STRBMI   r2,[r0],#1
        0x00000964:    e12fff1e    ../.    BX       lr
    .text
    __aeabi_memclr4
    __aeabi_memclr8
    __rt_memclr_w
        0x00000968:    e3a02000    . ..    MOV      r2,#0
    _memset_w
        0x0000096c:    e92d4000    .@-.    STMDB    sp!,{lr}
        0x00000970:    e1a03002    .0..    MOV      r3,r2
        0x00000974:    e1a0c002    ....    MOV      r12,r2
        0x00000978:    e1a0e002    ....    MOV      lr,r2
        0x0000097c:    e2511020     .Q.    SUBS     r1,r1,#0x20
        0x00000980:    28a0500c    .P.(    STMCS    r0!,{r2,r3,r12,lr}
        0x00000984:    28a0500c    .P.(    STMCS    r0!,{r2,r3,r12,lr}
        0x00000988:    22511020     .Q"    SUBSCS   r1,r1,#0x20
        0x0000098c:    2afffffb    ...*    BCS      0x980 ; _memset_w + 20
        0x00000990:    e1b01e01    ....    LSLS     r1,r1,#28
        0x00000994:    28a0500c    .P.(    STMCS    r0!,{r2,r3,r12,lr}
        0x00000998:    48a0000c    ...H    STMMI    r0!,{r2,r3}
        0x0000099c:    e8bd4000    .@..    LDM      sp!,{lr}
        0x000009a0:    e1b01101    ....    LSLS     r1,r1,#2
        0x000009a4:    24802004    . .$    STRCS    r2,[r0],#4
        0x000009a8:    012fff1e    ../.    BXEQ     lr
        0x000009ac:    40c020b2    . .@    STRHMI   r2,[r0],#2
        0x000009b0:    e3110101    ....    TST      r1,#0x40000000
        0x000009b4:    14c02001    . ..    STRBNE   r2,[r0],#1
        0x000009b8:    e12fff1e    ../.    BX       lr
    .text
    strcmp
        0x000009bc:    e0202001    .  .    EOR      r2,r0,r1
        0x000009c0:    e3120003    ....    TST      r2,#3
        0x000009c4:    1a00002c    ,...    BNE      0xa7c ; strcmp + 192
        0x000009c8:    e3100003    ....    TST      r0,#3
        0x000009cc:    0a000012    ....    BEQ      0xa1c ; strcmp + 96
        0x000009d0:    e4d02001    . ..    LDRB     r2,[r0],#1
        0x000009d4:    e4d13001    .0..    LDRB     r3,[r1],#1
        0x000009d8:    e3520001    ..R.    CMP      r2,#1
        0x000009dc:    21520003    ..R!    CMPCS    r2,r3
        0x000009e0:    1a00002f    /...    BNE      0xaa4 ; strcmp + 232
        0x000009e4:    e3100003    ....    TST      r0,#3
        0x000009e8:    0a00000b    ....    BEQ      0xa1c ; strcmp + 96
        0x000009ec:    e4d02001    . ..    LDRB     r2,[r0],#1
        0x000009f0:    e4d13001    .0..    LDRB     r3,[r1],#1
        0x000009f4:    e3520001    ..R.    CMP      r2,#1
        0x000009f8:    21520003    ..R!    CMPCS    r2,r3
        0x000009fc:    1a000028    (...    BNE      0xaa4 ; strcmp + 232
        0x00000a00:    e3100003    ....    TST      r0,#3
        0x00000a04:    0a000004    ....    BEQ      0xa1c ; strcmp + 96
        0x00000a08:    e4d02001    . ..    LDRB     r2,[r0],#1
        0x00000a0c:    e4d13001    .0..    LDRB     r3,[r1],#1
        0x00000a10:    e3520001    ..R.    CMP      r2,#1
        0x00000a14:    21520003    ..R!    CMPCS    r2,r3
        0x00000a18:    1a000021    !...    BNE      0xaa4 ; strcmp + 232
        0x00000a1c:    e92d4000    .@-.    STMDB    sp!,{lr}
        0x00000a20:    e59fe084    ....    LDR      lr,[pc,#132] ; [0xaac] = 0x1010101
        0x00000a24:    e4902004    . ..    LDR      r2,[r0],#4
        0x00000a28:    e4913004    .0..    LDR      r3,[r1],#4
        0x00000a2c:    e042c00e    ..B.    SUB      r12,r2,lr
        0x00000a30:    e1ccc002    ....    BIC      r12,r12,r2
        0x00000a34:    e01cc38e    ....    ANDS     r12,r12,lr,LSL #7
        0x00000a38:    01520003    ..R.    CMPEQ    r2,r3
        0x00000a3c:    0afffff8    ....    BEQ      0xa24 ; strcmp + 104
        0x00000a40:    e8bd4000    .@..    LDM      sp!,{lr}
        0x00000a44:    e1a00c03    ....    LSL      r0,r3,#24
        0x00000a48:    e0500c02    ..P.    SUBS     r0,r0,r2,LSL #24
        0x00000a4c:    031c0eff    ....    TSTEQ    r12,#0xff0
        0x00000a50:    1a000007    ....    BNE      0xa74 ; strcmp + 184
        0x00000a54:    e1a00803    ....    LSL      r0,r3,#16
        0x00000a58:    e0500802    ..P.    SUBS     r0,r0,r2,LSL #16
        0x00000a5c:    031c0cff    ....    TSTEQ    r12,#0xff00
        0x00000a60:    1a000003    ....    BNE      0xa74 ; strcmp + 184
        0x00000a64:    e1a00403    ....    LSL      r0,r3,#8
        0x00000a68:    e0500402    ..P.    SUBS     r0,r0,r2,LSL #8
        0x00000a6c:    031c08ff    ....    TSTEQ    r12,#0xff0000
        0x00000a70:    00530002    ..S.    SUBSEQ   r0,r3,r2
        0x00000a74:    11a00060    `...    RRXNE    r0,r0
        0x00000a78:    e12fff1e    ../.    BX       lr
        0x00000a7c:    e4d02001    . ..    LDRB     r2,[r0],#1
        0x00000a80:    e4d13001    .0..    LDRB     r3,[r1],#1
        0x00000a84:    e3520001    ..R.    CMP      r2,#1
        0x00000a88:    21520003    ..R!    CMPCS    r2,r3
        0x00000a8c:    1a000004    ....    BNE      0xaa4 ; strcmp + 232
        0x00000a90:    e4d02001    . ..    LDRB     r2,[r0],#1
        0x00000a94:    e4d13001    .0..    LDRB     r3,[r1],#1
        0x00000a98:    e3520001    ..R.    CMP      r2,#1
        0x00000a9c:    21520003    ..R!    CMPCS    r2,r3
        0x00000aa0:    0afffff5    ....    BEQ      0xa7c ; strcmp + 192
        0x00000aa4:    e0420003    ..B.    SUB      r0,r2,r3
        0x00000aa8:    e12fff1e    ../.    BX       lr
    $d
        0x00000aac:    01010101    ....    DCD    16843009
    $a
    .text
    __aeabi_idiv
    __aeabi_idivmod
        0x00000ab0:    e1903001    .0..    ORRS     r3,r0,r1
        0x00000ab4:    4a000021    !..J    BMI      0xb40 ; __arm_div2 + 28
        0x00000ab8:    e3b02000    . ..    MOVS     r2,#0
        0x00000abc:    e07130a0    .0q.    RSBS     r3,r1,r0,LSR #1
        0x00000ac0:    3a00001a    ...:    BCC      0xb30 ; __arm_div2 + 12
        0x00000ac4:    e0713220     2q.    RSBS     r3,r1,r0,LSR #4
        0x00000ac8:    3a00000f    ...:    BCC      0xb0c ; __arm_div5 + 12
        0x00000acc:    e0713420     4q.    RSBS     r3,r1,r0,LSR #8
        0x00000ad0:    3a000001    ...:    BCC      __arm_div8 ; 0xadc
        0x00000ad4:    e3a0c000    ....    MOV      r12,#0
        0x00000ad8:    ea000020     ...    B        __arm_div_large ; 0xb60
    __arm_div8
        0x00000adc:    e07133a0    .3q.    RSBS     r3,r1,r0,LSR #7
        0x00000ae0:    20400381    ..@     SUBCS    r0,r0,r1,LSL #7
        0x00000ae4:    e0b22002    . ..    ADCS     r2,r2,r2
        0x00000ae8:    e0713320     3q.    RSBS     r3,r1,r0,LSR #6
        0x00000aec:    20400301    ..@     SUBCS    r0,r0,r1,LSL #6
        0x00000af0:    e0b22002    . ..    ADCS     r2,r2,r2
        0x00000af4:    e07132a0    .2q.    RSBS     r3,r1,r0,LSR #5
        0x00000af8:    20400281    ..@     SUBCS    r0,r0,r1,LSL #5
        0x00000afc:    e0b22002    . ..    ADCS     r2,r2,r2
    __arm_div5
        0x00000b00:    e0713220     2q.    RSBS     r3,r1,r0,LSR #4
        0x00000b04:    20400201    ..@     SUBCS    r0,r0,r1,LSL #4
        0x00000b08:    e0b22002    . ..    ADCS     r2,r2,r2
        0x00000b0c:    e07131a0    .1q.    RSBS     r3,r1,r0,LSR #3
        0x00000b10:    20400181    ..@     SUBCS    r0,r0,r1,LSL #3
        0x00000b14:    e0b22002    . ..    ADCS     r2,r2,r2
        0x00000b18:    e0713120     1q.    RSBS     r3,r1,r0,LSR #2
        0x00000b1c:    20400101    ..@     SUBCS    r0,r0,r1,LSL #2
        0x00000b20:    e0b22002    . ..    ADCS     r2,r2,r2
    __arm_div2
        0x00000b24:    e07130a0    .0q.    RSBS     r3,r1,r0,LSR #1
        0x00000b28:    20400081    ..@     SUBCS    r0,r0,r1,LSL #1
        0x00000b2c:    e0b22002    . ..    ADCS     r2,r2,r2
        0x00000b30:    e0501001    ..P.    SUBS     r1,r0,r1
        0x00000b34:    31a01000    ...1    MOVCC    r1,r0
        0x00000b38:    e0a20002    ....    ADC      r0,r2,r2
        0x00000b3c:    e12fff1e    ../.    BX       lr
        0x00000b40:    e2112102    .!..    ANDS     r2,r1,#0x80000000
        0x00000b44:    42611000    ..aB    RSBMI    r1,r1,#0
        0x00000b48:    e032c040    @.2.    EORS     r12,r2,r0,ASR #32
        0x00000b4c:    22600000    ..`"    RSBCS    r0,r0,#0
        0x00000b50:    e0713220     2q.    RSBS     r3,r1,r0,LSR #4
        0x00000b54:    3a00001d    ...:    BCC      0xbd0 ; __arm_div_large + 112
        0x00000b58:    e0713420     4q.    RSBS     r3,r1,r0,LSR #8
        0x00000b5c:    3a00000f    ...:    BCC      0xba0 ; __arm_div_large + 64
    __arm_div_large
        0x00000b60:    e1a01301    ....    LSL      r1,r1,#6
        0x00000b64:    e0713420     4q.    RSBS     r3,r1,r0,LSR #8
        0x00000b68:    e382233f    ?#..    ORR      r2,r2,#0xfc000000
        0x00000b6c:    3a00000b    ...:    BCC      0xba0 ; __arm_div_large + 64
        0x00000b70:    e1a01301    ....    LSL      r1,r1,#6
        0x00000b74:    e0713420     4q.    RSBS     r3,r1,r0,LSR #8
        0x00000b78:    e382263f    ?&..    ORR      r2,r2,#0x3f00000
        0x00000b7c:    3a000007    ...:    BCC      0xba0 ; __arm_div_large + 64
        0x00000b80:    e1a01301    ....    LSL      r1,r1,#6
        0x00000b84:    e0713420     4q.    RSBS     r3,r1,r0,LSR #8
        0x00000b88:    e382293f    ?)..    ORR      r2,r2,#0xfc000
        0x00000b8c:    21a01301    ...!    LSLCS    r1,r1,#6
        0x00000b90:    23822c3f    ?,.#    ORRCS    r2,r2,#0x3f00
        0x00000b94:    e2713000    .0q.    RSBS     r3,r1,#0
        0x00000b98:    2a00001d    ...*    BCS      0xc14 ; __arm_div_large + 180
        0x00000b9c:    21a01321    !..!    LSRCS    r1,r1,#6
        0x00000ba0:    e07133a0    .3q.    RSBS     r3,r1,r0,LSR #7
        0x00000ba4:    20400381    ..@     SUBCS    r0,r0,r1,LSL #7
        0x00000ba8:    e0b22002    . ..    ADCS     r2,r2,r2
        0x00000bac:    e0713320     3q.    RSBS     r3,r1,r0,LSR #6
        0x00000bb0:    20400301    ..@     SUBCS    r0,r0,r1,LSL #6
        0x00000bb4:    e0b22002    . ..    ADCS     r2,r2,r2
        0x00000bb8:    e07132a0    .2q.    RSBS     r3,r1,r0,LSR #5
        0x00000bbc:    20400281    ..@     SUBCS    r0,r0,r1,LSL #5
        0x00000bc0:    e0b22002    . ..    ADCS     r2,r2,r2
        0x00000bc4:    e0713220     2q.    RSBS     r3,r1,r0,LSR #4
        0x00000bc8:    20400201    ..@     SUBCS    r0,r0,r1,LSL #4
        0x00000bcc:    e0b22002    . ..    ADCS     r2,r2,r2
        0x00000bd0:    e07131a0    .1q.    RSBS     r3,r1,r0,LSR #3
        0x00000bd4:    20400181    ..@     SUBCS    r0,r0,r1,LSL #3
        0x00000bd8:    e0b22002    . ..    ADCS     r2,r2,r2
        0x00000bdc:    e0713120     1q.    RSBS     r3,r1,r0,LSR #2
        0x00000be0:    20400101    ..@     SUBCS    r0,r0,r1,LSL #2
        0x00000be4:    e0b22002    . ..    ADCS     r2,r2,r2
        0x00000be8:    2affffeb    ...*    BCS      0xb9c ; __arm_div_large + 60
        0x00000bec:    e07130a0    .0q.    RSBS     r3,r1,r0,LSR #1
        0x00000bf0:    20400081    ..@     SUBCS    r0,r0,r1,LSL #1
        0x00000bf4:    e0b22002    . ..    ADCS     r2,r2,r2
        0x00000bf8:    e0501001    ..P.    SUBS     r1,r0,r1
        0x00000bfc:    31a01000    ...1    MOVCC    r1,r0
        0x00000c00:    e0a20002    ....    ADC      r0,r2,r2
        0x00000c04:    e1b0cfcc    ....    ASRS     r12,r12,#31
        0x00000c08:    42600000    ..`B    RSBMI    r0,r0,#0
        0x00000c0c:    22611000    ..a"    RSBCS    r1,r1,#0
        0x00000c10:    e12fff1e    ../.    BX       lr
        0x00000c14:    e1b0cfcc    ....    ASRS     r12,r12,#31
        0x00000c18:    42600000    ..`B    RSBMI    r0,r0,#0
        0x00000c1c:    e92d4001    .@-.    PUSH     {r0,lr}
        0x00000c20:    e3b00000    ....    MOVS     r0,#0
        0x00000c24:    e1a00000    ....    MOV      r0,r0
        0x00000c28:    e8bd8002    ....    POP      {r1,pc}
    .text
    __rt_heap_descriptor
        0x00000c2c:    e59f0000    ....    LDR      r0,[pc,#0] ; [0xc34] = 0x68300
        0x00000c30:    e12fff1e    ../.    BX       lr
    $d
        0x00000c34:    00068300    ....    DCD    426752
    $t
    .text
    __use_no_heap
        0x00000c38:    4770        pG      BX       lr
    __heap$guard
        0x00000c3a:    4770        pG      BX       lr
    .text
    _terminate_user_alloc
        0x00000c3c:    4770        pG      BX       lr
    _init_user_alloc
        0x00000c3e:    4770        pG      BX       lr
    __Heap_Full
        0x00000c40:    b538        8.      PUSH     {r3-r5,lr}
        0x00000c42:    0004        ..      MOVS     r4,r0
        0x00000c44:    000a        ..      MOVS     r2,r1
        0x00000c46:    4669        iF      MOV      r1,sp
        0x00000c48:    2000        .       MOVS     r0,#0
        0x00000c4a:    f000fe1d    ....    BL       __rt_heap_expand ; 0x1888
        0x00000c4e:    2800        .(      CMP      r0,#0
        0x00000c50:    d005        ..      BEQ      0xc5e ; __Heap_Full + 30
        0x00000c52:    0002        ..      MOVS     r2,r0
        0x00000c54:    9900        ..      LDR      r1,[sp,#0]
        0x00000c56:    0020         .      MOVS     r0,r4
        0x00000c58:    f000f9e8    ....    BL       __Heap_ProvideMemory ; 0x102c
        0x00000c5c:    2001        .       MOVS     r0,#1
        0x00000c5e:    bd38        8.      POP      {r3-r5,pc}
    __Heap_Broken
        0x00000c60:    b510        ..      PUSH     {r4,lr}
        0x00000c62:    2001        .       MOVS     r0,#1
        0x00000c64:    f000fdfd    ....    BL       __rt_SIGRTMEM ; 0x1862
        0x00000c68:    bd10        ..      POP      {r4,pc}
    _init_alloc
        0x00000c6a:    b5f8        ..      PUSH     {r3-r7,lr}
        0x00000c6c:    f000fe00    ....    BL       __rt_heap_escrow ; 0x1870
        0x00000c70:    0005        ..      MOVS     r5,r0
        0x00000c72:    000c        ..      MOVS     r4,r1
        0x00000c74:    2000        .       MOVS     r0,#0
        0x00000c76:    2010        .       MOVS     r0,#0x10
        0x00000c78:    46c0        .F      MOV      r8,r8
        0x00000c7a:    0006        ..      MOVS     r6,r0
        0x00000c7c:    19a8        ..      ADDS     r0,r5,r6
        0x00000c7e:    42a0        .B      CMP      r0,r4
        0x00000c80:    d90d        ..      BLS      0xc9e ; _init_alloc + 52
        0x00000c82:    4669        iF      MOV      r1,sp
        0x00000c84:    0032        2.      MOVS     r2,r6
        0x00000c86:    2000        .       MOVS     r0,#0
        0x00000c88:    f000fdfe    ....    BL       __rt_heap_expand ; 0x1888
        0x00000c8c:    0007        ..      MOVS     r7,r0
        0x00000c8e:    d101        ..      BNE      0xc94 ; _init_alloc + 42
        0x00000c90:    f000fde7    ....    BL       __rt_SIGRTMEM ; 0x1862
        0x00000c94:    9800        ..      LDR      r0,[sp,#0]
        0x00000c96:    42a0        .B      CMP      r0,r4
        0x00000c98:    d000        ..      BEQ      0xc9c ; _init_alloc + 50
        0x00000c9a:    0005        ..      MOVS     r5,r0
        0x00000c9c:    19c4        ..      ADDS     r4,r0,r7
        0x00000c9e:    f7ffefc6    ....    BLX      __rt_heap_descriptor ; 0xc2c
        0x00000ca2:    1df6        ..      ADDS     r6,r6,#7
        0x00000ca4:    0007        ..      MOVS     r7,r0
        0x00000ca6:    6005        .`      STR      r5,[r0,#0]
        0x00000ca8:    08f0        ..      LSRS     r0,r6,#3
        0x00000caa:    00c0        ..      LSLS     r0,r0,#3
        0x00000cac:    1946        F.      ADDS     r6,r0,r5
        0x00000cae:    0028        (.      MOVS     r0,r5
        0x00000cb0:    f000f808    ....    BL       __Heap_Initialize ; 0xcc4
        0x00000cb4:    42b4        .B      CMP      r4,r6
        0x00000cb6:    d004        ..      BEQ      0xcc2 ; _init_alloc + 88
        0x00000cb8:    6838        8h      LDR      r0,[r7,#0]
        0x00000cba:    1ba2        ..      SUBS     r2,r4,r6
        0x00000cbc:    0031        1.      MOVS     r1,r6
        0x00000cbe:    f000f9b5    ....    BL       __Heap_ProvideMemory ; 0x102c
        0x00000cc2:    bdf8        ..      POP      {r3-r7,pc}
    .text
    __Heap_Initialize
        0x00000cc4:    2100        .!      MOVS     r1,#0
        0x00000cc6:    6001        .`      STR      r1,[r0,#0]
        0x00000cc8:    6041        A`      STR      r1,[r0,#4]
        0x00000cca:    6080        .`      STR      r0,[r0,#8]
        0x00000ccc:    4770        pG      BX       lr
    __Heap_DescSize
        0x00000cce:    2010        .       MOVS     r0,#0x10
        0x00000cd0:    4770        pG      BX       lr
    .text
    _printf_truncate_signed
        0x00000cd2:    6809        .h      LDR      r1,[r1,#0]
        0x00000cd4:    054a        J.      LSLS     r2,r1,#21
        0x00000cd6:    d502        ..      BPL      0xcde ; _printf_truncate_signed + 12
        0x00000cd8:    0600        ..      LSLS     r0,r0,#24
        0x00000cda:    1600        ..      ASRS     r0,r0,#24
        0x00000cdc:    4770        pG      BX       lr
        0x00000cde:    05c9        ..      LSLS     r1,r1,#23
        0x00000ce0:    d5fc        ..      BPL      0xcdc ; _printf_truncate_signed + 10
        0x00000ce2:    0400        ..      LSLS     r0,r0,#16
        0x00000ce4:    1400        ..      ASRS     r0,r0,#16
        0x00000ce6:    4770        pG      BX       lr
    _printf_truncate_unsigned
        0x00000ce8:    6809        .h      LDR      r1,[r1,#0]
        0x00000cea:    054a        J.      LSLS     r2,r1,#21
        0x00000cec:    d502        ..      BPL      0xcf4 ; _printf_truncate_unsigned + 12
        0x00000cee:    0600        ..      LSLS     r0,r0,#24
        0x00000cf0:    0e00        ..      LSRS     r0,r0,#24
        0x00000cf2:    4770        pG      BX       lr
        0x00000cf4:    05c9        ..      LSLS     r1,r1,#23
        0x00000cf6:    d5fc        ..      BPL      0xcf2 ; _printf_truncate_unsigned + 10
        0x00000cf8:    0400        ..      LSLS     r0,r0,#16
        0x00000cfa:    0c00        ..      LSRS     r0,r0,#16
        0x00000cfc:    4770        pG      BX       lr
    .text
    _printf_int_common
        0x00000cfe:    b5ff        ..      PUSH     {r0-r7,lr}
        0x00000d00:    0004        ..      MOVS     r4,r0
        0x00000d02:    b081        ..      SUB      sp,sp,#4
        0x00000d04:    3024        $0      ADDS     r0,r0,#0x24
        0x00000d06:    000d        ..      MOVS     r5,r1
        0x00000d08:    9000        ..      STR      r0,[sp,#0]
        0x00000d0a:    6821        !h      LDR      r1,[r4,#0]
        0x00000d0c:    0688        ..      LSLS     r0,r1,#26
        0x00000d0e:    d504        ..      BPL      0xd1a ; _printf_int_common + 28
        0x00000d10:    2210        ."      MOVS     r2,#0x10
        0x00000d12:    69e0        .i      LDR      r0,[r4,#0x1c]
        0x00000d14:    4391        .C      BICS     r1,r1,r2
        0x00000d16:    6021        !`      STR      r1,[r4,#0]
        0x00000d18:    e000        ..      B        0xd1c ; _printf_int_common + 30
        0x00000d1a:    2001        .       MOVS     r0,#1
        0x00000d1c:    42a8        .B      CMP      r0,r5
        0x00000d1e:    dd01        ..      BLE      0xd24 ; _printf_int_common + 38
        0x00000d20:    1b47        G.      SUBS     r7,r0,r5
        0x00000d22:    e000        ..      B        0xd26 ; _printf_int_common + 40
        0x00000d24:    2700        .'      MOVS     r7,#0
        0x00000d26:    9804        ..      LDR      r0,[sp,#0x10]
        0x00000d28:    69a1        .i      LDR      r1,[r4,#0x18]
        0x00000d2a:    197a        z.      ADDS     r2,r7,r5
        0x00000d2c:    1810        ..      ADDS     r0,r2,r0
        0x00000d2e:    1a08        ..      SUBS     r0,r1,r0
        0x00000d30:    61a0        .a      STR      r0,[r4,#0x18]
        0x00000d32:    7820         x      LDRB     r0,[r4,#0]
        0x00000d34:    06c0        ..      LSLS     r0,r0,#27
        0x00000d36:    d402        ..      BMI      0xd3e ; _printf_int_common + 64
        0x00000d38:    0020         .      MOVS     r0,r4
        0x00000d3a:    f7fffb75    ..u.    BL       _printf_pre_padding ; 0x428
        0x00000d3e:    2600        .&      MOVS     r6,#0
        0x00000d40:    e008        ..      B        0xd54 ; _printf_int_common + 86
        0x00000d42:    9803        ..      LDR      r0,[sp,#0xc]
        0x00000d44:    6862        bh      LDR      r2,[r4,#4]
        0x00000d46:    68a1        .h      LDR      r1,[r4,#8]
        0x00000d48:    5d80        .]      LDRB     r0,[r0,r6]
        0x00000d4a:    4790        .G      BLX      r2
        0x00000d4c:    6a20         j      LDR      r0,[r4,#0x20]
        0x00000d4e:    1c40        @.      ADDS     r0,r0,#1
        0x00000d50:    1c76        v.      ADDS     r6,r6,#1
        0x00000d52:    6220         b      STR      r0,[r4,#0x20]
        0x00000d54:    9804        ..      LDR      r0,[sp,#0x10]
        0x00000d56:    4286        .B      CMP      r6,r0
        0x00000d58:    dbf3        ..      BLT      0xd42 ; _printf_int_common + 68
        0x00000d5a:    7820         x      LDRB     r0,[r4,#0]
        0x00000d5c:    06c0        ..      LSLS     r0,r0,#27
        0x00000d5e:    d50a        ..      BPL      0xd76 ; _printf_int_common + 120
        0x00000d60:    0020         .      MOVS     r0,r4
        0x00000d62:    f7fffb61    ..a.    BL       _printf_pre_padding ; 0x428
        0x00000d66:    e006        ..      B        0xd76 ; _printf_int_common + 120
        0x00000d68:    6862        bh      LDR      r2,[r4,#4]
        0x00000d6a:    68a1        .h      LDR      r1,[r4,#8]
        0x00000d6c:    2030        0       MOVS     r0,#0x30
        0x00000d6e:    4790        .G      BLX      r2
        0x00000d70:    6a20         j      LDR      r0,[r4,#0x20]
        0x00000d72:    1c40        @.      ADDS     r0,r0,#1
        0x00000d74:    6220         b      STR      r0,[r4,#0x20]
        0x00000d76:    0038        8.      MOVS     r0,r7
        0x00000d78:    1e7f        ..      SUBS     r7,r7,#1
        0x00000d7a:    2800        .(      CMP      r0,#0
        0x00000d7c:    dcf4        ..      BGT      0xd68 ; _printf_int_common + 106
        0x00000d7e:    e007        ..      B        0xd90 ; _printf_int_common + 146
        0x00000d80:    9800        ..      LDR      r0,[sp,#0]
        0x00000d82:    6862        bh      LDR      r2,[r4,#4]
        0x00000d84:    68a1        .h      LDR      r1,[r4,#8]
        0x00000d86:    5d40        @]      LDRB     r0,[r0,r5]
        0x00000d88:    4790        .G      BLX      r2
        0x00000d8a:    6a20         j      LDR      r0,[r4,#0x20]
        0x00000d8c:    1c40        @.      ADDS     r0,r0,#1
        0x00000d8e:    6220         b      STR      r0,[r4,#0x20]
        0x00000d90:    0028        (.      MOVS     r0,r5
        0x00000d92:    1e6d        m.      SUBS     r5,r5,#1
        0x00000d94:    2800        .(      CMP      r0,#0
        0x00000d96:    dcf3        ..      BGT      0xd80 ; _printf_int_common + 130
        0x00000d98:    0020         .      MOVS     r0,r4
        0x00000d9a:    f7fffb5b    ..[.    BL       _printf_post_padding ; 0x454
        0x00000d9e:    7820         x      LDRB     r0,[r4,#0]
        0x00000da0:    0600        ..      LSLS     r0,r0,#24
        0x00000da2:    d502        ..      BPL      0xdaa ; _printf_int_common + 172
        0x00000da4:    2002        .       MOVS     r0,#2
        0x00000da6:    b005        ..      ADD      sp,sp,#0x14
        0x00000da8:    bdf0        ..      POP      {r4-r7,pc}
        0x00000daa:    2001        .       MOVS     r0,#1
        0x00000dac:    e7fb        ..      B        0xda6 ; _printf_int_common + 168
        0x00000dae:    0000        ..      MOVS     r0,r0
    $a
    $Ven$AT$I$$_printf_charcount
        0x00000db0:    e28fc001    ....    ADR      r12,{pc}+9 ; 0xdb9
        0x00000db4:    e12fff1c    ../.    BX       r12
    $t
    .text
    _printf_charcount
        0x00000db8:    6811        .h      LDR      r1,[r2,#0]
        0x00000dba:    6802        .h      LDR      r2,[r0,#0]
        0x00000dbc:    6a00        .j      LDR      r0,[r0,#0x20]
        0x00000dbe:    0553        S.      LSLS     r3,r2,#21
        0x00000dc0:    d501        ..      BPL      0xdc6 ; _printf_charcount + 14
        0x00000dc2:    7008        .p      STRB     r0,[r1,#0]
        0x00000dc4:    e009        ..      B        0xdda ; _printf_charcount + 34
        0x00000dc6:    05d3        ..      LSLS     r3,r2,#23
        0x00000dc8:    d501        ..      BPL      0xdce ; _printf_charcount + 22
        0x00000dca:    8008        ..      STRH     r0,[r1,#0]
        0x00000dcc:    e005        ..      B        0xdda ; _printf_charcount + 34
        0x00000dce:    0613        ..      LSLS     r3,r2,#24
        0x00000dd0:    d502        ..      BPL      0xdd8 ; _printf_charcount + 32
        0x00000dd2:    17c2        ..      ASRS     r2,r0,#31
        0x00000dd4:    c105        ..      STM      r1!,{r0,r2}
        0x00000dd6:    e000        ..      B        0xdda ; _printf_charcount + 34
        0x00000dd8:    6008        .`      STR      r0,[r1,#0]
        0x00000dda:    2001        .       MOVS     r0,#1
        0x00000ddc:    4770        pG      BX       lr
        0x00000dde:    0000        ..      MOVS     r0,r0
    .text
    _printf_input_char
        0x00000de0:    6901        .i      LDR      r1,[r0,#0x10]
        0x00000de2:    1c4a        J.      ADDS     r2,r1,#1
        0x00000de4:    6102        .a      STR      r2,[r0,#0x10]
        0x00000de6:    7808        .x      LDRB     r0,[r1,#0]
        0x00000de8:    4770        pG      BX       lr
    _printf_char_common
        0x00000dea:    b500        ..      PUSH     {lr}
        0x00000dec:    b08f        ..      SUB      sp,sp,#0x3c
        0x00000dee:    9102        ..      STR      r1,[sp,#8]
        0x00000df0:    2100        .!      MOVS     r1,#0
        0x00000df2:    9105        ..      STR      r1,[sp,#0x14]
        0x00000df4:    4905        .I      LDR      r1,[pc,#20] ; [0xe0c] = 0xffffffe5
        0x00000df6:    9301        ..      STR      r3,[sp,#4]
        0x00000df8:    4479        yD      ADD      r1,r1,pc
        0x00000dfa:    9103        ..      STR      r1,[sp,#0xc]
        0x00000dfc:    0011        ..      MOVS     r1,r2
        0x00000dfe:    9004        ..      STR      r0,[sp,#0x10]
        0x00000e00:    4668        hF      MOV      r0,sp
        0x00000e02:    f7fffbeb    ....    BL       __printf ; 0x5dc
        0x00000e06:    b00f        ..      ADD      sp,sp,#0x3c
        0x00000e08:    bd00        ..      POP      {pc}
    $d
        0x00000e0a:    0000        ..      DCW    0
        0x00000e0c:    ffffffe5    ....    DCD    4294967269
    $t
    .text
    _sputc
        0x00000e10:    680a        .h      LDR      r2,[r1,#0]
        0x00000e12:    7010        .p      STRB     r0,[r2,#0]
        0x00000e14:    1c52        R.      ADDS     r2,r2,#1
        0x00000e16:    600a        .`      STR      r2,[r1,#0]
        0x00000e18:    4770        pG      BX       lr
        0x00000e1a:    0000        ..      MOVS     r0,r0
    $a
    $Ven$AT$I$$_printf_char
        0x00000e1c:    e28fc017    ....    ADR      r12,{pc}+0x1f ; 0xe3b
        0x00000e20:    e12fff1c    ../.    BX       r12
    $t
    .text
    _printf_cs_common
        0x00000e24:    b510        ..      PUSH     {r4,lr}
        0x00000e26:    6943        Ci      LDR      r3,[r0,#0x14]
        0x00000e28:    2b00        .+      CMP      r3,#0
        0x00000e2a:    d002        ..      BEQ      0xe32 ; _printf_cs_common + 14
        0x00000e2c:    46c0        .F      MOV      r8,r8
        0x00000e2e:    46c0        .F      MOV      r8,r8
        0x00000e30:    e001        ..      B        0xe36 ; _printf_cs_common + 18
        0x00000e32:    f7fffb20    .. .    BL       _printf_str ; 0x476
        0x00000e36:    2001        .       MOVS     r0,#1
        0x00000e38:    bd10        ..      POP      {r4,pc}
    _printf_char
        0x00000e3a:    7812        .x      LDRB     r2,[r2,#0]
        0x00000e3c:    0001        ..      MOVS     r1,r0
        0x00000e3e:    3124        $1      ADDS     r1,r1,#0x24
        0x00000e40:    700a        .p      STRB     r2,[r1,#0]
        0x00000e42:    2200        ."      MOVS     r2,#0
        0x00000e44:    704a        Jp      STRB     r2,[r1,#1]
        0x00000e46:    2201        ."      MOVS     r2,#1
        0x00000e48:    e7ec        ..      B        _printf_cs_common ; 0xe24
    _printf_string
        0x00000e4a:    6811        .h      LDR      r1,[r2,#0]
        0x00000e4c:    2200        ."      MOVS     r2,#0
        0x00000e4e:    43d2        .C      MVNS     r2,r2
        0x00000e50:    e7e8        ..      B        _printf_cs_common ; 0xe24
        0x00000e52:    0000        ..      MOVS     r0,r0
    .text
    _printf_wctomb
        0x00000e54:    b5f7        ..      PUSH     {r0-r2,r4-r7,lr}
        0x00000e56:    0015        ..      MOVS     r5,r2
        0x00000e58:    0004        ..      MOVS     r4,r0
        0x00000e5a:    482c        ,H      LDR      r0,[pc,#176] ; [0xf0c] = 0xc30e
        0x00000e5c:    b086        ..      SUB      sp,sp,#0x18
        0x00000e5e:    4478        xD      ADD      r0,r0,pc
        0x00000e60:    2700        .'      MOVS     r7,#0
        0x00000e62:    c803        ..      LDM      r0,{r0,r1}
        0x00000e64:    003e        >.      MOVS     r6,r7
        0x00000e66:    9000        ..      STR      r0,[sp,#0]
        0x00000e68:    9101        ..      STR      r1,[sp,#4]
        0x00000e6a:    e011        ..      B        0xe90 ; _printf_wctomb + 60
        0x00000e6c:    9807        ..      LDR      r0,[sp,#0x1c]
        0x00000e6e:    466a        jF      MOV      r2,sp
        0x00000e70:    0071        q.      LSLS     r1,r6,#1
        0x00000e72:    5a41        AZ      LDRH     r1,[r0,r1]
        0x00000e74:    a802        ..      ADD      r0,sp,#8
        0x00000e76:    f000fcd4    ....    BL       _wcrtomb ; 0x1822
        0x00000e7a:    1c41        A.      ADDS     r1,r0,#1
        0x00000e7c:    d007        ..      BEQ      0xe8e ; _printf_wctomb + 58
        0x00000e7e:    7821        !x      LDRB     r1,[r4,#0]
        0x00000e80:    0689        ..      LSLS     r1,r1,#26
        0x00000e82:    d503        ..      BPL      0xe8c ; _printf_wctomb + 56
        0x00000e84:    69e2        .i      LDR      r2,[r4,#0x1c]
        0x00000e86:    1839        9.      ADDS     r1,r7,r0
        0x00000e88:    4291        .B      CMP      r1,r2
        0x00000e8a:    d80e        ..      BHI      0xeaa ; _printf_wctomb + 86
        0x00000e8c:    183f        ?.      ADDS     r7,r7,r0
        0x00000e8e:    1c76        v.      ADDS     r6,r6,#1
        0x00000e90:    7820         x      LDRB     r0,[r4,#0]
        0x00000e92:    0680        ..      LSLS     r0,r0,#26
        0x00000e94:    d502        ..      BPL      0xe9c ; _printf_wctomb + 72
        0x00000e96:    69e0        .i      LDR      r0,[r4,#0x1c]
        0x00000e98:    42b8        .B      CMP      r0,r7
        0x00000e9a:    dd06        ..      BLE      0xeaa ; _printf_wctomb + 86
        0x00000e9c:    42ae        .B      CMP      r6,r5
        0x00000e9e:    dbe5        ..      BLT      0xe6c ; _printf_wctomb + 24
        0x00000ea0:    9807        ..      LDR      r0,[sp,#0x1c]
        0x00000ea2:    0071        q.      LSLS     r1,r6,#1
        0x00000ea4:    5a40        @Z      LDRH     r0,[r0,r1]
        0x00000ea6:    2800        .(      CMP      r0,#0
        0x00000ea8:    d1e0        ..      BNE      0xe6c ; _printf_wctomb + 24
        0x00000eaa:    69a0        .i      LDR      r0,[r4,#0x18]
        0x00000eac:    1bc0        ..      SUBS     r0,r0,r7
        0x00000eae:    61a0        .a      STR      r0,[r4,#0x18]
        0x00000eb0:    0020         .      MOVS     r0,r4
        0x00000eb2:    f7fffab9    ....    BL       _printf_pre_padding ; 0x428
        0x00000eb6:    4815        .H      LDR      r0,[pc,#84] ; [0xf0c] = 0xc30e
        0x00000eb8:    4478        xD      ADD      r0,r0,pc
        0x00000eba:    385a        Z8      SUBS     r0,r0,#0x5a
        0x00000ebc:    c803        ..      LDM      r0,{r0,r1}
        0x00000ebe:    9000        ..      STR      r0,[sp,#0]
        0x00000ec0:    2000        .       MOVS     r0,#0
        0x00000ec2:    9101        ..      STR      r1,[sp,#4]
        0x00000ec4:    e016        ..      B        0xef4 ; _printf_wctomb + 160
        0x00000ec6:    0041        A.      LSLS     r1,r0,#1
        0x00000ec8:    466a        jF      MOV      r2,sp
        0x00000eca:    9807        ..      LDR      r0,[sp,#0x1c]
        0x00000ecc:    5a41        AZ      LDRH     r1,[r0,r1]
        0x00000ece:    a802        ..      ADD      r0,sp,#8
        0x00000ed0:    f000fca7    ....    BL       _wcrtomb ; 0x1822
        0x00000ed4:    9005        ..      STR      r0,[sp,#0x14]
        0x00000ed6:    1c40        @.      ADDS     r0,r0,#1
        0x00000ed8:    d00a        ..      BEQ      0xef0 ; _printf_wctomb + 156
        0x00000eda:    2500        .%      MOVS     r5,#0
        0x00000edc:    e005        ..      B        0xeea ; _printf_wctomb + 150
        0x00000ede:    6862        bh      LDR      r2,[r4,#4]
        0x00000ee0:    a802        ..      ADD      r0,sp,#8
        0x00000ee2:    68a1        .h      LDR      r1,[r4,#8]
        0x00000ee4:    5d40        @]      LDRB     r0,[r0,r5]
        0x00000ee6:    4790        .G      BLX      r2
        0x00000ee8:    1c6d        m.      ADDS     r5,r5,#1
        0x00000eea:    9805        ..      LDR      r0,[sp,#0x14]
        0x00000eec:    4285        .B      CMP      r5,r0
        0x00000eee:    d3f6        ..      BCC      0xede ; _printf_wctomb + 138
        0x00000ef0:    9804        ..      LDR      r0,[sp,#0x10]
        0x00000ef2:    1c40        @.      ADDS     r0,r0,#1
        0x00000ef4:    42b0        .B      CMP      r0,r6
        0x00000ef6:    9004        ..      STR      r0,[sp,#0x10]
        0x00000ef8:    dbe5        ..      BLT      0xec6 ; _printf_wctomb + 114
        0x00000efa:    6a20         j      LDR      r0,[r4,#0x20]
        0x00000efc:    19c0        ..      ADDS     r0,r0,r7
        0x00000efe:    6220         b      STR      r0,[r4,#0x20]
        0x00000f00:    0020         .      MOVS     r0,r4
        0x00000f02:    f7fffaa7    ....    BL       _printf_post_padding ; 0x454
        0x00000f06:    b009        ..      ADD      sp,sp,#0x24
        0x00000f08:    bdf0        ..      POP      {r4-r7,pc}
    $d
        0x00000f0a:    0000        ..      DCW    0
        0x00000f0c:    0000c30e    ....    DCD    49934
    $a
    $Ven$AT$I$$_printf_longlong_dec
        0x00000f10:    e28fc001    ....    ADR      r12,{pc}+9 ; 0xf19
        0x00000f14:    e12fff1c    ../.    BX       r12
    $t
    .text
    _printf_longlong_dec
        0x00000f18:    b5f7        ..      PUSH     {r0-r2,r4-r7,lr}
        0x00000f1a:    1dd2        ..      ADDS     r2,r2,#7
        0x00000f1c:    2500        .%      MOVS     r5,#0
        0x00000f1e:    08d2        ..      LSRS     r2,r2,#3
        0x00000f20:    a615        ..      ADR      r6,{pc}+0x58 ; 0xf78
        0x00000f22:    00d2        ..      LSLS     r2,r2,#3
        0x00000f24:    29f5        .)      CMP      r1,#0xf5
        0x00000f26:    ca05        ..      LDM      r2,{r0,r2}
        0x00000f28:    d011        ..      BEQ      0xf4e ; _printf_longlong_dec + 54
        0x00000f2a:    2a00        .*      CMP      r2,#0
        0x00000f2c:    da05        ..      BGE      0xf3a ; _printf_longlong_dec + 34
        0x00000f2e:    2100        .!      MOVS     r1,#0
        0x00000f30:    4240        @B      RSBS     r0,r0,#0
        0x00000f32:    4191        .A      SBCS     r1,r1,r2
        0x00000f34:    000a        ..      MOVS     r2,r1
        0x00000f36:    a611        ..      ADR      r6,{pc}+0x46 ; 0xf7c
        0x00000f38:    e008        ..      B        0xf4c ; _printf_longlong_dec + 52
        0x00000f3a:    9900        ..      LDR      r1,[sp,#0]
        0x00000f3c:    6809        .h      LDR      r1,[r1,#0]
        0x00000f3e:    078b        ..      LSLS     r3,r1,#30
        0x00000f40:    d501        ..      BPL      0xf46 ; _printf_longlong_dec + 46
        0x00000f42:    a60f        ..      ADR      r6,{pc}+0x3e ; 0xf80
        0x00000f44:    e002        ..      B        0xf4c ; _printf_longlong_dec + 52
        0x00000f46:    0749        I.      LSLS     r1,r1,#29
        0x00000f48:    d501        ..      BPL      0xf4e ; _printf_longlong_dec + 54
        0x00000f4a:    a60e        ..      ADR      r6,{pc}+0x3a ; 0xf84
        0x00000f4c:    2501        .%      MOVS     r5,#1
        0x00000f4e:    9f00        ..      LDR      r7,[sp,#0]
        0x00000f50:    0011        ..      MOVS     r1,r2
        0x00000f52:    2400        .$      MOVS     r4,#0
        0x00000f54:    3724        $7      ADDS     r7,r7,#0x24
        0x00000f56:    e004        ..      B        0xf62 ; _printf_longlong_dec + 74
        0x00000f58:    f000e882    ....    BLX      _ll_udiv10 ; 0x1060
        0x00000f5c:    3230        02      ADDS     r2,r2,#0x30
        0x00000f5e:    553a        :U      STRB     r2,[r7,r4]
        0x00000f60:    1c64        d.      ADDS     r4,r4,#1
        0x00000f62:    0002        ..      MOVS     r2,r0
        0x00000f64:    430a        .C      ORRS     r2,r2,r1
        0x00000f66:    d1f7        ..      BNE      0xf58 ; _printf_longlong_dec + 64
        0x00000f68:    9800        ..      LDR      r0,[sp,#0]
        0x00000f6a:    002b        +.      MOVS     r3,r5
        0x00000f6c:    0032        2.      MOVS     r2,r6
        0x00000f6e:    0021        !.      MOVS     r1,r4
        0x00000f70:    f7fffec5    ....    BL       _printf_int_common ; 0xcfe
        0x00000f74:    bdfe        ..      POP      {r1-r7,pc}
    $d
        0x00000f76:    0000        ..      DCW    0
        0x00000f78:    00000000    ....    DCD    0
        0x00000f7c:    0000002d    -...    DCD    45
        0x00000f80:    0000002b    +...    DCD    43
        0x00000f84:    00000020     ...    DCD    32
    $a
    $Ven$AT$I$$_printf_int_oct
        0x00000f88:    e28fc045    E...    ADR      r12,{pc}+0x4d ; 0xfd5
        0x00000f8c:    e12fff1c    ../.    BX       r12
    $t
    .text
    _printf_longlong_oct_internal
    _printf_longlong_oct
        0x00000f90:    b570        p.      PUSH     {r4-r6,lr}
        0x00000f92:    2100        .!      MOVS     r1,#0
        0x00000f94:    0004        ..      MOVS     r4,r0
        0x00000f96:    3424        $4      ADDS     r4,r4,#0x24
        0x00000f98:    e008        ..      B        0xfac ; _printf_longlong_oct_internal + 28
        0x00000f9a:    0755        U.      LSLS     r5,r2,#29
        0x00000f9c:    08d2        ..      LSRS     r2,r2,#3
        0x00000f9e:    0f6d        m.      LSRS     r5,r5,#29
        0x00000fa0:    3530        05      ADDS     r5,r5,#0x30
        0x00000fa2:    5465        eT      STRB     r5,[r4,r1]
        0x00000fa4:    075d        ].      LSLS     r5,r3,#29
        0x00000fa6:    432a        *C      ORRS     r2,r2,r5
        0x00000fa8:    08db        ..      LSRS     r3,r3,#3
        0x00000faa:    1c49        I.      ADDS     r1,r1,#1
        0x00000fac:    0015        ..      MOVS     r5,r2
        0x00000fae:    431d        .C      ORRS     r5,r5,r3
        0x00000fb0:    d1f3        ..      BNE      0xf9a ; _printf_longlong_oct_internal + 10
        0x00000fb2:    6804        .h      LDR      r4,[r0,#0]
        0x00000fb4:    2300        .#      MOVS     r3,#0
        0x00000fb6:    a210        ..      ADR      r2,{pc}+0x42 ; 0xff8
        0x00000fb8:    0725        %.      LSLS     r5,r4,#28
        0x00000fba:    d508        ..      BPL      0xfce ; _printf_longlong_oct_internal + 62
        0x00000fbc:    06a4        ..      LSLS     r4,r4,#26
        0x00000fbe:    d401        ..      BMI      0xfc4 ; _printf_longlong_oct_internal + 52
        0x00000fc0:    2900        .)      CMP      r1,#0
        0x00000fc2:    d004        ..      BEQ      0xfce ; _printf_longlong_oct_internal + 62
        0x00000fc4:    69c4        .i      LDR      r4,[r0,#0x1c]
        0x00000fc6:    2301        .#      MOVS     r3,#1
        0x00000fc8:    a20c        ..      ADR      r2,{pc}+0x34 ; 0xffc
        0x00000fca:    1e64        d.      SUBS     r4,r4,#1
        0x00000fcc:    61c4        .a      STR      r4,[r0,#0x1c]
        0x00000fce:    f7fffe96    ....    BL       _printf_int_common ; 0xcfe
        0x00000fd2:    bd70        p.      POP      {r4-r6,pc}
    _printf_int_oct
        0x00000fd4:    b510        ..      PUSH     {r4,lr}
        0x00000fd6:    0004        ..      MOVS     r4,r0
        0x00000fd8:    6810        .h      LDR      r0,[r2,#0]
        0x00000fda:    0021        !.      MOVS     r1,r4
        0x00000fdc:    f7fffe84    ....    BL       _printf_truncate_unsigned ; 0xce8
        0x00000fe0:    0002        ..      MOVS     r2,r0
        0x00000fe2:    2300        .#      MOVS     r3,#0
        0x00000fe4:    0020         .      MOVS     r0,r4
        0x00000fe6:    f7ffffd3    ....    BL       _printf_longlong_oct_internal ; 0xf90
        0x00000fea:    bd10        ..      POP      {r4,pc}
    _printf_ll_oct
        0x00000fec:    1dd2        ..      ADDS     r2,r2,#7
        0x00000fee:    08d1        ..      LSRS     r1,r2,#3
        0x00000ff0:    00c9        ..      LSLS     r1,r1,#3
        0x00000ff2:    c90c        ..      LDM      r1!,{r2,r3}
        0x00000ff4:    e7cc        ..      B        _printf_longlong_oct_internal ; 0xf90
    $d
        0x00000ff6:    0000        ..      DCW    0
        0x00000ff8:    00000000    ....    DCD    0
        0x00000ffc:    00000030    0...    DCD    48
    $a
    .text
    __rt_udiv10
        0x00001000:    e240100a    ..@.    SUB      r1,r0,#0xa
        0x00001004:    e0400120     .@.    SUB      r0,r0,r0,LSR #2
        0x00001008:    e0800220     ...    ADD      r0,r0,r0,LSR #4
        0x0000100c:    e0800420     ...    ADD      r0,r0,r0,LSR #8
        0x00001010:    e0800820     ...    ADD      r0,r0,r0,LSR #16
        0x00001014:    e1a001a0    ....    LSR      r0,r0,#3
        0x00001018:    e0802100    .!..    ADD      r2,r0,r0,LSL #2
        0x0000101c:    e0511082    ..Q.    SUBS     r1,r1,r2,LSL #1
        0x00001020:    52800001    ...R    ADDPL    r0,r0,#1
        0x00001024:    4281100a    ...B    ADDMI    r1,r1,#0xa
        0x00001028:    e12fff1e    ../.    BX       lr
    $t
    .text
    __Heap_ProvideMemory
        0x0000102c:    b510        ..      PUSH     {r4,lr}
        0x0000102e:    0003        ..      MOVS     r3,r0
        0x00001030:    6840        @h      LDR      r0,[r0,#4]
        0x00001032:    e001        ..      B        0x1038 ; __Heap_ProvideMemory + 12
        0x00001034:    0003        ..      MOVS     r3,r0
        0x00001036:    6840        @h      LDR      r0,[r0,#4]
        0x00001038:    2800        .(      CMP      r0,#0
        0x0000103a:    d001        ..      BEQ      0x1040 ; __Heap_ProvideMemory + 20
        0x0000103c:    4288        .B      CMP      r0,r1
        0x0000103e:    d3f9        ..      BCC      0x1034 ; __Heap_ProvideMemory + 8
        0x00001040:    6818        .h      LDR      r0,[r3,#0]
        0x00001042:    18c3        ..      ADDS     r3,r0,r3
        0x00001044:    428b        .B      CMP      r3,r1
        0x00001046:    d006        ..      BEQ      0x1056 ; __Heap_ProvideMemory + 42
        0x00001048:    1ccb        ..      ADDS     r3,r1,#3
        0x0000104a:    08d8        ..      LSRS     r0,r3,#3
        0x0000104c:    00c0        ..      LSLS     r0,r0,#3
        0x0000104e:    1d00        ..      ADDS     r0,r0,#4
        0x00001050:    1a41        A.      SUBS     r1,r0,r1
        0x00001052:    1a52        R.      SUBS     r2,r2,r1
        0x00001054:    0001        ..      MOVS     r1,r0
        0x00001056:    1d08        ..      ADDS     r0,r1,#4
        0x00001058:    600a        .`      STR      r2,[r1,#0]
        0x0000105a:    f7fff992    ....    BL       free ; 0x382
        0x0000105e:    bd10        ..      POP      {r4,pc}
    $a
    .text
    _ll_udiv10
        0x00001060:    e92d4030    0@-.    PUSH     {r4,r5,lr}
        0x00001064:    e250200a    . P.    SUBS     r2,r0,#0xa
        0x00001068:    e1a0e120     ...    LSR      lr,r0,#2
        0x0000106c:    e2d13000    .0..    SBCS     r3,r1,#0
        0x00001070:    e18eef01    ....    ORR      lr,lr,r1,LSL #30
        0x00001074:    e050000e    ..P.    SUBS     r0,r0,lr
        0x00001078:    e0c11121    !...    SBC      r1,r1,r1,LSR #2
        0x0000107c:    e1a0e220     ...    LSR      lr,r0,#4
        0x00001080:    e18eee01    ....    ORR      lr,lr,r1,LSL #28
        0x00001084:    e090000e    ....    ADDS     r0,r0,lr
        0x00001088:    e0a11221    !...    ADC      r1,r1,r1,LSR #4
        0x0000108c:    e1a0e420     ...    LSR      lr,r0,#8
        0x00001090:    e18eec01    ....    ORR      lr,lr,r1,LSL #24
        0x00001094:    e090000e    ....    ADDS     r0,r0,lr
        0x00001098:    e0a11421    !...    ADC      r1,r1,r1,LSR #8
        0x0000109c:    e1a0e820     ...    LSR      lr,r0,#16
        0x000010a0:    e18ee801    ....    ORR      lr,lr,r1,LSL #16
        0x000010a4:    e090000e    ....    ADDS     r0,r0,lr
        0x000010a8:    e0a11821    !...    ADC      r1,r1,r1,LSR #16
        0x000010ac:    e0900001    ....    ADDS     r0,r0,r1
        0x000010b0:    e2a11000    ....    ADC      r1,r1,#0
        0x000010b4:    e1a001a0    ....    LSR      r0,r0,#3
        0x000010b8:    e1800e81    ....    ORR      r0,r0,r1,LSL #29
        0x000010bc:    e1a011a1    ....    LSR      r1,r1,#3
        0x000010c0:    e0905100    .Q..    ADDS     r5,r0,r0,LSL #2
        0x000010c4:    e1a04101    .A..    LSL      r4,r1,#2
        0x000010c8:    e1844f20     O..    ORR      r4,r4,r0,LSR #30
        0x000010cc:    e0a44001    .@..    ADC      r4,r4,r1
        0x000010d0:    e0955005    .P..    ADDS     r5,r5,r5
        0x000010d4:    e0a44004    .@..    ADC      r4,r4,r4
        0x000010d8:    e0522005    . R.    SUBS     r2,r2,r5
        0x000010dc:    e0d33004    .0..    SBCS     r3,r3,r4
        0x000010e0:    e3a03000    .0..    MOV      r3,#0
        0x000010e4:    4282200a    . .B    ADDMI    r2,r2,#0xa
        0x000010e8:    48bd8030    0..H    POPMI    {r4,r5,pc}
        0x000010ec:    e2900001    ....    ADDS     r0,r0,#1
        0x000010f0:    e2a11000    ....    ADC      r1,r1,#0
        0x000010f4:    e8bd8030    0...    POP      {r4,r5,pc}
    $t
    .text
    __lib_sel_fp_printf
        0x000010f8:    4770        pG      BX       lr
    _fp_digits
        0x000010fa:    b5ff        ..      PUSH     {r0-r7,lr}
        0x000010fc:    000c        ..      MOVS     r4,r1
        0x000010fe:    b08f        ..      SUB      sp,sp,#0x3c
        0x00001100:    001e        ..      MOVS     r6,r3
        0x00001102:    ca03        ..      LDM      r2!,{r0,r1}
        0x00001104:    9008        ..      STR      r0,[sp,#0x20]
        0x00001106:    9109        ..      STR      r1,[sp,#0x24]
        0x00001108:    004f        O.      LSLS     r7,r1,#1
        0x0000110a:    0d7d        }.      LSRS     r5,r7,#21
        0x0000110c:    d100        ..      BNE      0x1110 ; _fp_digits + 22
        0x0000110e:    1e6d        m.      SUBS     r5,r5,#1
        0x00001110:    2100        .!      MOVS     r1,#0
        0x00001112:    0008        ..      MOVS     r0,r1
        0x00001114:    f00bed08    ....    BLX      __ieee_status ; 0xcb28
        0x00001118:    2103        .!      MOVS     r1,#3
        0x0000111a:    9a09        ..      LDR      r2,[sp,#0x24]
        0x0000111c:    0589        ..      LSLS     r1,r1,#22
        0x0000111e:    4008        .@      ANDS     r0,r0,r1
        0x00001120:    2a00        .*      CMP      r2,#0
        0x00001122:    da03        ..      BGE      0x112c ; _fp_digits + 50
        0x00001124:    0082        ..      LSLS     r2,r0,#2
        0x00001126:    1880        ..      ADDS     r0,r0,r2
        0x00001128:    0840        @.      LSRS     r0,r0,#1
        0x0000112a:    4008        .@      ANDS     r0,r0,r1
        0x0000112c:    0d80        ..      LSRS     r0,r0,#22
        0x0000112e:    2801        .(      CMP      r0,#1
        0x00001130:    900a        ..      STR      r0,[sp,#0x28]
        0x00001132:    dd02        ..      BLE      0x113a ; _fp_digits + 64
        0x00001134:    2000        .       MOVS     r0,#0
        0x00001136:    43c0        .C      MVNS     r0,r0
        0x00001138:    900a        ..      STR      r0,[sp,#0x28]
        0x0000113a:    9808        ..      LDR      r0,[sp,#0x20]
        0x0000113c:    4307        .C      ORRS     r7,r7,r0
        0x0000113e:    d00d        ..      BEQ      0x115c ; _fp_digits + 98
        0x00001140:    48ef        .H      LDR      r0,[pc,#956] ; [0x1500] = 0xfffffc01
        0x00001142:    49f0        .I      LDR      r1,[pc,#960] ; [0x1504] = 0x4d10
        0x00001144:    1828        (.      ADDS     r0,r5,r0
        0x00001146:    4348        HC      MULS     r0,r1,r0
        0x00001148:    1407        ..      ASRS     r7,r0,#16
        0x0000114a:    9818        ..      LDR      r0,[sp,#0x60]
        0x0000114c:    2800        .(      CMP      r0,#0
        0x0000114e:    d01d        ..      BEQ      0x118c ; _fp_digits + 146
        0x00001150:    4275        uB      RSBS     r5,r6,#0
        0x00001152:    1e29        ).      SUBS     r1,r5,#0
        0x00001154:    dd1d        ..      BLE      0x1192 ; _fp_digits + 152
        0x00001156:    980a        ..      LDR      r0,[sp,#0x28]
        0x00001158:    4242        BB      RSBS     r2,r0,#0
        0x0000115a:    e01b        ..      B        0x1194 ; _fp_digits + 154
        0x0000115c:    9818        ..      LDR      r0,[sp,#0x60]
        0x0000115e:    2801        .(      CMP      r0,#1
        0x00001160:    d002        ..      BEQ      0x1168 ; _fp_digits + 110
        0x00001162:    2000        .       MOVS     r0,#0
        0x00001164:    2130        0!      MOVS     r1,#0x30
        0x00001166:    e004        ..      B        0x1172 ; _fp_digits + 120
        0x00001168:    2000        .       MOVS     r0,#0
        0x0000116a:    43f2        .C      MVNS     r2,r6
        0x0000116c:    e005        ..      B        0x117a ; _fp_digits + 128
        0x0000116e:    5421        !T      STRB     r1,[r4,r0]
        0x00001170:    1c40        @.      ADDS     r0,r0,#1
        0x00001172:    42b0        .B      CMP      r0,r6
        0x00001174:    dbfb        ..      BLT      0x116e ; _fp_digits + 116
        0x00001176:    0030        0.      MOVS     r0,r6
        0x00001178:    2200        ."      MOVS     r2,#0
        0x0000117a:    9b18        ..      LDR      r3,[sp,#0x60]
        0x0000117c:    2100        .!      MOVS     r1,#0
        0x0000117e:    5421        !T      STRB     r1,[r4,r0]
        0x00001180:    990f        ..      LDR      r1,[sp,#0x3c]
        0x00001182:    608b        .`      STR      r3,[r1,#8]
        0x00001184:    600a        .`      STR      r2,[r1,#0]
        0x00001186:    6048        H`      STR      r0,[r1,#4]
        0x00001188:    b013        ..      ADD      sp,sp,#0x4c
        0x0000118a:    bdf0        ..      POP      {r4-r7,pc}
        0x0000118c:    1bbd        ..      SUBS     r5,r7,r6
        0x0000118e:    1c6d        m.      ADDS     r5,r5,#1
        0x00001190:    e7df        ..      B        0x1152 ; _fp_digits + 88
        0x00001192:    9a0a        ..      LDR      r2,[sp,#0x28]
        0x00001194:    2900        .)      CMP      r1,#0
        0x00001196:    da00        ..      BGE      0x119a ; _fp_digits + 160
        0x00001198:    4269        iB      RSBS     r1,r5,#0
        0x0000119a:    a80b        ..      ADD      r0,sp,#0x2c
        0x0000119c:    f000fbe4    ....    BL       _btod_etento ; 0x1968
        0x000011a0:    ab0b        ..      ADD      r3,sp,#0x2c
        0x000011a2:    cb07        ..      LDM      r3!,{r0-r2}
        0x000011a4:    ab03        ..      ADD      r3,sp,#0xc
        0x000011a6:    c307        ..      STM      r3!,{r0-r2}
        0x000011a8:    9908        ..      LDR      r1,[sp,#0x20]
        0x000011aa:    9809        ..      LDR      r0,[sp,#0x24]
        0x000011ac:    f000ecaa    ....    BLX      _btod_d2e ; 0x1b04
        0x000011b0:    466b        kF      MOV      r3,sp
        0x000011b2:    c307        ..      STM      r3!,{r0-r2}
        0x000011b4:    0001        ..      MOVS     r1,r0
        0x000011b6:    48d4        .H      LDR      r0,[pc,#848] ; [0x1508] = 0xffffdfe1
        0x000011b8:    1809        ..      ADDS     r1,r1,r0
        0x000011ba:    2d00        .-      CMP      r5,#0
        0x000011bc:    9100        ..      STR      r1,[sp,#0]
        0x000011be:    dd0b        ..      BLE      0x11d8 ; _fp_digits + 222
        0x000011c0:    49d1        .I      LDR      r1,[pc,#836] ; [0x1508] = 0xffffdfe1
        0x000011c2:    9803        ..      LDR      r0,[sp,#0xc]
        0x000011c4:    9a0a        ..      LDR      r2,[sp,#0x28]
        0x000011c6:    4249        IB      RSBS     r1,r1,#0
        0x000011c8:    1840        @.      ADDS     r0,r0,r1
        0x000011ca:    2300        .#      MOVS     r3,#0
        0x000011cc:    a903        ..      ADD      r1,sp,#0xc
        0x000011ce:    9003        ..      STR      r0,[sp,#0xc]
        0x000011d0:    4668        hF      MOV      r0,sp
        0x000011d2:    f000ef30    ..0.    BLX      _btod_ediv ; 0x2034
        0x000011d6:    e008        ..      B        0x11ea ; _fp_digits + 240
        0x000011d8:    9903        ..      LDR      r1,[sp,#0xc]
        0x000011da:    9a0a        ..      LDR      r2,[sp,#0x28]
        0x000011dc:    2300        .#      MOVS     r3,#0
        0x000011de:    1808        ..      ADDS     r0,r1,r0
        0x000011e0:    a903        ..      ADD      r1,sp,#0xc
        0x000011e2:    9003        ..      STR      r0,[sp,#0xc]
        0x000011e4:    4668        hF      MOV      r0,sp
        0x000011e6:    f000ef40    ..@.    BLX      _btod_emul ; 0x2068
        0x000011ea:    466b        kF      MOV      r3,sp
        0x000011ec:    c307        ..      STM      r3!,{r0-r2}
        0x000011ee:    0400        ..      LSLS     r0,r0,#16
        0x000011f0:    d003        ..      BEQ      0x11fa ; _fp_digits + 256
        0x000011f2:    2000        .       MOVS     r0,#0
        0x000011f4:    43c0        .C      MVNS     r0,r0
        0x000011f6:    0841        A.      LSRS     r1,r0,#1
        0x000011f8:    e000        ..      B        0x11fc ; _fp_digits + 258
        0x000011fa:    0010        ..      MOVS     r0,r2
        0x000011fc:    9a18        ..      LDR      r2,[sp,#0x60]
        0x000011fe:    2a00        .*      CMP      r2,#0
        0x00001200:    d003        ..      BEQ      0x120a ; _fp_digits + 272
        0x00001202:    2200        ."      MOVS     r2,#0
        0x00001204:    0015        ..      MOVS     r5,r2
        0x00001206:    9200        ..      STR      r2,[sp,#0]
        0x00001208:    e01e        ..      B        0x1248 ; _fp_digits + 334
        0x0000120a:    1e75        u.      SUBS     r5,r6,#1
        0x0000120c:    d405        ..      BMI      0x121a ; _fp_digits + 288
        0x0000120e:    f7ffef28    ..(.    BLX      _ll_udiv10 ; 0x1060
        0x00001212:    3230        02      ADDS     r2,r2,#0x30
        0x00001214:    5562        bU      STRB     r2,[r4,r5]
        0x00001216:    1e6d        m.      SUBS     r5,r5,#1
        0x00001218:    d5f9        ..      BPL      0x120e ; _fp_digits + 276
        0x0000121a:    2201        ."      MOVS     r2,#1
        0x0000121c:    4308        .C      ORRS     r0,r0,r1
        0x0000121e:    9607        ..      STR      r6,[sp,#0x1c]
        0x00001220:    d002        ..      BEQ      0x1228 ; _fp_digits + 302
        0x00001222:    2200        ."      MOVS     r2,#0
        0x00001224:    1c7f        ..      ADDS     r7,r7,#1
        0x00001226:    e004        ..      B        0x1232 ; _fp_digits + 312
        0x00001228:    7820         x      LDRB     r0,[r4,#0]
        0x0000122a:    2830        0(      CMP      r0,#0x30
        0x0000122c:    d101        ..      BNE      0x1232 ; _fp_digits + 312
        0x0000122e:    2200        ."      MOVS     r2,#0
        0x00001230:    1e7f        ..      SUBS     r7,r7,#1
        0x00001232:    2a00        .*      CMP      r2,#0
        0x00001234:    9706        ..      STR      r7,[sp,#0x18]
        0x00001236:    d088        ..      BEQ      0x114a ; _fp_digits + 80
        0x00001238:    e01e        ..      B        0x1278 ; _fp_digits + 382
        0x0000123a:    2d11        .-      CMP      r5,#0x11
        0x0000123c:    da07        ..      BGE      0x124e ; _fp_digits + 340
        0x0000123e:    f7ffef10    ....    BLX      _ll_udiv10 ; 0x1060
        0x00001242:    3230        02      ADDS     r2,r2,#0x30
        0x00001244:    5562        bU      STRB     r2,[r4,r5]
        0x00001246:    1c6d        m.      ADDS     r5,r5,#1
        0x00001248:    0002        ..      MOVS     r2,r0
        0x0000124a:    430a        .C      ORRS     r2,r2,r1
        0x0000124c:    d1f5        ..      BNE      0x123a ; _fp_digits + 320
        0x0000124e:    4308        .C      ORRS     r0,r0,r1
        0x00001250:    d003        ..      BEQ      0x125a ; _fp_digits + 352
        0x00001252:    9800        ..      LDR      r0,[sp,#0]
        0x00001254:    2800        .(      CMP      r0,#0
        0x00001256:    d019        ..      BEQ      0x128c ; _fp_digits + 402
        0x00001258:    e00e        ..      B        0x1278 ; _fp_digits + 382
        0x0000125a:    2100        .!      MOVS     r1,#0
        0x0000125c:    1e68        h.      SUBS     r0,r5,#1
        0x0000125e:    e005        ..      B        0x126c ; _fp_digits + 370
        0x00001260:    5c23        #\      LDRB     r3,[r4,r0]
        0x00001262:    5c62        b\      LDRB     r2,[r4,r1]
        0x00001264:    5463        cT      STRB     r3,[r4,r1]
        0x00001266:    5422        "T      STRB     r2,[r4,r0]
        0x00001268:    1e40        @.      SUBS     r0,r0,#1
        0x0000126a:    1c49        I.      ADDS     r1,r1,#1
        0x0000126c:    4281        .B      CMP      r1,r0
        0x0000126e:    dbf7        ..      BLT      0x1260 ; _fp_digits + 358
        0x00001270:    1ba8        ..      SUBS     r0,r5,r6
        0x00001272:    1e40        @.      SUBS     r0,r0,#1
        0x00001274:    9507        ..      STR      r5,[sp,#0x1c]
        0x00001276:    9006        ..      STR      r0,[sp,#0x18]
        0x00001278:    9a07        ..      LDR      r2,[sp,#0x1c]
        0x0000127a:    9918        ..      LDR      r1,[sp,#0x60]
        0x0000127c:    2000        .       MOVS     r0,#0
        0x0000127e:    54a0        .T      STRB     r0,[r4,r2]
        0x00001280:    980f        ..      LDR      r0,[sp,#0x3c]
        0x00001282:    9b07        ..      LDR      r3,[sp,#0x1c]
        0x00001284:    9a06        ..      LDR      r2,[sp,#0x18]
        0x00001286:    6081        .`      STR      r1,[r0,#8]
        0x00001288:    c00c        ..      STM      r0!,{r2,r3}
        0x0000128a:    e77d        }.      B        0x1188 ; _fp_digits + 142
        0x0000128c:    2611        .&      MOVS     r6,#0x11
        0x0000128e:    2000        .       MOVS     r0,#0
        0x00001290:    9018        ..      STR      r0,[sp,#0x60]
        0x00001292:    e75a        Z.      B        0x114a ; _fp_digits + 80
    _printf_fp_dec_real
        0x00001294:    b5f0        ..      PUSH     {r4-r7,lr}
        0x00001296:    1dd2        ..      ADDS     r2,r2,#7
        0x00001298:    000d        ..      MOVS     r5,r1
        0x0000129a:    08d1        ..      LSRS     r1,r2,#3
        0x0000129c:    0004        ..      MOVS     r4,r0
        0x0000129e:    00c9        ..      LSLS     r1,r1,#3
        0x000012a0:    b093        ..      SUB      sp,sp,#0x4c
        0x000012a2:    c903        ..      LDM      r1,{r0,r1}
        0x000012a4:    900c        ..      STR      r0,[sp,#0x30]
        0x000012a6:    910d        ..      STR      r1,[sp,#0x34]
        0x000012a8:    f005e976    ..v.    BLX      __ARM_fpclassify ; 0x6598
        0x000012ac:    0002        ..      MOVS     r2,r0
        0x000012ae:    980d        ..      LDR      r0,[sp,#0x34]
        0x000012b0:    0fc0        ..      LSRS     r0,r0,#31
        0x000012b2:    d001        ..      BEQ      0x12b8 ; _printf_fp_dec_real + 36
        0x000012b4:    202d        -       MOVS     r0,#0x2d
        0x000012b6:    e007        ..      B        0x12c8 ; _printf_fp_dec_real + 52
        0x000012b8:    6820         h      LDR      r0,[r4,#0]
        0x000012ba:    0781        ..      LSLS     r1,r0,#30
        0x000012bc:    d501        ..      BPL      0x12c2 ; _printf_fp_dec_real + 46
        0x000012be:    202b        +       MOVS     r0,#0x2b
        0x000012c0:    e002        ..      B        0x12c8 ; _printf_fp_dec_real + 52
        0x000012c2:    0740        @.      LSLS     r0,r0,#29
        0x000012c4:    0fc0        ..      LSRS     r0,r0,#31
        0x000012c6:    0140        @.      LSLS     r0,r0,#5
        0x000012c8:    2a03        .*      CMP      r2,#3
        0x000012ca:    900f        ..      STR      r0,[sp,#0x3c]
        0x000012cc:    d001        ..      BEQ      0x12d2 ; _printf_fp_dec_real + 62
        0x000012ce:    2a07        .*      CMP      r2,#7
        0x000012d0:    db05        ..      BLT      0x12de ; _printf_fp_dec_real + 74
        0x000012d2:    0003        ..      MOVS     r3,r0
        0x000012d4:    0029        ).      MOVS     r1,r5
        0x000012d6:    0020         .      MOVS     r0,r4
        0x000012d8:    f000fb02    ....    BL       _printf_fp_infnan ; 0x18e0
        0x000012dc:    e10e        ..      B        0x14fc ; _printf_fp_dec_real + 616
        0x000012de:    7820         x      LDRB     r0,[r4,#0]
        0x000012e0:    0680        ..      LSLS     r0,r0,#26
        0x000012e2:    d501        ..      BPL      0x12e8 ; _printf_fp_dec_real + 84
        0x000012e4:    69e7        .i      LDR      r7,[r4,#0x1c]
        0x000012e6:    e000        ..      B        0x12ea ; _printf_fp_dec_real + 86
        0x000012e8:    2706        .'      MOVS     r7,#6
        0x000012ea:    0028        (.      MOVS     r0,r5
        0x000012ec:    2d65        e-      CMP      r5,#0x65
        0x000012ee:    d004        ..      BEQ      0x12fa ; _printf_fp_dec_real + 102
        0x000012f0:    2866        f(      CMP      r0,#0x66
        0x000012f2:    d014        ..      BEQ      0x131e ; _printf_fp_dec_real + 138
        0x000012f4:    2d67        g-      CMP      r5,#0x67
        0x000012f6:    d169        i.      BNE      0x13cc ; _printf_fp_dec_real + 312
        0x000012f8:    e02d        -.      B        0x1356 ; _printf_fp_dec_real + 194
        0x000012fa:    2000        .       MOVS     r0,#0
        0x000012fc:    2f11        ./      CMP      r7,#0x11
        0x000012fe:    9000        ..      STR      r0,[sp,#0]
        0x00001300:    db01        ..      BLT      0x1306 ; _printf_fp_dec_real + 114
        0x00001302:    2311        .#      MOVS     r3,#0x11
        0x00001304:    e000        ..      B        0x1308 ; _printf_fp_dec_real + 116
        0x00001306:    1c7b        {.      ADDS     r3,r7,#1
        0x00001308:    aa0c        ..      ADD      r2,sp,#0x30
        0x0000130a:    a903        ..      ADD      r1,sp,#0xc
        0x0000130c:    a810        ..      ADD      r0,sp,#0x40
        0x0000130e:    f7fffef4    ....    BL       _fp_digits ; 0x10fa
        0x00001312:    9911        ..      LDR      r1,[sp,#0x44]
        0x00001314:    2600        .&      MOVS     r6,#0
        0x00001316:    9810        ..      LDR      r0,[sp,#0x40]
        0x00001318:    1c7d        }.      ADDS     r5,r7,#1
        0x0000131a:    910e        ..      STR      r1,[sp,#0x38]
        0x0000131c:    e042        B.      B        0x13a4 ; _printf_fp_dec_real + 272
        0x0000131e:    2001        .       MOVS     r0,#1
        0x00001320:    003b        ;.      MOVS     r3,r7
        0x00001322:    07c0        ..      LSLS     r0,r0,#31
        0x00001324:    900b        ..      STR      r0,[sp,#0x2c]
        0x00001326:    2001        .       MOVS     r0,#1
        0x00001328:    9000        ..      STR      r0,[sp,#0]
        0x0000132a:    aa0c        ..      ADD      r2,sp,#0x30
        0x0000132c:    a903        ..      ADD      r1,sp,#0xc
        0x0000132e:    a810        ..      ADD      r0,sp,#0x40
        0x00001330:    f7fffee3    ....    BL       _fp_digits ; 0x10fa
        0x00001334:    9d11        ..      LDR      r5,[sp,#0x44]
        0x00001336:    9812        ..      LDR      r0,[sp,#0x48]
        0x00001338:    9910        ..      LDR      r1,[sp,#0x40]
        0x0000133a:    2600        .&      MOVS     r6,#0
        0x0000133c:    2800        .(      CMP      r0,#0
        0x0000133e:    950e        ..      STR      r5,[sp,#0x38]
        0x00001340:    d101        ..      BNE      0x1346 ; _printf_fp_dec_real + 178
        0x00001342:    1c78        x.      ADDS     r0,r7,#1
        0x00001344:    180d        ..      ADDS     r5,r1,r0
        0x00001346:    1b78        x.      SUBS     r0,r7,r5
        0x00001348:    d402        ..      BMI      0x1350 ; _printf_fp_dec_real + 188
        0x0000134a:    4246        FB      RSBS     r6,r0,#0
        0x0000134c:    1c7d        }.      ADDS     r5,r7,#1
        0x0000134e:    1e76        v.      SUBS     r6,r6,#1
        0x00001350:    1be8        ..      SUBS     r0,r5,r7
        0x00001352:    9000        ..      STR      r0,[sp,#0]
        0x00001354:    e03a        :.      B        0x13cc ; _printf_fp_dec_real + 312
        0x00001356:    2f01        ./      CMP      r7,#1
        0x00001358:    da00        ..      BGE      0x135c ; _printf_fp_dec_real + 200
        0x0000135a:    2701        .'      MOVS     r7,#1
        0x0000135c:    2000        .       MOVS     r0,#0
        0x0000135e:    2f11        ./      CMP      r7,#0x11
        0x00001360:    9000        ..      STR      r0,[sp,#0]
        0x00001362:    dd01        ..      BLE      0x1368 ; _printf_fp_dec_real + 212
        0x00001364:    2311        .#      MOVS     r3,#0x11
        0x00001366:    e000        ..      B        0x136a ; _printf_fp_dec_real + 214
        0x00001368:    003b        ;.      MOVS     r3,r7
        0x0000136a:    aa0c        ..      ADD      r2,sp,#0x30
        0x0000136c:    a903        ..      ADD      r1,sp,#0xc
        0x0000136e:    a810        ..      ADD      r0,sp,#0x40
        0x00001370:    f7fffec3    ....    BL       _fp_digits ; 0x10fa
        0x00001374:    9911        ..      LDR      r1,[sp,#0x44]
        0x00001376:    9810        ..      LDR      r0,[sp,#0x40]
        0x00001378:    2600        .&      MOVS     r6,#0
        0x0000137a:    910e        ..      STR      r1,[sp,#0x38]
        0x0000137c:    7821        !x      LDRB     r1,[r4,#0]
        0x0000137e:    003d        =.      MOVS     r5,r7
        0x00001380:    0709        ..      LSLS     r1,r1,#28
        0x00001382:    d40b        ..      BMI      0x139c ; _printf_fp_dec_real + 264
        0x00001384:    990e        ..      LDR      r1,[sp,#0x38]
        0x00001386:    42a9        .B      CMP      r1,r5
        0x00001388:    da00        ..      BGE      0x138c ; _printf_fp_dec_real + 248
        0x0000138a:    000d        ..      MOVS     r5,r1
        0x0000138c:    a903        ..      ADD      r1,sp,#0xc
        0x0000138e:    2d01        .-      CMP      r5,#1
        0x00001390:    dd04        ..      BLE      0x139c ; _printf_fp_dec_real + 264
        0x00001392:    194a        J.      ADDS     r2,r1,r5
        0x00001394:    3a20         :      SUBS     r2,r2,#0x20
        0x00001396:    7fd2        ..      LDRB     r2,[r2,#0x1f]
        0x00001398:    2a30        0*      CMP      r2,#0x30
        0x0000139a:    d006        ..      BEQ      0x13aa ; _printf_fp_dec_real + 278
        0x0000139c:    42b8        .B      CMP      r0,r7
        0x0000139e:    da01        ..      BGE      0x13a4 ; _printf_fp_dec_real + 272
        0x000013a0:    1d01        ..      ADDS     r1,r0,#4
        0x000013a2:    da04        ..      BGE      0x13ae ; _printf_fp_dec_real + 282
        0x000013a4:    2101        .!      MOVS     r1,#1
        0x000013a6:    9100        ..      STR      r1,[sp,#0]
        0x000013a8:    e00f        ..      B        0x13ca ; _printf_fp_dec_real + 310
        0x000013aa:    1e6d        m.      SUBS     r5,r5,#1
        0x000013ac:    e7ef        ..      B        0x138e ; _printf_fp_dec_real + 250
        0x000013ae:    2800        .(      CMP      r0,#0
        0x000013b0:    dc02        ..      BGT      0x13b8 ; _printf_fp_dec_real + 292
        0x000013b2:    1986        ..      ADDS     r6,r0,r6
        0x000013b4:    1a2d        -.      SUBS     r5,r5,r0
        0x000013b6:    e003        ..      B        0x13c0 ; _printf_fp_dec_real + 300
        0x000013b8:    1c41        A.      ADDS     r1,r0,#1
        0x000013ba:    42a9        .B      CMP      r1,r5
        0x000013bc:    dd00        ..      BLE      0x13c0 ; _printf_fp_dec_real + 300
        0x000013be:    000d        ..      MOVS     r5,r1
        0x000013c0:    1b80        ..      SUBS     r0,r0,r6
        0x000013c2:    1c40        @.      ADDS     r0,r0,#1
        0x000013c4:    9000        ..      STR      r0,[sp,#0]
        0x000013c6:    2001        .       MOVS     r0,#1
        0x000013c8:    07c0        ..      LSLS     r0,r0,#31
        0x000013ca:    900b        ..      STR      r0,[sp,#0x2c]
        0x000013cc:    7820         x      LDRB     r0,[r4,#0]
        0x000013ce:    0700        ..      LSLS     r0,r0,#28
        0x000013d0:    d405        ..      BMI      0x13de ; _printf_fp_dec_real + 330
        0x000013d2:    9800        ..      LDR      r0,[sp,#0]
        0x000013d4:    42a8        .B      CMP      r0,r5
        0x000013d6:    db02        ..      BLT      0x13de ; _printf_fp_dec_real + 330
        0x000013d8:    2000        .       MOVS     r0,#0
        0x000013da:    43c0        .C      MVNS     r0,r0
        0x000013dc:    9000        ..      STR      r0,[sp,#0]
        0x000013de:    4669        iF      MOV      r1,sp
        0x000013e0:    2000        .       MOVS     r0,#0
        0x000013e2:    72c8        .r      STRB     r0,[r1,#0xb]
        0x000013e4:    980b        ..      LDR      r0,[sp,#0x2c]
        0x000013e6:    2101        .!      MOVS     r1,#1
        0x000013e8:    af02        ..      ADD      r7,sp,#8
        0x000013ea:    3703        .7      ADDS     r7,#3
        0x000013ec:    07c9        ..      LSLS     r1,r1,#31
        0x000013ee:    4288        .B      CMP      r0,r1
        0x000013f0:    d025        %.      BEQ      0x143e ; _printf_fp_dec_real + 426
        0x000013f2:    2002        .       MOVS     r0,#2
        0x000013f4:    9010        ..      STR      r0,[sp,#0x40]
        0x000013f6:    202b        +       MOVS     r0,#0x2b
        0x000013f8:    9011        ..      STR      r0,[sp,#0x44]
        0x000013fa:    980b        ..      LDR      r0,[sp,#0x2c]
        0x000013fc:    2800        .(      CMP      r0,#0
        0x000013fe:    da0b        ..      BGE      0x1418 ; _printf_fp_dec_real + 388
        0x00001400:    4240        @B      RSBS     r0,r0,#0
        0x00001402:    900b        ..      STR      r0,[sp,#0x2c]
        0x00001404:    202d        -       MOVS     r0,#0x2d
        0x00001406:    9011        ..      STR      r0,[sp,#0x44]
        0x00001408:    e006        ..      B        0x1418 ; _printf_fp_dec_real + 388
        0x0000140a:    980b        ..      LDR      r0,[sp,#0x2c]
        0x0000140c:    f7ffedf8    ....    BLX      __rt_udiv10 ; 0x1000
        0x00001410:    3130        01      ADDS     r1,r1,#0x30
        0x00001412:    1e7f        ..      SUBS     r7,r7,#1
        0x00001414:    900b        ..      STR      r0,[sp,#0x2c]
        0x00001416:    7039        9p      STRB     r1,[r7,#0]
        0x00001418:    9910        ..      LDR      r1,[sp,#0x40]
        0x0000141a:    1e48        H.      SUBS     r0,r1,#1
        0x0000141c:    2900        .)      CMP      r1,#0
        0x0000141e:    9010        ..      STR      r0,[sp,#0x40]
        0x00001420:    dcf3        ..      BGT      0x140a ; _printf_fp_dec_real + 374
        0x00001422:    980b        ..      LDR      r0,[sp,#0x2c]
        0x00001424:    2800        .(      CMP      r0,#0
        0x00001426:    d1f0        ..      BNE      0x140a ; _printf_fp_dec_real + 374
        0x00001428:    9811        ..      LDR      r0,[sp,#0x44]
        0x0000142a:    1e7f        ..      SUBS     r7,r7,#1
        0x0000142c:    7038        8p      STRB     r0,[r7,#0]
        0x0000142e:    8820         .      LDRH     r0,[r4,#0]
        0x00001430:    0500        ..      LSLS     r0,r0,#20
        0x00001432:    d501        ..      BPL      0x1438 ; _printf_fp_dec_real + 420
        0x00001434:    2045        E       MOVS     r0,#0x45
        0x00001436:    e000        ..      B        0x143a ; _printf_fp_dec_real + 422
        0x00001438:    2065        e       MOVS     r0,#0x65
        0x0000143a:    1e7f        ..      SUBS     r7,r7,#1
        0x0000143c:    7038        8p      STRB     r0,[r7,#0]
        0x0000143e:    a801        ..      ADD      r0,sp,#4
        0x00001440:    1bc0        ..      SUBS     r0,r0,r7
        0x00001442:    1dc0        ..      ADDS     r0,r0,#7
        0x00001444:    900b        ..      STR      r0,[sp,#0x2c]
        0x00001446:    980f        ..      LDR      r0,[sp,#0x3c]
        0x00001448:    2800        .(      CMP      r0,#0
        0x0000144a:    d000        ..      BEQ      0x144e ; _printf_fp_dec_real + 442
        0x0000144c:    2001        .       MOVS     r0,#1
        0x0000144e:    1941        A.      ADDS     r1,r0,r5
        0x00001450:    9800        ..      LDR      r0,[sp,#0]
        0x00001452:    17c0        ..      ASRS     r0,r0,#31
        0x00001454:    1809        ..      ADDS     r1,r1,r0
        0x00001456:    980b        ..      LDR      r0,[sp,#0x2c]
        0x00001458:    1808        ..      ADDS     r0,r1,r0
        0x0000145a:    69a1        .i      LDR      r1,[r4,#0x18]
        0x0000145c:    1a08        ..      SUBS     r0,r1,r0
        0x0000145e:    1e40        @.      SUBS     r0,r0,#1
        0x00001460:    61a0        .a      STR      r0,[r4,#0x18]
        0x00001462:    7820         x      LDRB     r0,[r4,#0]
        0x00001464:    06c0        ..      LSLS     r0,r0,#27
        0x00001466:    d402        ..      BMI      0x146e ; _printf_fp_dec_real + 474
        0x00001468:    0020         .      MOVS     r0,r4
        0x0000146a:    f7feffdd    ....    BL       _printf_pre_padding ; 0x428
        0x0000146e:    980f        ..      LDR      r0,[sp,#0x3c]
        0x00001470:    2800        .(      CMP      r0,#0
        0x00001472:    d005        ..      BEQ      0x1480 ; _printf_fp_dec_real + 492
        0x00001474:    6862        bh      LDR      r2,[r4,#4]
        0x00001476:    68a1        .h      LDR      r1,[r4,#8]
        0x00001478:    4790        .G      BLX      r2
        0x0000147a:    6a20         j      LDR      r0,[r4,#0x20]
        0x0000147c:    1c40        @.      ADDS     r0,r0,#1
        0x0000147e:    6220         b      STR      r0,[r4,#0x20]
        0x00001480:    7820         x      LDRB     r0,[r4,#0]
        0x00001482:    06c0        ..      LSLS     r0,r0,#27
        0x00001484:    d525        %.      BPL      0x14d2 ; _printf_fp_dec_real + 574
        0x00001486:    0020         .      MOVS     r0,r4
        0x00001488:    f7feffce    ....    BL       _printf_pre_padding ; 0x428
        0x0000148c:    e021        !.      B        0x14d2 ; _printf_fp_dec_real + 574
        0x0000148e:    2e00        ..      CMP      r6,#0
        0x00001490:    db07        ..      BLT      0x14a2 ; _printf_fp_dec_real + 526
        0x00001492:    980e        ..      LDR      r0,[sp,#0x38]
        0x00001494:    42b0        .B      CMP      r0,r6
        0x00001496:    dd04        ..      BLE      0x14a2 ; _printf_fp_dec_real + 526
        0x00001498:    a803        ..      ADD      r0,sp,#0xc
        0x0000149a:    6862        bh      LDR      r2,[r4,#4]
        0x0000149c:    5d80        .]      LDRB     r0,[r0,r6]
        0x0000149e:    68a1        .h      LDR      r1,[r4,#8]
        0x000014a0:    e002        ..      B        0x14a8 ; _printf_fp_dec_real + 532
        0x000014a2:    6862        bh      LDR      r2,[r4,#4]
        0x000014a4:    68a1        .h      LDR      r1,[r4,#8]
        0x000014a6:    2030        0       MOVS     r0,#0x30
        0x000014a8:    4790        .G      BLX      r2
        0x000014aa:    6a20         j      LDR      r0,[r4,#0x20]
        0x000014ac:    1c76        v.      ADDS     r6,r6,#1
        0x000014ae:    1c40        @.      ADDS     r0,r0,#1
        0x000014b0:    6220         b      STR      r0,[r4,#0x20]
        0x000014b2:    9800        ..      LDR      r0,[sp,#0]
        0x000014b4:    1e40        @.      SUBS     r0,r0,#1
        0x000014b6:    2800        .(      CMP      r0,#0
        0x000014b8:    9000        ..      STR      r0,[sp,#0]
        0x000014ba:    d10a        ..      BNE      0x14d2 ; _printf_fp_dec_real + 574
        0x000014bc:    f000ea0a    ....    BLX      __rt_locale ; 0x18d4
        0x000014c0:    68c0        .h      LDR      r0,[r0,#0xc]
        0x000014c2:    6862        bh      LDR      r2,[r4,#4]
        0x000014c4:    6801        .h      LDR      r1,[r0,#0]
        0x000014c6:    5c40        @\      LDRB     r0,[r0,r1]
        0x000014c8:    68a1        .h      LDR      r1,[r4,#8]
        0x000014ca:    4790        .G      BLX      r2
        0x000014cc:    6a20         j      LDR      r0,[r4,#0x20]
        0x000014ce:    1c40        @.      ADDS     r0,r0,#1
        0x000014d0:    6220         b      STR      r0,[r4,#0x20]
        0x000014d2:    0028        (.      MOVS     r0,r5
        0x000014d4:    1e6d        m.      SUBS     r5,r5,#1
        0x000014d6:    2800        .(      CMP      r0,#0
        0x000014d8:    dcd9        ..      BGT      0x148e ; _printf_fp_dec_real + 506
        0x000014da:    e007        ..      B        0x14ec ; _printf_fp_dec_real + 600
        0x000014dc:    6862        bh      LDR      r2,[r4,#4]
        0x000014de:    7838        8x      LDRB     r0,[r7,#0]
        0x000014e0:    68a1        .h      LDR      r1,[r4,#8]
        0x000014e2:    1c7f        ..      ADDS     r7,r7,#1
        0x000014e4:    4790        .G      BLX      r2
        0x000014e6:    6a20         j      LDR      r0,[r4,#0x20]
        0x000014e8:    1c40        @.      ADDS     r0,r0,#1
        0x000014ea:    6220         b      STR      r0,[r4,#0x20]
        0x000014ec:    990b        ..      LDR      r1,[sp,#0x2c]
        0x000014ee:    1e48        H.      SUBS     r0,r1,#1
        0x000014f0:    2900        .)      CMP      r1,#0
        0x000014f2:    900b        ..      STR      r0,[sp,#0x2c]
        0x000014f4:    dcf2        ..      BGT      0x14dc ; _printf_fp_dec_real + 584
        0x000014f6:    0020         .      MOVS     r0,r4
        0x000014f8:    f7feffac    ....    BL       _printf_post_padding ; 0x454
        0x000014fc:    2003        .       MOVS     r0,#3
        0x000014fe:    e643        C.      B        0x1188 ; _fp_digits + 142
    $d
        0x00001500:    fffffc01    ....    DCD    4294966273
        0x00001504:    00004d10    .M..    DCD    19728
        0x00001508:    ffffdfe1    ....    DCD    4294959073
    $a
    $Ven$AT$I$$_printf_fp_hex_real
        0x0000150c:    e28fc001    ....    ADR      r12,{pc}+9 ; 0x1515
        0x00001510:    e12fff1c    ../.    BX       r12
    $t
    .text
    _printf_fp_hex_real
        0x00001514:    b5f0        ..      PUSH     {r4-r7,lr}
        0x00001516:    1dd2        ..      ADDS     r2,r2,#7
        0x00001518:    0004        ..      MOVS     r4,r0
        0x0000151a:    08d0        ..      LSRS     r0,r2,#3
        0x0000151c:    000d        ..      MOVS     r5,r1
        0x0000151e:    00c0        ..      LSLS     r0,r0,#3
        0x00001520:    b08d        ..      SUB      sp,sp,#0x34
        0x00001522:    6846        Fh      LDR      r6,[r0,#4]
        0x00001524:    6807        .h      LDR      r7,[r0,#0]
        0x00001526:    0031        1.      MOVS     r1,r6
        0x00001528:    0038        8.      MOVS     r0,r7
        0x0000152a:    f005e836    ..6.    BLX      __ARM_fpclassify ; 0x6598
        0x0000152e:    0002        ..      MOVS     r2,r0
        0x00001530:    0ff0        ..      LSRS     r0,r6,#31
        0x00001532:    d001        ..      BEQ      0x1538 ; _printf_fp_hex_real + 36
        0x00001534:    232d        -#      MOVS     r3,#0x2d
        0x00001536:    e007        ..      B        0x1548 ; _printf_fp_hex_real + 52
        0x00001538:    6820         h      LDR      r0,[r4,#0]
        0x0000153a:    0781        ..      LSLS     r1,r0,#30
        0x0000153c:    d501        ..      BPL      0x1542 ; _printf_fp_hex_real + 46
        0x0000153e:    232b        +#      MOVS     r3,#0x2b
        0x00001540:    e002        ..      B        0x1548 ; _printf_fp_hex_real + 52
        0x00001542:    0740        @.      LSLS     r0,r0,#29
        0x00001544:    0fc0        ..      LSRS     r0,r0,#31
        0x00001546:    0143        C.      LSLS     r3,r0,#5
        0x00001548:    4668        hF      MOV      r0,sp
        0x0000154a:    2b00        .+      CMP      r3,#0
        0x0000154c:    7003        .p      STRB     r3,[r0,#0]
        0x0000154e:    d001        ..      BEQ      0x1554 ; _printf_fp_hex_real + 64
        0x00001550:    2001        .       MOVS     r0,#1
        0x00001552:    e000        ..      B        0x1556 ; _printf_fp_hex_real + 66
        0x00001554:    2000        .       MOVS     r0,#0
        0x00001556:    2a03        .*      CMP      r2,#3
        0x00001558:    900a        ..      STR      r0,[sp,#0x28]
        0x0000155a:    d001        ..      BEQ      0x1560 ; _printf_fp_hex_real + 76
        0x0000155c:    2a07        .*      CMP      r2,#7
        0x0000155e:    db04        ..      BLT      0x156a ; _printf_fp_hex_real + 86
        0x00001560:    0029        ).      MOVS     r1,r5
        0x00001562:    0020         .      MOVS     r0,r4
        0x00001564:    f000f9bc    ....    BL       _printf_fp_infnan ; 0x18e0
        0x00001568:    e12d        -.      B        0x17c6 ; _printf_fp_hex_real + 690
        0x0000156a:    7820         x      LDRB     r0,[r4,#0]
        0x0000156c:    0680        ..      LSLS     r0,r0,#26
        0x0000156e:    d401        ..      BMI      0x1574 ; _printf_fp_hex_real + 96
        0x00001570:    250d        .%      MOVS     r5,#0xd
        0x00001572:    e000        ..      B        0x1576 ; _printf_fp_hex_real + 98
        0x00001574:    69e5        .i      LDR      r5,[r4,#0x1c]
        0x00001576:    0070        p.      LSLS     r0,r6,#1
        0x00001578:    0d40        @.      LSRS     r0,r0,#21
        0x0000157a:    2d0d        .-      CMP      r5,#0xd
        0x0000157c:    9001        ..      STR      r0,[sp,#4]
        0x0000157e:    da4b        K.      BGE      0x1618 ; _printf_fp_hex_real + 260
        0x00001580:    0d30        0.      LSRS     r0,r6,#20
        0x00001582:    2100        .!      MOVS     r1,#0
        0x00001584:    900b        ..      STR      r0,[sp,#0x2c]
        0x00001586:    0008        ..      MOVS     r0,r1
        0x00001588:    f00beace    ....    BLX      __ieee_status ; 0xcb28
        0x0000158c:    2103        .!      MOVS     r1,#3
        0x0000158e:    0589        ..      LSLS     r1,r1,#22
        0x00001590:    4008        .@      ANDS     r0,r0,r1
        0x00001592:    2e00        ..      CMP      r6,#0
        0x00001594:    da05        ..      BGE      0x15a2 ; _printf_fp_hex_real + 142
        0x00001596:    0082        ..      LSLS     r2,r0,#2
        0x00001598:    1880        ..      ADDS     r0,r0,r2
        0x0000159a:    0fc2        ..      LSRS     r2,r0,#31
        0x0000159c:    1810        ..      ADDS     r0,r2,r0
        0x0000159e:    1040        @.      ASRS     r0,r0,#1
        0x000015a0:    4008        .@      ANDS     r0,r0,r1
        0x000015a2:    1580        ..      ASRS     r0,r0,#22
        0x000015a4:    2801        .(      CMP      r0,#1
        0x000015a6:    dd01        ..      BLE      0x15ac ; _printf_fp_hex_real + 152
        0x000015a8:    2000        .       MOVS     r0,#0
        0x000015aa:    43c0        .C      MVNS     r0,r0
        0x000015ac:    00a9        ..      LSLS     r1,r5,#2
        0x000015ae:    2300        .#      MOVS     r3,#0
        0x000015b0:    2918        .)      CMP      r1,#0x18
        0x000015b2:    d306        ..      BCC      0x15c2 ; _printf_fp_hex_real + 174
        0x000015b4:    469c        .F      MOV      r12,r3
        0x000015b6:    000a        ..      MOVS     r2,r1
        0x000015b8:    2301        .#      MOVS     r3,#1
        0x000015ba:    3a18        .:      SUBS     r2,r2,#0x18
        0x000015bc:    071b        ..      LSLS     r3,r3,#28
        0x000015be:    40d3        .@      LSRS     r3,r3,r2
        0x000015c0:    e003        ..      B        0x15ca ; _printf_fp_hex_real + 182
        0x000015c2:    2201        ."      MOVS     r2,#1
        0x000015c4:    0512        ..      LSLS     r2,r2,#20
        0x000015c6:    40ca        .@      LSRS     r2,r2,r1
        0x000015c8:    4694        .F      MOV      r12,r2
        0x000015ca:    310c        .1      ADDS     r1,r1,#0xc
        0x000015cc:    2920         )      CMP      r1,#0x20
        0x000015ce:    d302        ..      BCC      0x15d6 ; _printf_fp_hex_real + 194
        0x000015d0:    003a        :.      MOVS     r2,r7
        0x000015d2:    3920         9      SUBS     r1,r1,#0x20
        0x000015d4:    e000        ..      B        0x15d8 ; _printf_fp_hex_real + 196
        0x000015d6:    0032        2.      MOVS     r2,r6
        0x000015d8:    408a        .@      LSLS     r2,r2,r1
        0x000015da:    2800        .(      CMP      r0,#0
        0x000015dc:    dd02        ..      BLE      0x15e4 ; _printf_fp_hex_real + 208
        0x000015de:    2a00        .*      CMP      r2,#0
        0x000015e0:    d106        ..      BNE      0x15f0 ; _printf_fp_hex_real + 220
        0x000015e2:    e019        ..      B        0x1618 ; _printf_fp_hex_real + 260
        0x000015e4:    2800        .(      CMP      r0,#0
        0x000015e6:    d117        ..      BNE      0x1618 ; _printf_fp_hex_real + 260
        0x000015e8:    2101        .!      MOVS     r1,#1
        0x000015ea:    07c9        ..      LSLS     r1,r1,#31
        0x000015ec:    428a        .B      CMP      r2,r1
        0x000015ee:    d313        ..      BCC      0x1618 ; _printf_fp_hex_real + 260
        0x000015f0:    0019        ..      MOVS     r1,r3
        0x000015f2:    4663        cF      MOV      r3,r12
        0x000015f4:    187f        ..      ADDS     r7,r7,r1
        0x000015f6:    415e        ^A      ADCS     r6,r6,r3
        0x000015f8:    2800        .(      CMP      r0,#0
        0x000015fa:    d106        ..      BNE      0x160a ; _printf_fp_hex_real + 246
        0x000015fc:    2001        .       MOVS     r0,#1
        0x000015fe:    07c0        ..      LSLS     r0,r0,#31
        0x00001600:    4282        .B      CMP      r2,r0
        0x00001602:    d102        ..      BNE      0x160a ; _printf_fp_hex_real + 246
        0x00001604:    0008        ..      MOVS     r0,r1
        0x00001606:    4387        .C      BICS     r7,r7,r0
        0x00001608:    439e        .C      BICS     r6,r6,r3
        0x0000160a:    980b        ..      LDR      r0,[sp,#0x2c]
        0x0000160c:    0d31        1.      LSRS     r1,r6,#20
        0x0000160e:    4281        .B      CMP      r1,r0
        0x00001610:    d002        ..      BEQ      0x1618 ; _printf_fp_hex_real + 260
        0x00001612:    9801        ..      LDR      r0,[sp,#4]
        0x00001614:    1c40        @.      ADDS     r0,r0,#1
        0x00001616:    9001        ..      STR      r0,[sp,#4]
        0x00001618:    8820         .      LDRH     r0,[r4,#0]
        0x0000161a:    0500        ..      LSLS     r0,r0,#20
        0x0000161c:    d502        ..      BPL      0x1624 ; _printf_fp_hex_real + 272
        0x0000161e:    4971        qI      LDR      r1,[pc,#452] ; [0x17e4] = 0xbb67
        0x00001620:    4479        yD      ADD      r1,r1,pc
        0x00001622:    e002        ..      B        0x162a ; _printf_fp_hex_real + 278
        0x00001624:    496f        oI      LDR      r1,[pc,#444] ; [0x17e4] = 0xbb67
        0x00001626:    4479        yD      ADD      r1,r1,pc
        0x00001628:    3919        .9      SUBS     r1,r1,#0x19
        0x0000162a:    466b        kF      MOV      r3,sp
        0x0000162c:    980a        ..      LDR      r0,[sp,#0x28]
        0x0000162e:    2230        0"      MOVS     r2,#0x30
        0x00001630:    541a        .T      STRB     r2,[r3,r0]
        0x00001632:    980a        ..      LDR      r0,[sp,#0x28]
        0x00001634:    7c0a        .|      LDRB     r2,[r1,#0x10]
        0x00001636:    1c40        @.      ADDS     r0,r0,#1
        0x00001638:    541a        .T      STRB     r2,[r3,r0]
        0x0000163a:    1c40        @.      ADDS     r0,r0,#1
        0x0000163c:    900a        ..      STR      r0,[sp,#0x28]
        0x0000163e:    9801        ..      LDR      r0,[sp,#4]
        0x00001640:    2800        .(      CMP      r0,#0
        0x00001642:    dc01        ..      BGT      0x1648 ; _printf_fp_hex_real + 308
        0x00001644:    2030        0       MOVS     r0,#0x30
        0x00001646:    e000        ..      B        0x164a ; _printf_fp_hex_real + 310
        0x00001648:    2031        1       MOVS     r0,#0x31
        0x0000164a:    7218        .r      STRB     r0,[r3,#8]
        0x0000164c:    9a01        ..      LDR      r2,[sp,#4]
        0x0000164e:    2001        .       MOVS     r0,#1
        0x00001650:    2a00        .*      CMP      r2,#0
        0x00001652:    d002        ..      BEQ      0x165a ; _printf_fp_hex_real + 326
        0x00001654:    4b64        dK      LDR      r3,[pc,#400] ; [0x17e8] = 0xfffffc01
        0x00001656:    18d2        ..      ADDS     r2,r2,r3
        0x00001658:    e004        ..      B        0x1664 ; _printf_fp_hex_real + 336
        0x0000165a:    0072        r.      LSLS     r2,r6,#1
        0x0000165c:    433a        :C      ORRS     r2,r2,r7
        0x0000165e:    d002        ..      BEQ      0x1666 ; _printf_fp_hex_real + 338
        0x00001660:    4a61        aJ      LDR      r2,[pc,#388] ; [0x17e8] = 0xfffffc01
        0x00001662:    1c52        R.      ADDS     r2,r2,#1
        0x00001664:    9201        ..      STR      r2,[sp,#4]
        0x00001666:    2d00        .-      CMP      r5,#0
        0x00001668:    dc02        ..      BGT      0x1670 ; _printf_fp_hex_real + 348
        0x0000166a:    7822        "x      LDRB     r2,[r4,#0]
        0x0000166c:    0712        ..      LSLS     r2,r2,#28
        0x0000166e:    d503        ..      BPL      0x1678 ; _printf_fp_hex_real + 356
        0x00001670:    466a        jF      MOV      r2,sp
        0x00001672:    202e        .       MOVS     r0,#0x2e
        0x00001674:    7250        Pr      STRB     r0,[r2,#9]
        0x00001676:    2002        .       MOVS     r0,#2
        0x00001678:    2200        ."      MOVS     r2,#0
        0x0000167a:    4686        .F      MOV      lr,r0
        0x0000167c:    4694        .F      MOV      r12,r2
        0x0000167e:    e00c        ..      B        0x169a ; _printf_fp_hex_real + 390
        0x00001680:    0332        2.      LSLS     r2,r6,#12
        0x00001682:    0136        6.      LSLS     r6,r6,#4
        0x00001684:    0f12        ..      LSRS     r2,r2,#28
        0x00001686:    1e6d        m.      SUBS     r5,r5,#1
        0x00001688:    5c8b        .\      LDRB     r3,[r1,r2]
        0x0000168a:    aa02        ..      ADD      r2,sp,#8
        0x0000168c:    5413        .T      STRB     r3,[r2,r0]
        0x0000168e:    4662        bF      MOV      r2,r12
        0x00001690:    1c52        R.      ADDS     r2,r2,#1
        0x00001692:    1c40        @.      ADDS     r0,r0,#1
        0x00001694:    4694        .F      MOV      r12,r2
        0x00001696:    2a05        .*      CMP      r2,#5
        0x00001698:    da01        ..      BGE      0x169e ; _printf_fp_hex_real + 394
        0x0000169a:    2d00        .-      CMP      r5,#0
        0x0000169c:    dcf0        ..      BGT      0x1680 ; _printf_fp_hex_real + 364
        0x0000169e:    2200        ."      MOVS     r2,#0
        0x000016a0:    ae02        ..      ADD      r6,sp,#8
        0x000016a2:    e008        ..      B        0x16b6 ; _printf_fp_hex_real + 418
        0x000016a4:    0f3b        ;.      LSRS     r3,r7,#28
        0x000016a6:    013f        ?.      LSLS     r7,r7,#4
        0x000016a8:    5ccb        .\      LDRB     r3,[r1,r3]
        0x000016aa:    1c52        R.      ADDS     r2,r2,#1
        0x000016ac:    1e6d        m.      SUBS     r5,r5,#1
        0x000016ae:    5433        3T      STRB     r3,[r6,r0]
        0x000016b0:    1c40        @.      ADDS     r0,r0,#1
        0x000016b2:    2a08        .*      CMP      r2,#8
        0x000016b4:    da01        ..      BGE      0x16ba ; _printf_fp_hex_real + 422
        0x000016b6:    2d00        .-      CMP      r5,#0
        0x000016b8:    dcf4        ..      BGT      0x16a4 ; _printf_fp_hex_real + 400
        0x000016ba:    6823        #h      LDR      r3,[r4,#0]
        0x000016bc:    069a        ..      LSLS     r2,r3,#26
        0x000016be:    d501        ..      BPL      0x16c4 ; _printf_fp_hex_real + 432
        0x000016c0:    e011        ..      B        0x16e6 ; _printf_fp_hex_real + 466
        0x000016c2:    1e40        @.      SUBS     r0,r0,#1
        0x000016c4:    4570        pE      CMP      r0,lr
        0x000016c6:    dd04        ..      BLE      0x16d2 ; _printf_fp_hex_real + 446
        0x000016c8:    1832        2.      ADDS     r2,r6,r0
        0x000016ca:    3a20         :      SUBS     r2,r2,#0x20
        0x000016cc:    7fd2        ..      LDRB     r2,[r2,#0x1f]
        0x000016ce:    2a30        0*      CMP      r2,#0x30
        0x000016d0:    d0f7        ..      BEQ      0x16c2 ; _printf_fp_hex_real + 430
        0x000016d2:    2800        .(      CMP      r0,#0
        0x000016d4:    dd07        ..      BLE      0x16e6 ; _printf_fp_hex_real + 466
        0x000016d6:    1832        2.      ADDS     r2,r6,r0
        0x000016d8:    3a20         :      SUBS     r2,r2,#0x20
        0x000016da:    7fd2        ..      LDRB     r2,[r2,#0x1f]
        0x000016dc:    2a2e        .*      CMP      r2,#0x2e
        0x000016de:    d102        ..      BNE      0x16e6 ; _printf_fp_hex_real + 466
        0x000016e0:    071a        ..      LSLS     r2,r3,#28
        0x000016e2:    d400        ..      BMI      0x16e6 ; _printf_fp_hex_real + 466
        0x000016e4:    1e40        @.      SUBS     r0,r0,#1
        0x000016e6:    2d00        .-      CMP      r5,#0
        0x000016e8:    dd03        ..      BLE      0x16f2 ; _printf_fp_hex_real + 478
        0x000016ea:    223e        >"      MOVS     r2,#0x3e
        0x000016ec:    5432        2T      STRB     r2,[r6,r0]
        0x000016ee:    1c40        @.      ADDS     r0,r0,#1
        0x000016f0:    1e6d        m.      SUBS     r5,r5,#1
        0x000016f2:    7c49        I|      LDRB     r1,[r1,#0x11]
        0x000016f4:    5431        1T      STRB     r1,[r6,r0]
        0x000016f6:    9901        ..      LDR      r1,[sp,#4]
        0x000016f8:    1c40        @.      ADDS     r0,r0,#1
        0x000016fa:    2900        .)      CMP      r1,#0
        0x000016fc:    da06        ..      BGE      0x170c ; _printf_fp_hex_real + 504
        0x000016fe:    212d        -!      MOVS     r1,#0x2d
        0x00001700:    1c47        G.      ADDS     r7,r0,#1
        0x00001702:    5431        1T      STRB     r1,[r6,r0]
        0x00001704:    9801        ..      LDR      r0,[sp,#4]
        0x00001706:    4240        @B      RSBS     r0,r0,#0
        0x00001708:    9001        ..      STR      r0,[sp,#4]
        0x0000170a:    e003        ..      B        0x1714 ; _printf_fp_hex_real + 512
        0x0000170c:    212b        +!      MOVS     r1,#0x2b
        0x0000170e:    1c47        G.      ADDS     r7,r0,#1
        0x00001710:    5431        1T      STRB     r1,[r6,r0]
        0x00001712:    9801        ..      LDR      r0,[sp,#4]
        0x00001714:    217d        }!      MOVS     r1,#0x7d
        0x00001716:    00c9        ..      LSLS     r1,r1,#3
        0x00001718:    4288        .B      CMP      r0,r1
        0x0000171a:    db06        ..      BLT      0x172a ; _printf_fp_hex_real + 534
        0x0000171c:    f7ffe9c8    ....    BLX      __aeabi_idiv ; 0xab0
        0x00001720:    3030        00      ADDS     r0,r0,#0x30
        0x00001722:    55f0        .U      STRB     r0,[r6,r7]
        0x00001724:    1c7f        ..      ADDS     r7,r7,#1
        0x00001726:    9101        ..      STR      r1,[sp,#4]
        0x00001728:    e001        ..      B        0x172e ; _printf_fp_hex_real + 538
        0x0000172a:    2864        d(      CMP      r0,#0x64
        0x0000172c:    db08        ..      BLT      0x1740 ; _printf_fp_hex_real + 556
        0x0000172e:    9801        ..      LDR      r0,[sp,#4]
        0x00001730:    2164        d!      MOVS     r1,#0x64
        0x00001732:    f7ffe9be    ....    BLX      __aeabi_idiv ; 0xab0
        0x00001736:    3030        00      ADDS     r0,r0,#0x30
        0x00001738:    55f0        .U      STRB     r0,[r6,r7]
        0x0000173a:    1c7f        ..      ADDS     r7,r7,#1
        0x0000173c:    9101        ..      STR      r1,[sp,#4]
        0x0000173e:    e001        ..      B        0x1744 ; _printf_fp_hex_real + 560
        0x00001740:    280a        .(      CMP      r0,#0xa
        0x00001742:    db06        ..      BLT      0x1752 ; _printf_fp_hex_real + 574
        0x00001744:    9801        ..      LDR      r0,[sp,#4]
        0x00001746:    210a        .!      MOVS     r1,#0xa
        0x00001748:    f7ffe9b2    ....    BLX      __aeabi_idiv ; 0xab0
        0x0000174c:    3030        00      ADDS     r0,r0,#0x30
        0x0000174e:    55f0        .U      STRB     r0,[r6,r7]
        0x00001750:    1c7f        ..      ADDS     r7,r7,#1
        0x00001752:    9801        ..      LDR      r0,[sp,#4]
        0x00001754:    210a        .!      MOVS     r1,#0xa
        0x00001756:    f7ffe9ac    ....    BLX      __aeabi_idiv ; 0xab0
        0x0000175a:    3130        01      ADDS     r1,r1,#0x30
        0x0000175c:    55f1        .U      STRB     r1,[r6,r7]
        0x0000175e:    980a        ..      LDR      r0,[sp,#0x28]
        0x00001760:    69a1        .i      LDR      r1,[r4,#0x18]
        0x00001762:    1c7f        ..      ADDS     r7,r7,#1
        0x00001764:    197a        z.      ADDS     r2,r7,r5
        0x00001766:    1810        ..      ADDS     r0,r2,r0
        0x00001768:    1a08        ..      SUBS     r0,r1,r0
        0x0000176a:    61a0        .a      STR      r0,[r4,#0x18]
        0x0000176c:    7820         x      LDRB     r0,[r4,#0]
        0x0000176e:    06c0        ..      LSLS     r0,r0,#27
        0x00001770:    d402        ..      BMI      0x1778 ; _printf_fp_hex_real + 612
        0x00001772:    0020         .      MOVS     r0,r4
        0x00001774:    f7fefe58    ..X.    BL       _printf_pre_padding ; 0x428
        0x00001778:    6a21        !j      LDR      r1,[r4,#0x20]
        0x0000177a:    466e        nF      MOV      r6,sp
        0x0000177c:    980a        ..      LDR      r0,[sp,#0x28]
        0x0000177e:    1808        ..      ADDS     r0,r1,r0
        0x00001780:    6220         b      STR      r0,[r4,#0x20]
        0x00001782:    e004        ..      B        0x178e ; _printf_fp_hex_real + 634
        0x00001784:    6862        bh      LDR      r2,[r4,#4]
        0x00001786:    7830        0x      LDRB     r0,[r6,#0]
        0x00001788:    68a1        .h      LDR      r1,[r4,#8]
        0x0000178a:    1c76        v.      ADDS     r6,r6,#1
        0x0000178c:    4790        .G      BLX      r2
        0x0000178e:    980a        ..      LDR      r0,[sp,#0x28]
        0x00001790:    1e40        @.      SUBS     r0,r0,#1
        0x00001792:    900a        ..      STR      r0,[sp,#0x28]
        0x00001794:    1c40        @.      ADDS     r0,r0,#1
        0x00001796:    d1f5        ..      BNE      0x1784 ; _printf_fp_hex_real + 624
        0x00001798:    7820         x      LDRB     r0,[r4,#0]
        0x0000179a:    06c0        ..      LSLS     r0,r0,#27
        0x0000179c:    d502        ..      BPL      0x17a4 ; _printf_fp_hex_real + 656
        0x0000179e:    0020         .      MOVS     r0,r4
        0x000017a0:    f7fefe42    ..B.    BL       _printf_pre_padding ; 0x428
        0x000017a4:    ae02        ..      ADD      r6,sp,#8
        0x000017a6:    e009        ..      B        0x17bc ; _printf_fp_hex_real + 680
        0x000017a8:    7830        0x      LDRB     r0,[r6,#0]
        0x000017aa:    1c76        v.      ADDS     r6,r6,#1
        0x000017ac:    283e        >(      CMP      r0,#0x3e
        0x000017ae:    d00d        ..      BEQ      0x17cc ; _printf_fp_hex_real + 696
        0x000017b0:    6862        bh      LDR      r2,[r4,#4]
        0x000017b2:    68a1        .h      LDR      r1,[r4,#8]
        0x000017b4:    4790        .G      BLX      r2
        0x000017b6:    6a20         j      LDR      r0,[r4,#0x20]
        0x000017b8:    1c40        @.      ADDS     r0,r0,#1
        0x000017ba:    6220         b      STR      r0,[r4,#0x20]
        0x000017bc:    1e7f        ..      SUBS     r7,r7,#1
        0x000017be:    d2f3        ..      BCS      0x17a8 ; _printf_fp_hex_real + 660
        0x000017c0:    0020         .      MOVS     r0,r4
        0x000017c2:    f7fefe47    ..G.    BL       _printf_post_padding ; 0x454
        0x000017c6:    b00d        ..      ADD      sp,sp,#0x34
        0x000017c8:    2003        .       MOVS     r0,#3
        0x000017ca:    bdf0        ..      POP      {r4-r7,pc}
        0x000017cc:    6a20         j      LDR      r0,[r4,#0x20]
        0x000017ce:    1940        @.      ADDS     r0,r0,r5
        0x000017d0:    6220         b      STR      r0,[r4,#0x20]
        0x000017d2:    e003        ..      B        0x17dc ; _printf_fp_hex_real + 712
        0x000017d4:    6862        bh      LDR      r2,[r4,#4]
        0x000017d6:    68a1        .h      LDR      r1,[r4,#8]
        0x000017d8:    2030        0       MOVS     r0,#0x30
        0x000017da:    4790        .G      BLX      r2
        0x000017dc:    1e6d        m.      SUBS     r5,r5,#1
        0x000017de:    d3ed        ..      BCC      0x17bc ; _printf_fp_hex_real + 680
        0x000017e0:    e7f8        ..      B        0x17d4 ; _printf_fp_hex_real + 704
    $d
        0x000017e2:    0000        ..      DCW    0
        0x000017e4:    0000bb67    g...    DCD    47975
        0x000017e8:    fffffc01    ....    DCD    4294966273
    $a
    $Ven$AT$I$$_printf_wchar
        0x000017ec:    e28fc017    ....    ADR      r12,{pc}+0x1f ; 0x180b
        0x000017f0:    e12fff1c    ../.    BX       r12
    $t
    .text
    _printf_lcs_common
        0x000017f4:    b510        ..      PUSH     {r4,lr}
        0x000017f6:    6943        Ci      LDR      r3,[r0,#0x14]
        0x000017f8:    2b00        .+      CMP      r3,#0
        0x000017fa:    d002        ..      BEQ      0x1802 ; _printf_lcs_common + 14
        0x000017fc:    46c0        .F      MOV      r8,r8
        0x000017fe:    46c0        .F      MOV      r8,r8
        0x00001800:    e001        ..      B        0x1806 ; _printf_lcs_common + 18
        0x00001802:    f7fffb27    ..'.    BL       _printf_wctomb ; 0xe54
        0x00001806:    2001        .       MOVS     r0,#1
        0x00001808:    bd10        ..      POP      {r4,pc}
    _printf_wchar
        0x0000180a:    8812        ..      LDRH     r2,[r2,#0]
        0x0000180c:    0001        ..      MOVS     r1,r0
        0x0000180e:    3124        $1      ADDS     r1,r1,#0x24
        0x00001810:    8482        ..      STRH     r2,[r0,#0x24]
        0x00001812:    2200        ."      MOVS     r2,#0
        0x00001814:    84c2        ..      STRH     r2,[r0,#0x26]
        0x00001816:    2201        ."      MOVS     r2,#1
        0x00001818:    e7ec        ..      B        _printf_lcs_common ; 0x17f4
    _printf_wstring
        0x0000181a:    6811        .h      LDR      r1,[r2,#0]
        0x0000181c:    2200        ."      MOVS     r2,#0
        0x0000181e:    43d2        .C      MVNS     r2,r2
        0x00001820:    e7e8        ..      B        _printf_lcs_common ; 0x17f4
    .text
    _wcrtomb
        0x00001822:    b570        p.      PUSH     {r4-r6,lr}
        0x00001824:    0016        ..      MOVS     r6,r2
        0x00001826:    000c        ..      MOVS     r4,r1
        0x00001828:    0005        ..      MOVS     r5,r0
        0x0000182a:    f000e84a    ..J.    BLX      __rt_ctype_table ; 0x18c0
        0x0000182e:    6803        .h      LDR      r3,[r0,#0]
        0x00001830:    20ff        .       MOVS     r0,#0xff
        0x00001832:    3002        .0      ADDS     r0,#2
        0x00001834:    5cc0        .\      LDRB     r0,[r0,r3]
        0x00001836:    2801        .(      CMP      r0,#1
        0x00001838:    d007        ..      BEQ      0x184a ; _wcrtomb + 40
        0x0000183a:    2cff        .,      CMP      r4,#0xff
        0x0000183c:    d80e        ..      BHI      0x185c ; _wcrtomb + 58
        0x0000183e:    5d18        .]      LDRB     r0,[r3,r4]
        0x00001840:    2800        .(      CMP      r0,#0
        0x00001842:    d00b        ..      BEQ      0x185c ; _wcrtomb + 58
        0x00001844:    2001        .       MOVS     r0,#1
        0x00001846:    702c        ,p      STRB     r4,[r5,#0]
        0x00001848:    bd70        p.      POP      {r4-r6,pc}
        0x0000184a:    33ff        .3      ADDS     r3,r3,#0xff
        0x0000184c:    3308        .3      ADDS     r3,r3,#8
        0x0000184e:    0032        2.      MOVS     r2,r6
        0x00001850:    6818        .h      LDR      r0,[r3,#0]
        0x00001852:    0021        !.      MOVS     r1,r4
        0x00001854:    18c3        ..      ADDS     r3,r0,r3
        0x00001856:    0028        (.      MOVS     r0,r5
        0x00001858:    4798        .G      BLX      r3
        0x0000185a:    bd70        p.      POP      {r4-r6,pc}
        0x0000185c:    2000        .       MOVS     r0,#0
        0x0000185e:    43c0        .C      MVNS     r0,r0
        0x00001860:    bd70        p.      POP      {r4-r6,pc}
    .text
    __rt_SIGRTMEM
        0x00001862:    b510        ..      PUSH     {r4,lr}
        0x00001864:    f000f8fa    ....    BL       __rt_SIGRTMEM_inner ; 0x1a5c
        0x00001868:    f000f8f2    ....    BL       __sig_exit ; 0x1a50
        0x0000186c:    bd10        ..      POP      {r4,pc}
        0x0000186e:    0000        ..      MOVS     r0,r0
    .text
    __rt_heap_escrow
        0x00001870:    2201        ."      MOVS     r2,#1
        0x00001872:    4669        iF      MOV      r1,sp
        0x00001874:    4b11        .K      LDR      r3,[pc,#68] ; [0x18bc] = 0xdac8
        0x00001876:    0312        ..      LSLS     r2,r2,#12
        0x00001878:    1882        ..      ADDS     r2,r0,r2
        0x0000187a:    428a        .B      CMP      r2,r1
        0x0000187c:    601a        .`      STR      r2,[r3,#0]
        0x0000187e:    d801        ..      BHI      0x1884 ; __rt_heap_escrow + 20
        0x00001880:    0011        ..      MOVS     r1,r2
        0x00001882:    4770        pG      BX       lr
        0x00001884:    6019        .`      STR      r1,[r3,#0]
        0x00001886:    4770        pG      BX       lr
    __rt_heap_expand
        0x00001888:    b570        p.      PUSH     {r4-r6,lr}
        0x0000188a:    4c0c        .L      LDR      r4,[pc,#48] ; [0x18bc] = 0xdac8
        0x0000188c:    466d        mF      MOV      r5,sp
        0x0000188e:    2601        .&      MOVS     r6,#1
        0x00001890:    0336        6.      LSLS     r6,r6,#12
        0x00001892:    6823        #h      LDR      r3,[r4,#0]
        0x00001894:    1bad        ..      SUBS     r5,r5,r6
        0x00001896:    189a        ..      ADDS     r2,r3,r2
        0x00001898:    42aa        .B      CMP      r2,r5
        0x0000189a:    d80e        ..      BHI      0x18ba ; __rt_heap_expand + 50
        0x0000189c:    1aad        ..      SUBS     r5,r5,r2
        0x0000189e:    1990        ..      ADDS     r0,r2,r6
        0x000018a0:    0fee        ..      LSRS     r6,r5,#31
        0x000018a2:    1975        u.      ADDS     r5,r6,r5
        0x000018a4:    106d        m.      ASRS     r5,r5,#1
        0x000018a6:    18aa        ..      ADDS     r2,r5,r2
        0x000018a8:    4290        .B      CMP      r0,r2
        0x000018aa:    d900        ..      BLS      0x18ae ; __rt_heap_expand + 38
        0x000018ac:    0010        ..      MOVS     r0,r2
        0x000018ae:    1dc0        ..      ADDS     r0,r0,#7
        0x000018b0:    600b        .`      STR      r3,[r1,#0]
        0x000018b2:    08c2        ..      LSRS     r2,r0,#3
        0x000018b4:    00d2        ..      LSLS     r2,r2,#3
        0x000018b6:    1ad0        ..      SUBS     r0,r2,r3
        0x000018b8:    6022        "`      STR      r2,[r4,#0]
        0x000018ba:    bd70        p.      POP      {r4-r6,pc}
    $d
        0x000018bc:    0000dac8    ....    DCD    56008
    $a
    .text
    __rt_ctype_table
        0x000018c0:    e92d4010    .@-.    PUSH     {r4,lr}
        0x000018c4:    eb000002    ....    BL       __rt_locale ; 0x18d4
        0x000018c8:    e2900004    ....    ADDS     r0,r0,#4
        0x000018cc:    e8bd8010    ....    POP      {r4,pc}
    $d
        0x000018d0:    0000a9e4    ....    DCD    43492
    $a
    .text
    __rt_locale
        0x000018d4:    e59f0000    ....    LDR      r0,[pc,#0] ; [0x18dc] = 0x68304
        0x000018d8:    e12fff1e    ../.    BX       lr
    $d
        0x000018dc:    00068304    ....    DCD    426756
    $t
    .text
    _printf_fp_infnan
        0x000018e0:    b5f8        ..      PUSH     {r3-r7,lr}
        0x000018e2:    0004        ..      MOVS     r4,r0
        0x000018e4:    6800        .h      LDR      r0,[r0,#0]
        0x000018e6:    001f        ..      MOVS     r7,r3
        0x000018e8:    2301        .#      MOVS     r3,#1
        0x000018ea:    0001        ..      MOVS     r1,r0
        0x000018ec:    02db        ..      LSLS     r3,r3,#11
        0x000018ee:    2603        .&      MOVS     r6,#3
        0x000018f0:    4018        .@      ANDS     r0,r0,r3
        0x000018f2:    2a07        .*      CMP      r2,#7
        0x000018f4:    db05        ..      BLT      0x1902 ; _printf_fp_infnan + 34
        0x000018f6:    2800        .(      CMP      r0,#0
        0x000018f8:    d001        ..      BEQ      0x18fe ; _printf_fp_infnan + 30
        0x000018fa:    a517        ..      ADR      r5,{pc}+0x5e ; 0x1958
        0x000018fc:    e006        ..      B        0x190c ; _printf_fp_infnan + 44
        0x000018fe:    a517        ..      ADR      r5,{pc}+0x5e ; 0x195c
        0x00001900:    e004        ..      B        0x190c ; _printf_fp_infnan + 44
        0x00001902:    2800        .(      CMP      r0,#0
        0x00001904:    d001        ..      BEQ      0x190a ; _printf_fp_infnan + 42
        0x00001906:    a516        ..      ADR      r5,{pc}+0x5a ; 0x1960
        0x00001908:    e000        ..      B        0x190c ; _printf_fp_infnan + 44
        0x0000190a:    a516        ..      ADR      r5,{pc}+0x5a ; 0x1964
        0x0000190c:    2010        .       MOVS     r0,#0x10
        0x0000190e:    4381        .C      BICS     r1,r1,r0
        0x00001910:    6021        !`      STR      r1,[r4,#0]
        0x00001912:    69a0        .i      LDR      r0,[r4,#0x18]
        0x00001914:    1ec0        ..      SUBS     r0,r0,#3
        0x00001916:    2f00        ./      CMP      r7,#0
        0x00001918:    61a0        .a      STR      r0,[r4,#0x18]
        0x0000191a:    d001        ..      BEQ      0x1920 ; _printf_fp_infnan + 64
        0x0000191c:    1e40        @.      SUBS     r0,r0,#1
        0x0000191e:    61a0        .a      STR      r0,[r4,#0x18]
        0x00001920:    0020         .      MOVS     r0,r4
        0x00001922:    f7fefd81    ....    BL       _printf_pre_padding ; 0x428
        0x00001926:    2f00        ./      CMP      r7,#0
        0x00001928:    d009        ..      BEQ      0x193e ; _printf_fp_infnan + 94
        0x0000192a:    6862        bh      LDR      r2,[r4,#4]
        0x0000192c:    68a1        .h      LDR      r1,[r4,#8]
        0x0000192e:    0038        8.      MOVS     r0,r7
        0x00001930:    4790        .G      BLX      r2
        0x00001932:    6a20         j      LDR      r0,[r4,#0x20]
        0x00001934:    1c40        @.      ADDS     r0,r0,#1
        0x00001936:    6220         b      STR      r0,[r4,#0x20]
        0x00001938:    1cc0        ..      ADDS     r0,r0,#3
        0x0000193a:    6220         b      STR      r0,[r4,#0x20]
        0x0000193c:    e006        ..      B        0x194c ; _printf_fp_infnan + 108
        0x0000193e:    6a20         j      LDR      r0,[r4,#0x20]
        0x00001940:    e7fa        ..      B        0x1938 ; _printf_fp_infnan + 88
        0x00001942:    6862        bh      LDR      r2,[r4,#4]
        0x00001944:    7828        (x      LDRB     r0,[r5,#0]
        0x00001946:    68a1        .h      LDR      r1,[r4,#8]
        0x00001948:    1c6d        m.      ADDS     r5,r5,#1
        0x0000194a:    4790        .G      BLX      r2
        0x0000194c:    1e76        v.      SUBS     r6,r6,#1
        0x0000194e:    d2f8        ..      BCS      0x1942 ; _printf_fp_infnan + 98
        0x00001950:    0020         .      MOVS     r0,r4
        0x00001952:    f7fefd7f    ....    BL       _printf_post_padding ; 0x454
        0x00001956:    bdf8        ..      POP      {r3-r7,pc}
    $d
        0x00001958:    004e414e    NAN.    DCD    5128526
        0x0000195c:    006e616e    nan.    DCD    7233902
        0x00001960:    00464e49    INF.    DCD    4607561
        0x00001964:    00666e69    inf.    DCD    6712937
    $t
    .text
    _btod_etento
        0x00001968:    b5f7        ..      PUSH     {r0-r2,r4-r7,lr}
        0x0000196a:    0016        ..      MOVS     r6,r2
        0x0000196c:    b08a        ..      SUB      sp,sp,#0x28
        0x0000196e:    4833        3H      LDR      r0,[pc,#204] ; [0x1a3c] = 0xb82c
        0x00001970:    4478        xD      ADD      r0,r0,pc
        0x00001972:    466c        lF      MOV      r4,sp
        0x00001974:    0003        ..      MOVS     r3,r0
        0x00001976:    337c        |3      ADDS     r3,r3,#0x7c
        0x00001978:    6fc0        .o      LDR      r0,[r0,#0x7c]
        0x0000197a:    685a        Zh      LDR      r2,[r3,#4]
        0x0000197c:    689b        .h      LDR      r3,[r3,#8]
        0x0000197e:    c40d        ..      STM      r4!,{r0,r2,r3}
        0x00001980:    482e        .H      LDR      r0,[pc,#184] ; [0x1a3c] = 0xb82c
        0x00001982:    4478        xD      ADD      r0,r0,pc
        0x00001984:    3076        v0      ADDS     r0,r0,#0x76
        0x00001986:    ac03        ..      ADD      r4,sp,#0xc
        0x00001988:    c80d        ..      LDM      r0,{r0,r2,r3}
        0x0000198a:    c40d        ..      STM      r4!,{r0,r2,r3}
        0x0000198c:    2037        7       MOVS     r0,#0x37
        0x0000198e:    01c0        ..      LSLS     r0,r0,#7
        0x00001990:    1808        ..      ADDS     r0,r1,r0
        0x00001992:    2137        7!      MOVS     r1,#0x37
        0x00001994:    301b        .0      ADDS     r0,r0,#0x1b
        0x00001996:    f7ffe88c    ....    BLX      __aeabi_idiv ; 0xab0
        0x0000199a:    0005        ..      MOVS     r5,r0
        0x0000199c:    3d80        .=      SUBS     r5,r5,#0x80
        0x0000199e:    000c        ..      MOVS     r4,r1
        0x000019a0:    3c1b        .<      SUBS     r4,r4,#0x1b
        0x000019a2:    d502        ..      BPL      0x19aa ; _btod_etento + 66
        0x000019a4:    4264        dB      RSBS     r4,r4,#0
        0x000019a6:    2001        .       MOVS     r0,#1
        0x000019a8:    e000        ..      B        0x19ac ; _btod_etento + 68
        0x000019aa:    2000        .       MOVS     r0,#0
        0x000019ac:    2700        .'      MOVS     r7,#0
        0x000019ae:    9009        ..      STR      r0,[sp,#0x24]
        0x000019b0:    e010        ..      B        0x19d4 ; _btod_etento + 108
        0x000019b2:    07e0        ..      LSLS     r0,r4,#31
        0x000019b4:    d00c        ..      BEQ      0x19d0 ; _btod_etento + 104
        0x000019b6:    200c        .       MOVS     r0,#0xc
        0x000019b8:    4920         I      LDR      r1,[pc,#128] ; [0x1a3c] = 0xb82c
        0x000019ba:    4378        xC      MULS     r0,r7,r0
        0x000019bc:    4479        yD      ADD      r1,r1,pc
        0x000019be:    394c        L9      SUBS     r1,r1,#0x4c
        0x000019c0:    1841        A.      ADDS     r1,r0,r1
        0x000019c2:    4668        hF      MOV      r0,sp
        0x000019c4:    2301        .#      MOVS     r3,#1
        0x000019c6:    0032        2.      MOVS     r2,r6
        0x000019c8:    f000eb4e    ..N.    BLX      _btod_emul ; 0x2068
        0x000019cc:    466b        kF      MOV      r3,sp
        0x000019ce:    c307        ..      STM      r3!,{r0-r2}
        0x000019d0:    1064        d.      ASRS     r4,r4,#1
        0x000019d2:    1c7f        ..      ADDS     r7,r7,#1
        0x000019d4:    2c00        .,      CMP      r4,#0
        0x000019d6:    d1ec        ..      BNE      0x19b2 ; _btod_etento + 74
        0x000019d8:    4f18        .O      LDR      r7,[pc,#96] ; [0x1a3c] = 0xb82c
        0x000019da:    447f        .D      ADD      r7,r7,pc
        0x000019dc:    3f2e        .?      SUBS     r7,r7,#0x2e
        0x000019de:    e016        ..      B        0x1a0e ; _btod_etento + 166
        0x000019e0:    07e8        ..      LSLS     r0,r5,#31
        0x000019e2:    d012        ..      BEQ      0x1a0a ; _btod_etento + 162
        0x000019e4:    0120         .      LSLS     r0,r4,#4
        0x000019e6:    19c0        ..      ADDS     r0,r0,r7
        0x000019e8:    c80e        ..      LDM      r0!,{r1-r3}
        0x000019ea:    9106        ..      STR      r1,[sp,#0x18]
        0x000019ec:    9308        ..      STR      r3,[sp,#0x20]
        0x000019ee:    9207        ..      STR      r2,[sp,#0x1c]
        0x000019f0:    6800        .h      LDR      r0,[r0,#0]
        0x000019f2:    42f0        .B      CMN      r0,r6
        0x000019f4:    d101        ..      BNE      0x19fa ; _btod_etento + 146
        0x000019f6:    1998        ..      ADDS     r0,r3,r6
        0x000019f8:    9008        ..      STR      r0,[sp,#0x20]
        0x000019fa:    2301        .#      MOVS     r3,#1
        0x000019fc:    0032        2.      MOVS     r2,r6
        0x000019fe:    a906        ..      ADD      r1,sp,#0x18
        0x00001a00:    a803        ..      ADD      r0,sp,#0xc
        0x00001a02:    f000eb32    ..2.    BLX      _btod_emul ; 0x2068
        0x00001a06:    ab03        ..      ADD      r3,sp,#0xc
        0x00001a08:    c307        ..      STM      r3!,{r0-r2}
        0x00001a0a:    106d        m.      ASRS     r5,r5,#1
        0x00001a0c:    1c64        d.      ADDS     r4,r4,#1
        0x00001a0e:    2d00        .-      CMP      r5,#0
        0x00001a10:    d1e6        ..      BNE      0x19e0 ; _btod_etento + 120
        0x00001a12:    9809        ..      LDR      r0,[sp,#0x24]
        0x00001a14:    2800        .(      CMP      r0,#0
        0x00001a16:    d006        ..      BEQ      0x1a26 ; _btod_etento + 190
        0x00001a18:    4669        iF      MOV      r1,sp
        0x00001a1a:    2301        .#      MOVS     r3,#1
        0x00001a1c:    0032        2.      MOVS     r2,r6
        0x00001a1e:    a803        ..      ADD      r0,sp,#0xc
        0x00001a20:    f000eb08    ....    BLX      _btod_ediv ; 0x2034
        0x00001a24:    e005        ..      B        0x1a32 ; _btod_etento + 202
        0x00001a26:    2301        .#      MOVS     r3,#1
        0x00001a28:    4669        iF      MOV      r1,sp
        0x00001a2a:    0032        2.      MOVS     r2,r6
        0x00001a2c:    a803        ..      ADD      r0,sp,#0xc
        0x00001a2e:    f000eb1c    ....    BLX      _btod_emul ; 0x2068
        0x00001a32:    9b0a        ..      LDR      r3,[sp,#0x28]
        0x00001a34:    c307        ..      STM      r3!,{r0-r2}
        0x00001a36:    b00d        ..      ADD      sp,sp,#0x34
        0x00001a38:    bdf0        ..      POP      {r4-r7,pc}
    $d
        0x00001a3a:    0000        ..      DCW    0
        0x00001a3c:    0000b82c    ,...    DCD    47148
    $t
    .text
    exit
        0x00001a40:    b510        ..      PUSH     {r4,lr}
        0x00001a42:    0004        ..      MOVS     r4,r0
        0x00001a44:    46c0        .F      MOV      r8,r8
        0x00001a46:    46c0        .F      MOV      r8,r8
        0x00001a48:    0020         .      MOVS     r0,r4
        0x00001a4a:    f7feec62    ..b.    BLX      __rt_exit ; 0x310
        0x00001a4e:    bd10        ..      POP      {r4,pc}
    .text
    __sig_exit
        0x00001a50:    b510        ..      PUSH     {r4,lr}
        0x00001a52:    2800        .(      CMP      r0,#0
        0x00001a54:    d001        ..      BEQ      0x1a5a ; __sig_exit + 10
        0x00001a56:    f004edd0    ....    BLX      _sys_exit ; 0x65f8
        0x00001a5a:    bd10        ..      POP      {r4,pc}
    .text
    __rt_SIGRTMEM_inner
        0x00001a5c:    b510        ..      PUSH     {r4,lr}
        0x00001a5e:    2801        .(      CMP      r0,#1
        0x00001a60:    d005        ..      BEQ      0x1a6e ; __rt_SIGRTMEM_inner + 18
        0x00001a62:    2100        .!      MOVS     r1,#0
        0x00001a64:    a003        ..      ADR      r0,{pc}+0x10 ; 0x1a74
        0x00001a66:    f000f821    ..!.    BL       __default_signal_display ; 0x1aac
        0x00001a6a:    2001        .       MOVS     r0,#1
        0x00001a6c:    bd10        ..      POP      {r4,pc}
        0x00001a6e:    a109        ..      ADR      r1,{pc}+0x26 ; 0x1a94
        0x00001a70:    e7f8        ..      B        0x1a64 ; __rt_SIGRTMEM_inner + 8
    $d
        0x00001a72:    0000        ..      DCW    0
        0x00001a74:    52474953    SIGR    DCD    1380403539
        0x00001a78:    4d454d54    TMEM    DCD    1296387412
        0x00001a7c:    754f203a    : Ou    DCD    1968119866
        0x00001a80:    666f2074    t of    DCD    1718558836
        0x00001a84:    61656820     hea    DCD    1634035744
        0x00001a88:    656d2070    p me    DCD    1701650544
        0x00001a8c:    79726f6d    mory    DCD    2037542765
        0x00001a90:    00000000    ....    DCD    0
        0x00001a94:    6548203a    : He    DCD    1699225658
        0x00001a98:    6d207061    ap m    DCD    1830842465
        0x00001a9c:    726f6d65    emor    DCD    1919905125
        0x00001aa0:    6f632079    y co    DCD    1868767353
        0x00001aa4:    70757272    rrup    DCD    1886745202
        0x00001aa8:    00646574    ted.    DCD    6579572
    $t
    .text
    __default_signal_display
        0x00001aac:    b570        p.      PUSH     {r4-r6,lr}
        0x00001aae:    000c        ..      MOVS     r4,r1
        0x00001ab0:    0005        ..      MOVS     r5,r0
        0x00001ab2:    200a        .       MOVS     r0,#0xa
        0x00001ab4:    e000        ..      B        0x1ab8 ; __default_signal_display + 12
        0x00001ab6:    1c6d        m.      ADDS     r5,r5,#1
        0x00001ab8:    f004eda0    ....    BLX      _ttywrch ; 0x65fc
        0x00001abc:    2d00        .-      CMP      r5,#0
        0x00001abe:    d006        ..      BEQ      0x1ace ; __default_signal_display + 34
        0x00001ac0:    7828        (x      LDRB     r0,[r5,#0]
        0x00001ac2:    2800        .(      CMP      r0,#0
        0x00001ac4:    d1f7        ..      BNE      0x1ab6 ; __default_signal_display + 10
        0x00001ac6:    e002        ..      B        0x1ace ; __default_signal_display + 34
        0x00001ac8:    1c64        d.      ADDS     r4,r4,#1
        0x00001aca:    f004ed98    ....    BLX      _ttywrch ; 0x65fc
        0x00001ace:    2c00        .,      CMP      r4,#0
        0x00001ad0:    d002        ..      BEQ      0x1ad8 ; __default_signal_display + 44
        0x00001ad2:    7820         x      LDRB     r0,[r4,#0]
        0x00001ad4:    2800        .(      CMP      r0,#0
        0x00001ad6:    d1f7        ..      BNE      0x1ac8 ; __default_signal_display + 28
        0x00001ad8:    200a        .       MOVS     r0,#0xa
        0x00001ada:    f004ed90    ....    BLX      _ttywrch ; 0x65fc
        0x00001ade:    bd70        p.      POP      {r4-r6,pc}
    $a
    .text_udiv
    __aeabi_uidiv
    __aeabi_uidivmod
        0x00001ae0:    e3b02000    . ..    MOVS     r2,#0
        0x00001ae4:    e0713120     1q.    RSBS     r3,r1,r0,LSR #2
        0x00001ae8:    3afffc0d    ...:    BCC      __arm_div2 ; 0xb24
        0x00001aec:    e07132a0    .2q.    RSBS     r3,r1,r0,LSR #5
        0x00001af0:    3afffc02    ...:    BCC      __arm_div5 ; 0xb00
        0x00001af4:    e0713420     4q.    RSBS     r3,r1,r0,LSR #8
        0x00001af8:    3afffbf7    ...:    BCC      __arm_div8 ; 0xadc
        0x00001afc:    e3a0c000    ....    MOV      r12,#0
        0x00001b00:    eafffc16    ....    B        __arm_div_large ; 0xb60
    CL$$btod_d2e
    _btod_d2e
        0x00001b04:    e1b0c080    ....    LSLS     r12,r0,#1
        0x00001b08:    03310000    ..1.    TEQEQ    r1,#0
        0x00001b0c:    e1a00a2c    ,...    LSR      r0,r12,#20
        0x00001b10:    e1a0350c    .5..    LSL      r3,r12,#10
        0x00001b14:    e1a02581    .%..    LSL      r2,r1,#11
        0x00001b18:    12800b1e    ....    ADDNE    r0,r0,#0x7800
        0x00001b1c:    e1831aa1    ....    ORR      r1,r3,r1,LSR #21
        0x00001b20:    e1a00060    `...    RRX      r0,r0
        0x00001b24:    13811102    ....    ORRNE    r1,r1,#0x80000000
        0x00001b28:    e1b0cacc    ....    ASRS     r12,r12,#21
        0x00001b2c:    0a000017    ....    BEQ      _d2e_norm_op1 ; 0x1b90
        0x00001b30:    e37c0001    ..|.    CMN      r12,#1
        0x00001b34:    03800101    ....    ORREQ    r0,r0,#0x40000000
        0x00001b38:    e12fff1e    ../.    BX       lr
    CL$$btod_d2e_denorm_low
    _d2e_denorm_low
        0x00001b3c:    e1b03822    "8..    LSRS     r3,r2,#16
        0x00001b40:    01a02802    .(..    LSLEQ    r2,r2,#16
        0x00001b44:    03a0c010    ....    MOVEQ    r12,#0x10
        0x00001b48:    13a0c000    ....    MOVNE    r12,#0
        0x00001b4c:    e240001f    ..@.    SUB      r0,r0,#0x1f
        0x00001b50:    e1b03c22    "<..    LSRS     r3,r2,#24
        0x00001b54:    01a02402    .$..    LSLEQ    r2,r2,#8
        0x00001b58:    028cc008    ....    ADDEQ    r12,r12,#8
        0x00001b5c:    e1b03e22    ">..    LSRS     r3,r2,#28
        0x00001b60:    01a02202    ."..    LSLEQ    r2,r2,#4
        0x00001b64:    028cc004    ....    ADDEQ    r12,r12,#4
        0x00001b68:    e1b03f22    "?..    LSRS     r3,r2,#30
        0x00001b6c:    01a02102    .!..    LSLEQ    r2,r2,#2
        0x00001b70:    028cc002    ....    ADDEQ    r12,r12,#2
        0x00001b74:    e1b03fa2    .?..    LSRS     r3,r2,#31
        0x00001b78:    01a02082    . ..    LSLEQ    r2,r2,#1
        0x00001b7c:    028cc001    ....    ADDEQ    r12,r12,#1
        0x00001b80:    e1a01002    ....    MOV      r1,r2
        0x00001b84:    e3a02000    . ..    MOV      r2,#0
        0x00001b88:    e040000c    ..@.    SUB      r0,r0,r12
        0x00001b8c:    e12fff1e    ../.    BX       lr
    CL$$btod_d2e_norm_op1
    _d2e_norm_op1
        0x00001b90:    e3110102    ....    TST      r1,#0x80000000
        0x00001b94:    012fff1e    ../.    BXEQ     lr
        0x00001b98:    e3d11102    ....    BICS     r1,r1,#0x80000000
        0x00001b9c:    0affffe6    ....    BEQ      _d2e_denorm_low ; 0x1b3c
        0x00001ba0:    e1b03821    !8..    LSRS     r3,r1,#16
        0x00001ba4:    01a01801    ....    LSLEQ    r1,r1,#16
        0x00001ba8:    03a0c010    ....    MOVEQ    r12,#0x10
        0x00001bac:    13a0c000    ....    MOVNE    r12,#0
        0x00001bb0:    e1b03c21    !<..    LSRS     r3,r1,#24
        0x00001bb4:    01a01401    ....    LSLEQ    r1,r1,#8
        0x00001bb8:    028cc008    ....    ADDEQ    r12,r12,#8
        0x00001bbc:    e1b03e21    !>..    LSRS     r3,r1,#28
        0x00001bc0:    01a01201    ....    LSLEQ    r1,r1,#4
        0x00001bc4:    028cc004    ....    ADDEQ    r12,r12,#4
        0x00001bc8:    e1b03f21    !?..    LSRS     r3,r1,#30
        0x00001bcc:    01a01101    ....    LSLEQ    r1,r1,#2
        0x00001bd0:    028cc002    ....    ADDEQ    r12,r12,#2
        0x00001bd4:    e1b03fa1    .?..    LSRS     r3,r1,#31
        0x00001bd8:    028cc001    ....    ADDEQ    r12,r12,#1
        0x00001bdc:    e26c3020     0l.    RSB      r3,r12,#0x20
        0x00001be0:    01a01081    ....    LSLEQ    r1,r1,#1
        0x00001be4:    e1811332    2...    ORR      r1,r1,r2,LSR r3
        0x00001be8:    e1a02c12    .,..    LSL      r2,r2,r12
        0x00001bec:    e040000c    ..@.    SUB      r0,r0,r12
        0x00001bf0:    e2800001    ....    ADD      r0,r0,#1
        0x00001bf4:    e12fff1e    ../.    BX       lr
    CL$$btod_div_common
    __btod_div_common
        0x00001bf8:    e3c0c4ff    ....    BIC      r12,r0,#0xff000000
        0x00001bfc:    e0200003    .. .    EOR      r0,r0,r3
        0x00001c00:    e3c374ff    .t..    BIC      r7,r3,#0xff000000
        0x00001c04:    e04c3007    .0L.    SUB      r3,r12,r7
        0x00001c08:    e2833c3f    ?<..    ADD      r3,r3,#0x3f00
        0x00001c0c:    e2000102    ....    AND      r0,r0,#0x80000000
        0x00001c10:    e28330ff    .0..    ADD      r3,r3,#0xff
        0x00001c14:    e92d4980    .I-.    PUSH     {r7,r8,r11,lr}
        0x00001c18:    e28f6e22    "n..    ADR      r6,{pc}+0x228 ; 0x1e40
        0x00001c1c:    e92d0009    ..-.    PUSH     {r0,r3}
        0x00001c20:    e1a03824    $8..    LSR      r3,r4,#16
        0x00001c24:    e1a0b825    %...    LSR      r11,r5,#16
        0x00001c28:    e7d66423    #d..    LDRB     r6,[r6,r3,LSR #8]
        0x00001c2c:    e1c5e80b    ....    BIC      lr,r5,r11,LSL #16
        0x00001c30:    e1c48803    ....    BIC      r8,r4,r3,LSL #16
        0x00001c34:    e1b010a1    ....    LSRS     r1,r1,#1
        0x00001c38:    e0276693    .f'.    MLA      r7,r3,r6,r6
        0x00001c3c:    e1b02062    b ..    RRXS     r2,r2
        0x00001c40:    23a00102    ...#    MOVCS    r0,#0x80000000
        0x00001c44:    33a00000    ...3    MOVCC    r0,#0
        0x00001c48:    e2677502    .ug.    RSB      r7,r7,#0x800000
        0x00001c4c:    e0060697    ....    MUL      r6,r7,r6
        0x00001c50:    e1a076a4    .v..    LSR      r7,r4,#13
        0x00001c54:    e1a069a6    .i..    LSR      r6,r6,#19
        0x00001c58:    e2866002    .`..    ADD      r6,r6,#2
        0x00001c5c:    e02c6697    .f,.    MLA      r12,r7,r6,r6
        0x00001c60:    e26cc202    ..l.    RSB      r12,r12,#0x20000000
        0x00001c64:    e1a0782c    ,x..    LSR      r7,r12,#16
        0x00001c68:    e1ccc807    ....    BIC      r12,r12,r7,LSL #16
        0x00001c6c:    e0040697    ....    MUL      r4,r7,r6
        0x00001c70:    e005069c    ....    MUL      r5,r12,r6
        0x00001c74:    e1a077a1    .w..    LSR      r7,r1,#15
        0x00001c78:    e0846825    %h..    ADD      r6,r4,r5,LSR #16
        0x00001c7c:    e1a06326    &c..    LSR      r6,r6,#6
        0x00001c80:    e00c0796    ....    MUL      r12,r6,r7
        0x00001c84:    e1a0c82c    ,...    LSR      r12,r12,#16
        0x00001c88:    e0070b9c    ....    MUL      r7,r12,r11
        0x00001c8c:    e1a0480c    .H..    LSL      r4,r12,#16
        0x00001c90:    e0522007    . R.    SUBS     r2,r2,r7
        0x00001c94:    e0070c93    ....    MUL      r7,r3,r12
        0x00001c98:    e0c11007    ....    SBC      r1,r1,r7
        0x00001c9c:    e0070e9c    ....    MUL      r7,r12,lr
        0x00001ca0:    e0500807    ..P.    SUBS     r0,r0,r7,LSL #16
        0x00001ca4:    e0d22827    '(..    SBCS     r2,r2,r7,LSR #16
        0x00001ca8:    e007089c    ....    MUL      r7,r12,r8
        0x00001cac:    30422807    .(B0    SUBCC    r2,r2,r7,LSL #16
        0x00001cb0:    20522807    .(R     SUBSCS   r2,r2,r7,LSL #16
        0x00001cb4:    e0c11827    '...    SBC      r1,r1,r7,LSR #16
        0x00001cb8:    e1a07121    !q..    LSR      r7,r1,#2
        0x00001cbc:    e00c0796    ....    MUL      r12,r6,r7
        0x00001cc0:    e1a0c82c    ,...    LSR      r12,r12,#16
        0x00001cc4:    e0070b9c    ....    MUL      r7,r12,r11
        0x00001cc8:    e0500987    ..P.    SUBS     r0,r0,r7,LSL #19
        0x00001ccc:    e0d226a7    .&..    SBCS     r2,r2,r7,LSR #13
        0x00001cd0:    e0070c93    ....    MUL      r7,r3,r12
        0x00001cd4:    30422987    .)B0    SUBCC    r2,r2,r7,LSL #19
        0x00001cd8:    20522987    .)R     SUBSCS   r2,r2,r7,LSL #19
        0x00001cdc:    e0c116a7    ....    SBC      r1,r1,r7,LSR #13
        0x00001ce0:    e0070e9c    ....    MUL      r7,r12,lr
        0x00001ce4:    e084418c    .A..    ADD      r4,r4,r12,LSL #3
        0x00001ce8:    e0500187    ..P.    SUBS     r0,r0,r7,LSL #3
        0x00001cec:    e0d22ea7    ....    SBCS     r2,r2,r7,LSR #29
        0x00001cf0:    e007089c    ....    MUL      r7,r12,r8
        0x00001cf4:    30422187    .!B0    SUBCC    r2,r2,r7,LSL #3
        0x00001cf8:    20522187    .!R     SUBSCS   r2,r2,r7,LSL #3
        0x00001cfc:    e0c11ea7    ....    SBC      r1,r1,r7,LSR #29
        0x00001d00:    e59d700c    .p..    LDR      r7,[sp,#0xc]
        0x00001d04:    e1a01d01    ....    LSL      r1,r1,#26
        0x00001d08:    e1811322    "...    ORR      r1,r1,r2,LSR #6
        0x00001d0c:    e1a02d02    .-..    LSL      r2,r2,#26
        0x00001d10:    e1a077a1    .w..    LSR      r7,r1,#15
        0x00001d14:    e1822320     #..    ORR      r2,r2,r0,LSR #6
        0x00001d18:    e00c0796    ....    MUL      r12,r6,r7
        0x00001d1c:    e1a00d00    ....    LSL      r0,r0,#26
        0x00001d20:    e1a0c82c    ,...    LSR      r12,r12,#16
        0x00001d24:    e0070b9c    ....    MUL      r7,r12,r11
        0x00001d28:    e1a05b0c    .[..    LSL      r5,r12,#22
        0x00001d2c:    e084452c    ,E..    ADD      r4,r4,r12,LSR #10
        0x00001d30:    e0522007    . R.    SUBS     r2,r2,r7
        0x00001d34:    e0070c93    ....    MUL      r7,r3,r12
        0x00001d38:    e0c11007    ....    SBC      r1,r1,r7
        0x00001d3c:    e0070e9c    ....    MUL      r7,r12,lr
        0x00001d40:    e0500807    ..P.    SUBS     r0,r0,r7,LSL #16
        0x00001d44:    e0d22827    '(..    SBCS     r2,r2,r7,LSR #16
        0x00001d48:    e007089c    ....    MUL      r7,r12,r8
        0x00001d4c:    30422807    .(B0    SUBCC    r2,r2,r7,LSL #16
        0x00001d50:    20522807    .(R     SUBSCS   r2,r2,r7,LSL #16
        0x00001d54:    e0c11827    '...    SBC      r1,r1,r7,LSR #16
        0x00001d58:    e1a07121    !q..    LSR      r7,r1,#2
        0x00001d5c:    e00c0796    ....    MUL      r12,r6,r7
        0x00001d60:    e1a0c82c    ,...    LSR      r12,r12,#16
        0x00001d64:    e0070b9c    ....    MUL      r7,r12,r11
        0x00001d68:    e0500987    ..P.    SUBS     r0,r0,r7,LSL #19
        0x00001d6c:    e0d226a7    .&..    SBCS     r2,r2,r7,LSR #13
        0x00001d70:    e0070c93    ....    MUL      r7,r3,r12
        0x00001d74:    30422987    .)B0    SUBCC    r2,r2,r7,LSL #19
        0x00001d78:    20522987    .)R     SUBSCS   r2,r2,r7,LSL #19
        0x00001d7c:    e0c116a7    ....    SBC      r1,r1,r7,LSR #13
        0x00001d80:    e0070e9c    ....    MUL      r7,r12,lr
        0x00001d84:    e0500187    ..P.    SUBS     r0,r0,r7,LSL #3
        0x00001d88:    e0d22ea7    ....    SBCS     r2,r2,r7,LSR #29
        0x00001d8c:    e007089c    ....    MUL      r7,r12,r8
        0x00001d90:    30422187    .!B0    SUBCC    r2,r2,r7,LSL #3
        0x00001d94:    20522187    .!R     SUBSCS   r2,r2,r7,LSL #3
        0x00001d98:    e0c11ea7    ....    SBC      r1,r1,r7,LSR #29
        0x00001d9c:    e1a01d01    ....    LSL      r1,r1,#26
        0x00001da0:    e1811322    "...    ORR      r1,r1,r2,LSR #6
        0x00001da4:    e095548c    .T..    ADDS     r5,r5,r12,LSL #9
        0x00001da8:    e1a077a1    .w..    LSR      r7,r1,#15
        0x00001dac:    e1a02d02    .-..    LSL      r2,r2,#26
        0x00001db0:    e00c0796    ....    MUL      r12,r6,r7
        0x00001db4:    e1822320     #..    ORR      r2,r2,r0,LSR #6
        0x00001db8:    e2a44000    .@..    ADC      r4,r4,#0
        0x00001dbc:    e1a00d00    ....    LSL      r0,r0,#26
        0x00001dc0:    e1a0c82c    ,...    LSR      r12,r12,#16
        0x00001dc4:    e0070b9c    ....    MUL      r7,r12,r11
        0x00001dc8:    e1a06e0c    .n..    LSL      r6,r12,#28
        0x00001dcc:    e0522007    . R.    SUBS     r2,r2,r7
        0x00001dd0:    e0070c93    ....    MUL      r7,r3,r12
        0x00001dd4:    e0c11007    ....    SBC      r1,r1,r7
        0x00001dd8:    e0070e9c    ....    MUL      r7,r12,lr
        0x00001ddc:    e0500807    ..P.    SUBS     r0,r0,r7,LSL #16
        0x00001de0:    e0d22827    '(..    SBCS     r2,r2,r7,LSR #16
        0x00001de4:    e007089c    ....    MUL      r7,r12,r8
        0x00001de8:    30422807    .(B0    SUBCC    r2,r2,r7,LSL #16
        0x00001dec:    20522807    .(R     SUBSCS   r2,r2,r7,LSL #16
        0x00001df0:    e0c11827    '...    SBC      r1,r1,r7,LSR #16
        0x00001df4:    e095522c    ,R..    ADDS     r5,r5,r12,LSR #4
        0x00001df8:    e1a01701    ....    LSL      r1,r1,#14
        0x00001dfc:    e1811922    "...    ORR      r1,r1,r2,LSR #18
        0x00001e00:    e1a02702    .'..    LSL      r2,r2,#14
        0x00001e04:    e1822920     )..    ORR      r2,r2,r0,LSR #18
        0x00001e08:    e1a00700    ....    LSL      r0,r0,#14
        0x00001e0c:    e2a44000    .@..    ADC      r4,r4,#0
        0x00001e10:    e1883803    .8..    ORR      r3,r8,r3,LSL #16
        0x00001e14:    e18e880b    ....    ORR      r8,lr,r11,LSL #16
        0x00001e18:    e3a0e000    ....    MOV      lr,#0
        0x00001e1c:    e3a0b000    ....    MOV      r11,#0
        0x00001e20:    e052c008    ..R.    SUBS     r12,r2,r8
        0x00001e24:    e0d17003    .p..    SBCS     r7,r1,r3
        0x00001e28:    e0aee00e    ....    ADC      lr,lr,lr
        0x00001e2c:    21a0200c    . .!    MOVCS    r2,r12
        0x00001e30:    21a01007    ...!    MOVCS    r1,r7
        0x00001e34:    e0900000    ....    ADDS     r0,r0,r0
        0x00001e38:    e0b22002    . ..    ADCS     r2,r2,r2
        0x00001e3c:    e0b11001    ....    ADCS     r1,r1,r1
        0x00001e40:    e0abb00b    ....    ADC      r11,r11,r11
        0x00001e44:    e052c008    ..R.    SUBS     r12,r2,r8
        0x00001e48:    e0d17003    .p..    SBCS     r7,r1,r3
        0x00001e4c:    e2dbb000    ....    SBCS     r11,r11,#0
        0x00001e50:    e3a0b000    ....    MOV      r11,#0
        0x00001e54:    e0aee00e    ....    ADC      lr,lr,lr
        0x00001e58:    21a0200c    . .!    MOVCS    r2,r12
        0x00001e5c:    21a01007    ...!    MOVCS    r1,r7
        0x00001e60:    e0900000    ....    ADDS     r0,r0,r0
        0x00001e64:    e0b22002    . ..    ADCS     r2,r2,r2
        0x00001e68:    e0b11001    ....    ADCS     r1,r1,r1
        0x00001e6c:    e0abb00b    ....    ADC      r11,r11,r11
        0x00001e70:    e052c008    ..R.    SUBS     r12,r2,r8
        0x00001e74:    e0d17003    .p..    SBCS     r7,r1,r3
        0x00001e78:    e2dbb000    ....    SBCS     r11,r11,#0
        0x00001e7c:    21a0200c    . .!    MOVCS    r2,r12
        0x00001e80:    21a01007    ...!    MOVCS    r1,r7
        0x00001e84:    e0aee00e    ....    ADC      lr,lr,lr
        0x00001e88:    e1917002    .p..    ORRS     r7,r1,r2
        0x00001e8c:    13866001    .`..    ORRNE    r6,r6,#1
        0x00001e90:    e0966e0e    .n..    ADDS     r6,r6,lr,LSL #28
        0x00001e94:    e2b52000    . ..    ADCS     r2,r5,#0
        0x00001e98:    e2b41000    ....    ADCS     r1,r4,#0
        0x00001e9c:    48bd0189    ...H    POPMI    {r0,r3,r7,r8}
        0x00001ea0:    48bd8800    ...H    POPMI    {r11,pc}
        0x00001ea4:    e0966006    .`..    ADDS     r6,r6,r6
        0x00001ea8:    e8bd0189    ....    POP      {r0,r3,r7,r8}
        0x00001eac:    e0b22002    . ..    ADCS     r2,r2,r2
        0x00001eb0:    e8bd4800    .H..    POP      {r11,lr}
        0x00001eb4:    e0a11001    ....    ADC      r1,r1,r1
        0x00001eb8:    e2433001    .0C.    SUB      r3,r3,#1
        0x00001ebc:    e12fff1e    ../.    BX       lr
    $d
        0x00001ec0:    7e7f8080    ...~    DCD    2122285184
        0x00001ec4:    7a7b7c7d    }|{z    DCD    2054913149
        0x00001ec8:    76777879    yxwv    DCD    1987541113
        0x00001ecc:    73747576    vuts    DCD    1937012086
        0x00001ed0:    70717172    rqqp    DCD    1886482802
        0x00001ed4:    6d6e6e6f    onnm    DCD    1835953775
        0x00001ed8:    6a6b6c6c    llkj    DCD    1785425004
        0x00001edc:    6868696a    jihh    DCD    1751673194
        0x00001ee0:    65666667    gffe    DCD    1701209703
        0x00001ee4:    63636464    ddcc    DCD    1667458148
        0x00001ee8:    60616162    baa`    DCD    1616994658
        0x00001eec:    5e5f5f60    `__^    DCD    1583308640
        0x00001ef0:    5c5d5d5e    ^]]\    DCD    1549622622
        0x00001ef4:    5a5b5b5c    \[[Z    DCD    1515936604
        0x00001ef8:    5859595a    ZYYX    DCD    1482250586
        0x00001efc:    56575758    XWWV    DCD    1448564568
        0x00001f00:    55555556    VUUU    DCD    1431655766
        0x00001f04:    53535454    TTSS    DCD    1397970004
        0x00001f08:    51525252    RRRQ    DCD    1364349522
        0x00001f0c:    50505051    QPPP    DCD    1347440721
        0x00001f10:    4e4f4f4f    OOON    DCD    1313820495
        0x00001f14:    4d4d4d4e    NMMM    DCD    1296911694
        0x00001f18:    4b4c4c4c    LLLK    DCD    1263291468
        0x00001f1c:    4a4a4b4b    KKJJ    DCD    1246382923
        0x00001f20:    4949494a    JIII    DCD    1229539658
        0x00001f24:    47484848    HHHG    DCD    1195919432
        0x00001f28:    46474747    GGGF    DCD    1179076423
        0x00001f2c:    45454646    FFEE    DCD    1162167878
        0x00001f30:    44444445    EDDD    DCD    1145324613
        0x00001f34:    43434344    DCCC    DCD    1128481604
        0x00001f38:    42424243    CBBB    DCD    1111638595
        0x00001f3c:    41414142    BAAA    DCD    1094795586
    $a
    CL$$btod_e2e
    _e2e
        0x00001f40:    e3530000    ..S.    CMP      r3,#0
        0x00001f44:    e1a0c003    ....    MOV      r12,r3
        0x00001f48:    4a00001b    ...J    BMI      0x1fbc ; _e2e + 124
        0x00001f4c:    e1b07086    .p..    LSLS     r7,r6,#1
        0x00001f50:    0a000016    ....    BEQ      0x1fb0 ; _e2e + 112
        0x00001f54:    e92d401c    .@-.    PUSH     {r2-r4,lr}
        0x00001f58:    e1a07067    gp..    RRX      r7,r7
        0x00001f5c:    e92d0003    ..-.    PUSH     {r0,r1}
        0x00001f60:    e3a00010    ....    MOV      r0,#0x10
        0x00001f64:    e3a01010    ....    MOV      r1,#0x10
        0x00001f68:    e35a0000    ..Z.    CMP      r10,#0
        0x00001f6c:    0a000002    ....    BEQ      0x1f7c ; _e2e + 60
        0x00001f70:    e35c0000    ..\.    CMP      r12,#0
        0x00001f74:    d3800008    ....    ORRLE    r0,r0,#8
        0x00001f78:    d3801008    ....    ORRLE    r1,r0,#8
        0x00001f7c:    e3a00000    ....    MOV      r0,#0
        0x00001f80:    e8bd000f    ....    POP      {r0-r3}
        0x00001f84:    e28bb001    ....    ADD      r11,r11,#1
        0x00001f88:    e35b0001    ..[.    CMP      r11,#1
        0x00001f8c:    01b07027    'p..    LSRSEQ   r7,r7,#32
        0x00001f90:    e8bd4010    .@..    POP      {r4,lr}
        0x00001f94:    22922001    . ."    ADDSCS   r2,r2,#1
        0x00001f98:    22911001    ..."    ADDSCS   r1,r1,#1
        0x00001f9c:    23a01102    ...#    MOVCS    r1,#0x80000000
        0x00001fa0:    e2a33000    .0..    ADC      r3,r3,#0
        0x00001fa4:    e2000102    ....    AND      r0,r0,#0x80000000
        0x00001fa8:    e1830000    ....    ORR      r0,r3,r0
        0x00001fac:    e12fff1e    ../.    BX       lr
        0x00001fb0:    3afffffb    ...:    BCC      0x1fa4 ; _e2e + 100
        0x00001fb4:    e1b070a2    .p..    LSRS     r7,r2,#1
        0x00001fb8:    eaffffe5    ....    B        0x1f54 ; _e2e + 20
        0x00001fbc:    e1866806    .h..    ORR      r6,r6,r6,LSL #16
        0x00001fc0:    e3730040    @.s.    CMN      r3,#0x40
        0x00001fc4:    e1a06826    &h..    LSR      r6,r6,#16
        0x00001fc8:    da00000f    ....    BLE      0x200c ; _e2e + 204
        0x00001fcc:    e3730020     .s.    CMN      r3,#0x20
        0x00001fd0:    d1866002    .`..    ORRLE    r6,r6,r2
        0x00001fd4:    d1a02001    . ..    MOVLE    r2,r1
        0x00001fd8:    d3a01000    ....    MOVLE    r1,#0
        0x00001fdc:    d2833020     0..    ADDLE    r3,r3,#0x20
        0x00001fe0:    e2733000    .0s.    RSBS     r3,r3,#0
        0x00001fe4:    0affffd8    ....    BEQ      0x1f4c ; _e2e + 12
        0x00001fe8:    e1866806    .h..    ORR      r6,r6,r6,LSL #16
        0x00001fec:    e2637020     pc.    RSB      r7,r3,#0x20
        0x00001ff0:    e1a06826    &h..    LSR      r6,r6,#16
        0x00001ff4:    e1866712    .g..    ORR      r6,r6,r2,LSL r7
        0x00001ff8:    e1a02332    2#..    LSR      r2,r2,r3
        0x00001ffc:    e1822711    .'..    ORR      r2,r2,r1,LSL r7
        0x00002000:    e1a01331    1...    LSR      r1,r1,r3
        0x00002004:    e3a03000    .0..    MOV      r3,#0
        0x00002008:    eaffffcf    ....    B        0x1f4c ; _e2e + 12
        0x0000200c:    e1866002    .`..    ORR      r6,r6,r2
        0x00002010:    e3a03000    .0..    MOV      r3,#0
        0x00002014:    e3a02000    . ..    MOV      r2,#0
        0x00002018:    e1866806    .h..    ORR      r6,r6,r6,LSL #16
        0x0000201c:    e1a06826    &h..    LSR      r6,r6,#16
        0x00002020:    e1866001    .`..    ORR      r6,r6,r1
        0x00002024:    e3a01000    ....    MOV      r1,#0
        0x00002028:    b1866806    .h..    ORRLT    r6,r6,r6,LSL #16
        0x0000202c:    b1a06826    &h..    LSRLT    r6,r6,#16
        0x00002030:    eaffffc5    ....    B        0x1f4c ; _e2e + 12
    CL$$btod_ediv
    _btod_ediv
        0x00002034:    e92d4c80    .L-.    PUSH     {r7,r10,r11,lr}
        0x00002038:    e1a0a003    ....    MOV      r10,r3
        0x0000203c:    e1a0b002    ....    MOV      r11,r2
        0x00002040:    e92d0070    p.-.    PUSH     {r4-r6}
        0x00002044:    e8910038    8...    LDM      r1,{r3-r5}
        0x00002048:    e8900007    ....    LDM      r0,{r0-r2}
        0x0000204c:    e1d1c080    ....    BICS     r12,r1,r0,LSL #1
        0x00002050:    41d4c083    ...A    BICSMI   r12,r4,r3,LSL #1
        0x00002054:    5a000001    ...Z    BPL      0x2060 ; _btod_ediv + 44
        0x00002058:    ebfffee6    ....    BL       __btod_div_common ; 0x1bf8
        0x0000205c:    ebffffb7    ....    BL       _e2e ; 0x1f40
        0x00002060:    e8bd00f0    ....    POP      {r4-r7}
        0x00002064:    e8bd8c00    ....    POP      {r10,r11,pc}
    CL$$btod_emul
    _btod_emul
        0x00002068:    e92d4c80    .L-.    PUSH     {r7,r10,r11,lr}
        0x0000206c:    e1a0a003    ....    MOV      r10,r3
        0x00002070:    e1a0b002    ....    MOV      r11,r2
        0x00002074:    e92d0070    p.-.    PUSH     {r4-r6}
        0x00002078:    e8910038    8...    LDM      r1,{r3-r5}
        0x0000207c:    e8900007    ....    LDM      r0,{r0-r2}
        0x00002080:    e3100101    ....    TST      r0,#0x40000000
        0x00002084:    03130101    ....    TSTEQ    r3,#0x40000000
        0x00002088:    1a000001    ....    BNE      0x2094 ; _btod_emul + 44
        0x0000208c:    eb000002    ....    BL       __btod_mult_common ; 0x209c
        0x00002090:    ebffffaa    ....    BL       _e2e ; 0x1f40
        0x00002094:    e8bd00f0    ....    POP      {r4-r7}
        0x00002098:    e8bd8c00    ....    POP      {r10,r11,pc}
    CL$$btod_mult_common
    __btod_mult_common
        0x0000209c:    e3c074ff    .t..    BIC      r7,r0,#0xff000000
        0x000020a0:    e0200003    .. .    EOR      r0,r0,r3
        0x000020a4:    e3c3c4ff    ....    BIC      r12,r3,#0xff000000
        0x000020a8:    e087300c    .0..    ADD      r3,r7,r12
        0x000020ac:    e2433c3f    ?<C.    SUB      r3,r3,#0x3f00
        0x000020b0:    e2000102    ....    AND      r0,r0,#0x80000000
        0x000020b4:    e24330fe    .0C.    SUB      r3,r3,#0xfe
        0x000020b8:    e3320000    ..2.    TEQ      r2,#0
        0x000020bc:    0a00005d    ]...    BEQ      0x2238 ; __btod_mult_common + 412
        0x000020c0:    e3350000    ..5.    TEQ      r5,#0
        0x000020c4:    0a00003d    =...    BEQ      0x21c0 ; __btod_mult_common + 292
        0x000020c8:    e92d4901    .I-.    PUSH     {r0,r8,r11,lr}
        0x000020cc:    e1a00821    !...    LSR      r0,r1,#16
        0x000020d0:    e1a06824    $h..    LSR      r6,r4,#16
        0x000020d4:    e1c18800    ....    BIC      r8,r1,r0,LSL #16
        0x000020d8:    e00c0690    ....    MUL      r12,r0,r6
        0x000020dc:    e1c47806    .x..    BIC      r7,r4,r6,LSL #16
        0x000020e0:    e0060698    ....    MUL      r6,r8,r6
        0x000020e4:    e0080897    ....    MUL      r8,r7,r8
        0x000020e8:    e0070790    ....    MUL      r7,r0,r7
        0x000020ec:    e0988806    ....    ADDS     r8,r8,r6,LSL #16
        0x000020f0:    e0acc826    &...    ADC      r12,r12,r6,LSR #16
        0x000020f4:    e1a0b822    "...    LSR      r11,r2,#16
        0x000020f8:    e0988807    ....    ADDS     r8,r8,r7,LSL #16
        0x000020fc:    e1a06825    %h..    LSR      r6,r5,#16
        0x00002100:    e0ac0827    '...    ADC      r0,r12,r7,LSR #16
        0x00002104:    e1c2e80b    ....    BIC      lr,r2,r11,LSL #16
        0x00002108:    e00c069b    ....    MUL      r12,r11,r6
        0x0000210c:    e1c57806    .x..    BIC      r7,r5,r6,LSL #16
        0x00002110:    e006069e    ....    MUL      r6,lr,r6
        0x00002114:    e00e0e97    ....    MUL      lr,r7,lr
        0x00002118:    e007079b    ....    MUL      r7,r11,r7
        0x0000211c:    e09ee806    ....    ADDS     lr,lr,r6,LSL #16
        0x00002120:    e0acc826    &...    ADC      r12,r12,r6,LSR #16
        0x00002124:    e3a06000    .`..    MOV      r6,#0
        0x00002128:    e09ee807    ....    ADDS     lr,lr,r7,LSL #16
        0x0000212c:    e0acb827    '...    ADC      r11,r12,r7,LSR #16
        0x00002130:    e098800b    ....    ADDS     r8,r8,r11
        0x00002134:    e2a00000    ....    ADC      r0,r0,#0
        0x00002138:    e098b00e    ....    ADDS     r11,r8,lr
        0x0000213c:    e0b88000    ....    ADCS     r8,r8,r0
        0x00002140:    e2a00000    ....    ADC      r0,r0,#0
        0x00002144:    e0517002    .pQ.    SUBS     r7,r1,r2
        0x00002148:    e3a01000    ....    MOV      r1,#0
        0x0000214c:    31e01001    ...1    MVNCC    r1,r1
        0x00002150:    30446005    .`D0    SUBCC    r6,r4,r5
        0x00002154:    1055c004    ..U.    SUBSNE   r12,r5,r4
        0x00002158:    e1a04827    'H..    LSR      r4,r7,#16
        0x0000215c:    03a01000    ....    MOVEQ    r1,#0
        0x00002160:    30466007    .`F0    SUBCC    r6,r6,r7
        0x00002164:    e1c75804    .X..    BIC      r5,r7,r4,LSL #16
        0x00002168:    e1a0782c    ,x..    LSR      r7,r12,#16
        0x0000216c:    31e01001    ...1    MVNCC    r1,r1
        0x00002170:    e0226794    .g".    MLA      r2,r4,r7,r6
        0x00002174:    e1ccc807    ....    BIC      r12,r12,r7,LSL #16
        0x00002178:    e0070795    ....    MUL      r7,r5,r7
        0x0000217c:    e006059c    ....    MUL      r6,r12,r5
        0x00002180:    e00c0c94    ....    MUL      r12,r4,r12
        0x00002184:    e0966807    .h..    ADDS     r6,r6,r7,LSL #16
        0x00002188:    e0a22827    '(..    ADC      r2,r2,r7,LSR #16
        0x0000218c:    e096680c    .h..    ADDS     r6,r6,r12,LSL #16
        0x00002190:    e0a2282c    ,(..    ADC      r2,r2,r12,LSR #16
        0x00002194:    e09b6006    .`..    ADDS     r6,r11,r6
        0x00002198:    e18ee10e    ....    ORR      lr,lr,lr,LSL #2
        0x0000219c:    e0b82002    . ..    ADCS     r2,r8,r2
        0x000021a0:    e0b01001    ....    ADCS     r1,r0,r1
        0x000021a4:    e186612e    .a..    ORR      r6,r6,lr,LSR #2
        0x000021a8:    48bd8901    ...H    POPMI    {r0,r8,r11,pc}
        0x000021ac:    e0966006    .`..    ADDS     r6,r6,r6
        0x000021b0:    e0b22002    . ..    ADCS     r2,r2,r2
        0x000021b4:    e0a11001    ....    ADC      r1,r1,r1
        0x000021b8:    e2433001    .0C.    SUB      r3,r3,#1
        0x000021bc:    e8bd8901    ....    POP      {r0,r8,r11,pc}
        0x000021c0:    e1a05824    $X..    LSR      r5,r4,#16
        0x000021c4:    e1a07821    !x..    LSR      r7,r1,#16
        0x000021c8:    e1c46805    .h..    BIC      r6,r4,r5,LSL #16
        0x000021cc:    e1c1c807    ....    BIC      r12,r1,r7,LSL #16
        0x000021d0:    e0040795    ....    MUL      r4,r5,r7
        0x000021d4:    e0070796    ....    MUL      r7,r6,r7
        0x000021d8:    e001069c    ....    MUL      r1,r12,r6
        0x000021dc:    e00c0c95    ....    MUL      r12,r5,r12
        0x000021e0:    e0911807    ....    ADDS     r1,r1,r7,LSL #16
        0x000021e4:    e0a44827    'H..    ADC      r4,r4,r7,LSR #16
        0x000021e8:    e1a07822    "x..    LSR      r7,r2,#16
        0x000021ec:    e091180c    ....    ADDS     r1,r1,r12,LSL #16
        0x000021f0:    e0a4482c    ,H..    ADC      r4,r4,r12,LSR #16
        0x000021f4:    e1c2c807    ....    BIC      r12,r2,r7,LSL #16
        0x000021f8:    e0020795    ....    MUL      r2,r5,r7
        0x000021fc:    e0070796    ....    MUL      r7,r6,r7
        0x00002200:    e006069c    ....    MUL      r6,r12,r6
        0x00002204:    e00c0c95    ....    MUL      r12,r5,r12
        0x00002208:    e0966807    .h..    ADDS     r6,r6,r7,LSL #16
        0x0000220c:    e0a22827    '(..    ADC      r2,r2,r7,LSR #16
        0x00002210:    e096680c    .h..    ADDS     r6,r6,r12,LSL #16
        0x00002214:    e0a2582c    ,X..    ADC      r5,r2,r12,LSR #16
        0x00002218:    e0952001    . ..    ADDS     r2,r5,r1
        0x0000221c:    e2b41000    ....    ADCS     r1,r4,#0
        0x00002220:    412fff1e    ../A    BXMI     lr
        0x00002224:    e0966006    .`..    ADDS     r6,r6,r6
        0x00002228:    e0b22002    . ..    ADCS     r2,r2,r2
        0x0000222c:    e0a11001    ....    ADC      r1,r1,r1
        0x00002230:    e2433001    .0C.    SUB      r3,r3,#1
        0x00002234:    e12fff1e    ../.    BX       lr
        0x00002238:    e3350000    ..5.    TEQ      r5,#0
        0x0000223c:    0a00001d    ....    BEQ      0x22b8 ; __btod_mult_common + 540
        0x00002240:    e1a02821    !(..    LSR      r2,r1,#16
        0x00002244:    e1a07824    $x..    LSR      r7,r4,#16
        0x00002248:    e1c16802    .h..    BIC      r6,r1,r2,LSL #16
        0x0000224c:    e1c4c807    ....    BIC      r12,r4,r7,LSL #16
        0x00002250:    e0010792    ....    MUL      r1,r2,r7
        0x00002254:    e0070796    ....    MUL      r7,r6,r7
        0x00002258:    e004069c    ....    MUL      r4,r12,r6
        0x0000225c:    e00c0c92    ....    MUL      r12,r2,r12
        0x00002260:    e0944807    .H..    ADDS     r4,r4,r7,LSL #16
        0x00002264:    e0a11827    '...    ADC      r1,r1,r7,LSR #16
        0x00002268:    e1a07825    %x..    LSR      r7,r5,#16
        0x0000226c:    e094480c    .H..    ADDS     r4,r4,r12,LSL #16
        0x00002270:    e0a1182c    ,...    ADC      r1,r1,r12,LSR #16
        0x00002274:    e1c5c807    ....    BIC      r12,r5,r7,LSL #16
        0x00002278:    e0050792    ....    MUL      r5,r2,r7
        0x0000227c:    e0070796    ....    MUL      r7,r6,r7
        0x00002280:    e006069c    ....    MUL      r6,r12,r6
        0x00002284:    e00c0c92    ....    MUL      r12,r2,r12
        0x00002288:    e0966807    .h..    ADDS     r6,r6,r7,LSL #16
        0x0000228c:    e0a55827    'X..    ADC      r5,r5,r7,LSR #16
        0x00002290:    e096680c    .h..    ADDS     r6,r6,r12,LSL #16
        0x00002294:    e0a5282c    ,(..    ADC      r2,r5,r12,LSR #16
        0x00002298:    e0922004    . ..    ADDS     r2,r2,r4
        0x0000229c:    e2b11000    ....    ADCS     r1,r1,#0
        0x000022a0:    412fff1e    ../A    BXMI     lr
        0x000022a4:    e0966006    .`..    ADDS     r6,r6,r6
        0x000022a8:    e0b22002    . ..    ADCS     r2,r2,r2
        0x000022ac:    e0a11001    ....    ADC      r1,r1,r1
        0x000022b0:    e2433001    .0C.    SUB      r3,r3,#1
        0x000022b4:    e12fff1e    ../.    BX       lr
        0x000022b8:    e1a05824    $X..    LSR      r5,r4,#16
        0x000022bc:    e1a07821    !x..    LSR      r7,r1,#16
        0x000022c0:    e1c46805    .h..    BIC      r6,r4,r5,LSL #16
        0x000022c4:    e1c1c807    ....    BIC      r12,r1,r7,LSL #16
        0x000022c8:    e0010795    ....    MUL      r1,r5,r7
        0x000022cc:    e0070796    ....    MUL      r7,r6,r7
        0x000022d0:    e002069c    ....    MUL      r2,r12,r6
        0x000022d4:    e3a06000    .`..    MOV      r6,#0
        0x000022d8:    e00c0c95    ....    MUL      r12,r5,r12
        0x000022dc:    e0922807    .(..    ADDS     r2,r2,r7,LSL #16
        0x000022e0:    e0a11827    '...    ADC      r1,r1,r7,LSR #16
        0x000022e4:    e092280c    .(..    ADDS     r2,r2,r12,LSL #16
        0x000022e8:    e0b1182c    ,...    ADCS     r1,r1,r12,LSR #16
        0x000022ec:    412fff1e    ../A    BXMI     lr
        0x000022f0:    e0922002    . ..    ADDS     r2,r2,r2
        0x000022f4:    e0a11001    ....    ADC      r1,r1,r1
        0x000022f8:    e2433001    .0C.    SUB      r3,r3,#1
        0x000022fc:    e12fff1e    ../.    BX       lr
    SYS_INIT
    sysSetupCP15
        0x00002300:    e1a01000    ....    MOV      r1,r0
        0x00002304:    ee021f10    ....    MCR      p15,#0x0,r1,c2,c0,#0
        0x00002308:    e3a01101    ....    MOV      r1,#0x40000000
        0x0000230c:    ee031f10    ....    MCR      p15,#0x0,r1,c3,c0,#0
        0x00002310:    ee111f10    ....    MRC      p15,#0x0,r1,c1,c0,#0
        0x00002314:    e3811a01    ....    ORR      r1,r1,#0x1000
        0x00002318:    e3811005    ....    ORR      r1,r1,#5
        0x0000231c:    ee011f10    ....    MCR      p15,#0x0,r1,c1,c0,#0
        0x00002320:    e12fff1e    ../.    BX       lr
    sys_flush_and_clean_dcache
        0x00002324:    ee17ff7e    ~...    MRC      p15,#0x0,APSR_nzcv,c7,c14,#3
        0x00002328:    1afffffd    ....    BNE      sys_flush_and_clean_dcache ; 0x2324
        0x0000232c:    e12fff1e    ../.    BX       lr
    $Ven$AT$L$$_printf_int_hex
        0x00002330:    e51ff004    ....    LDR      pc,[pc,#-4] ; [0x2334] = 0x59d
    $d
        0x00002334:    0000059d    ....    DCD    1437
    $a
    $Ven$AT$L$$_printf_ll_oct
        0x00002338:    e51ff004    ....    LDR      pc,[pc,#-4] ; [0x233c] = 0xfed
    $d
        0x0000233c:    00000fed    ....    DCD    4077
    $a
    $Ven$AT$L$$_printf_ll_hex
        0x00002340:    e51ff004    ....    LDR      pc,[pc,#-4] ; [0x2344] = 0x5b9
    $d
        0x00002344:    000005b9    ....    DCD    1465
    $a
    $Ven$AT$L$$_printf_string
        0x00002348:    e51ff004    ....    LDR      pc,[pc,#-4] ; [0x234c] = 0xe4b
    $d
        0x0000234c:    00000e4b    K...    DCD    3659
    $a
    $Ven$AT$L$$_printf_wstring
        0x00002350:    e51ff004    ....    LDR      pc,[pc,#-4] ; [0x2354] = 0x181b
    $d
        0x00002354:    0000181b    ....    DCD    6171
    $a
    $Ven$AT$L$$_printf_fp_dec_real
        0x00002358:    e51ff004    ....    LDR      pc,[pc,#-4] ; [0x235c] = 0x1295
    $d
        0x0000235c:    00001295    ....    DCD    4757
    $a
    i.AD_init_8V
    AD_init_8V
        0x00002360:    e92d4010    .@-.    PUSH     {r4,lr}
        0x00002364:    eb0013d8    ....    BL       adcOpen ; 0x72cc
        0x00002368:    e59f40c0    .@..    LDR      r4,[pc,#192] ; [0x2430] = 0xb800a004
        0x0000236c:    e3a02000    . ..    MOV      r2,#0
        0x00002370:    e3a01038    8...    MOV      r1,#0x38
        0x00002374:    e1a00004    ....    MOV      r0,r4
        0x00002378:    eb00083e    >...    BL       REG_OPERATE ; 0x4478
        0x0000237c:    e3a02001    . ..    MOV      r2,#1
        0x00002380:    e3a01008    ....    MOV      r1,#8
        0x00002384:    e1a00004    ....    MOV      r0,r4
        0x00002388:    eb00083a    :...    BL       REG_OPERATE ; 0x4478
        0x0000238c:    e3a02000    . ..    MOV      r2,#0
        0x00002390:    e3a01c01    ....    MOV      r1,#0x100
        0x00002394:    e1a00004    ....    MOV      r0,r4
        0x00002398:    eb000836    6...    BL       REG_OPERATE ; 0x4478
        0x0000239c:    e3a02001    . ..    MOV      r2,#1
        0x000023a0:    e3a01501    ....    MOV      r1,#0x400000
        0x000023a4:    e1a00004    ....    MOV      r0,r4
        0x000023a8:    eb000832    2...    BL       REG_OPERATE ; 0x4478
        0x000023ac:    e3a02001    . ..    MOV      r2,#1
        0x000023b0:    e3a010c0    ....    MOV      r1,#0xc0
        0x000023b4:    e1a00004    ....    MOV      r0,r4
        0x000023b8:    eb00082e    ....    BL       REG_OPERATE ; 0x4478
        0x000023bc:    e3a02001    . ..    MOV      r2,#1
        0x000023c0:    e3a01004    ....    MOV      r1,#4
        0x000023c4:    e1a00004    ....    MOV      r0,r4
        0x000023c8:    eb00082a    *...    BL       REG_OPERATE ; 0x4478
        0x000023cc:    e3a02001    . ..    MOV      r2,#1
        0x000023d0:    e3a0180f    ....    MOV      r1,#0xf0000
        0x000023d4:    e1a00004    ....    MOV      r0,r4
        0x000023d8:    eb000826    &...    BL       REG_OPERATE ; 0x4478
        0x000023dc:    e3a01b01    ....    MOV      r1,#0x400
        0x000023e0:    e3a02001    . ..    MOV      r2,#1
        0x000023e4:    e18403c1    ....    ORR      r0,r4,r1,ASR #7
        0x000023e8:    eb000822    "...    BL       REG_OPERATE ; 0x4478
        0x000023ec:    e3a01002    ....    MOV      r1,#2
        0x000023f0:    e1c44081    .@..    BIC      r4,r4,r1,LSL #1
        0x000023f4:    e3a02000    . ..    MOV      r2,#0
        0x000023f8:    e1a00004    ....    MOV      r0,r4
        0x000023fc:    eb00081d    ....    BL       REG_OPERATE ; 0x4478
        0x00002400:    e3a01001    ....    MOV      r1,#1
        0x00002404:    e5841000    ....    STR      r1,[r4,#0]
        0x00002408:    e3a02001    . ..    MOV      r2,#1
        0x0000240c:    e3a01c01    ....    MOV      r1,#0x100
        0x00002410:    e1a00004    ....    MOV      r0,r4
        0x00002414:    eb000817    ....    BL       REG_OPERATE ; 0x4478
        0x00002418:    e594100c    ....    LDR      r1,[r4,#0xc]
        0x0000241c:    e3110001    ....    TST      r1,#1
        0x00002420:    0afffffc    ....    BEQ      0x2418 ; AD_init_8V + 184
        0x00002424:    e594000c    ....    LDR      r0,[r4,#0xc]
        0x00002428:    e584000c    ....    STR      r0,[r4,#0xc]
        0x0000242c:    e8bd8010    ....    POP      {r4,pc}
    $d
        0x00002430:    b800a004    ....    DCD    3087048708
    $a
    i.AD_init_vbat
    AD_init_vbat
        0x00002434:    e92d4070    p@-.    PUSH     {r4-r6,lr}
        0x00002438:    eb0013a3    ....    BL       adcOpen ; 0x72cc
        0x0000243c:    e59f50b0    .P..    LDR      r5,[pc,#176] ; [0x24f4] = 0xb800a004
        0x00002440:    e3a02001    . ..    MOV      r2,#1
        0x00002444:    e3a01c01    ....    MOV      r1,#0x100
        0x00002448:    e1a00005    ....    MOV      r0,r5
        0x0000244c:    eb000809    ....    BL       REG_OPERATE ; 0x4478
        0x00002450:    e3a02001    . ..    MOV      r2,#1
        0x00002454:    e3a01501    ....    MOV      r1,#0x400000
        0x00002458:    e1a00005    ....    MOV      r0,r5
        0x0000245c:    eb000805    ....    BL       REG_OPERATE ; 0x4478
        0x00002460:    e3a02000    . ..    MOV      r2,#0
        0x00002464:    e3a010c0    ....    MOV      r1,#0xc0
        0x00002468:    e1a00005    ....    MOV      r0,r5
        0x0000246c:    eb000801    ....    BL       REG_OPERATE ; 0x4478
        0x00002470:    e3a02000    . ..    MOV      r2,#0
        0x00002474:    e3a01038    8...    MOV      r1,#0x38
        0x00002478:    e1a00005    ....    MOV      r0,r5
        0x0000247c:    eb0007fd    ....    BL       REG_OPERATE ; 0x4478
        0x00002480:    e3a02001    . ..    MOV      r2,#1
        0x00002484:    e3a0180f    ....    MOV      r1,#0xf0000
        0x00002488:    e1a00005    ....    MOV      r0,r5
        0x0000248c:    eb0007f9    ....    BL       REG_OPERATE ; 0x4478
        0x00002490:    e3a01002    ....    MOV      r1,#2
        0x00002494:    e1c54081    .@..    BIC      r4,r5,r1,LSL #1
        0x00002498:    e3a02001    . ..    MOV      r2,#1
        0x0000249c:    e1a00004    ....    MOV      r0,r4
        0x000024a0:    eb0007f4    ....    BL       REG_OPERATE ; 0x4478
        0x000024a4:    e3a02000    . ..    MOV      r2,#0
        0x000024a8:    e3a01004    ....    MOV      r1,#4
        0x000024ac:    e1a00005    ....    MOV      r0,r5
        0x000024b0:    eb0007f0    ....    BL       REG_OPERATE ; 0x4478
        0x000024b4:    e3a01b03    ....    MOV      r1,#0xc00
        0x000024b8:    e3a02001    . ..    MOV      r2,#1
        0x000024bc:    e1840441    A...    ORR      r0,r4,r1,ASR #8
        0x000024c0:    eb0007ec    ....    BL       REG_OPERATE ; 0x4478
        0x000024c4:    e3a01001    ....    MOV      r1,#1
        0x000024c8:    e5841000    ....    STR      r1,[r4,#0]
        0x000024cc:    e3a02001    . ..    MOV      r2,#1
        0x000024d0:    e3a01c01    ....    MOV      r1,#0x100
        0x000024d4:    e1a00004    ....    MOV      r0,r4
        0x000024d8:    eb0007e6    ....    BL       REG_OPERATE ; 0x4478
        0x000024dc:    e594100c    ....    LDR      r1,[r4,#0xc]
        0x000024e0:    e3110001    ....    TST      r1,#1
        0x000024e4:    0afffffc    ....    BEQ      0x24dc ; AD_init_vbat + 168
        0x000024e8:    e594000c    ....    LDR      r0,[r4,#0xc]
        0x000024ec:    e584000c    ....    STR      r0,[r4,#0xc]
        0x000024f0:    e8bd8070    p...    POP      {r4-r6,pc}
    $d
        0x000024f4:    b800a004    ....    DCD    3087048708
    $a
    i.BAD_BLOCK_CHANGE
    BAD_BLOCK_CHANGE
        0x000024f8:    e92d4030    0@-.    PUSH     {r4,r5,lr}
        0x000024fc:    e59f404c    L@..    LDR      r4,[pc,#76] ; [0x2550] = 0x20afc
        0x00002500:    e59f204c    L ..    LDR      r2,[pc,#76] ; [0x2554] = 0x36373839
        0x00002504:    e5941008    ....    LDR      r1,[r4,#8]
        0x00002508:    e1510002    ..Q.    CMP      r1,r2
        0x0000250c:    1a00000e    ....    BNE      0x254c ; BAD_BLOCK_CHANGE + 84
        0x00002510:    e59f3040    @0..    LDR      r3,[pc,#64] ; [0x2558] = 0xd4e8
        0x00002514:    e3a01000    ....    MOV      r1,#0
        0x00002518:    e5c31003    ....    STRB     r1,[r3,#3]
        0x0000251c:    e594c00c    ....    LDR      r12,[r4,#0xc]
        0x00002520:    ea000006    ....    B        0x2540 ; BAD_BLOCK_CHANGE + 72
        0x00002524:    e0842081    . ..    ADD      r2,r4,r1,LSL #1
        0x00002528:    e1d251b0    .Q..    LDRH     r5,[r2,#0x10]
        0x0000252c:    e1550000    ..U.    CMP      r5,r0
        0x00002530:    1a000000    ....    BNE      0x2538 ; BAD_BLOCK_CHANGE + 64
        0x00002534:    e1d20bb0    ....    LDRH     r0,[r2,#0xb0]
        0x00002538:    e2811001    ....    ADD      r1,r1,#1
        0x0000253c:    e5c31003    ....    STRB     r1,[r3,#3]
        0x00002540:    e5d31003    ....    LDRB     r1,[r3,#3]
        0x00002544:    e15c0001    ..\.    CMP      r12,r1
        0x00002548:    8afffff5    ....    BHI      0x2524 ; BAD_BLOCK_CHANGE + 44
        0x0000254c:    e8bd8030    0...    POP      {r4,r5,pc}
    $d
        0x00002550:    00020afc    ....    DCD    133884
        0x00002554:    36373839    9876    DCD    909588537
        0x00002558:    0000d4e8    ....    DCD    54504
    $a
    i.BAD_BLOCK_MARK
    BAD_BLOCK_MARK
        0x0000255c:    e92d4010    .@-.    PUSH     {r4,lr}
        0x00002560:    e59f4070    p@..    LDR      r4,[pc,#112] ; [0x25d8] = 0x20afc
        0x00002564:    e594100c    ....    LDR      r1,[r4,#0xc]
        0x00002568:    e0841081    ....    ADD      r1,r4,r1,LSL #1
        0x0000256c:    e1c101b0    ....    STRH     r0,[r1,#0x10]
        0x00002570:    e594000c    ....    LDR      r0,[r4,#0xc]
        0x00002574:    e2801e7b    {...    ADD      r1,r0,#0x7b0
        0x00002578:    e0840080    ....    ADD      r0,r4,r0,LSL #1
        0x0000257c:    e1c01bb0    ....    STRH     r1,[r0,#0xb0]
        0x00002580:    e594000c    ....    LDR      r0,[r4,#0xc]
        0x00002584:    e350004f    O.P.    CMP      r0,#0x4f
        0x00002588:    3a000004    ...:    BCC      0x25a0 ; BAD_BLOCK_MARK + 68
        0x0000258c:    e59f0048    H...    LDR      r0,[pc,#72] ; [0x25dc] = 0xd500
        0x00002590:    e5901000    ....    LDR      r1,[r0,#0]
        0x00002594:    e3811102    ....    ORR      r1,r1,#0x80000000
        0x00002598:    e5801000    ....    STR      r1,[r0,#0]
        0x0000259c:    e8bd8010    ....    POP      {r4,pc}
        0x000025a0:    e2800001    ....    ADD      r0,r0,#1
        0x000025a4:    e3a01050    P...    MOV      r1,#0x50
        0x000025a8:    ebfffd4c    L...    BL       __aeabi_uidiv ; 0x1ae0
        0x000025ac:    e584100c    ....    STR      r1,[r4,#0xc]
        0x000025b0:    e59f0028    (...    LDR      r0,[pc,#40] ; [0x25e0] = 0xd4e8
        0x000025b4:    e3a02008    . ..    MOV      r2,#8
        0x000025b8:    e5900028    (...    LDR      r0,[r0,#0x28]
        0x000025bc:    e5c025a8    .%..    STRB     r2,[r0,#0x5a8]
        0x000025c0:    e1a02001    . ..    MOV      r2,r1
        0x000025c4:    e28f1018    ....    ADR      r1,{pc}+0x20 ; 0x25e4
        0x000025c8:    e2800e5a    Z...    ADD      r0,r0,#0x5a0
        0x000025cc:    fafff78a    ....    BLX      __2sprintf ; 0x3fc
        0x000025d0:    e8bd4010    .@..    POP      {r4,lr}
        0x000025d4:    ea000536    6...    B        NANDFLASH_P3PD_INX_SAVE ; 0x3ab4
    $d
        0x000025d8:    00020afc    ....    DCD    133884
        0x000025dc:    0000d500    ....    DCD    54528
        0x000025e0:    0000d4e8    ....    DCD    54504
        0x000025e4:    58383025    %08X    DCD    1480077349
        0x000025e8:    00000000    ....    DCD    0
    $a
    i.Backlinght_Control_Init_HARDV4
    Backlinght_Control_Init_HARDV4
        0x000025ec:    e92d40fe    .@-.    PUSH     {r1-r7,lr}
        0x000025f0:    e26000ff    ..`.    RSB      r0,r0,#0xff
        0x000025f4:    eb00282b    +(..    BL       __aeabi_ui2d ; 0xc6a8
        0x000025f8:    e59f4144    DA..    LDR      r4,[pc,#324] ; [0x2744] = 0x40590000
        0x000025fc:    e3a02000    . ..    MOV      r2,#0
        0x00002600:    e1a03004    .0..    MOV      r3,r4
        0x00002604:    eb002832    2(..    BL       __aeabi_dmul ; 0xc6d4
        0x00002608:    e59f3138    81..    LDR      r3,[pc,#312] ; [0x2748] = 0x406fe000
        0x0000260c:    e3a02000    . ..    MOV      r2,#0
        0x00002610:    eb002754    T'..    BL       __aeabi_ddiv ; 0xc368
        0x00002614:    eb002738    8'..    BL       __aeabi_d2f ; 0xc2fc
        0x00002618:    e59f512c    ,Q..    LDR      r5,[pc,#300] ; [0x274c] = 0xd494
        0x0000261c:    e5850018    ....    STR      r0,[r5,#0x18]
        0x00002620:    e59f1128    (...    LDR      r1,[pc,#296] ; [0x2750] = 0x4479c000
        0x00002624:    eb0028d3    .(..    BL       __aeabi_fmul ; 0xc978
        0x00002628:    eb0028b9    .(..    BL       __aeabi_f2d ; 0xc914
        0x0000262c:    e3a02000    . ..    MOV      r2,#0
        0x00002630:    e1a03004    .0..    MOV      r3,r4
        0x00002634:    eb00274b    K'..    BL       __aeabi_ddiv ; 0xc368
        0x00002638:    eb0027fe    .'..    BL       __aeabi_d2uiz ; 0xc638
        0x0000263c:    e5850014    ....    STR      r0,[r5,#0x14]
        0x00002640:    e3a0020b    ....    MOV      r0,#0xb0000000
        0x00002644:    e590121c    ....    LDR      r1,[r0,#0x21c]
        0x00002648:    e3811302    ....    ORR      r1,r1,#0x8000000
        0x0000264c:    e580121c    ....    STR      r1,[r0,#0x21c]
        0x00002650:    e3a04000    .@..    MOV      r4,#0
        0x00002654:    e58d4000    .@..    STR      r4,[sp,#0]
        0x00002658:    e5cd4004    .@..    STRB     r4,[sp,#4]
        0x0000265c:    eb001897    ....    BL       pwmInit ; 0x88c0
        0x00002660:    e3a00001    ....    MOV      r0,#1
        0x00002664:    eb001988    ....    BL       pwmOpen ; 0x8c8c
        0x00002668:    e3a03004    .0..    MOV      r3,#4
        0x0000266c:    e3a02000    . ..    MOV      r2,#0
        0x00002670:    e3a01002    ....    MOV      r1,#2
        0x00002674:    e3a00001    ....    MOV      r0,#1
        0x00002678:    eb001957    W...    BL       pwmIoctl ; 0x8bdc
        0x0000267c:    e3a03002    .0..    MOV      r3,#2
        0x00002680:    e3a02000    . ..    MOV      r2,#0
        0x00002684:    e3a01003    ....    MOV      r1,#3
        0x00002688:    e3a00001    ....    MOV      r0,#1
        0x0000268c:    eb001952    R...    BL       pwmIoctl ; 0x8bdc
        0x00002690:    e3a03000    .0..    MOV      r3,#0
        0x00002694:    e1a02003    . ..    MOV      r2,r3
        0x00002698:    e3a01004    ....    MOV      r1,#4
        0x0000269c:    e3a00001    ....    MOV      r0,#1
        0x000026a0:    eb00194d    M...    BL       pwmIoctl ; 0x8bdc
        0x000026a4:    e3a03000    .0..    MOV      r3,#0
        0x000026a8:    e1a02003    . ..    MOV      r2,r3
        0x000026ac:    e3a01005    ....    MOV      r1,#5
        0x000026b0:    e3a00001    ....    MOV      r0,#1
        0x000026b4:    eb001948    H...    BL       pwmIoctl ; 0x8bdc
        0x000026b8:    e3a03001    .0..    MOV      r3,#1
        0x000026bc:    e3a02000    . ..    MOV      r2,#0
        0x000026c0:    e3a01006    ....    MOV      r1,#6
        0x000026c4:    e1a00003    ....    MOV      r0,r3
        0x000026c8:    eb001943    C...    BL       pwmIoctl ; 0x8bdc
        0x000026cc:    e3a03000    .0..    MOV      r3,#0
        0x000026d0:    e1a02003    . ..    MOV      r2,r3
        0x000026d4:    e3a01008    ....    MOV      r1,#8
        0x000026d8:    e3a00001    ....    MOV      r0,#1
        0x000026dc:    eb00193e    >...    BL       pwmIoctl ; 0x8bdc
        0x000026e0:    e3a02001    . ..    MOV      r2,#1
        0x000026e4:    e3a03005    .0..    MOV      r3,#5
        0x000026e8:    e3a01009    ....    MOV      r1,#9
        0x000026ec:    e1a00002    ....    MOV      r0,r2
        0x000026f0:    eb001939    9...    BL       pwmIoctl ; 0x8bdc
        0x000026f4:    e59f6058    X`..    LDR      r6,[pc,#88] ; [0x2754] = 0x3e7
        0x000026f8:    e1cd60b8    .`..    STRH     r6,[sp,#8]
        0x000026fc:    e1cd40ba    .@..    STRH     r4,[sp,#0xa]
        0x00002700:    e3a02004    . ..    MOV      r2,#4
        0x00002704:    e28d1008    ....    ADD      r1,sp,#8
        0x00002708:    e3a00001    ....    MOV      r0,#1
        0x0000270c:    eb001b5d    ]...    BL       pwmWrite ; 0x9488
        0x00002710:    e3a03000    .0..    MOV      r3,#0
        0x00002714:    e1a02003    . ..    MOV      r2,r3
        0x00002718:    e1a01003    ....    MOV      r1,r3
        0x0000271c:    e3a00001    ....    MOV      r0,#1
        0x00002720:    eb00192d    -...    BL       pwmIoctl ; 0x8bdc
        0x00002724:    e1cd60b8    .`..    STRH     r6,[sp,#8]
        0x00002728:    e1d501b4    ....    LDRH     r0,[r5,#0x14]
        0x0000272c:    e1cd00ba    ....    STRH     r0,[sp,#0xa]
        0x00002730:    e3a02004    . ..    MOV      r2,#4
        0x00002734:    e28d1008    ....    ADD      r1,sp,#8
        0x00002738:    e3a00001    ....    MOV      r0,#1
        0x0000273c:    eb001b51    Q...    BL       pwmWrite ; 0x9488
        0x00002740:    e8bd80fe    ....    POP      {r1-r7,pc}
    $d
        0x00002744:    40590000    ..Y@    DCD    1079574528
        0x00002748:    406fe000    ..o@    DCD    1081073664
        0x0000274c:    0000d494    ....    DCD    54420
        0x00002750:    4479c000    ..yD    DCD    1148829696
        0x00002754:    000003e7    ....    DCD    999
    $a
    i.DATACLASS1_Check_Read
    DATACLASS1_Check_Read
        0x00002758:    e59f1008    ....    LDR      r1,[pc,#8] ; [0x2768] = 0x21e40
        0x0000275c:    e59f0008    ....    LDR      r0,[pc,#8] ; [0x276c] = 0xffe000
        0x00002760:    e3a02018    . ..    MOV      r2,#0x18
        0x00002764:    ea000ceb    ....    B        SpiFlash_NormalRead ; 0x5b18
    $d
        0x00002768:    00021e40    @...    DCD    138816
        0x0000276c:    00ffe000    ....    DCD    16769024
    $a
    i.DATACLASS1_Check_Write
    DATACLASS1_Check_Write
        0x00002770:    e92d4010    .@-.    PUSH     {r4,lr}
        0x00002774:    e59f4018    .@..    LDR      r4,[pc,#24] ; [0x2794] = 0xffe000
        0x00002778:    e1a00004    ....    MOV      r0,r4
        0x0000277c:    eb000d9d    ....    BL       SpiFlash_SectorErase ; 0x5df8
        0x00002780:    e1a00004    ....    MOV      r0,r4
        0x00002784:    e8bd4010    .@..    POP      {r4,lr}
        0x00002788:    e59f1008    ....    LDR      r1,[pc,#8] ; [0x2798] = 0x21e40
        0x0000278c:    e3a02018    . ..    MOV      r2,#0x18
        0x00002790:    ea000c39    9...    B        SpiFlash_NormalPageProgram ; 0x587c
    $d
        0x00002794:    00ffe000    ....    DCD    16769024
        0x00002798:    00021e40    @...    DCD    138816
    $a
    i.ETIMER_EnableInt
    ETIMER_EnableInt
        0x0000279c:    e3500000    ..P.    CMP      r0,#0
        0x000027a0:    0a000008    ....    BEQ      0x27c8 ; ETIMER_EnableInt + 44
        0x000027a4:    e3500001    ..P.    CMP      r0,#1
        0x000027a8:    0a00000b    ....    BEQ      0x27dc ; ETIMER_EnableInt + 64
        0x000027ac:    e3500002    ..P.    CMP      r0,#2
        0x000027b0:    0a00000e    ....    BEQ      0x27f0 ; ETIMER_EnableInt + 84
        0x000027b4:    e59f0048    H...    LDR      r0,[pc,#72] ; [0x2804] = 0xb800170c
        0x000027b8:    e5901000    ....    LDR      r1,[r0,#0]
        0x000027bc:    e3811001    ....    ORR      r1,r1,#1
        0x000027c0:    e5801000    ....    STR      r1,[r0,#0]
        0x000027c4:    e12fff1e    ../.    BX       lr
        0x000027c8:    e59f0038    8...    LDR      r0,[pc,#56] ; [0x2808] = 0xb800140c
        0x000027cc:    e5901000    ....    LDR      r1,[r0,#0]
        0x000027d0:    e3811001    ....    ORR      r1,r1,#1
        0x000027d4:    e5801000    ....    STR      r1,[r0,#0]
        0x000027d8:    e12fff1e    ../.    BX       lr
        0x000027dc:    e59f0028    (...    LDR      r0,[pc,#40] ; [0x280c] = 0xb800150c
        0x000027e0:    e5901000    ....    LDR      r1,[r0,#0]
        0x000027e4:    e3811001    ....    ORR      r1,r1,#1
        0x000027e8:    e5801000    ....    STR      r1,[r0,#0]
        0x000027ec:    e12fff1e    ../.    BX       lr
        0x000027f0:    e59f0018    ....    LDR      r0,[pc,#24] ; [0x2810] = 0xb800160c
        0x000027f4:    e5901000    ....    LDR      r1,[r0,#0]
        0x000027f8:    e3811001    ....    ORR      r1,r1,#1
        0x000027fc:    e5801000    ....    STR      r1,[r0,#0]
        0x00002800:    e12fff1e    ../.    BX       lr
    $d
        0x00002804:    b800170c    ....    DCD    3087013644
        0x00002808:    b800140c    ....    DCD    3087012876
        0x0000280c:    b800150c    ....    DCD    3087013132
        0x00002810:    b800160c    ....    DCD    3087013388
    $a
    i.ETIMER_GetModuleClock
    ETIMER_GetModuleClock
        0x00002814:    e92d4010    .@-.    PUSH     {r4,lr}
        0x00002818:    e3a0120b    ....    MOV      r1,#0xb0000000
        0x0000281c:    e5911240    @...    LDR      r1,[r1,#0x240]
        0x00002820:    e3a02010    . ..    MOV      r2,#0x10
        0x00002824:    e0820100    ....    ADD      r0,r2,r0,LSL #2
        0x00002828:    e1a00031    1...    LSR      r0,r1,r0
        0x0000282c:    e2000003    ....    AND      r0,r0,#3
        0x00002830:    e3500000    ..P.    CMP      r0,#0
        0x00002834:    0a000005    ....    BEQ      0x2850 ; ETIMER_GetModuleClock + 60
        0x00002838:    e3500001    ..P.    CMP      r0,#1
        0x0000283c:    0a000005    ....    BEQ      0x2858 ; ETIMER_GetModuleClock + 68
        0x00002840:    e3500002    ..P.    CMP      r0,#2
        0x00002844:    0a000006    ....    BEQ      0x2864 ; ETIMER_GetModuleClock + 80
        0x00002848:    e3a00902    ....    MOV      r0,#0x8000
        0x0000284c:    e8bd8010    ....    POP      {r4,pc}
        0x00002850:    e59f001c    ....    LDR      r0,[pc,#28] ; [0x2874] = 0xb71b00
        0x00002854:    e8bd8010    ....    POP      {r4,pc}
        0x00002858:    e8bd4010    .@..    POP      {r4,lr}
        0x0000285c:    e3a00006    ....    MOV      r0,#6
        0x00002860:    ea001dd1    ....    B        sysGetClock ; 0x9fac
        0x00002864:    e3a00006    ....    MOV      r0,#6
        0x00002868:    eb001dcf    ....    BL       sysGetClock ; 0x9fac
        0x0000286c:    e1a00620     ...    LSR      r0,r0,#12
        0x00002870:    e8bd8010    ....    POP      {r4,pc}
    $d
        0x00002874:    00b71b00    ....    DCD    12000000
    $a
    i.ETIMER_Open
    ETIMER_Open
        0x00002878:    e92d41f0    .A-.    PUSH     {r4-r8,lr}
        0x0000287c:    e1a06000    .`..    MOV      r6,r0
        0x00002880:    e1a08001    ....    MOV      r8,r1
        0x00002884:    e1a07002    .p..    MOV      r7,r2
        0x00002888:    e1a00006    ....    MOV      r0,r6
        0x0000288c:    ebffffe0    ....    BL       ETIMER_GetModuleClock ; 0x2814
        0x00002890:    e1a04000    .@..    MOV      r4,r0
        0x00002894:    e3a05000    .P..    MOV      r5,#0
        0x00002898:    e15700a4    ..W.    CMP      r7,r4,LSR #1
        0x0000289c:    9a000001    ....    BLS      0x28a8 ; ETIMER_Open + 48
        0x000028a0:    e3a00002    ....    MOV      r0,#2
        0x000028a4:    ea000010    ....    B        0x28ec ; ETIMER_Open + 116
        0x000028a8:    e3540301    ..T.    CMP      r4,#0x4000000
        0x000028ac:    3a000002    ...:    BCC      0x28bc ; ETIMER_Open + 68
        0x000028b0:    e3a05007    .P..    MOV      r5,#7
        0x000028b4:    e1a041a4    .A..    LSR      r4,r4,#3
        0x000028b8:    ea000008    ....    B        0x28e0 ; ETIMER_Open + 104
        0x000028bc:    e3540402    ..T.    CMP      r4,#0x2000000
        0x000028c0:    3a000002    ...:    BCC      0x28d0 ; ETIMER_Open + 88
        0x000028c4:    e3a05003    .P..    MOV      r5,#3
        0x000028c8:    e1a04124    $A..    LSR      r4,r4,#2
        0x000028cc:    ea000003    ....    B        0x28e0 ; ETIMER_Open + 104
        0x000028d0:    e3540401    ..T.    CMP      r4,#0x1000000
        0x000028d4:    3a000001    ...:    BCC      0x28e0 ; ETIMER_Open + 104
        0x000028d8:    e3a05001    .P..    MOV      r5,#1
        0x000028dc:    e1a040a4    .@..    LSR      r4,r4,#1
        0x000028e0:    e1a01007    ....    MOV      r1,r7
        0x000028e4:    e1a00004    ....    MOV      r0,r4
        0x000028e8:    ebfffc7c    |...    BL       __aeabi_uidiv ; 0x1ae0
        0x000028ec:    e3560000    ..V.    CMP      r6,#0
        0x000028f0:    e3881001    ....    ORR      r1,r8,#1
        0x000028f4:    0a00000e    ....    BEQ      0x2934 ; ETIMER_Open + 188
        0x000028f8:    e3560001    ..V.    CMP      r6,#1
        0x000028fc:    0a000013    ....    BEQ      0x2950 ; ETIMER_Open + 216
        0x00002900:    e3560002    ..V.    CMP      r6,#2
        0x00002904:    0a000018    ....    BEQ      0x296c ; ETIMER_Open + 244
        0x00002908:    e59f2078    x ..    LDR      r2,[pc,#120] ; [0x2988] = 0xb8001708
        0x0000290c:    e5820000    ....    STR      r0,[r2,#0]
        0x00002910:    e2422004    . B.    SUB      r2,r2,#4
        0x00002914:    e5825000    .P..    STR      r5,[r2,#0]
        0x00002918:    e2422004    . B.    SUB      r2,r2,#4
        0x0000291c:    e5821000    ....    STR      r1,[r2,#0]
        0x00002920:    e2851001    ....    ADD      r1,r5,#1
        0x00002924:    e0010190    ....    MUL      r1,r0,r1
        0x00002928:    e1a00004    ....    MOV      r0,r4
        0x0000292c:    ebfffc6b    k...    BL       __aeabi_uidiv ; 0x1ae0
        0x00002930:    e8bd81f0    ....    POP      {r4-r8,pc}
        0x00002934:    e59f2050    P ..    LDR      r2,[pc,#80] ; [0x298c] = 0xb8001408
        0x00002938:    e5820000    ....    STR      r0,[r2,#0]
        0x0000293c:    e2422004    . B.    SUB      r2,r2,#4
        0x00002940:    e5825000    .P..    STR      r5,[r2,#0]
        0x00002944:    e2422004    . B.    SUB      r2,r2,#4
        0x00002948:    e5821000    ....    STR      r1,[r2,#0]
        0x0000294c:    eafffff3    ....    B        0x2920 ; ETIMER_Open + 168
        0x00002950:    e59f2038    8 ..    LDR      r2,[pc,#56] ; [0x2990] = 0xb8001508
        0x00002954:    e5820000    ....    STR      r0,[r2,#0]
        0x00002958:    e2422004    . B.    SUB      r2,r2,#4
        0x0000295c:    e5825000    .P..    STR      r5,[r2,#0]
        0x00002960:    e2422004    . B.    SUB      r2,r2,#4
        0x00002964:    e5821000    ....    STR      r1,[r2,#0]
        0x00002968:    eaffffec    ....    B        0x2920 ; ETIMER_Open + 168
        0x0000296c:    e59f2020      ..    LDR      r2,[pc,#32] ; [0x2994] = 0xb8001608
        0x00002970:    e5820000    ....    STR      r0,[r2,#0]
        0x00002974:    e2422004    . B.    SUB      r2,r2,#4
        0x00002978:    e5825000    .P..    STR      r5,[r2,#0]
        0x0000297c:    e2422004    . B.    SUB      r2,r2,#4
        0x00002980:    e5821000    ....    STR      r1,[r2,#0]
        0x00002984:    eaffffe5    ....    B        0x2920 ; ETIMER_Open + 168
    $d
        0x00002988:    b8001708    ....    DCD    3087013640
        0x0000298c:    b8001408    ....    DCD    3087012872
        0x00002990:    b8001508    ....    DCD    3087013128
        0x00002994:    b8001608    ....    DCD    3087013384
    $a
    i.ETIMER_Start
    ETIMER_Start
        0x00002998:    e3500000    ..P.    CMP      r0,#0
        0x0000299c:    0a000008    ....    BEQ      0x29c4 ; ETIMER_Start + 44
        0x000029a0:    e3500001    ..P.    CMP      r0,#1
        0x000029a4:    0a00000b    ....    BEQ      0x29d8 ; ETIMER_Start + 64
        0x000029a8:    e3500002    ..P.    CMP      r0,#2
        0x000029ac:    0a00000e    ....    BEQ      0x29ec ; ETIMER_Start + 84
        0x000029b0:    e59f0048    H...    LDR      r0,[pc,#72] ; [0x2a00] = 0xb8001700
        0x000029b4:    e5901000    ....    LDR      r1,[r0,#0]
        0x000029b8:    e3811001    ....    ORR      r1,r1,#1
        0x000029bc:    e5801000    ....    STR      r1,[r0,#0]
        0x000029c0:    e12fff1e    ../.    BX       lr
        0x000029c4:    e59f0038    8...    LDR      r0,[pc,#56] ; [0x2a04] = 0xb8001400
        0x000029c8:    e5901000    ....    LDR      r1,[r0,#0]
        0x000029cc:    e3811001    ....    ORR      r1,r1,#1
        0x000029d0:    e5801000    ....    STR      r1,[r0,#0]
        0x000029d4:    e12fff1e    ../.    BX       lr
        0x000029d8:    e59f0028    (...    LDR      r0,[pc,#40] ; [0x2a08] = 0xb8001500
        0x000029dc:    e5901000    ....    LDR      r1,[r0,#0]
        0x000029e0:    e3811001    ....    ORR      r1,r1,#1
        0x000029e4:    e5801000    ....    STR      r1,[r0,#0]
        0x000029e8:    e12fff1e    ../.    BX       lr
        0x000029ec:    e59f0018    ....    LDR      r0,[pc,#24] ; [0x2a0c] = 0xb8001600
        0x000029f0:    e5901000    ....    LDR      r1,[r0,#0]
        0x000029f4:    e3811001    ....    ORR      r1,r1,#1
        0x000029f8:    e5801000    ....    STR      r1,[r0,#0]
        0x000029fc:    e12fff1e    ../.    BX       lr
    $d
        0x00002a00:    b8001700    ....    DCD    3087013632
        0x00002a04:    b8001400    ....    DCD    3087012864
        0x00002a08:    b8001500    ....    DCD    3087013120
        0x00002a0c:    b8001600    ....    DCD    3087013376
    $a
    i.ETIMER_Stop
    ETIMER_Stop
        0x00002a10:    e3500000    ..P.    CMP      r0,#0
        0x00002a14:    0a000008    ....    BEQ      0x2a3c ; ETIMER_Stop + 44
        0x00002a18:    e3500001    ..P.    CMP      r0,#1
        0x00002a1c:    0a00000b    ....    BEQ      0x2a50 ; ETIMER_Stop + 64
        0x00002a20:    e3500002    ..P.    CMP      r0,#2
        0x00002a24:    0a00000e    ....    BEQ      0x2a64 ; ETIMER_Stop + 84
        0x00002a28:    e59f0048    H...    LDR      r0,[pc,#72] ; [0x2a78] = 0xb8001700
        0x00002a2c:    e5901000    ....    LDR      r1,[r0,#0]
        0x00002a30:    e3c11001    ....    BIC      r1,r1,#1
        0x00002a34:    e5801000    ....    STR      r1,[r0,#0]
        0x00002a38:    e12fff1e    ../.    BX       lr
        0x00002a3c:    e59f0038    8...    LDR      r0,[pc,#56] ; [0x2a7c] = 0xb8001400
        0x00002a40:    e5901000    ....    LDR      r1,[r0,#0]
        0x00002a44:    e3c11001    ....    BIC      r1,r1,#1
        0x00002a48:    e5801000    ....    STR      r1,[r0,#0]
        0x00002a4c:    e12fff1e    ../.    BX       lr
        0x00002a50:    e59f0028    (...    LDR      r0,[pc,#40] ; [0x2a80] = 0xb8001500
        0x00002a54:    e5901000    ....    LDR      r1,[r0,#0]
        0x00002a58:    e3c11001    ....    BIC      r1,r1,#1
        0x00002a5c:    e5801000    ....    STR      r1,[r0,#0]
        0x00002a60:    e12fff1e    ../.    BX       lr
        0x00002a64:    e59f0018    ....    LDR      r0,[pc,#24] ; [0x2a84] = 0xb8001600
        0x00002a68:    e5901000    ....    LDR      r1,[r0,#0]
        0x00002a6c:    e3c11001    ....    BIC      r1,r1,#1
        0x00002a70:    e5801000    ....    STR      r1,[r0,#0]
        0x00002a74:    e12fff1e    ../.    BX       lr
    $d
        0x00002a78:    b8001700    ....    DCD    3087013632
        0x00002a7c:    b8001400    ....    DCD    3087012864
        0x00002a80:    b8001500    ....    DCD    3087013120
        0x00002a84:    b8001600    ....    DCD    3087013376
    $a
    i.ETMR2_IRQHandler
    ETMR2_IRQHandler
        0x00002a88:    e92d4010    .@-.    PUSH     {r4,lr}
        0x00002a8c:    eb0012c4    ....    BL       check_tp_send ; 0x75a4
        0x00002a90:    e59f1008    ....    LDR      r1,[pc,#8] ; [0x2aa0] = 0xb8001610
        0x00002a94:    e3a00001    ....    MOV      r0,#1
        0x00002a98:    e5810000    ....    STR      r0,[r1,#0]
        0x00002a9c:    e8bd8010    ....    POP      {r4,pc}
    $d
        0x00002aa0:    b8001610    ....    DCD    3087013392
    $a
    i.ETMR3_IRQHandler
    ETMR3_IRQHandler
        0x00002aa4:    e92d4070    p@-.    PUSH     {r4-r6,lr}
        0x00002aa8:    eb0024fc    .$..    BL       voice_tim_stop ; 0xbea0
        0x00002aac:    e59f4188    .A..    LDR      r4,[pc,#392] ; [0x2c3c] = 0xd534
        0x00002ab0:    e5d40008    ....    LDRB     r0,[r4,#8]
        0x00002ab4:    e3a06000    .`..    MOV      r6,#0
        0x00002ab8:    e3a05001    .P..    MOV      r5,#1
        0x00002abc:    e3500011    ..P.    CMP      r0,#0x11
        0x00002ac0:    0a000017    ....    BEQ      0x2b24 ; ETMR3_IRQHandler + 128
        0x00002ac4:    e5d40008    ....    LDRB     r0,[r4,#8]
        0x00002ac8:    e3500008    ..P.    CMP      r0,#8
        0x00002acc:    0a000028    (...    BEQ      0x2b74 ; ETMR3_IRQHandler + 208
        0x00002ad0:    e1d400be    ....    LDRH     r0,[r4,#0xe]
        0x00002ad4:    e3100001    ....    TST      r0,#1
        0x00002ad8:    0a000039    9...    BEQ      0x2bc4 ; ETMR3_IRQHandler + 288
        0x00002adc:    e5d40009    ....    LDRB     r0,[r4,#9]
        0x00002ae0:    e3500000    ..P.    CMP      r0,#0
        0x00002ae4:    0a00004d    M...    BEQ      0x2c20 ; ETMR3_IRQHandler + 380
        0x00002ae8:    e5c46009    .`..    STRB     r6,[r4,#9]
        0x00002aec:    e3a01b02    ....    MOV      r1,#0x800
        0x00002af0:    e3a00c02    ....    MOV      r0,#0x200
        0x00002af4:    eb0000b5    ....    BL       GPIO_Clr ; 0x2dd0
        0x00002af8:    e3a000c8    ....    MOV      r0,#0xc8
        0x00002afc:    eb0024d7    .$..    BL       voice_tim_start ; 0xbe60
        0x00002b00:    e5d40008    ....    LDRB     r0,[r4,#8]
        0x00002b04:    e2800001    ....    ADD      r0,r0,#1
        0x00002b08:    e5c40008    ....    STRB     r0,[r4,#8]
        0x00002b0c:    e1d400be    ....    LDRH     r0,[r4,#0xe]
        0x00002b10:    e1a000a0    ....    LSR      r0,r0,#1
        0x00002b14:    e1c400be    ....    STRH     r0,[r4,#0xe]
        0x00002b18:    e59f0120     ...    LDR      r0,[pc,#288] ; [0x2c40] = 0xb8001710
        0x00002b1c:    e5805000    .P..    STR      r5,[r0,#0]
        0x00002b20:    e8bd8070    p...    POP      {r4-r6,pc}
        0x00002b24:    e5c46008    .`..    STRB     r6,[r4,#8]
        0x00002b28:    e5c46009    .`..    STRB     r6,[r4,#9]
        0x00002b2c:    e3a01b02    ....    MOV      r1,#0x800
        0x00002b30:    e3a00c02    ....    MOV      r0,#0x200
        0x00002b34:    eb00016d    m...    BL       GPIO_Set ; 0x30f0
        0x00002b38:    e5d40000    ....    LDRB     r0,[r4,#0]
        0x00002b3c:    e3500001    ..P.    CMP      r0,#1
        0x00002b40:    1a000000    ....    BNE      0x2b48 ; ETMR3_IRQHandler + 164
        0x00002b44:    e5c46000    .`..    STRB     r6,[r4,#0]
        0x00002b48:    e5d40001    ....    LDRB     r0,[r4,#1]
        0x00002b4c:    e3500004    ..P.    CMP      r0,#4
        0x00002b50:    0a000003    ....    BEQ      0x2b64 ; ETMR3_IRQHandler + 192
        0x00002b54:    e3500005    ..P.    CMP      r0,#5
        0x00002b58:    0a000001    ....    BEQ      0x2b64 ; ETMR3_IRQHandler + 192
        0x00002b5c:    e3500003    ..P.    CMP      r0,#3
        0x00002b60:    1affffec    ....    BNE      0x2b18 ; ETMR3_IRQHandler + 116
        0x00002b64:    e5c45002    .P..    STRB     r5,[r4,#2]
        0x00002b68:    eb000d0f    ....    BL       Touch_int_enable ; 0x5fac
        0x00002b6c:    eb002036    6 ..    BL       tim1ms_int_enable ; 0xac4c
        0x00002b70:    eaffffe8    ....    B        0x2b18 ; ETMR3_IRQHandler + 116
        0x00002b74:    e5d40009    ....    LDRB     r0,[r4,#9]
        0x00002b78:    e3500000    ..P.    CMP      r0,#0
        0x00002b7c:    0a000009    ....    BEQ      0x2ba8 ; ETMR3_IRQHandler + 260
        0x00002b80:    e5c46009    .`..    STRB     r6,[r4,#9]
        0x00002b84:    e3a01b02    ....    MOV      r1,#0x800
        0x00002b88:    e3a00c02    ....    MOV      r0,#0x200
        0x00002b8c:    eb00008f    ....    BL       GPIO_Clr ; 0x2dd0
        0x00002b90:    e59f00ac    ....    LDR      r0,[pc,#172] ; [0x2c44] = 0x1388
        0x00002b94:    eb0024b1    .$..    BL       voice_tim_start ; 0xbe60
        0x00002b98:    e5d40008    ....    LDRB     r0,[r4,#8]
        0x00002b9c:    e2800001    ....    ADD      r0,r0,#1
        0x00002ba0:    e5c40008    ....    STRB     r0,[r4,#8]
        0x00002ba4:    eaffffdb    ....    B        0x2b18 ; ETMR3_IRQHandler + 116
        0x00002ba8:    e3a01b02    ....    MOV      r1,#0x800
        0x00002bac:    e3a00c02    ....    MOV      r0,#0x200
        0x00002bb0:    eb00014e    N...    BL       GPIO_Set ; 0x30f0
        0x00002bb4:    e3a00e7d    }...    MOV      r0,#0x7d0
        0x00002bb8:    eb0024a8    .$..    BL       voice_tim_start ; 0xbe60
        0x00002bbc:    e5c45009    .P..    STRB     r5,[r4,#9]
        0x00002bc0:    eaffffd4    ....    B        0x2b18 ; ETMR3_IRQHandler + 116
        0x00002bc4:    e5d40009    ....    LDRB     r0,[r4,#9]
        0x00002bc8:    e3500000    ..P.    CMP      r0,#0
        0x00002bcc:    0a00000c    ....    BEQ      0x2c04 ; ETMR3_IRQHandler + 352
        0x00002bd0:    e5c46009    .`..    STRB     r6,[r4,#9]
        0x00002bd4:    e3a01b02    ....    MOV      r1,#0x800
        0x00002bd8:    e3a00c02    ....    MOV      r0,#0x200
        0x00002bdc:    eb00007b    {...    BL       GPIO_Clr ; 0x2dd0
        0x00002be0:    e3a00f96    ....    MOV      r0,#0x258
        0x00002be4:    eb00249d    .$..    BL       voice_tim_start ; 0xbe60
        0x00002be8:    e5d40008    ....    LDRB     r0,[r4,#8]
        0x00002bec:    e2800001    ....    ADD      r0,r0,#1
        0x00002bf0:    e5c40008    ....    STRB     r0,[r4,#8]
        0x00002bf4:    e1d400be    ....    LDRH     r0,[r4,#0xe]
        0x00002bf8:    e1a000a0    ....    LSR      r0,r0,#1
        0x00002bfc:    e1c400be    ....    STRH     r0,[r4,#0xe]
        0x00002c00:    eaffffc4    ....    B        0x2b18 ; ETMR3_IRQHandler + 116
        0x00002c04:    e3a01b02    ....    MOV      r1,#0x800
        0x00002c08:    e3a00c02    ....    MOV      r0,#0x200
        0x00002c0c:    eb000137    7...    BL       GPIO_Set ; 0x30f0
        0x00002c10:    e3a000c8    ....    MOV      r0,#0xc8
        0x00002c14:    eb002491    .$..    BL       voice_tim_start ; 0xbe60
        0x00002c18:    e5c45009    .P..    STRB     r5,[r4,#9]
        0x00002c1c:    eaffffbd    ....    B        0x2b18 ; ETMR3_IRQHandler + 116
        0x00002c20:    e3a01b02    ....    MOV      r1,#0x800
        0x00002c24:    e3a00c02    ....    MOV      r0,#0x200
        0x00002c28:    eb000130    0...    BL       GPIO_Set ; 0x30f0
        0x00002c2c:    e3a00f96    ....    MOV      r0,#0x258
        0x00002c30:    eb00248a    .$..    BL       voice_tim_start ; 0xbe60
        0x00002c34:    e5c45009    .P..    STRB     r5,[r4,#9]
        0x00002c38:    eaffffb6    ....    B        0x2b18 ; ETMR3_IRQHandler + 116
    $d
        0x00002c3c:    0000d534    4...    DCD    54580
        0x00002c40:    b8001710    ....    DCD    3087013648
        0x00002c44:    00001388    ....    DCD    5000
    $a
    i.FT5x06_Init
    FT5x06_Init
        0x00002c48:    e92d4010    .@-.    PUSH     {r4,lr}
        0x00002c4c:    e3a04000    .@..    MOV      r4,#0
        0x00002c50:    eb00012e    ....    BL       IIC_Init ; 0x3110
        0x00002c54:    eb000169    i...    BL       IL2117A_InitHard ; 0x3200
        0x00002c58:    e59f101c    ....    LDR      r1,[pc,#28] ; [0x2c7c] = 0x20788
        0x00002c5c:    e3a0000a    ....    MOV      r0,#0xa
        0x00002c60:    e0812204    ."..    ADD      r2,r1,r4,LSL #4
        0x00002c64:    e5820008    ....    STR      r0,[r2,#8]
        0x00002c68:    e2842001    . ..    ADD      r2,r4,#1
        0x00002c6c:    e20240ff    .@..    AND      r4,r2,#0xff
        0x00002c70:    e354000a    ..T.    CMP      r4,#0xa
        0x00002c74:    3afffff9    ...:    BCC      0x2c60 ; FT5x06_Init + 24
        0x00002c78:    e8bd8010    ....    POP      {r4,pc}
    $d
        0x00002c7c:    00020788    ....    DCD    133000
    $a
    i.Font_Print
    Font_Print
        0x00002c80:    e2400020     .@.    SUB      r0,r0,#0x20
        0x00002c84:    e20000ff    ....    AND      r0,r0,#0xff
        0x00002c88:    e59f100c    ....    LDR      r1,[pc,#12] ; [0x2c9c] = 0xcb38
        0x00002c8c:    e0810200    ....    ADD      r0,r1,r0,LSL #4
        0x00002c90:    e59f1008    ....    LDR      r1,[pc,#8] ; [0x2ca0] = 0xd3d8
        0x00002c94:    e5911008    ....    LDR      r1,[r1,#8]
        0x00002c98:    ea000582    ....    B        Out_Font0816 ; 0x42a8
    $d
        0x00002c9c:    0000cb38    8...    DCD    52024
        0x00002ca0:    0000d3d8    ....    DCD    54232
    $a
    i.GET_READ_RXNUM
    GET_READ_RXNUM
        0x00002ca4:    e1510000    ..Q.    CMP      r1,r0
        0x00002ca8:    9a000004    ....    BLS      0x2cc0 ; GET_READ_RXNUM + 28
        0x00002cac:    e0421001    ..B.    SUB      r1,r2,r1
        0x00002cb0:    e0800001    ....    ADD      r0,r0,r1
        0x00002cb4:    e1a00800    ....    LSL      r0,r0,#16
        0x00002cb8:    e1a00820     ...    LSR      r0,r0,#16
        0x00002cbc:    e12fff1e    ../.    BX       lr
        0x00002cc0:    e0400001    ..@.    SUB      r0,r0,r1
        0x00002cc4:    e1a00800    ....    LSL      r0,r0,#16
        0x00002cc8:    e1a00820     ...    LSR      r0,r0,#16
        0x00002ccc:    e12fff1e    ../.    BX       lr
    i.GPIOECallback
    GPIOECallback
        0x00002cd0:    e92d4010    .@-.    PUSH     {r4,lr}
        0x00002cd4:    e3100080    ....    TST      r0,#0x80
        0x00002cd8:    0a000005    ....    BEQ      0x2cf4 ; GPIOECallback + 36
        0x00002cdc:    e59f1024    $...    LDR      r1,[pc,#36] ; [0x2d08] = 0xd4b4
        0x00002ce0:    e3a02001    . ..    MOV      r2,#1
        0x00002ce4:    e5c12002    . ..    STRB     r2,[r1,#2]
        0x00002ce8:    e59f201c    . ..    LDR      r2,[pc,#28] ; [0x2d0c] = 0xd864
        0x00002cec:    e5922000    . ..    LDR      r2,[r2,#0]
        0x00002cf0:    e5812008    . ..    STR      r2,[r1,#8]
        0x00002cf4:    e1a01000    ....    MOV      r1,r0
        0x00002cf8:    e3a00c01    ....    MOV      r0,#0x100
        0x00002cfc:    eb00003b    ;...    BL       GPIO_ClrISRBit ; 0x2df0
        0x00002d00:    e3a00000    ....    MOV      r0,#0
        0x00002d04:    e8bd8010    ....    POP      {r4,pc}
    $d
        0x00002d08:    0000d4b4    ....    DCD    54452
        0x00002d0c:    0000d864    d...    DCD    55396
    $a
    i.GPIOICallback
    GPIOICallback
        0x00002d10:    e92d4010    .@-.    PUSH     {r4,lr}
        0x00002d14:    e1a04000    .@..    MOV      r4,r0
        0x00002d18:    e3140a01    ....    TST      r4,#0x1000
        0x00002d1c:    0a000012    ....    BEQ      0x2d6c ; GPIOICallback + 92
        0x00002d20:    e3a01a01    ....    MOV      r1,#0x1000
        0x00002d24:    e3a00c02    ....    MOV      r0,#0x200
        0x00002d28:    eb0000e6    ....    BL       GPIO_ReadBit ; 0x30c8
        0x00002d2c:    e59f304c    L0..    LDR      r3,[pc,#76] ; [0x2d80] = 0xd534
        0x00002d30:    e3500000    ..P.    CMP      r0,#0
        0x00002d34:    0a000009    ....    BEQ      0x2d60 ; GPIOICallback + 80
        0x00002d38:    e3a00000    ....    MOV      r0,#0
        0x00002d3c:    eb001a8b    ....    BL       set_wt588h_voice_state ; 0x9770
        0x00002d40:    e59f003c    <...    LDR      r0,[pc,#60] ; [0x2d84] = 0xd864
        0x00002d44:    e5900000    ....    LDR      r0,[r0,#0]
        0x00002d48:    e59f1038    8...    LDR      r1,[pc,#56] ; [0x2d88] = 0x21570
        0x00002d4c:    e5810008    ....    STR      r0,[r1,#8]
        0x00002d50:    e5d30004    ....    LDRB     r0,[r3,#4]
        0x00002d54:    e2800001    ....    ADD      r0,r0,#1
        0x00002d58:    e5c30004    ....    STRB     r0,[r3,#4]
        0x00002d5c:    ea000002    ....    B        0x2d6c ; GPIOICallback + 92
        0x00002d60:    e5d30004    ....    LDRB     r0,[r3,#4]
        0x00002d64:    e2800001    ....    ADD      r0,r0,#1
        0x00002d68:    e5c30004    ....    STRB     r0,[r3,#4]
        0x00002d6c:    e1a01004    ....    MOV      r1,r4
        0x00002d70:    e3a00c02    ....    MOV      r0,#0x200
        0x00002d74:    eb00001d    ....    BL       GPIO_ClrISRBit ; 0x2df0
        0x00002d78:    e3a00000    ....    MOV      r0,#0
        0x00002d7c:    e8bd8010    ....    POP      {r4,pc}
    $d
        0x00002d80:    0000d534    4...    DCD    54580
        0x00002d84:    0000d864    d...    DCD    55396
        0x00002d88:    00021570    p...    DCD    136560
    $a
    i.GPIO_CloseBit
    GPIO_CloseBit
        0x00002d8c:    e1a02320     #..    LSR      r2,r0,#6
        0x00002d90:    e59f3030    00..    LDR      r3,[pc,#48] ; [0x2dc8] = 0x68000
        0x00002d94:    e0832082    . ..    ADD      r2,r3,r2,LSL #1
        0x00002d98:    e1d230b0    .0..    LDRH     r3,[r2,#0]
        0x00002d9c:    e1c33001    .0..    BIC      r3,r3,r1
        0x00002da0:    e1c230b0    .0..    STRH     r3,[r2,#0]
        0x00002da4:    e59f2020      ..    LDR      r2,[pc,#32] ; [0x2dcc] = 0xb8003000
        0x00002da8:    e7b02002    . ..    LDR      r2,[r0,r2]!
        0x00002dac:    e1c22001    . ..    BIC      r2,r2,r1
        0x00002db0:    e5802000    . ..    STR      r2,[r0,#0]
        0x00002db4:    e5902020      ..    LDR      r2,[r0,#0x20]
        0x00002db8:    e1c21001    ....    BIC      r1,r2,r1
        0x00002dbc:    e5801020     ...    STR      r1,[r0,#0x20]
        0x00002dc0:    e3a00000    ....    MOV      r0,#0
        0x00002dc4:    e12fff1e    ../.    BX       lr
    $d
        0x00002dc8:    00068000    ....    DCD    425984
        0x00002dcc:    b8003000    .0..    DCD    3087020032
    $a
    i.GPIO_Clr
    GPIO_Clr
        0x00002dd0:    e59f2014    . ..    LDR      r2,[pc,#20] ; [0x2dec] = 0xb8003000
        0x00002dd4:    e0800002    ....    ADD      r0,r0,r2
        0x00002dd8:    e5902004    . ..    LDR      r2,[r0,#4]
        0x00002ddc:    e1c21001    ....    BIC      r1,r2,r1
        0x00002de0:    e5801004    ....    STR      r1,[r0,#4]
        0x00002de4:    e3a00000    ....    MOV      r0,#0
        0x00002de8:    e12fff1e    ../.    BX       lr
    $d
        0x00002dec:    b8003000    .0..    DCD    3087020032
    $a
    i.GPIO_ClrISRBit
    GPIO_ClrISRBit
        0x00002df0:    e59f200c    . ..    LDR      r2,[pc,#12] ; [0x2e04] = 0xb8003000
        0x00002df4:    e0800002    ....    ADD      r0,r0,r2
        0x00002df8:    e5801018    ....    STR      r1,[r0,#0x18]
        0x00002dfc:    e3a00000    ....    MOV      r0,#0
        0x00002e00:    e12fff1e    ../.    BX       lr
    $d
        0x00002e04:    b8003000    .0..    DCD    3087020032
    $a
    i.GPIO_DisableInt
    GPIO_DisableInt
        0x00002e08:    e92d4010    .@-.    PUSH     {r4,lr}
        0x00002e0c:    e1a00320     ...    LSR      r0,r0,#6
        0x00002e10:    e59f1044    D...    LDR      r1,[pc,#68] ; [0x2e5c] = 0x68000
        0x00002e14:    e3a02000    . ..    MOV      r2,#0
        0x00002e18:    e0810100    ....    ADD      r0,r1,r0,LSL #2
        0x00002e1c:    e5802014    . ..    STR      r2,[r0,#0x14]
        0x00002e20:    e580203c    < ..    STR      r2,[r0,#0x3c]
        0x00002e24:    e3a00000    ....    MOV      r0,#0
        0x00002e28:    e0812100    .!..    ADD      r2,r1,r0,LSL #2
        0x00002e2c:    e5922014    . ..    LDR      r2,[r2,#0x14]
        0x00002e30:    e3520000    ..R.    CMP      r2,#0
        0x00002e34:    0a000001    ....    BEQ      0x2e40 ; GPIO_DisableInt + 56
        0x00002e38:    e3a00000    ....    MOV      r0,#0
        0x00002e3c:    e8bd8010    ....    POP      {r4,pc}
        0x00002e40:    e2800001    ....    ADD      r0,r0,#1
        0x00002e44:    e350000a    ..P.    CMP      r0,#0xa
        0x00002e48:    bafffff6    ....    BLT      0x2e28 ; GPIO_DisableInt + 32
        0x00002e4c:    e3a00039    9...    MOV      r0,#0x39
        0x00002e50:    eb001bf5    ....    BL       sysDisableInterrupt ; 0x9e2c
        0x00002e54:    e3a00000    ....    MOV      r0,#0
        0x00002e58:    e8bd8010    ....    POP      {r4,pc}
    $d
        0x00002e5c:    00068000    ....    DCD    425984
    $a
    i.GPIO_DisableTriggerType
    GPIO_DisableTriggerType
        0x00002e60:    e59f202c    , ..    LDR      r2,[pc,#44] ; [0x2e94] = 0xb8003000
        0x00002e64:    e0800002    ....    ADD      r0,r0,r2
        0x00002e68:    e590200c    . ..    LDR      r2,[r0,#0xc]
        0x00002e6c:    e1c22001    . ..    BIC      r2,r2,r1
        0x00002e70:    e580200c    . ..    STR      r2,[r0,#0xc]
        0x00002e74:    e5902010    . ..    LDR      r2,[r0,#0x10]
        0x00002e78:    e1c22001    . ..    BIC      r2,r2,r1
        0x00002e7c:    e5802010    . ..    STR      r2,[r0,#0x10]
        0x00002e80:    e5902014    . ..    LDR      r2,[r0,#0x14]
        0x00002e84:    e1c21001    ....    BIC      r1,r2,r1
        0x00002e88:    e5801014    ....    STR      r1,[r0,#0x14]
        0x00002e8c:    e3a00000    ....    MOV      r0,#0
        0x00002e90:    e12fff1e    ../.    BX       lr
    $d
        0x00002e94:    b8003000    .0..    DCD    3087020032
    $a
    i.GPIO_EnableInt
    GPIO_EnableInt
        0x00002e98:    e92d4010    .@-.    PUSH     {r4,lr}
        0x00002e9c:    e1a00320     ...    LSR      r0,r0,#6
        0x00002ea0:    e3510000    ..Q.    CMP      r1,#0
        0x00002ea4:    0a000003    ....    BEQ      0x2eb8 ; GPIO_EnableInt + 32
        0x00002ea8:    e59f3030    00..    LDR      r3,[pc,#48] ; [0x2ee0] = 0x68000
        0x00002eac:    e0830100    ....    ADD      r0,r3,r0,LSL #2
        0x00002eb0:    e5801014    ....    STR      r1,[r0,#0x14]
        0x00002eb4:    e580203c    < ..    STR      r2,[r0,#0x3c]
        0x00002eb8:    e59f2024    $ ..    LDR      r2,[pc,#36] ; [0x2ee4] = 0x2fe0
        0x00002ebc:    e3a01039    9...    MOV      r1,#0x39
        0x00002ec0:    e3a00007    ....    MOV      r0,#7
        0x00002ec4:    eb001e3c    <...    BL       sysInstallISR ; 0xa7bc
        0x00002ec8:    e3a00039    9...    MOV      r0,#0x39
        0x00002ecc:    eb001bf3    ....    BL       sysEnableInterrupt ; 0x9ea0
        0x00002ed0:    e3a0007f    ....    MOV      r0,#0x7f
        0x00002ed4:    eb001e75    u...    BL       sysSetLocalInterrupt ; 0xa8b0
        0x00002ed8:    e3a00000    ....    MOV      r0,#0
        0x00002edc:    e8bd8010    ....    POP      {r4,pc}
    $d
        0x00002ee0:    00068000    ....    DCD    425984
        0x00002ee4:    00002fe0    ./..    DCD    12256
    $a
    i.GPIO_EnableTriggerType
    GPIO_EnableTriggerType
        0x00002ee8:    e59f30ec    .0..    LDR      r3,[pc,#236] ; [0x2fdc] = 0xb8003000
        0x00002eec:    e3520005    ..R.    CMP      r2,#5
        0x00002ef0:    e0800003    ....    ADD      r0,r0,r3
        0x00002ef4:    308ff102    ...0    ADDCC    pc,pc,r2,LSL #2
        0x00002ef8:    ea000035    5...    B        0x2fd4 ; GPIO_EnableTriggerType + 236
        0x00002efc:    ea000003    ....    B        0x2f10 ; GPIO_EnableTriggerType + 40
        0x00002f00:    ea00000c    ....    B        0x2f38 ; GPIO_EnableTriggerType + 80
        0x00002f04:    ea000015    ....    B        0x2f60 ; GPIO_EnableTriggerType + 120
        0x00002f08:    ea00001e    ....    B        0x2f88 ; GPIO_EnableTriggerType + 160
        0x00002f0c:    ea000027    '...    B        0x2fb0 ; GPIO_EnableTriggerType + 200
        0x00002f10:    e590200c    . ..    LDR      r2,[r0,#0xc]
        0x00002f14:    e1822001    . ..    ORR      r2,r2,r1
        0x00002f18:    e580200c    . ..    STR      r2,[r0,#0xc]
        0x00002f1c:    e5902010    . ..    LDR      r2,[r0,#0x10]
        0x00002f20:    e1c22001    . ..    BIC      r2,r2,r1
        0x00002f24:    e5802010    . ..    STR      r2,[r0,#0x10]
        0x00002f28:    e5902014    . ..    LDR      r2,[r0,#0x14]
        0x00002f2c:    e1811002    ....    ORR      r1,r1,r2
        0x00002f30:    e5801014    ....    STR      r1,[r0,#0x14]
        0x00002f34:    ea000026    &...    B        0x2fd4 ; GPIO_EnableTriggerType + 236
        0x00002f38:    e590200c    . ..    LDR      r2,[r0,#0xc]
        0x00002f3c:    e1822001    . ..    ORR      r2,r2,r1
        0x00002f40:    e580200c    . ..    STR      r2,[r0,#0xc]
        0x00002f44:    e5902010    . ..    LDR      r2,[r0,#0x10]
        0x00002f48:    e1822001    . ..    ORR      r2,r2,r1
        0x00002f4c:    e5802010    . ..    STR      r2,[r0,#0x10]
        0x00002f50:    e5902014    . ..    LDR      r2,[r0,#0x14]
        0x00002f54:    e1c21001    ....    BIC      r1,r2,r1
        0x00002f58:    e5801014    ....    STR      r1,[r0,#0x14]
        0x00002f5c:    ea00001c    ....    B        0x2fd4 ; GPIO_EnableTriggerType + 236
        0x00002f60:    e590200c    . ..    LDR      r2,[r0,#0xc]
        0x00002f64:    e1c22001    . ..    BIC      r2,r2,r1
        0x00002f68:    e580200c    . ..    STR      r2,[r0,#0xc]
        0x00002f6c:    e5902010    . ..    LDR      r2,[r0,#0x10]
        0x00002f70:    e1c22001    . ..    BIC      r2,r2,r1
        0x00002f74:    e5802010    . ..    STR      r2,[r0,#0x10]
        0x00002f78:    e5902014    . ..    LDR      r2,[r0,#0x14]
        0x00002f7c:    e1811002    ....    ORR      r1,r1,r2
        0x00002f80:    e5801014    ....    STR      r1,[r0,#0x14]
        0x00002f84:    ea000012    ....    B        0x2fd4 ; GPIO_EnableTriggerType + 236
        0x00002f88:    e590200c    . ..    LDR      r2,[r0,#0xc]
        0x00002f8c:    e1c22001    . ..    BIC      r2,r2,r1
        0x00002f90:    e580200c    . ..    STR      r2,[r0,#0xc]
        0x00002f94:    e5902010    . ..    LDR      r2,[r0,#0x10]
        0x00002f98:    e1822001    . ..    ORR      r2,r2,r1
        0x00002f9c:    e5802010    . ..    STR      r2,[r0,#0x10]
        0x00002fa0:    e5902014    . ..    LDR      r2,[r0,#0x14]
        0x00002fa4:    e1c21001    ....    BIC      r1,r2,r1
        0x00002fa8:    e5801014    ....    STR      r1,[r0,#0x14]
        0x00002fac:    ea000008    ....    B        0x2fd4 ; GPIO_EnableTriggerType + 236
        0x00002fb0:    e590200c    . ..    LDR      r2,[r0,#0xc]
        0x00002fb4:    e1c22001    . ..    BIC      r2,r2,r1
        0x00002fb8:    e580200c    . ..    STR      r2,[r0,#0xc]
        0x00002fbc:    e5902010    . ..    LDR      r2,[r0,#0x10]
        0x00002fc0:    e1822001    . ..    ORR      r2,r2,r1
        0x00002fc4:    e5802010    . ..    STR      r2,[r0,#0x10]
        0x00002fc8:    e5902014    . ..    LDR      r2,[r0,#0x14]
        0x00002fcc:    e1811002    ....    ORR      r1,r1,r2
        0x00002fd0:    e5801014    ....    STR      r1,[r0,#0x14]
        0x00002fd4:    e3a00000    ....    MOV      r0,#0
        0x00002fd8:    e12fff1e    ../.    BX       lr
    $d
        0x00002fdc:    b8003000    .0..    DCD    3087020032
    $a
    i.GPIO_IRQHandler
    GPIO_IRQHandler
        0x00002fe0:    e92d47f0    .G-.    PUSH     {r4-r10,lr}
        0x00002fe4:    e59f8054    T...    LDR      r8,[pc,#84] ; [0x3040] = 0xb8002000
        0x00002fe8:    e5980114    ....    LDR      r0,[r8,#0x114]
        0x00002fec:    e3a06402    .d..    MOV      r6,#0x2000000
        0x00002ff0:    e18876c6    .v..    ORR      r7,r8,r6,ASR #13
        0x00002ff4:    e59753fc    .S..    LDR      r5,[r7,#0x3fc]
        0x00002ff8:    e3a04000    .@..    MOV      r4,#0
        0x00002ffc:    e59f9040    @...    LDR      r9,[pc,#64] ; [0x3044] = 0x68000
        0x00003000:    e3a0a001    ....    MOV      r10,#1
        0x00003004:    e0890104    ....    ADD      r0,r9,r4,LSL #2
        0x00003008:    e5902014    . ..    LDR      r2,[r0,#0x14]
        0x0000300c:    e3520000    ..R.    CMP      r2,#0
        0x00003010:    0a000005    ....    BEQ      0x302c ; GPIO_IRQHandler + 76
        0x00003014:    e115041a    ....    TST      r5,r10,LSL r4
        0x00003018:    0a000003    ....    BEQ      0x302c ; GPIO_IRQHandler + 76
        0x0000301c:    e590103c    <...    LDR      r1,[r0,#0x3c]
        0x00003020:    e0870304    ....    ADD      r0,r7,r4,LSL #6
        0x00003024:    e5900018    ....    LDR      r0,[r0,#0x18]
        0x00003028:    e12fff32    2./.    BLX      r2
        0x0000302c:    e2844001    .@..    ADD      r4,r4,#1
        0x00003030:    e354000a    ..T.    CMP      r4,#0xa
        0x00003034:    bafffff2    ....    BLT      0x3004 ; GPIO_IRQHandler + 36
        0x00003038:    e588614c    La..    STR      r6,[r8,#0x14c]
        0x0000303c:    e8bd87f0    ....    POP      {r4-r10,pc}
    $d
        0x00003040:    b8002000    . ..    DCD    3087015936
        0x00003044:    00068000    ....    DCD    425984
    $a
    i.GPIO_OpenBit
    GPIO_OpenBit
        0x00003048:    e92d4030    0@-.    PUSH     {r4,r5,lr}
        0x0000304c:    e3a0c20b    ....    MOV      r12,#0xb0000000
        0x00003050:    e59c4218    .B..    LDR      r4,[r12,#0x218]
        0x00003054:    e3844008    .@..    ORR      r4,r4,#8
        0x00003058:    e58c4218    .B..    STR      r4,[r12,#0x218]
        0x0000305c:    e1a0c320     ...    LSR      r12,r0,#6
        0x00003060:    e59f4058    X@..    LDR      r4,[pc,#88] ; [0x30c0] = 0x68000
        0x00003064:    e084c08c    ....    ADD      r12,r4,r12,LSL #1
        0x00003068:    e1dc40b0    .@..    LDRH     r4,[r12,#0]
        0x0000306c:    e1140001    ....    TST      r4,r1
        0x00003070:    0a000001    ....    BEQ      0x307c ; GPIO_OpenBit + 52
        0x00003074:    e3e00002    ....    MVN      r0,#2
        0x00003078:    e8bd8030    0...    POP      {r4,r5,pc}
        0x0000307c:    e1844001    .@..    ORR      r4,r4,r1
        0x00003080:    e1cc40b0    .@..    STRH     r4,[r12,#0]
        0x00003084:    e59fc038    8...    LDR      r12,[pc,#56] ; [0x30c4] = 0xb8003000
        0x00003088:    e7b0c00c    ....    LDR      r12,[r0,r12]!
        0x0000308c:    e1ccc001    ....    BIC      r12,r12,r1
        0x00003090:    e3520001    ..R.    CMP      r2,#1
        0x00003094:    1a000000    ....    BNE      0x309c ; GPIO_OpenBit + 84
        0x00003098:    e18cc001    ....    ORR      r12,r12,r1
        0x0000309c:    e580c000    ....    STR      r12,[r0,#0]
        0x000030a0:    e5902020      ..    LDR      r2,[r0,#0x20]
        0x000030a4:    e1c22001    . ..    BIC      r2,r2,r1
        0x000030a8:    e3530001    ..S.    CMP      r3,#1
        0x000030ac:    1a000000    ....    BNE      0x30b4 ; GPIO_OpenBit + 108
        0x000030b0:    e1822001    . ..    ORR      r2,r2,r1
        0x000030b4:    e5802020      ..    STR      r2,[r0,#0x20]
        0x000030b8:    e3a00000    ....    MOV      r0,#0
        0x000030bc:    e8bd8030    0...    POP      {r4,r5,pc}
    $d
        0x000030c0:    00068000    ....    DCD    425984
        0x000030c4:    b8003000    .0..    DCD    3087020032
    $a
    i.GPIO_ReadBit
    GPIO_ReadBit
        0x000030c8:    e59f201c    . ..    LDR      r2,[pc,#28] ; [0x30ec] = 0xb8003000
        0x000030cc:    e0800002    ....    ADD      r0,r0,r2
        0x000030d0:    e5900008    ....    LDR      r0,[r0,#8]
        0x000030d4:    e1100001    ....    TST      r0,r1
        0x000030d8:    0a000001    ....    BEQ      0x30e4 ; GPIO_ReadBit + 28
        0x000030dc:    e3a00001    ....    MOV      r0,#1
        0x000030e0:    e12fff1e    ../.    BX       lr
        0x000030e4:    e3a00000    ....    MOV      r0,#0
        0x000030e8:    e12fff1e    ../.    BX       lr
    $d
        0x000030ec:    b8003000    .0..    DCD    3087020032
    $a
    i.GPIO_Set
    GPIO_Set
        0x000030f0:    e59f2014    . ..    LDR      r2,[pc,#20] ; [0x310c] = 0xb8003000
        0x000030f4:    e0800002    ....    ADD      r0,r0,r2
        0x000030f8:    e5902004    . ..    LDR      r2,[r0,#4]
        0x000030fc:    e1811002    ....    ORR      r1,r1,r2
        0x00003100:    e5801004    ....    STR      r1,[r0,#4]
        0x00003104:    e3a00000    ....    MOV      r0,#0
        0x00003108:    e12fff1e    ../.    BX       lr
    $d
        0x0000310c:    b8003000    .0..    DCD    3087020032
    $a
    i.IIC_Init
    IIC_Init
        0x00003110:    e92d4010    .@-.    PUSH     {r4,lr}
        0x00003114:    e59f00d4    ....    LDR      r0,[pc,#212] ; [0x31f0] = 0xb0000094
        0x00003118:    e3a02000    . ..    MOV      r2,#0
        0x0000311c:    e3a010ff    ....    MOV      r1,#0xff
        0x00003120:    eb0004d4    ....    BL       REG_OPERATE ; 0x4478
        0x00003124:    e3a03001    .0..    MOV      r3,#1
        0x00003128:    e1a02003    . ..    MOV      r2,r3
        0x0000312c:    e3a01c02    ....    MOV      r1,#0x200
        0x00003130:    e3a00c01    ....    MOV      r0,#0x100
        0x00003134:    ebffffc3    ....    BL       GPIO_OpenBit ; 0x3048
        0x00003138:    e3a03001    .0..    MOV      r3,#1
        0x0000313c:    e3a01c01    ....    MOV      r1,#0x100
        0x00003140:    e1a02003    . ..    MOV      r2,r3
        0x00003144:    e1a00001    ....    MOV      r0,r1
        0x00003148:    ebffffbe    ....    BL       GPIO_OpenBit ; 0x3048
        0x0000314c:    e3a01c02    ....    MOV      r1,#0x200
        0x00003150:    e3a00c01    ....    MOV      r0,#0x100
        0x00003154:    ebffffe5    ....    BL       GPIO_Set ; 0x30f0
        0x00003158:    e3a01c01    ....    MOV      r1,#0x100
        0x0000315c:    e1a00001    ....    MOV      r0,r1
        0x00003160:    ebffffe2    ....    BL       GPIO_Set ; 0x30f0
        0x00003164:    e59f0088    ....    LDR      r0,[pc,#136] ; [0x31f4] = 0xb0000090
        0x00003168:    e3a02000    . ..    MOV      r2,#0
        0x0000316c:    e3a0120f    ....    MOV      r1,#0xf0000000
        0x00003170:    eb0004c0    ....    BL       REG_OPERATE ; 0x4478
        0x00003174:    e3a03001    .0..    MOV      r3,#1
        0x00003178:    e3a02000    . ..    MOV      r2,#0
        0x0000317c:    e3a01080    ....    MOV      r1,#0x80
        0x00003180:    e3a00c01    ....    MOV      r0,#0x100
        0x00003184:    ebffffaf    ....    BL       GPIO_OpenBit ; 0x3048
        0x00003188:    e3a02004    . ..    MOV      r2,#4
        0x0000318c:    e3a01080    ....    MOV      r1,#0x80
        0x00003190:    e3a00c01    ....    MOV      r0,#0x100
        0x00003194:    ebffff53    S...    BL       GPIO_EnableTriggerType ; 0x2ee8
        0x00003198:    e59f1058    X...    LDR      r1,[pc,#88] ; [0x31f8] = 0x2cd0
        0x0000319c:    e3a02000    . ..    MOV      r2,#0
        0x000031a0:    e3a00c01    ....    MOV      r0,#0x100
        0x000031a4:    ebffff3b    ;...    BL       GPIO_EnableInt ; 0x2e98
        0x000031a8:    e59f004c    L...    LDR      r0,[pc,#76] ; [0x31fc] = 0xb000007c
        0x000031ac:    e3a02000    . ..    MOV      r2,#0
        0x000031b0:    e3a01a0f    ....    MOV      r1,#0xf000
        0x000031b4:    eb0004af    ....    BL       REG_OPERATE ; 0x4478
        0x000031b8:    e3a03001    .0..    MOV      r3,#1
        0x000031bc:    e1a02003    . ..    MOV      r2,r3
        0x000031c0:    e3a01b02    ....    MOV      r1,#0x800
        0x000031c4:    e3a00040    @...    MOV      r0,#0x40
        0x000031c8:    ebffff9e    ....    BL       GPIO_OpenBit ; 0x3048
        0x000031cc:    e3a01b02    ....    MOV      r1,#0x800
        0x000031d0:    e3a00040    @...    MOV      r0,#0x40
        0x000031d4:    ebfffefd    ....    BL       GPIO_Clr ; 0x2dd0
        0x000031d8:    e3a00002    ....    MOV      r0,#2
        0x000031dc:    eb0011ab    ....    BL       delay_ms ; 0x7890
        0x000031e0:    e8bd4010    .@..    POP      {r4,lr}
        0x000031e4:    e3a01b02    ....    MOV      r1,#0x800
        0x000031e8:    e3a00040    @...    MOV      r0,#0x40
        0x000031ec:    eaffffbf    ....    B        GPIO_Set ; 0x30f0
    $d
        0x000031f0:    b0000094    ....    DCD    2952790164
        0x000031f4:    b0000090    ....    DCD    2952790160
        0x000031f8:    00002cd0    .,..    DCD    11472
        0x000031fc:    b000007c    |...    DCD    2952790140
    $a
    i.IL2117A_InitHard
    IL2117A_InitHard
        0x00003200:    e12fff1e    ../.    BX       lr
    i.LIN_HANDLE
    LIN_HANDLE
        0x00003204:    e92d403e    >@-.    PUSH     {r1-r5,lr}
        0x00003208:    e1a01400    ....    LSL      r1,r0,#8
        0x0000320c:    e281432e    .C..    ADD      r4,r1,#0xb8000000
        0x00003210:    e594101c    ....    LDR      r1,[r4,#0x1c]
        0x00003214:    e58d1008    ....    STR      r1,[sp,#8]
        0x00003218:    e5941018    ....    LDR      r1,[r4,#0x18]
        0x0000321c:    e58d1004    ....    STR      r1,[sp,#4]
        0x00003220:    e5941038    8...    LDR      r1,[r4,#0x38]
        0x00003224:    e58d1000    ....    STR      r1,[sp,#0]
        0x00003228:    e59d1008    ....    LDR      r1,[sp,#8]
        0x0000322c:    e3a05001    .P..    MOV      r5,#1
        0x00003230:    e3110902    ....    TST      r1,#0x8000
        0x00003234:    0a000009    ....    BEQ      0x3260 ; LIN_HANDLE + 92
        0x00003238:    e59d1000    ....    LDR      r1,[sp,#0]
        0x0000323c:    e3110001    ....    TST      r1,#1
        0x00003240:    0a000000    ....    BEQ      0x3248 ; LIN_HANDLE + 68
        0x00003244:    e5845038    8P..    STR      r5,[r4,#0x38]
        0x00003248:    e59d1000    ....    LDR      r1,[sp,#0]
        0x0000324c:    e311000e    ....    TST      r1,#0xe
        0x00003250:    0a000002    ....    BEQ      0x3260 ; LIN_HANDLE + 92
        0x00003254:    e3a0100e    ....    MOV      r1,#0xe
        0x00003258:    e58d1000    ....    STR      r1,[sp,#0]
        0x0000325c:    e5841038    8...    STR      r1,[r4,#0x38]
        0x00003260:    e59d1008    ....    LDR      r1,[sp,#8]
        0x00003264:    e3110011    ....    TST      r1,#0x11
        0x00003268:    0a000000    ....    BEQ      0x3270 ; LIN_HANDLE + 108
        0x0000326c:    eb000ef8    ....    BL       _uartReceiveChars ; 0x6e54
        0x00003270:    e59d0008    ....    LDR      r0,[sp,#8]
        0x00003274:    e3100004    ....    TST      r0,#4
        0x00003278:    0a000006    ....    BEQ      0x3298 ; LIN_HANDLE + 148
        0x0000327c:    e5940018    ....    LDR      r0,[r4,#0x18]
        0x00003280:    e58d0004    ....    STR      r0,[sp,#4]
        0x00003284:    e59d0004    ....    LDR      r0,[sp,#4]
        0x00003288:    e3100040    @...    TST      r0,#0x40
        0x0000328c:    0a000001    ....    BEQ      0x3298 ; LIN_HANDLE + 148
        0x00003290:    e59f0004    ....    LDR      r0,[pc,#4] ; [0x329c] = 0xd9ec
        0x00003294:    e5c05001    .P..    STRB     r5,[r0,#1]
        0x00003298:    e8bd803e    >...    POP      {r1-r5,pc}
    $d
        0x0000329c:    0000d9ec    ....    DCD    55788
    $a
    i.LOW_POWER_cyw
    LOW_POWER_cyw
        0x000032a0:    e92d4008    .@-.    PUSH     {r3,lr}
        0x000032a4:    e3a08000    ....    MOV      r8,#0
        0x000032a8:    e58d8000    ....    STR      r8,[sp,#0]
        0x000032ac:    eb00142f    /...    BL       power_save ; 0x8370
        0x000032b0:    e59f06e8    ....    LDR      r0,[pc,#1768] ; [0x39a0] = 0xd630
        0x000032b4:    e3a01001    ....    MOV      r1,#1
        0x000032b8:    e5c01001    ....    STRB     r1,[r0,#1]
        0x000032bc:    e59f16e0    ....    LDR      r1,[pc,#1760] ; [0x39a4] = 0xd615
        0x000032c0:    e5d11000    ....    LDRB     r1,[r1,#0]
        0x000032c4:    e3510001    ..Q.    CMP      r1,#1
        0x000032c8:    0a0001b0    ....    BEQ      0x3990 ; LOW_POWER_cyw + 1776
        0x000032cc:    e5d00000    ....    LDRB     r0,[r0,#0]
        0x000032d0:    e3500001    ..P.    CMP      r0,#1
        0x000032d4:    0a0001ad    ....    BEQ      0x3990 ; LOW_POWER_cyw + 1776
        0x000032d8:    e59f06c8    ....    LDR      r0,[pc,#1736] ; [0x39a8] = 0xd4c0
        0x000032dc:    e5d00000    ....    LDRB     r0,[r0,#0]
        0x000032e0:    e3500003    ..P.    CMP      r0,#3
        0x000032e4:    1a0001a9    ....    BNE      0x3990 ; LOW_POWER_cyw + 1776
        0x000032e8:    e3a04001    .@..    MOV      r4,#1
        0x000032ec:    e59fb6b8    ....    LDR      r11,[pc,#1720] ; [0x39ac] = 0x10504
        0x000032f0:    e59f96b8    ....    LDR      r9,[pc,#1720] ; [0x39b0] = 0xd548
        0x000032f4:    e59f76b8    .v..    LDR      r7,[pc,#1720] ; [0x39b4] = 0x21d80
        0x000032f8:    e59f56b8    .V..    LDR      r5,[pc,#1720] ; [0x39b8] = 0xddcc
        0x000032fc:    e59f66b8    .f..    LDR      r6,[pc,#1720] ; [0x39bc] = 0xdbcc
        0x00003300:    e086a204    ....    ADD      r10,r6,r4,LSL #4
        0x00003304:    e59a0008    ....    LDR      r0,[r10,#8]
        0x00003308:    e3500008    ..P.    CMP      r0,#8
        0x0000330c:    308ff100    ...0    ADDCC    pc,pc,r0,LSL #2
        0x00003310:    ea000184    ....    B        0x3928 ; LOW_POWER_cyw + 1672
        0x00003314:    ea000183    ....    B        0x3928 ; LOW_POWER_cyw + 1672
        0x00003318:    ea000005    ....    B        0x3334 ; LOW_POWER_cyw + 148
        0x0000331c:    ea000014    ....    B        0x3374 ; LOW_POWER_cyw + 212
        0x00003320:    ea000038    8...    B        0x3408 ; LOW_POWER_cyw + 360
        0x00003324:    ea000043    C...    B        0x3438 ; LOW_POWER_cyw + 408
        0x00003328:    ea000066    f...    B        0x34c8 ; LOW_POWER_cyw + 552
        0x0000332c:    ea000065    e...    B        0x34c8 ; LOW_POWER_cyw + 552
        0x00003330:    ea000076    v...    B        0x3510 ; LOW_POWER_cyw + 624
        0x00003334:    e5d90000    ....    LDRB     r0,[r9,#0]
        0x00003338:    e1500004    ..P.    CMP      r0,r4
        0x0000333c:    0a000181    ....    BEQ      0x3948 ; LOW_POWER_cyw + 1704
        0x00003340:    e5db0003    ....    LDRB     r0,[r11,#3]
        0x00003344:    e35000f0    ..P.    CMP      r0,#0xf0
        0x00003348:    2a00017e    ~..*    BCS      0x3948 ; LOW_POWER_cyw + 1704
        0x0000334c:    e7961204    ....    LDR      r1,[r6,r4,LSL #4]
        0x00003350:    e1a00220     ...    LSR      r0,r0,#4
        0x00003354:    e2811405    ....    ADD      r1,r1,#0x5000000
        0x00003358:    e28118fa    ....    ADD      r1,r1,#0xfa0000
        0x0000335c:    e1a015a1    ....    LSR      r1,r1,#11
        0x00003360:    e0811300    ....    ADD      r1,r1,r0,LSL #6
        0x00003364:    e7950104    ....    LDR      r0,[r5,r4,LSL #2]
        0x00003368:    e3a02001    . ..    MOV      r2,#1
        0x0000336c:    eb000862    b...    BL       SDRAM_TO_NANDFLASH ; 0x54fc
        0x00003370:    ea00016c    l...    B        0x3928 ; LOW_POWER_cyw + 1672
        0x00003374:    e5d90000    ....    LDRB     r0,[r9,#0]
        0x00003378:    e1500004    ..P.    CMP      r0,r4
        0x0000337c:    0a000171    q...    BEQ      0x3948 ; LOW_POWER_cyw + 1704
        0x00003380:    e5dba003    ....    LDRB     r10,[r11,#3]
        0x00003384:    e35a00f0    ..Z.    CMP      r10,#0xf0
        0x00003388:    2a00016e    n..*    BCS      0x3948 ; LOW_POWER_cyw + 1704
        0x0000338c:    e59f062c    ,...    LDR      r0,[pc,#1580] ; [0x39c0] = 0xd434
        0x00003390:    e3a01064    d...    MOV      r1,#0x64
        0x00003394:    e5900000    ....    LDR      r0,[r0,#0]
        0x00003398:    ebfff9d0    ....    BL       __aeabi_uidiv ; 0x1ae0
        0x0000339c:    e59f1620     ...    LDR      r1,[pc,#1568] ; [0x39c4] = 0xd554
        0x000033a0:    e59f2620     &..    LDR      r2,[pc,#1568] ; [0x39c8] = 0x51eb85
        0x000033a4:    e1d110b0    ....    LDRH     r1,[r1,#0]
        0x000033a8:    e0010192    ....    MUL      r1,r2,r1
        0x000033ac:    e0800181    ....    ADD      r0,r0,r1,LSL #3
        0x000033b0:    e59f1614    ....    LDR      r1,[pc,#1556] ; [0x39cc] = 0xd430
        0x000033b4:    e5911000    ....    LDR      r1,[r1,#0]
        0x000033b8:    e0410000    ..A.    SUB      r0,r1,r0
        0x000033bc:    e58d0000    ....    STR      r0,[sp,#0]
        0x000033c0:    e7950104    ....    LDR      r0,[r5,r4,LSL #2]
        0x000033c4:    e20a100f    ....    AND      r1,r10,#0xf
        0x000033c8:    e0800681    ....    ADD      r0,r0,r1,LSL #13
        0x000033cc:    e2800004    ....    ADD      r0,r0,#4
        0x000033d0:    e3a02004    . ..    MOV      r2,#4
        0x000033d4:    e1a0100d    ....    MOV      r1,sp
        0x000033d8:    ebfff504    ....    BL       __aeabi_memcpy ; 0x7f0
        0x000033dc:    e7960204    ....    LDR      r0,[r6,r4,LSL #4]
        0x000033e0:    e5db1003    ....    LDRB     r1,[r11,#3]
        0x000033e4:    e2800405    ....    ADD      r0,r0,#0x5000000
        0x000033e8:    e28008fa    ....    ADD      r0,r0,#0xfa0000
        0x000033ec:    e1a005a0    ....    LSR      r0,r0,#11
        0x000033f0:    e1a01221    !...    LSR      r1,r1,#4
        0x000033f4:    e0801301    ....    ADD      r1,r0,r1,LSL #6
        0x000033f8:    e7950104    ....    LDR      r0,[r5,r4,LSL #2]
        0x000033fc:    e3a02001    . ..    MOV      r2,#1
        0x00003400:    eb00083d    =...    BL       SDRAM_TO_NANDFLASH ; 0x54fc
        0x00003404:    ea000147    G...    B        0x3928 ; LOW_POWER_cyw + 1672
        0x00003408:    e59f05c0    ....    LDR      r0,[pc,#1472] ; [0x39d0] = 0xd3e8
        0x0000340c:    e5d00000    ....    LDRB     r0,[r0,#0]
        0x00003410:    e3500000    ..P.    CMP      r0,#0
        0x00003414:    0a00014b    K...    BEQ      0x3948 ; LOW_POWER_cyw + 1704
        0x00003418:    e7960204    ....    LDR      r0,[r6,r4,LSL #4]
        0x0000341c:    e3a02001    . ..    MOV      r2,#1
        0x00003420:    e2800405    ....    ADD      r0,r0,#0x5000000
        0x00003424:    e28008fa    ....    ADD      r0,r0,#0xfa0000
        0x00003428:    e1a015a0    ....    LSR      r1,r0,#11
        0x0000342c:    e7950104    ....    LDR      r0,[r5,r4,LSL #2]
        0x00003430:    eb000831    1...    BL       SDRAM_TO_NANDFLASH ; 0x54fc
        0x00003434:    ea00013b    ;...    B        0x3928 ; LOW_POWER_cyw + 1672
        0x00003438:    e5d90000    ....    LDRB     r0,[r9,#0]
        0x0000343c:    e1500004    ..P.    CMP      r0,r4
        0x00003440:    0a000009    ....    BEQ      0x346c ; LOW_POWER_cyw + 460
        0x00003444:    e7960204    ....    LDR      r0,[r6,r4,LSL #4]
        0x00003448:    e0841084    ....    ADD      r1,r4,r4,LSL #1
        0x0000344c:    e2800405    ....    ADD      r0,r0,#0x5000000
        0x00003450:    e7971101    ....    LDR      r1,[r7,r1,LSL #2]
        0x00003454:    e28008fa    ....    ADD      r0,r0,#0xfa0000
        0x00003458:    e1a005a0    ....    LSR      r0,r0,#11
        0x0000345c:    e0801301    ....    ADD      r1,r0,r1,LSL #6
        0x00003460:    e7950104    ....    LDR      r0,[r5,r4,LSL #2]
        0x00003464:    e3a02001    . ..    MOV      r2,#1
        0x00003468:    eb000823    #...    BL       SDRAM_TO_NANDFLASH ; 0x54fc
        0x0000346c:    e0841084    ....    ADD      r1,r4,r4,LSL #1
        0x00003470:    e0870101    ....    ADD      r0,r7,r1,LSL #2
        0x00003474:    e5902004    . ..    LDR      r2,[r0,#4]
        0x00003478:    e2822001    . ..    ADD      r2,r2,#1
        0x0000347c:    e5802004    . ..    STR      r2,[r0,#4]
        0x00003480:    e2822001    . ..    ADD      r2,r2,#1
        0x00003484:    e3a03035    50..    MOV      r3,#0x35
        0x00003488:    e0020293    ....    MUL      r2,r3,r2
        0x0000348c:    e3a03802    .8..    MOV      r3,#0x20000
        0x00003490:    e1530082    ..S.    CMP      r3,r2,LSL #1
        0x00003494:    2a000123    #..*    BCS      0x3928 ; LOW_POWER_cyw + 1672
        0x00003498:    e5808004    ....    STR      r8,[r0,#4]
        0x0000349c:    e7972101    .!..    LDR      r2,[r7,r1,LSL #2]
        0x000034a0:    e2822001    . ..    ADD      r2,r2,#1
        0x000034a4:    e7872101    .!..    STR      r2,[r7,r1,LSL #2]
        0x000034a8:    e59a3004    .0..    LDR      r3,[r10,#4]
        0x000034ac:    e1530882    ..S.    CMP      r3,r2,LSL #17
        0x000034b0:    8a00011c    ....    BHI      0x3928 ; LOW_POWER_cyw + 1672
        0x000034b4:    e7878101    ....    STR      r8,[r7,r1,LSL #2]
        0x000034b8:    e5901008    ....    LDR      r1,[r0,#8]
        0x000034bc:    e2811001    ....    ADD      r1,r1,#1
        0x000034c0:    e5801008    ....    STR      r1,[r0,#8]
        0x000034c4:    ea000117    ....    B        0x3928 ; LOW_POWER_cyw + 1672
        0x000034c8:    e5d90000    ....    LDRB     r0,[r9,#0]
        0x000034cc:    e1500004    ..P.    CMP      r0,r4
        0x000034d0:    0a00011c    ....    BEQ      0x3948 ; LOW_POWER_cyw + 1704
        0x000034d4:    e59f04f4    ....    LDR      r0,[pc,#1268] ; [0x39d0] = 0xd3e8
        0x000034d8:    e5d00000    ....    LDRB     r0,[r0,#0]
        0x000034dc:    e3500000    ..P.    CMP      r0,#0
        0x000034e0:    0a000118    ....    BEQ      0x3948 ; LOW_POWER_cyw + 1704
        0x000034e4:    e7960204    ....    LDR      r0,[r6,r4,LSL #4]
        0x000034e8:    e0841084    ....    ADD      r1,r4,r4,LSL #1
        0x000034ec:    e2800405    ....    ADD      r0,r0,#0x5000000
        0x000034f0:    e7971101    ....    LDR      r1,[r7,r1,LSL #2]
        0x000034f4:    e28008fa    ....    ADD      r0,r0,#0xfa0000
        0x000034f8:    e1a005a0    ....    LSR      r0,r0,#11
        0x000034fc:    e0801301    ....    ADD      r1,r0,r1,LSL #6
        0x00003500:    e7950104    ....    LDR      r0,[r5,r4,LSL #2]
        0x00003504:    e3a02001    . ..    MOV      r2,#1
        0x00003508:    eb0007fb    ....    BL       SDRAM_TO_NANDFLASH ; 0x54fc
        0x0000350c:    ea000105    ....    B        0x3928 ; LOW_POWER_cyw + 1672
        0x00003510:    e5d90000    ....    LDRB     r0,[r9,#0]
        0x00003514:    e1500004    ..P.    CMP      r0,r4
        0x00003518:    1a000009    ....    BNE      0x3544 ; LOW_POWER_cyw + 676
        0x0000351c:    e7960204    ....    LDR      r0,[r6,r4,LSL #4]
        0x00003520:    e0841084    ....    ADD      r1,r4,r4,LSL #1
        0x00003524:    e2800405    ....    ADD      r0,r0,#0x5000000
        0x00003528:    e7971101    ....    LDR      r1,[r7,r1,LSL #2]
        0x0000352c:    e28008fa    ....    ADD      r0,r0,#0xfa0000
        0x00003530:    e1a005a0    ....    LSR      r0,r0,#11
        0x00003534:    e0801301    ....    ADD      r1,r0,r1,LSL #6
        0x00003538:    e7950104    ....    LDR      r0,[r5,r4,LSL #2]
        0x0000353c:    e3a02001    . ..    MOV      r2,#1
        0x00003540:    eb000168    h...    BL       NANDFLASH_TO_SDRAM ; 0x3ae8
        0x00003544:    e59f0488    ....    LDR      r0,[pc,#1160] ; [0x39d4] = 0xd500
        0x00003548:    e5d00000    ....    LDRB     r0,[r0,#0]
        0x0000354c:    e3100040    @...    TST      r0,#0x40
        0x00003550:    0a000065    e...    BEQ      0x36ec ; LOW_POWER_cyw + 1100
        0x00003554:    e59a000c    ....    LDR      r0,[r10,#0xc]
        0x00003558:    e3a010ef    ....    MOV      r1,#0xef
        0x0000355c:    e0802fa0    ./..    ADD      r2,r0,r0,LSR #31
        0x00003560:    e1a030c2    .0..    ASR      r3,r2,#1
        0x00003564:    e3c22001    . ..    BIC      r2,r2,#1
        0x00003568:    e0400002    ..@.    SUB      r0,r0,r2
        0x0000356c:    e0800003    ....    ADD      r0,r0,r3
        0x00003570:    e2802006    . ..    ADD      r2,r0,#6
        0x00003574:    e0840084    ....    ADD      r0,r4,r4,LSL #1
        0x00003578:    e0870100    ....    ADD      r0,r7,r0,LSL #2
        0x0000357c:    e5903004    .0..    LDR      r3,[r0,#4]
        0x00003580:    e0020293    ....    MUL      r2,r3,r2
        0x00003584:    e7953104    .1..    LDR      r3,[r5,r4,LSL #2]
        0x00003588:    e1a02782    .'..    LSL      r2,r2,#15
        0x0000358c:    e1a027a2    .'..    LSR      r2,r2,#15
        0x00003590:    e7c31002    ....    STRB     r1,[r3,r2]
        0x00003594:    e59a100c    ....    LDR      r1,[r10,#0xc]
        0x00003598:    e0812fa1    ./..    ADD      r2,r1,r1,LSR #31
        0x0000359c:    e1a030c2    .0..    ASR      r3,r2,#1
        0x000035a0:    e3c22001    . ..    BIC      r2,r2,#1
        0x000035a4:    e0411002    ..A.    SUB      r1,r1,r2
        0x000035a8:    e5902004    . ..    LDR      r2,[r0,#4]
        0x000035ac:    e0811003    ....    ADD      r1,r1,r3
        0x000035b0:    e2811006    ....    ADD      r1,r1,#6
        0x000035b4:    e0010192    ....    MUL      r1,r2,r1
        0x000035b8:    e7952104    .!..    LDR      r2,[r5,r4,LSL #2]
        0x000035bc:    e1a01781    ....    LSL      r1,r1,#15
        0x000035c0:    e1a017a1    ....    LSR      r1,r1,#15
        0x000035c4:    e0811002    ....    ADD      r1,r1,r2
        0x000035c8:    e5c18001    ....    STRB     r8,[r1,#1]
        0x000035cc:    e59a100c    ....    LDR      r1,[r10,#0xc]
        0x000035d0:    e0812fa1    ./..    ADD      r2,r1,r1,LSR #31
        0x000035d4:    e1a030c2    .0..    ASR      r3,r2,#1
        0x000035d8:    e3c22001    . ..    BIC      r2,r2,#1
        0x000035dc:    e0411002    ..A.    SUB      r1,r1,r2
        0x000035e0:    e5902004    . ..    LDR      r2,[r0,#4]
        0x000035e4:    e0811003    ....    ADD      r1,r1,r3
        0x000035e8:    e2811006    ....    ADD      r1,r1,#6
        0x000035ec:    e0010192    ....    MUL      r1,r2,r1
        0x000035f0:    e7952104    .!..    LDR      r2,[r5,r4,LSL #2]
        0x000035f4:    e1a01781    ....    LSL      r1,r1,#15
        0x000035f8:    e1a017a1    ....    LSR      r1,r1,#15
        0x000035fc:    e0811002    ....    ADD      r1,r1,r2
        0x00003600:    e5c18002    ....    STRB     r8,[r1,#2]
        0x00003604:    e59a100c    ....    LDR      r1,[r10,#0xc]
        0x00003608:    e0813fa1    .?..    ADD      r3,r1,r1,LSR #31
        0x0000360c:    e1a020c3    . ..    ASR      r2,r3,#1
        0x00003610:    e3c33001    .0..    BIC      r3,r3,#1
        0x00003614:    e0411003    ..A.    SUB      r1,r1,r3
        0x00003618:    e0811002    ....    ADD      r1,r1,r2
        0x0000361c:    e5902004    . ..    LDR      r2,[r0,#4]
        0x00003620:    e2811006    ....    ADD      r1,r1,#6
        0x00003624:    e0010192    ....    MUL      r1,r2,r1
        0x00003628:    e7952104    .!..    LDR      r2,[r5,r4,LSL #2]
        0x0000362c:    e1a01781    ....    LSL      r1,r1,#15
        0x00003630:    e1a017a1    ....    LSR      r1,r1,#15
        0x00003634:    e0811002    ....    ADD      r1,r1,r2
        0x00003638:    e5c18003    ....    STRB     r8,[r1,#3]
        0x0000363c:    e59a100c    ....    LDR      r1,[r10,#0xc]
        0x00003640:    e3a02099    . ..    MOV      r2,#0x99
        0x00003644:    e0813fa1    .?..    ADD      r3,r1,r1,LSR #31
        0x00003648:    e1a0c0c3    ....    ASR      r12,r3,#1
        0x0000364c:    e3c33001    .0..    BIC      r3,r3,#1
        0x00003650:    e0411003    ..A.    SUB      r1,r1,r3
        0x00003654:    e5903004    .0..    LDR      r3,[r0,#4]
        0x00003658:    e081100c    ....    ADD      r1,r1,r12
        0x0000365c:    e2811006    ....    ADD      r1,r1,#6
        0x00003660:    e0010193    ....    MUL      r1,r3,r1
        0x00003664:    e7953104    .1..    LDR      r3,[r5,r4,LSL #2]
        0x00003668:    e1a01781    ....    LSL      r1,r1,#15
        0x0000366c:    e1a017a1    ....    LSR      r1,r1,#15
        0x00003670:    e0811003    ....    ADD      r1,r1,r3
        0x00003674:    e5c12004    . ..    STRB     r2,[r1,#4]
        0x00003678:    e59a100c    ....    LDR      r1,[r10,#0xc]
        0x0000367c:    e0813fa1    .?..    ADD      r3,r1,r1,LSR #31
        0x00003680:    e1a0c0c3    ....    ASR      r12,r3,#1
        0x00003684:    e3c33001    .0..    BIC      r3,r3,#1
        0x00003688:    e0411003    ..A.    SUB      r1,r1,r3
        0x0000368c:    e5903004    .0..    LDR      r3,[r0,#4]
        0x00003690:    e081100c    ....    ADD      r1,r1,r12
        0x00003694:    e2811006    ....    ADD      r1,r1,#6
        0x00003698:    e0010193    ....    MUL      r1,r3,r1
        0x0000369c:    e7953104    .1..    LDR      r3,[r5,r4,LSL #2]
        0x000036a0:    e1a01781    ....    LSL      r1,r1,#15
        0x000036a4:    e1a017a1    ....    LSR      r1,r1,#15
        0x000036a8:    e0811003    ....    ADD      r1,r1,r3
        0x000036ac:    e5c12005    . ..    STRB     r2,[r1,#5]
        0x000036b0:    e59a100c    ....    LDR      r1,[r10,#0xc]
        0x000036b4:    e5900004    ....    LDR      r0,[r0,#4]
        0x000036b8:    e081cfa1    ....    ADD      r12,r1,r1,LSR #31
        0x000036bc:    e1a030cc    .0..    ASR      r3,r12,#1
        0x000036c0:    e3ccc001    ....    BIC      r12,r12,#1
        0x000036c4:    e041100c    ..A.    SUB      r1,r1,r12
        0x000036c8:    e0811003    ....    ADD      r1,r1,r3
        0x000036cc:    e2811006    ....    ADD      r1,r1,#6
        0x000036d0:    e0000091    ....    MUL      r0,r1,r0
        0x000036d4:    e7951104    ....    LDR      r1,[r5,r4,LSL #2]
        0x000036d8:    e1a00780    ....    LSL      r0,r0,#15
        0x000036dc:    e1a007a0    ....    LSR      r0,r0,#15
        0x000036e0:    e0800001    ....    ADD      r0,r0,r1
        0x000036e4:    e5c02006    . ..    STRB     r2,[r0,#6]
        0x000036e8:    ea00006a    j...    B        0x3898 ; LOW_POWER_cyw + 1528
        0x000036ec:    e59a000c    ....    LDR      r0,[r10,#0xc]
        0x000036f0:    e3a010ef    ....    MOV      r1,#0xef
        0x000036f4:    e0802fa0    ./..    ADD      r2,r0,r0,LSR #31
        0x000036f8:    e1a030c2    .0..    ASR      r3,r2,#1
        0x000036fc:    e3c22001    . ..    BIC      r2,r2,#1
        0x00003700:    e0400002    ..@.    SUB      r0,r0,r2
        0x00003704:    e0800003    ....    ADD      r0,r0,r3
        0x00003708:    e2802006    . ..    ADD      r2,r0,#6
        0x0000370c:    e0840084    ....    ADD      r0,r4,r4,LSL #1
        0x00003710:    e0870100    ....    ADD      r0,r7,r0,LSL #2
        0x00003714:    e5903004    .0..    LDR      r3,[r0,#4]
        0x00003718:    e0020293    ....    MUL      r2,r3,r2
        0x0000371c:    e7953104    .1..    LDR      r3,[r5,r4,LSL #2]
        0x00003720:    e1a02782    .'..    LSL      r2,r2,#15
        0x00003724:    e1a027a2    .'..    LSR      r2,r2,#15
        0x00003728:    e7c31002    ....    STRB     r1,[r3,r2]
        0x0000372c:    e59a200c    . ..    LDR      r2,[r10,#0xc]
        0x00003730:    e59f12a0    ....    LDR      r1,[pc,#672] ; [0x39d8] = 0xd45e
        0x00003734:    e0823fa2    .?..    ADD      r3,r2,r2,LSR #31
        0x00003738:    e1a0e0c3    ....    ASR      lr,r3,#1
        0x0000373c:    e3c33001    .0..    BIC      r3,r3,#1
        0x00003740:    e0422003    . B.    SUB      r2,r2,r3
        0x00003744:    e5903004    .0..    LDR      r3,[r0,#4]
        0x00003748:    e082200e    . ..    ADD      r2,r2,lr
        0x0000374c:    e2822006    . ..    ADD      r2,r2,#6
        0x00003750:    e0020293    ....    MUL      r2,r3,r2
        0x00003754:    e5d1c000    ....    LDRB     r12,[r1,#0]
        0x00003758:    e7953104    .1..    LDR      r3,[r5,r4,LSL #2]
        0x0000375c:    e1a02782    .'..    LSL      r2,r2,#15
        0x00003760:    e1a027a2    .'..    LSR      r2,r2,#15
        0x00003764:    e0822003    . ..    ADD      r2,r2,r3
        0x00003768:    e5c2c001    ....    STRB     r12,[r2,#1]
        0x0000376c:    e59a200c    . ..    LDR      r2,[r10,#0xc]
        0x00003770:    e5d1c001    ....    LDRB     r12,[r1,#1]
        0x00003774:    e0823fa2    .?..    ADD      r3,r2,r2,LSR #31
        0x00003778:    e1a0e0c3    ....    ASR      lr,r3,#1
        0x0000377c:    e3c33001    .0..    BIC      r3,r3,#1
        0x00003780:    e0422003    . B.    SUB      r2,r2,r3
        0x00003784:    e5903004    .0..    LDR      r3,[r0,#4]
        0x00003788:    e082200e    . ..    ADD      r2,r2,lr
        0x0000378c:    e2822006    . ..    ADD      r2,r2,#6
        0x00003790:    e0020293    ....    MUL      r2,r3,r2
        0x00003794:    e7953104    .1..    LDR      r3,[r5,r4,LSL #2]
        0x00003798:    e1a02782    .'..    LSL      r2,r2,#15
        0x0000379c:    e1a027a2    .'..    LSR      r2,r2,#15
        0x000037a0:    e0822003    . ..    ADD      r2,r2,r3
        0x000037a4:    e5c2c002    ....    STRB     r12,[r2,#2]
        0x000037a8:    e59a200c    . ..    LDR      r2,[r10,#0xc]
        0x000037ac:    e5d1c002    ....    LDRB     r12,[r1,#2]
        0x000037b0:    e0823fa2    .?..    ADD      r3,r2,r2,LSR #31
        0x000037b4:    e1a0e0c3    ....    ASR      lr,r3,#1
        0x000037b8:    e3c33001    .0..    BIC      r3,r3,#1
        0x000037bc:    e0422003    . B.    SUB      r2,r2,r3
        0x000037c0:    e5903004    .0..    LDR      r3,[r0,#4]
        0x000037c4:    e082200e    . ..    ADD      r2,r2,lr
        0x000037c8:    e2822006    . ..    ADD      r2,r2,#6
        0x000037cc:    e0020293    ....    MUL      r2,r3,r2
        0x000037d0:    e7953104    .1..    LDR      r3,[r5,r4,LSL #2]
        0x000037d4:    e1a02782    .'..    LSL      r2,r2,#15
        0x000037d8:    e1a027a2    .'..    LSR      r2,r2,#15
        0x000037dc:    e0822003    . ..    ADD      r2,r2,r3
        0x000037e0:    e5c2c003    ....    STRB     r12,[r2,#3]
        0x000037e4:    e59a200c    . ..    LDR      r2,[r10,#0xc]
        0x000037e8:    e5d1c003    ....    LDRB     r12,[r1,#3]
        0x000037ec:    e0823fa2    .?..    ADD      r3,r2,r2,LSR #31
        0x000037f0:    e1a0e0c3    ....    ASR      lr,r3,#1
        0x000037f4:    e3c33001    .0..    BIC      r3,r3,#1
        0x000037f8:    e0422003    . B.    SUB      r2,r2,r3
        0x000037fc:    e5903004    .0..    LDR      r3,[r0,#4]
        0x00003800:    e082200e    . ..    ADD      r2,r2,lr
        0x00003804:    e2822006    . ..    ADD      r2,r2,#6
        0x00003808:    e0020293    ....    MUL      r2,r3,r2
        0x0000380c:    e7953104    .1..    LDR      r3,[r5,r4,LSL #2]
        0x00003810:    e1a02782    .'..    LSL      r2,r2,#15
        0x00003814:    e1a027a2    .'..    LSR      r2,r2,#15
        0x00003818:    e0822003    . ..    ADD      r2,r2,r3
        0x0000381c:    e5c2c004    ....    STRB     r12,[r2,#4]
        0x00003820:    e59a200c    . ..    LDR      r2,[r10,#0xc]
        0x00003824:    e5d1c004    ....    LDRB     r12,[r1,#4]
        0x00003828:    e0823fa2    .?..    ADD      r3,r2,r2,LSR #31
        0x0000382c:    e1a0e0c3    ....    ASR      lr,r3,#1
        0x00003830:    e3c33001    .0..    BIC      r3,r3,#1
        0x00003834:    e0422003    . B.    SUB      r2,r2,r3
        0x00003838:    e5903004    .0..    LDR      r3,[r0,#4]
        0x0000383c:    e082200e    . ..    ADD      r2,r2,lr
        0x00003840:    e2822006    . ..    ADD      r2,r2,#6
        0x00003844:    e0020293    ....    MUL      r2,r3,r2
        0x00003848:    e7953104    .1..    LDR      r3,[r5,r4,LSL #2]
        0x0000384c:    e1a02782    .'..    LSL      r2,r2,#15
        0x00003850:    e1a027a2    .'..    LSR      r2,r2,#15
        0x00003854:    e0822003    . ..    ADD      r2,r2,r3
        0x00003858:    e5c2c005    ....    STRB     r12,[r2,#5]
        0x0000385c:    e5d12005    . ..    LDRB     r2,[r1,#5]
        0x00003860:    e59a100c    ....    LDR      r1,[r10,#0xc]
        0x00003864:    e5900004    ....    LDR      r0,[r0,#4]
        0x00003868:    e081cfa1    ....    ADD      r12,r1,r1,LSR #31
        0x0000386c:    e1a030cc    .0..    ASR      r3,r12,#1
        0x00003870:    e3ccc001    ....    BIC      r12,r12,#1
        0x00003874:    e041100c    ..A.    SUB      r1,r1,r12
        0x00003878:    e0811003    ....    ADD      r1,r1,r3
        0x0000387c:    e2811006    ....    ADD      r1,r1,#6
        0x00003880:    e0000091    ....    MUL      r0,r1,r0
        0x00003884:    e7951104    ....    LDR      r1,[r5,r4,LSL #2]
        0x00003888:    e1a00780    ....    LSL      r0,r0,#15
        0x0000388c:    e1a007a0    ....    LSR      r0,r0,#15
        0x00003890:    e0800001    ....    ADD      r0,r0,r1
        0x00003894:    e5c02006    . ..    STRB     r2,[r0,#6]
        0x00003898:    e7960204    ....    LDR      r0,[r6,r4,LSL #4]
        0x0000389c:    e0846084    .`..    ADD      r6,r4,r4,LSL #1
        0x000038a0:    e2800405    ....    ADD      r0,r0,#0x5000000
        0x000038a4:    e7971106    ....    LDR      r1,[r7,r6,LSL #2]
        0x000038a8:    e28008fa    ....    ADD      r0,r0,#0xfa0000
        0x000038ac:    e1a005a0    ....    LSR      r0,r0,#11
        0x000038b0:    e0801301    ....    ADD      r1,r0,r1,LSL #6
        0x000038b4:    e7950104    ....    LDR      r0,[r5,r4,LSL #2]
        0x000038b8:    e3a02001    . ..    MOV      r2,#1
        0x000038bc:    eb00070e    ....    BL       SDRAM_TO_NANDFLASH ; 0x54fc
        0x000038c0:    e0870106    ....    ADD      r0,r7,r6,LSL #2
        0x000038c4:    e5901004    ....    LDR      r1,[r0,#4]
        0x000038c8:    e2812001    . ..    ADD      r2,r1,#1
        0x000038cc:    e5802004    . ..    STR      r2,[r0,#4]
        0x000038d0:    e59a100c    ....    LDR      r1,[r10,#0xc]
        0x000038d4:    e2822001    . ..    ADD      r2,r2,#1
        0x000038d8:    e081cfa1    ....    ADD      r12,r1,r1,LSR #31
        0x000038dc:    e1a030cc    .0..    ASR      r3,r12,#1
        0x000038e0:    e3ccc001    ....    BIC      r12,r12,#1
        0x000038e4:    e041100c    ..A.    SUB      r1,r1,r12
        0x000038e8:    e0811003    ....    ADD      r1,r1,r3
        0x000038ec:    e2811006    ....    ADD      r1,r1,#6
        0x000038f0:    e0010192    ....    MUL      r1,r2,r1
        0x000038f4:    e3510802    ..Q.    CMP      r1,#0x20000
        0x000038f8:    9a00000a    ....    BLS      0x3928 ; LOW_POWER_cyw + 1672
        0x000038fc:    e5808004    ....    STR      r8,[r0,#4]
        0x00003900:    e7971106    ....    LDR      r1,[r7,r6,LSL #2]
        0x00003904:    e2811001    ....    ADD      r1,r1,#1
        0x00003908:    e7871106    ....    STR      r1,[r7,r6,LSL #2]
        0x0000390c:    e59a2004    . ..    LDR      r2,[r10,#4]
        0x00003910:    e1520881    ..R.    CMP      r2,r1,LSL #17
        0x00003914:    8a000003    ....    BHI      0x3928 ; LOW_POWER_cyw + 1672
        0x00003918:    e7878106    ....    STR      r8,[r7,r6,LSL #2]
        0x0000391c:    e5901008    ....    LDR      r1,[r0,#8]
        0x00003920:    e2811001    ....    ADD      r1,r1,#1
        0x00003924:    e5801008    ....    STR      r1,[r0,#8]
        0x00003928:    e7950104    ....    LDR      r0,[r5,r4,LSL #2]
        0x0000392c:    e3500000    ..P.    CMP      r0,#0
        0x00003930:    0a000004    ....    BEQ      0x3948 ; LOW_POWER_cyw + 1704
        0x00003934:    e59f60a0    .`..    LDR      r6,[pc,#160] ; [0x39dc] = 0xde0c
        0x00003938:    e7960104    ....    LDR      r0,[r6,r4,LSL #2]
        0x0000393c:    fbfff28f    ....    BLX      free ; 0x382
        0x00003940:    e7858104    ....    STR      r8,[r5,r4,LSL #2]
        0x00003944:    e7868104    ....    STR      r8,[r6,r4,LSL #2]
        0x00003948:    e2840001    ....    ADD      r0,r4,#1
        0x0000394c:    e20040ff    .@..    AND      r4,r0,#0xff
        0x00003950:    e3540010    ..T.    CMP      r4,#0x10
        0x00003954:    3afffe68    h..:    BCC      0x32fc ; LOW_POWER_cyw + 92
        0x00003958:    e59f0080    ....    LDR      r0,[pc,#128] ; [0x39e0] = 0xd510
        0x0000395c:    e3a01008    ....    MOV      r1,#8
        0x00003960:    e5900000    ....    LDR      r0,[r0,#0]
        0x00003964:    e5c01368    h...    STRB     r1,[r0,#0x368]
        0x00003968:    e5c0138c    ....    STRB     r1,[r0,#0x38c]
        0x0000396c:    eb001068    h...    BL       field_info_save ; 0x7b14
        0x00003970:    eb000add    ....    BL       WriteAreaConfig_new ; 0x64ec
        0x00003974:    eb002200    ."..    BL       write_para_to_sdram ; 0xc17c
        0x00003978:    eb000e71    q...    BL       basedata_ram_to_sdram ; 0x7344
        0x0000397c:    e59f0064    d...    LDR      r0,[pc,#100] ; [0x39e8] = 0xd474
        0x00003980:    e59f105c    \...    LDR      r1,[pc,#92] ; [0x39e4] = 0x17f40
        0x00003984:    e5900000    ....    LDR      r0,[r0,#0]
        0x00003988:    e3a02001    . ..    MOV      r2,#1
        0x0000398c:    eb0006da    ....    BL       SDRAM_TO_NANDFLASH ; 0x54fc
        0x00003990:    e59f0054    T...    LDR      r0,[pc,#84] ; [0x39ec] = 0xb000d8c0
        0x00003994:    e5808000    ....    STR      r8,[r0,#0]
        0x00003998:    eb001269    i...    BL       power_checkreset ; 0x8344
        0x0000399c:    eafffffe    ....    B        0x399c ; LOW_POWER_cyw + 1788
    $d
        0x000039a0:    0000d630    0...    DCD    54832
        0x000039a4:    0000d615    ....    DCD    54805
        0x000039a8:    0000d4c0    ....    DCD    54464
        0x000039ac:    00010504    ....    DCD    66820
        0x000039b0:    0000d548    H...    DCD    54600
        0x000039b4:    00021d80    ....    DCD    138624
        0x000039b8:    0000ddcc    ....    DCD    56780
        0x000039bc:    0000dbcc    ....    DCD    56268
        0x000039c0:    0000d434    4...    DCD    54324
        0x000039c4:    0000d554    T...    DCD    54612
        0x000039c8:    0051eb85    ..Q.    DCD    5368709
        0x000039cc:    0000d430    0...    DCD    54320
        0x000039d0:    0000d3e8    ....    DCD    54248
        0x000039d4:    0000d500    ....    DCD    54528
        0x000039d8:    0000d45e    ^...    DCD    54366
        0x000039dc:    0000de0c    ....    DCD    56844
        0x000039e0:    0000d510    ....    DCD    54544
        0x000039e4:    00017f40    @...    DCD    98112
        0x000039e8:    0000d474    t...    DCD    54388
        0x000039ec:    b000d8c0    ....    DCD    2952845504
    $a
    i.LVD_IRQHandler
    LVD_IRQHandler
        0x000039f0:    e59f003c    <...    LDR      r0,[pc,#60] ; [0x3a34] = 0xd630
        0x000039f4:    e5d00001    ....    LDRB     r0,[r0,#1]
        0x000039f8:    e3500000    ..P.    CMP      r0,#0
        0x000039fc:    0a000005    ....    BEQ      0x3a18 ; LVD_IRQHandler + 40
        0x00003a00:    e3a00d07    ....    MOV      r0,#0x1c0
        0x00003a04:    ebfffcff    ....    BL       GPIO_DisableInt ; 0x2e08
        0x00003a08:    e59f1028    (...    LDR      r1,[pc,#40] ; [0x3a38] = 0xb000d8c0
        0x00003a0c:    e3a00000    ....    MOV      r0,#0
        0x00003a10:    e5810000    ....    STR      r0,[r1,#0]
        0x00003a14:    eafffffe    ....    B        0x3a14 ; LVD_IRQHandler + 36
        0x00003a18:    e3a00d07    ....    MOV      r0,#0x1c0
        0x00003a1c:    ebfffcf9    ....    BL       GPIO_DisableInt ; 0x2e08
        0x00003a20:    e59f0014    ....    LDR      r0,[pc,#20] ; [0x3a3c] = 0xb0000020
        0x00003a24:    e3a02000    . ..    MOV      r2,#0
        0x00003a28:    e3a01001    ....    MOV      r1,#1
        0x00003a2c:    eb000291    ....    BL       REG_OPERATE ; 0x4478
        0x00003a30:    ebfffe1a    ....    BL       LOW_POWER_cyw ; 0x32a0
    $d
        0x00003a34:    0000d630    0...    DCD    54832
        0x00003a38:    b000d8c0    ....    DCD    2952845504
        0x00003a3c:    b0000020     ...    DCD    2952790048
    $a
    i.LVD_init_irq
    LVD_init_irq
        0x00003a40:    e92d4010    .@-.    PUSH     {r4,lr}
        0x00003a44:    e59f4060    `@..    LDR      r4,[pc,#96] ; [0x3aac] = 0xb0000020
        0x00003a48:    e3a02001    . ..    MOV      r2,#1
        0x00003a4c:    e3a01c03    ....    MOV      r1,#0x300
        0x00003a50:    e1a00004    ....    MOV      r0,r4
        0x00003a54:    eb000287    ....    BL       REG_OPERATE ; 0x4478
        0x00003a58:    e3a02001    . ..    MOV      r2,#1
        0x00003a5c:    e1a01002    ....    MOV      r1,r2
        0x00003a60:    e2840024    $...    ADD      r0,r4,#0x24
        0x00003a64:    eb000283    ....    BL       REG_OPERATE ; 0x4478
        0x00003a68:    e3a02001    . ..    MOV      r2,#1
        0x00003a6c:    e1a01002    ....    MOV      r1,r2
        0x00003a70:    e0840282    ....    ADD      r0,r4,r2,LSL #5
        0x00003a74:    eb00027f    ....    BL       REG_OPERATE ; 0x4478
        0x00003a78:    e59f2030    0 ..    LDR      r2,[pc,#48] ; [0x3ab0] = 0x39f0
        0x00003a7c:    e3a01003    ....    MOV      r1,#3
        0x00003a80:    e3a00007    ....    MOV      r0,#7
        0x00003a84:    eb001b4c    L...    BL       sysInstallISR ; 0xa7bc
        0x00003a88:    e3a00003    ....    MOV      r0,#3
        0x00003a8c:    eb001903    ....    BL       sysEnableInterrupt ; 0x9ea0
        0x00003a90:    e3a0007f    ....    MOV      r0,#0x7f
        0x00003a94:    eb001b85    ....    BL       sysSetLocalInterrupt ; 0xa8b0
        0x00003a98:    e1a00004    ....    MOV      r0,r4
        0x00003a9c:    e8bd4010    .@..    POP      {r4,lr}
        0x00003aa0:    e3a02000    . ..    MOV      r2,#0
        0x00003aa4:    e3a01001    ....    MOV      r1,#1
        0x00003aa8:    ea000272    r...    B        REG_OPERATE ; 0x4478
    $d
        0x00003aac:    b0000020     ...    DCD    2952790048
        0x00003ab0:    000039f0    .9..    DCD    14832
    $a
    i.NANDFLASH_P3PD_INX_SAVE
    NANDFLASH_P3PD_INX_SAVE
        0x00003ab4:    e92d4010    .@-.    PUSH     {r4,lr}
        0x00003ab8:    eb00007b    {...    BL       NANDFLASH_backup_checksum ; 0x3cac
        0x00003abc:    e3a00000    ....    MOV      r0,#0
        0x00003ac0:    eb000084    ....    BL       NAND_EraseBlock ; 0x3cd8
        0x00003ac4:    e3a01000    ....    MOV      r1,#0
        0x00003ac8:    e59f2014    . ..    LDR      r2,[pc,#20] ; [0x3ae4] = 0x20afc
        0x00003acc:    e3a03f55    U?..    MOV      r3,#0x154
        0x00003ad0:    e1a00001    ....    MOV      r0,r1
        0x00003ad4:    eb00018f    ....    BL       NAND_WritePage ; 0x4118
        0x00003ad8:    e8bd4010    .@..    POP      {r4,lr}
        0x00003adc:    e3a00006    ....    MOV      r0,#6
        0x00003ae0:    ea0009e6    ....    B        W25Q128_Write ; 0x6280
    $d
        0x00003ae4:    00020afc    ....    DCD    133884
    $a
    i.NANDFLASH_TO_SDRAM
    NANDFLASH_TO_SDRAM
        0x00003ae8:    e92d4ff7    .O-.    PUSH     {r0-r2,r4-r11,lr}
        0x00003aec:    e24dd010    ..M.    SUB      sp,sp,#0x10
        0x00003af0:    e1a0b001    ....    MOV      r11,r1
        0x00003af4:    e3a06000    .`..    MOV      r6,#0
        0x00003af8:    e3a05000    .P..    MOV      r5,#0
        0x00003afc:    e3a09000    ....    MOV      r9,#0
        0x00003b00:    e58d9000    ....    STR      r9,[sp,#0]
        0x00003b04:    e31b003f    ?...    TST      r11,#0x3f
        0x00003b08:    0a000002    ....    BEQ      0x3b18 ; NANDFLASH_TO_SDRAM + 48
        0x00003b0c:    e3a00000    ....    MOV      r0,#0
        0x00003b10:    e28dd01c    ....    ADD      sp,sp,#0x1c
        0x00003b14:    e8bd8ff0    ....    POP      {r4-r11,pc}
        0x00003b18:    e59d0018    ....    LDR      r0,[sp,#0x18]
        0x00003b1c:    e3500b01    ..P.    CMP      r0,#0x400
        0x00003b20:    9a000050    P...    BLS      0x3c68 ; NANDFLASH_TO_SDRAM + 384
        0x00003b24:    e3a00000    ....    MOV      r0,#0
        0x00003b28:    eafffff8    ....    B        0x3b10 ; NANDFLASH_TO_SDRAM + 40
        0x00003b2c:    e58d9004    ....    STR      r9,[sp,#4]
        0x00003b30:    e58d9008    ....    STR      r9,[sp,#8]
        0x00003b34:    e08b8006    ....    ADD      r8,r11,r6
        0x00003b38:    e58d800c    ....    STR      r8,[sp,#0xc]
        0x00003b3c:    e59f4154    TA..    LDR      r4,[pc,#340] ; [0x3c98] = 0xd4e8
        0x00003b40:    e59d000c    ....    LDR      r0,[sp,#0xc]
        0x00003b44:    e5942024    $ ..    LDR      r2,[r4,#0x24]
        0x00003b48:    e3a03b02    .;..    MOV      r3,#0x800
        0x00003b4c:    e3a01000    ....    MOV      r1,#0
        0x00003b50:    eb0000e3    ....    BL       NAND_ReadPage ; 0x3ee4
        0x00003b54:    e3a00000    ....    MOV      r0,#0
        0x00003b58:    e59d1010    ....    LDR      r1,[sp,#0x10]
        0x00003b5c:    e0811586    ....    ADD      r1,r1,r6,LSL #11
        0x00003b60:    e5942024    $ ..    LDR      r2,[r4,#0x24]
        0x00003b64:    e7d22000    . ..    LDRB     r2,[r2,r0]
        0x00003b68:    e7c12000    . ..    STRB     r2,[r1,r0]
        0x00003b6c:    e2800001    ....    ADD      r0,r0,#1
        0x00003b70:    e3c00801    ....    BIC      r0,r0,#0x10000
        0x00003b74:    e3500b02    ..P.    CMP      r0,#0x800
        0x00003b78:    3afffff8    ...:    BCC      0x3b60 ; NANDFLASH_TO_SDRAM + 120
        0x00003b7c:    e3a00000    ....    MOV      r0,#0
        0x00003b80:    e5941024    $...    LDR      r1,[r4,#0x24]
        0x00003b84:    e59d2000    . ..    LDR      r2,[sp,#0]
        0x00003b88:    e7d13000    .0..    LDRB     r3,[r1,r0]
        0x00003b8c:    e0827003    .p..    ADD      r7,r2,r3
        0x00003b90:    e58d7000    .p..    STR      r7,[sp,#0]
        0x00003b94:    e2800001    ....    ADD      r0,r0,#1
        0x00003b98:    e3500b02    ..P.    CMP      r0,#0x800
        0x00003b9c:    3afffff8    ...:    BCC      0x3b84 ; NANDFLASH_TO_SDRAM + 156
        0x00003ba0:    e3a0003f    ?...    MOV      r0,#0x3f
        0x00003ba4:    e1d00006    ....    BICS     r0,r0,r6
        0x00003ba8:    1a00002d    -...    BNE      0x3c64 ; NANDFLASH_TO_SDRAM + 380
        0x00003bac:    e3a04000    .@..    MOV      r4,#0
        0x00003bb0:    e59fa0e4    ....    LDR      r10,[pc,#228] ; [0x3c9c] = 0xd11c
        0x00003bb4:    e248803f    ?.H.    SUB      r8,r8,#0x3f
        0x00003bb8:    e79a0104    ....    LDR      r0,[r10,r4,LSL #2]
        0x00003bbc:    e1580000    ..X.    CMP      r8,r0
        0x00003bc0:    1a000023    #...    BNE      0x3c54 ; NANDFLASH_TO_SDRAM + 364
        0x00003bc4:    e59f00d4    ....    LDR      r0,[pc,#212] ; [0x3ca0] = 0x21e40
        0x00003bc8:    e7900104    ....    LDR      r0,[r0,r4,LSL #2]
        0x00003bcc:    e1500007    ..P.    CMP      r0,r7
        0x00003bd0:    0a00001f    ....    BEQ      0x3c54 ; NANDFLASH_TO_SDRAM + 364
        0x00003bd4:    e3540006    ..T.    CMP      r4,#6
        0x00003bd8:    308ff104    ...0    ADDCC    pc,pc,r4,LSL #2
        0x00003bdc:    ea00001c    ....    B        0x3c54 ; NANDFLASH_TO_SDRAM + 364
        0x00003be0:    ea000018    ....    B        0x3c48 ; NANDFLASH_TO_SDRAM + 352
        0x00003be4:    ea000013    ....    B        0x3c38 ; NANDFLASH_TO_SDRAM + 336
        0x00003be8:    ea00000e    ....    B        0x3c28 ; NANDFLASH_TO_SDRAM + 320
        0x00003bec:    ea000009    ....    B        0x3c18 ; NANDFLASH_TO_SDRAM + 304
        0x00003bf0:    ea000004    ....    B        0x3c08 ; NANDFLASH_TO_SDRAM + 288
        0x00003bf4:    eaffffff    ....    B        0x3bf8 ; NANDFLASH_TO_SDRAM + 272
        0x00003bf8:    e3a00005    ....    MOV      r0,#5
        0x00003bfc:    eb000940    @...    BL       W25Q128_Read ; 0x6104
        0x00003c00:    eb000dcf    ....    BL       basedata_ram_to_sdram ; 0x7344
        0x00003c04:    ea000012    ....    B        0x3c54 ; NANDFLASH_TO_SDRAM + 364
        0x00003c08:    e3a00004    ....    MOV      r0,#4
        0x00003c0c:    eb00093c    <...    BL       W25Q128_Read ; 0x6104
        0x00003c10:    eb00205c    \ ..    BL       unit_ram_to_sdram ; 0xbd88
        0x00003c14:    ea00000e    ....    B        0x3c54 ; NANDFLASH_TO_SDRAM + 364
        0x00003c18:    e3a00003    ....    MOV      r0,#3
        0x00003c1c:    eb000938    8...    BL       W25Q128_Read ; 0x6104
        0x00003c20:    e3a05001    .P..    MOV      r5,#1
        0x00003c24:    ea00000a    ....    B        0x3c54 ; NANDFLASH_TO_SDRAM + 364
        0x00003c28:    e3a00002    ....    MOV      r0,#2
        0x00003c2c:    eb000934    4...    BL       W25Q128_Read ; 0x6104
        0x00003c30:    e3a05001    .P..    MOV      r5,#1
        0x00003c34:    ea000006    ....    B        0x3c54 ; NANDFLASH_TO_SDRAM + 364
        0x00003c38:    e3a00001    ....    MOV      r0,#1
        0x00003c3c:    eb000930    0...    BL       W25Q128_Read ; 0x6104
        0x00003c40:    e3a05001    .P..    MOV      r5,#1
        0x00003c44:    ea000002    ....    B        0x3c54 ; NANDFLASH_TO_SDRAM + 364
        0x00003c48:    e3a00000    ....    MOV      r0,#0
        0x00003c4c:    eb00092c    ,...    BL       W25Q128_Read ; 0x6104
        0x00003c50:    e3a05001    .P..    MOV      r5,#1
        0x00003c54:    e2844001    .@..    ADD      r4,r4,#1
        0x00003c58:    e3540006    ..T.    CMP      r4,#6
        0x00003c5c:    3affffd5    ...:    BCC      0x3bb8 ; NANDFLASH_TO_SDRAM + 208
        0x00003c60:    e58d9000    ....    STR      r9,[sp,#0]
        0x00003c64:    e2866001    .`..    ADD      r6,r6,#1
        0x00003c68:    e59d0018    ....    LDR      r0,[sp,#0x18]
        0x00003c6c:    e1560300    ..V.    CMP      r6,r0,LSL #6
        0x00003c70:    3affffad    ...:    BCC      0x3b2c ; NANDFLASH_TO_SDRAM + 68
        0x00003c74:    e3550001    ..U.    CMP      r5,#1
        0x00003c78:    1a000004    ....    BNE      0x3c90 ; NANDFLASH_TO_SDRAM + 424
        0x00003c7c:    e59f0020     ...    LDR      r0,[pc,#32] ; [0x3ca4] = 0x10560
        0x00003c80:    e59f1020     ...    LDR      r1,[pc,#32] ; [0x3ca8] = 0x17e40
        0x00003c84:    e5900014    ....    LDR      r0,[r0,#0x14]
        0x00003c88:    e3a02004    . ..    MOV      r2,#4
        0x00003c8c:    eb00061a    ....    BL       SDRAM_TO_NANDFLASH ; 0x54fc
        0x00003c90:    e3a00001    ....    MOV      r0,#1
        0x00003c94:    eaffff9d    ....    B        0x3b10 ; NANDFLASH_TO_SDRAM + 40
    $d
        0x00003c98:    0000d4e8    ....    DCD    54504
        0x00003c9c:    0000d11c    ....    DCD    53532
        0x00003ca0:    00021e40    @...    DCD    138816
        0x00003ca4:    00010560    `...    DCD    66912
        0x00003ca8:    00017e40    @~..    DCD    97856
    $a
    i.NANDFLASH_backup_checksum
    NANDFLASH_backup_checksum
        0x00003cac:    e3a01000    ....    MOV      r1,#0
        0x00003cb0:    e3a00000    ....    MOV      r0,#0
        0x00003cb4:    e59f2018    . ..    LDR      r2,[pc,#24] ; [0x3cd4] = 0x20afc
        0x00003cb8:    e7d23000    .0..    LDRB     r3,[r2,r0]
        0x00003cbc:    e0811003    ....    ADD      r1,r1,r3
        0x00003cc0:    e2800001    ....    ADD      r0,r0,#1
        0x00003cc4:    e3500e15    ..P.    CMP      r0,#0x150
        0x00003cc8:    3afffffa    ...:    BCC      0x3cb8 ; NANDFLASH_backup_checksum + 12
        0x00003ccc:    e5821150    P...    STR      r1,[r2,#0x150]
        0x00003cd0:    e12fff1e    ../.    BX       lr
    $d
        0x00003cd4:    00020afc    ....    DCD    133884
    $a
    i.NAND_EraseBlock
    NAND_EraseBlock
        0x00003cd8:    e92d4010    .@-.    PUSH     {r4,lr}
        0x00003cdc:    e1a00800    ....    LSL      r0,r0,#16
        0x00003ce0:    e1a00820     ...    LSR      r0,r0,#16
        0x00003ce4:    ebfffa03    ....    BL       BAD_BLOCK_CHANGE ; 0x24f8
        0x00003ce8:    e1a00300    ....    LSL      r0,r0,#6
        0x00003cec:    e59f208c    . ..    LDR      r2,[pc,#140] ; [0x3d80] = 0xb000d8b0
        0x00003cf0:    e3a01060    `...    MOV      r1,#0x60
        0x00003cf4:    e5821000    ....    STR      r1,[r2,#0]
        0x00003cf8:    e2821004    ....    ADD      r1,r2,#4
        0x00003cfc:    e5913000    .0..    LDR      r3,[r1,#0]
        0x00003d00:    e200c0ff    ....    AND      r12,r0,#0xff
        0x00003d04:    e3c33102    .1..    BIC      r3,r3,#0x80000000
        0x00003d08:    e3c330ff    .0..    BIC      r3,r3,#0xff
        0x00003d0c:    e183300c    .0..    ORR      r3,r3,r12
        0x00003d10:    e5813000    .0..    STR      r3,[r1,#0]
        0x00003d14:    e5913000    .0..    LDR      r3,[r1,#0]
        0x00003d18:    e1a0c800    ....    LSL      r12,r0,#16
        0x00003d1c:    e3c33102    .1..    BIC      r3,r3,#0x80000000
        0x00003d20:    e3c330ff    .0..    BIC      r3,r3,#0xff
        0x00003d24:    e1833c2c    ,<..    ORR      r3,r3,r12,LSR #24
        0x00003d28:    e5813000    .0..    STR      r3,[r1,#0]
        0x00003d2c:    e5913000    .0..    LDR      r3,[r1,#0]
        0x00003d30:    e3c3c102    ....    BIC      r12,r3,#0x80000000
        0x00003d34:    e3ccc0ff    ....    BIC      r12,r12,#0xff
        0x00003d38:    e18c3820     8..    ORR      r3,r12,r0,LSR #16
        0x00003d3c:    e5813000    .0..    STR      r3,[r1,#0]
        0x00003d40:    e3a03102    .1..    MOV      r3,#0x80000000
        0x00003d44:    e1830c20     ...    ORR      r0,r3,r0,LSR #24
        0x00003d48:    e5810000    ....    STR      r0,[r1,#0]
        0x00003d4c:    e3a000d0    ....    MOV      r0,#0xd0
        0x00003d50:    e5820000    ....    STR      r0,[r2,#0]
        0x00003d54:    eb000027    '...    BL       NAND_GetStatus ; 0x3df8
        0x00003d58:    e3500040    @.P.    CMP      r0,#0x40
        0x00003d5c:    0a000005    ....    BEQ      0x3d78 ; NAND_EraseBlock + 160
        0x00003d60:    e59f001c    ....    LDR      r0,[pc,#28] ; [0x3d84] = 0xd500
        0x00003d64:    e5901000    ....    LDR      r1,[r0,#0]
        0x00003d68:    e3811102    ....    ORR      r1,r1,#0x80000000
        0x00003d6c:    e5801000    ....    STR      r1,[r0,#0]
        0x00003d70:    e3a00001    ....    MOV      r0,#1
        0x00003d74:    e8bd8010    ....    POP      {r4,pc}
        0x00003d78:    e3a00000    ....    MOV      r0,#0
        0x00003d7c:    e8bd8010    ....    POP      {r4,pc}
    $d
        0x00003d80:    b000d8b0    ....    DCD    2952845488
        0x00003d84:    0000d500    ....    DCD    54528
    $a
    i.NAND_GetBusy
    NAND_GetBusy
        0x00003d88:    e92d4008    .@-.    PUSH     {r3,lr}
        0x00003d8c:    e3a00000    ....    MOV      r0,#0
        0x00003d90:    e3a01000    ....    MOV      r1,#0
        0x00003d94:    e58d1000    ....    STR      r1,[sp,#0]
        0x00003d98:    e59f2054    T ..    LDR      r2,[pc,#84] ; [0x3df4] = 0x1ffff
        0x00003d9c:    ea000008    ....    B        0x3dc4 ; NAND_GetBusy + 60
        0x00003da0:    eb0000b9    ....    BL       NAND_ReadStatus ; 0x408c
        0x00003da4:    e3100040    @...    TST      r0,#0x40
        0x00003da8:    0a000001    ....    BEQ      0x3db4 ; NAND_GetBusy + 44
        0x00003dac:    e3a00040    @...    MOV      r0,#0x40
        0x00003db0:    ea000000    ....    B        0x3db8 ; NAND_GetBusy + 48
        0x00003db4:    e3a00000    ....    MOV      r0,#0
        0x00003db8:    e59d1000    ....    LDR      r1,[sp,#0]
        0x00003dbc:    e2811001    ....    ADD      r1,r1,#1
        0x00003dc0:    e58d1000    ....    STR      r1,[sp,#0]
        0x00003dc4:    e3500040    @.P.    CMP      r0,#0x40
        0x00003dc8:    0a000002    ....    BEQ      0x3dd8 ; NAND_GetBusy + 80
        0x00003dcc:    e59d0000    ....    LDR      r0,[sp,#0]
        0x00003dd0:    e1500002    ..P.    CMP      r0,r2
        0x00003dd4:    3afffff1    ...:    BCC      0x3da0 ; NAND_GetBusy + 24
        0x00003dd8:    e59d0000    ....    LDR      r0,[sp,#0]
        0x00003ddc:    e1500002    ..P.    CMP      r0,r2
        0x00003de0:    3a000001    ...:    BCC      0x3dec ; NAND_GetBusy + 100
        0x00003de4:    e3a00002    ....    MOV      r0,#2
        0x00003de8:    e8bd8008    ....    POP      {r3,pc}
        0x00003dec:    e3a00040    @...    MOV      r0,#0x40
        0x00003df0:    e8bd8008    ....    POP      {r3,pc}
    $d
        0x00003df4:    0001ffff    ....    DCD    131071
    $a
    i.NAND_GetStatus
    NAND_GetStatus
        0x00003df8:    e92d4008    .@-.    PUSH     {r3,lr}
        0x00003dfc:    e3a00000    ....    MOV      r0,#0
        0x00003e00:    e3a01000    ....    MOV      r1,#0
        0x00003e04:    e58d1000    ....    STR      r1,[sp,#0]
        0x00003e08:    e59f2064    d ..    LDR      r2,[pc,#100] ; [0x3e74] = 0x1ffff
        0x00003e0c:    ea00000c    ....    B        0x3e44 ; NAND_GetStatus + 76
        0x00003e10:    eb00009d    ....    BL       NAND_ReadStatus ; 0x408c
        0x00003e14:    e3100001    ....    TST      r0,#1
        0x00003e18:    0a000001    ....    BEQ      0x3e24 ; NAND_GetStatus + 44
        0x00003e1c:    e3a00001    ....    MOV      r0,#1
        0x00003e20:    ea000004    ....    B        0x3e38 ; NAND_GetStatus + 64
        0x00003e24:    e3100040    @...    TST      r0,#0x40
        0x00003e28:    0a000001    ....    BEQ      0x3e34 ; NAND_GetStatus + 60
        0x00003e2c:    e3a00040    @...    MOV      r0,#0x40
        0x00003e30:    ea000000    ....    B        0x3e38 ; NAND_GetStatus + 64
        0x00003e34:    e3a00000    ....    MOV      r0,#0
        0x00003e38:    e59d1000    ....    LDR      r1,[sp,#0]
        0x00003e3c:    e2811001    ....    ADD      r1,r1,#1
        0x00003e40:    e58d1000    ....    STR      r1,[sp,#0]
        0x00003e44:    e3500040    @.P.    CMP      r0,#0x40
        0x00003e48:    0a000002    ....    BEQ      0x3e58 ; NAND_GetStatus + 96
        0x00003e4c:    e59d0000    ....    LDR      r0,[sp,#0]
        0x00003e50:    e1500002    ..P.    CMP      r0,r2
        0x00003e54:    3affffed    ...:    BCC      0x3e10 ; NAND_GetStatus + 24
        0x00003e58:    e59d0000    ....    LDR      r0,[sp,#0]
        0x00003e5c:    e1500002    ..P.    CMP      r0,r2
        0x00003e60:    3a000001    ...:    BCC      0x3e6c ; NAND_GetStatus + 116
        0x00003e64:    e3a00002    ....    MOV      r0,#2
        0x00003e68:    e8bd8008    ....    POP      {r3,pc}
        0x00003e6c:    e3a00040    @...    MOV      r0,#0x40
        0x00003e70:    e8bd8008    ....    POP      {r3,pc}
    $d
        0x00003e74:    0001ffff    ....    DCD    131071
    $a
    i.NAND_ReadID
    NAND_ReadID
        0x00003e78:    e59f0058    X...    LDR      r0,[pc,#88] ; [0x3ed8] = 0xb000d8b0
        0x00003e7c:    e5901000    ....    LDR      r1,[r0,#0]
        0x00003e80:    e3c110ff    ....    BIC      r1,r1,#0xff
        0x00003e84:    e3811090    ....    ORR      r1,r1,#0x90
        0x00003e88:    e5801000    ....    STR      r1,[r0,#0]
        0x00003e8c:    e2800004    ....    ADD      r0,r0,#4
        0x00003e90:    e5901000    ....    LDR      r1,[r0,#0]
        0x00003e94:    e3c110ff    ....    BIC      r1,r1,#0xff
        0x00003e98:    e3811102    ....    ORR      r1,r1,#0x80000000
        0x00003e9c:    e5801000    ....    STR      r1,[r0,#0]
        0x00003ea0:    e2800004    ....    ADD      r0,r0,#4
        0x00003ea4:    e5902000    . ..    LDR      r2,[r0,#0]
        0x00003ea8:    e59f102c    ,...    LDR      r1,[pc,#44] ; [0x3edc] = 0xd48c
        0x00003eac:    e5c12000    . ..    STRB     r2,[r1,#0]
        0x00003eb0:    e5902000    . ..    LDR      r2,[r0,#0]
        0x00003eb4:    e5c12001    . ..    STRB     r2,[r1,#1]
        0x00003eb8:    e5902000    . ..    LDR      r2,[r0,#0]
        0x00003ebc:    e5c12002    . ..    STRB     r2,[r1,#2]
        0x00003ec0:    e5902000    . ..    LDR      r2,[r0,#0]
        0x00003ec4:    e5c12003    . ..    STRB     r2,[r1,#3]
        0x00003ec8:    e5900000    ....    LDR      r0,[r0,#0]
        0x00003ecc:    e5c10004    ....    STRB     r0,[r1,#4]
        0x00003ed0:    e59f0008    ....    LDR      r0,[pc,#8] ; [0x3ee0] = 0x5555
        0x00003ed4:    e12fff1e    ../.    BX       lr
    $d
        0x00003ed8:    b000d8b0    ....    DCD    2952845488
        0x00003edc:    0000d48c    ....    DCD    54412
        0x00003ee0:    00005555    UU..    DCD    21845
    $a
    i.NAND_ReadPage
    NAND_ReadPage
        0x00003ee4:    e92d41f0    .A-.    PUSH     {r4-r8,lr}
        0x00003ee8:    e1a04000    .@..    MOV      r4,r0
        0x00003eec:    e1a08001    ....    MOV      r8,r1
        0x00003ef0:    e1a05002    .P..    MOV      r5,r2
        0x00003ef4:    e1a07003    .p..    MOV      r7,r3
        0x00003ef8:    e3a06000    .`..    MOV      r6,#0
        0x00003efc:    e1a00504    ....    LSL      r0,r4,#10
        0x00003f00:    e1a00820     ...    LSR      r0,r0,#16
        0x00003f04:    ebfff97b    {...    BL       BAD_BLOCK_CHANGE ; 0x24f8
        0x00003f08:    e204103f    ?...    AND      r1,r4,#0x3f
        0x00003f0c:    e0814300    .C..    ADD      r4,r1,r0,LSL #6
        0x00003f10:    e59f0124    $...    LDR      r0,[pc,#292] ; [0x403c] = 0xb000d8b0
        0x00003f14:    e5901000    ....    LDR      r1,[r0,#0]
        0x00003f18:    e3c110ff    ....    BIC      r1,r1,#0xff
        0x00003f1c:    e5801000    ....    STR      r1,[r0,#0]
        0x00003f20:    e280c004    ....    ADD      r12,r0,#4
        0x00003f24:    e59c1000    ....    LDR      r1,[r12,#0]
        0x00003f28:    e20820ff    . ..    AND      r2,r8,#0xff
        0x00003f2c:    e3c11102    ....    BIC      r1,r1,#0x80000000
        0x00003f30:    e3c110ff    ....    BIC      r1,r1,#0xff
        0x00003f34:    e1811002    ....    ORR      r1,r1,r2
        0x00003f38:    e58c1000    ....    STR      r1,[r12,#0]
        0x00003f3c:    e59c1000    ....    LDR      r1,[r12,#0]
        0x00003f40:    e3c11102    ....    BIC      r1,r1,#0x80000000
        0x00003f44:    e3c110ff    ....    BIC      r1,r1,#0xff
        0x00003f48:    e1811428    (...    ORR      r1,r1,r8,LSR #8
        0x00003f4c:    e58c1000    ....    STR      r1,[r12,#0]
        0x00003f50:    e59c1000    ....    LDR      r1,[r12,#0]
        0x00003f54:    e20420ff    . ..    AND      r2,r4,#0xff
        0x00003f58:    e3c11102    ....    BIC      r1,r1,#0x80000000
        0x00003f5c:    e3c110ff    ....    BIC      r1,r1,#0xff
        0x00003f60:    e1811002    ....    ORR      r1,r1,r2
        0x00003f64:    e58c1000    ....    STR      r1,[r12,#0]
        0x00003f68:    e59c1000    ....    LDR      r1,[r12,#0]
        0x00003f6c:    e1a02804    .(..    LSL      r2,r4,#16
        0x00003f70:    e3c11102    ....    BIC      r1,r1,#0x80000000
        0x00003f74:    e3c110ff    ....    BIC      r1,r1,#0xff
        0x00003f78:    e1811c22    "...    ORR      r1,r1,r2,LSR #24
        0x00003f7c:    e58c1000    ....    STR      r1,[r12,#0]
        0x00003f80:    e59c1000    ....    LDR      r1,[r12,#0]
        0x00003f84:    e3c12102    .!..    BIC      r2,r1,#0x80000000
        0x00003f88:    e3c220ff    . ..    BIC      r2,r2,#0xff
        0x00003f8c:    e1821824    $...    ORR      r1,r2,r4,LSR #16
        0x00003f90:    e58c1000    ....    STR      r1,[r12,#0]
        0x00003f94:    e59c1000    ....    LDR      r1,[r12,#0]
        0x00003f98:    e3c110ff    ....    BIC      r1,r1,#0xff
        0x00003f9c:    e1811c24    $...    ORR      r1,r1,r4,LSR #24
        0x00003fa0:    e3811102    ....    ORR      r1,r1,#0x80000000
        0x00003fa4:    e58c1000    ....    STR      r1,[r12,#0]
        0x00003fa8:    e5901000    ....    LDR      r1,[r0,#0]
        0x00003fac:    e3c110ff    ....    BIC      r1,r1,#0xff
        0x00003fb0:    e3811030    0...    ORR      r1,r1,#0x30
        0x00003fb4:    e5801000    ....    STR      r1,[r0,#0]
        0x00003fb8:    e3a00000    ....    MOV      r0,#0
        0x00003fbc:    eb000040    @...    BL       NAND_WaitRB ; 0x40c4
        0x00003fc0:    e3500000    ..P.    CMP      r0,#0
        0x00003fc4:    0a000003    ....    BEQ      0x3fd8 ; NAND_ReadPage + 244
        0x00003fc8:    e28f0070    p...    ADR      r0,{pc}+0x78 ; 0x4040
        0x00003fcc:    eb001b1d    ....    BL       sysprintf ; 0xac48
        0x00003fd0:    e3a00002    ....    MOV      r0,#2
        0x00003fd4:    e8bd81f0    ....    POP      {r4-r8,pc}
        0x00003fd8:    e3a00001    ....    MOV      r0,#1
        0x00003fdc:    eb000038    8...    BL       NAND_WaitRB ; 0x40c4
        0x00003fe0:    e3500000    ..P.    CMP      r0,#0
        0x00003fe4:    0a000003    ....    BEQ      0x3ff8 ; NAND_ReadPage + 276
        0x00003fe8:    e28f0068    h...    ADR      r0,{pc}+0x70 ; 0x4058
        0x00003fec:    eb001b15    ....    BL       sysprintf ; 0xac48
        0x00003ff0:    e3a00002    ....    MOV      r0,#2
        0x00003ff4:    e8bd81f0    ....    POP      {r4-r8,pc}
        0x00003ff8:    e3a01000    ....    MOV      r1,#0
        0x00003ffc:    e59f406c    l@..    LDR      r4,[pc,#108] ; [0x4070] = 0xb000d8b8
        0x00004000:    ea000003    ....    B        0x4014 ; NAND_ReadPage + 304
        0x00004004:    e594c000    ....    LDR      r12,[r4,#0]
        0x00004008:    e7c5c001    ....    STRB     r12,[r5,r1]
        0x0000400c:    e2810001    ....    ADD      r0,r1,#1
        0x00004010:    e3c01801    ....    BIC      r1,r0,#0x10000
        0x00004014:    e1510007    ..Q.    CMP      r1,r7
        0x00004018:    3afffff9    ...:    BCC      0x4004 ; NAND_ReadPage + 288
        0x0000401c:    ebffff59    Y...    BL       NAND_GetBusy ; 0x3d88
        0x00004020:    e3500040    @.P.    CMP      r0,#0x40
        0x00004024:    0a000002    ....    BEQ      0x4034 ; NAND_ReadPage + 336
        0x00004028:    e28f0044    D...    ADR      r0,{pc}+0x4c ; 0x4074
        0x0000402c:    eb001b05    ....    BL       sysprintf ; 0xac48
        0x00004030:    e3a06001    .`..    MOV      r6,#1
        0x00004034:    e1a00006    ....    MOV      r0,r6
        0x00004038:    e8bd81f0    ....    POP      {r4-r8,pc}
    $d
        0x0000403c:    b000d8b0    ....    DCD    2952845488
        0x00004040:    454d4954    TIME    DCD    1162692948
        0x00004044:    2054554f    OUT     DCD    542397775
        0x00004048:    4f525245    ERRO    DCD    1330795077
        0x0000404c:    3d203152    R1 =    DCD    1025519954
        0x00004050:    0a782520     %x.    DCD    175645984
        0x00004054:    00000000    ....    DCD    0
        0x00004058:    454d4954    TIME    DCD    1162692948
        0x0000405c:    2054554f    OUT     DCD    542397775
        0x00004060:    4f525245    ERRO    DCD    1330795077
        0x00004064:    3d203252    R2 =    DCD    1025520210
        0x00004068:    0a782520     %x.    DCD    175645984
        0x0000406c:    00000000    ....    DCD    0
        0x00004070:    b000d8b8    ....    DCD    2952845496
        0x00004074:    44414552    READ    DCD    1145128274
        0x00004078:    47415020     PAG    DCD    1195462688
        0x0000407c:    52452045    E ER    DCD    1380261957
        0x00004080:    20524f52    ROR     DCD    542265170
        0x00004084:    7825203d    = %x    DCD    2015699005
        0x00004088:    0000000a    ....    DCD    10
    $a
    i.NAND_ReadStatus
    NAND_ReadStatus
        0x0000408c:    e92d4008    .@-.    PUSH     {r3,lr}
        0x00004090:    e3a00000    ....    MOV      r0,#0
        0x00004094:    e58d0000    ....    STR      r0,[sp,#0]
        0x00004098:    e59f0020     ...    LDR      r0,[pc,#32] ; [0x40c0] = 0xb000d8b0
        0x0000409c:    e5901000    ....    LDR      r1,[r0,#0]
        0x000040a0:    e3c110ff    ....    BIC      r1,r1,#0xff
        0x000040a4:    e3811070    p...    ORR      r1,r1,#0x70
        0x000040a8:    e5801000    ....    STR      r1,[r0,#0]
        0x000040ac:    e2800008    ....    ADD      r0,r0,#8
        0x000040b0:    e5900000    ....    LDR      r0,[r0,#0]
        0x000040b4:    e58d0000    ....    STR      r0,[sp,#0]
        0x000040b8:    e5dd0000    ....    LDRB     r0,[sp,#0]
        0x000040bc:    e8bd8008    ....    POP      {r3,pc}
    $d
        0x000040c0:    b000d8b0    ....    DCD    2952845488
    $a
    i.NAND_WaitRB
    NAND_WaitRB
        0x000040c4:    e92d4001    .@-.    PUSH     {r0,lr}
        0x000040c8:    e24dd004    ..M.    SUB      sp,sp,#4
        0x000040cc:    e3a00000    ....    MOV      r0,#0
        0x000040d0:    e58d0000    ....    STR      r0,[sp,#0]
        0x000040d4:    e59f1038    8...    LDR      r1,[pc,#56] ; [0x4114] = 0x2710
        0x000040d8:    ea000008    ....    B        0x4100 ; NAND_WaitRB + 60
        0x000040dc:    e1dd00b0    ....    LDRH     r0,[sp,#0]
        0x000040e0:    e2800001    ....    ADD      r0,r0,#1
        0x000040e4:    e58d0000    ....    STR      r0,[sp,#0]
        0x000040e8:    eb00107e    ~...    BL       nuc970_dev_ready ; 0x82e8
        0x000040ec:    e5dd2004    . ..    LDRB     r2,[sp,#4]
        0x000040f0:    e1500002    ..P.    CMP      r0,r2
        0x000040f4:    1a000001    ....    BNE      0x4100 ; NAND_WaitRB + 60
        0x000040f8:    e3a00000    ....    MOV      r0,#0
        0x000040fc:    e8bd800c    ....    POP      {r2,r3,pc}
        0x00004100:    e1dd00b0    ....    LDRH     r0,[sp,#0]
        0x00004104:    e1500001    ..P.    CMP      r0,r1
        0x00004108:    3afffff3    ...:    BCC      0x40dc ; NAND_WaitRB + 24
        0x0000410c:    e3a00001    ....    MOV      r0,#1
        0x00004110:    e8bd800c    ....    POP      {r2,r3,pc}
    $d
        0x00004114:    00002710    .'..    DCD    10000
    $a
    i.NAND_WritePage
    NAND_WritePage
        0x00004118:    e92d41f0    .A-.    PUSH     {r4-r8,lr}
        0x0000411c:    e1a06000    .`..    MOV      r6,r0
        0x00004120:    e1a07001    .p..    MOV      r7,r1
        0x00004124:    e1a04002    .@..    MOV      r4,r2
        0x00004128:    e1a05003    .P..    MOV      r5,r3
        0x0000412c:    e1a00506    ....    LSL      r0,r6,#10
        0x00004130:    e1a00820     ...    LSR      r0,r0,#16
        0x00004134:    ebfff8ef    ....    BL       BAD_BLOCK_CHANGE ; 0x24f8
        0x00004138:    e206103f    ?...    AND      r1,r6,#0x3f
        0x0000413c:    e081c300    ....    ADD      r12,r1,r0,LSL #6
        0x00004140:    e59f60fc    .`..    LDR      r6,[pc,#252] ; [0x4244] = 0xb000d8b0
        0x00004144:    e5960000    ....    LDR      r0,[r6,#0]
        0x00004148:    e3c000ff    ....    BIC      r0,r0,#0xff
        0x0000414c:    e3800080    ....    ORR      r0,r0,#0x80
        0x00004150:    e5860000    ....    STR      r0,[r6,#0]
        0x00004154:    e2860004    ....    ADD      r0,r6,#4
        0x00004158:    e5901000    ....    LDR      r1,[r0,#0]
        0x0000415c:    e20720ff    . ..    AND      r2,r7,#0xff
        0x00004160:    e3c11102    ....    BIC      r1,r1,#0x80000000
        0x00004164:    e3c110ff    ....    BIC      r1,r1,#0xff
        0x00004168:    e1811002    ....    ORR      r1,r1,r2
        0x0000416c:    e5801000    ....    STR      r1,[r0,#0]
        0x00004170:    e5901000    ....    LDR      r1,[r0,#0]
        0x00004174:    e3c11102    ....    BIC      r1,r1,#0x80000000
        0x00004178:    e3c110ff    ....    BIC      r1,r1,#0xff
        0x0000417c:    e1811427    '...    ORR      r1,r1,r7,LSR #8
        0x00004180:    e5801000    ....    STR      r1,[r0,#0]
        0x00004184:    e5901000    ....    LDR      r1,[r0,#0]
        0x00004188:    e20c20ff    . ..    AND      r2,r12,#0xff
        0x0000418c:    e3c11102    ....    BIC      r1,r1,#0x80000000
        0x00004190:    e3c110ff    ....    BIC      r1,r1,#0xff
        0x00004194:    e1811002    ....    ORR      r1,r1,r2
        0x00004198:    e5801000    ....    STR      r1,[r0,#0]
        0x0000419c:    e5901000    ....    LDR      r1,[r0,#0]
        0x000041a0:    e1a0280c    .(..    LSL      r2,r12,#16
        0x000041a4:    e3c11102    ....    BIC      r1,r1,#0x80000000
        0x000041a8:    e3c110ff    ....    BIC      r1,r1,#0xff
        0x000041ac:    e1811c22    "...    ORR      r1,r1,r2,LSR #24
        0x000041b0:    e5801000    ....    STR      r1,[r0,#0]
        0x000041b4:    e5901000    ....    LDR      r1,[r0,#0]
        0x000041b8:    e3c12102    .!..    BIC      r2,r1,#0x80000000
        0x000041bc:    e3c220ff    . ..    BIC      r2,r2,#0xff
        0x000041c0:    e182182c    ,...    ORR      r1,r2,r12,LSR #16
        0x000041c4:    e5801000    ....    STR      r1,[r0,#0]
        0x000041c8:    e5901000    ....    LDR      r1,[r0,#0]
        0x000041cc:    e3c110ff    ....    BIC      r1,r1,#0xff
        0x000041d0:    e1811c2c    ,...    ORR      r1,r1,r12,LSR #24
        0x000041d4:    e3811102    ....    ORR      r1,r1,#0x80000000
        0x000041d8:    e5801000    ....    STR      r1,[r0,#0]
        0x000041dc:    e3a00001    ....    MOV      r0,#1
        0x000041e0:    eb000db6    ....    BL       delay_us ; 0x78c0
        0x000041e4:    e3a00000    ....    MOV      r0,#0
        0x000041e8:    e2861008    ....    ADD      r1,r6,#8
        0x000041ec:    ea000003    ....    B        0x4200 ; NAND_WritePage + 232
        0x000041f0:    e7d42000    . ..    LDRB     r2,[r4,r0]
        0x000041f4:    e5812000    . ..    STR      r2,[r1,#0]
        0x000041f8:    e2800001    ....    ADD      r0,r0,#1
        0x000041fc:    e3c00801    ....    BIC      r0,r0,#0x10000
        0x00004200:    e1500005    ..P.    CMP      r0,r5
        0x00004204:    3afffff9    ...:    BCC      0x41f0 ; NAND_WritePage + 216
        0x00004208:    e5960000    ....    LDR      r0,[r6,#0]
        0x0000420c:    e3c000ff    ....    BIC      r0,r0,#0xff
        0x00004210:    e3800010    ....    ORR      r0,r0,#0x10
        0x00004214:    e5860000    ....    STR      r0,[r6,#0]
        0x00004218:    ebfffef6    ....    BL       NAND_GetStatus ; 0x3df8
        0x0000421c:    e3500040    @.P.    CMP      r0,#0x40
        0x00004220:    0a000005    ....    BEQ      0x423c ; NAND_WritePage + 292
        0x00004224:    e59f001c    ....    LDR      r0,[pc,#28] ; [0x4248] = 0xd500
        0x00004228:    e5901000    ....    LDR      r1,[r0,#0]
        0x0000422c:    e3811010    ....    ORR      r1,r1,#0x10
        0x00004230:    e5801000    ....    STR      r1,[r0,#0]
        0x00004234:    e3a00001    ....    MOV      r0,#1
        0x00004238:    e8bd81f0    ....    POP      {r4-r8,pc}
        0x0000423c:    e3a00000    ....    MOV      r0,#0
        0x00004240:    e8bd81f0    ....    POP      {r4-r8,pc}
    $d
        0x00004244:    b000d8b0    ....    DCD    2952845488
        0x00004248:    0000d500    ....    DCD    54528
    $a
    i.Out_Byte
    Out_Byte
        0x0000424c:    e92d41f0    .A-.    PUSH     {r4-r8,lr}
        0x00004250:    e1a06000    .`..    MOV      r6,r0
        0x00004254:    e1a08001    ....    MOV      r8,r1
        0x00004258:    e1a05002    .P..    MOV      r5,r2
        0x0000425c:    e1a07003    .p..    MOV      r7,r3
        0x00004260:    e3a04000    .@..    MOV      r4,#0
        0x00004264:    e2050080    ....    AND      r0,r5,#0x80
        0x00004268:    e3500000    ..P.    CMP      r0,#0
        0x0000426c:    0a000004    ....    BEQ      0x4284 ; Out_Byte + 56
        0x00004270:    e0860004    ....    ADD      r0,r6,r4
        0x00004274:    e1a02007    . ..    MOV      r2,r7
        0x00004278:    e1a01008    ....    MOV      r1,r8
        0x0000427c:    eb000065    e...    BL       PutPixel ; 0x4418
        0x00004280:    ea000003    ....    B        0x4294 ; Out_Byte + 72
        0x00004284:    e0860004    ....    ADD      r0,r6,r4
        0x00004288:    e3a02000    . ..    MOV      r2,#0
        0x0000428c:    e1a01008    ....    MOV      r1,r8
        0x00004290:    eb000060    `...    BL       PutPixel ; 0x4418
        0x00004294:    e1a05085    .P..    LSL      r5,r5,#1
        0x00004298:    e2844001    .@..    ADD      r4,r4,#1
        0x0000429c:    e3540008    ..T.    CMP      r4,#8
        0x000042a0:    baffffef    ....    BLT      0x4264 ; Out_Byte + 24
        0x000042a4:    e8bd81f0    ....    POP      {r4-r8,pc}
    i.Out_Font0816
    Out_Font0816
        0x000042a8:    e92d4070    p@-.    PUSH     {r4-r6,lr}
        0x000042ac:    e1a06000    .`..    MOV      r6,r0
        0x000042b0:    e3a04000    .@..    MOV      r4,#0
        0x000042b4:    e59f5024    $P..    LDR      r5,[pc,#36] ; [0x42e0] = 0xd3d8
        0x000042b8:    e7d62004    . ..    LDRB     r2,[r6,r4]
        0x000042bc:    e5950004    ....    LDR      r0,[r5,#4]
        0x000042c0:    e5953008    .0..    LDR      r3,[r5,#8]
        0x000042c4:    e0801004    ....    ADD      r1,r0,r4
        0x000042c8:    e5950000    ....    LDR      r0,[r5,#0]
        0x000042cc:    ebffffde    ....    BL       Out_Byte ; 0x424c
        0x000042d0:    e2844001    .@..    ADD      r4,r4,#1
        0x000042d4:    e3540010    ..T.    CMP      r4,#0x10
        0x000042d8:    bafffff6    ....    BLT      0x42b8 ; Out_Font0816 + 16
        0x000042dc:    e8bd8070    p...    POP      {r4-r6,pc}
    $d
        0x000042e0:    0000d3d8    ....    DCD    54232
    $a
    i.POWER_5V_SETTING_initover
    POWER_5V_SETTING_initover
        0x000042e4:    e92d4010    .@-.    PUSH     {r4,lr}
        0x000042e8:    e3a01b01    ....    MOV      r1,#0x400
        0x000042ec:    e3a00c01    ....    MOV      r0,#0x100
        0x000042f0:    ebfffb74    t...    BL       GPIO_ReadBit ; 0x30c8
        0x000042f4:    e20000ff    ....    AND      r0,r0,#0xff
        0x000042f8:    e3500000    ..P.    CMP      r0,#0
        0x000042fc:    1a000003    ....    BNE      0x4310 ; POWER_5V_SETTING_initover + 44
        0x00004300:    e8bd4010    .@..    POP      {r4,lr}
        0x00004304:    e3a01a01    ....    MOV      r1,#0x1000
        0x00004308:    e3a00d05    ....    MOV      r0,#0x140
        0x0000430c:    eafffb77    w...    B        GPIO_Set ; 0x30f0
        0x00004310:    e8bd8010    ....    POP      {r4,pc}
    i.POWER_5V_SETTING_initstart
    POWER_5V_SETTING_initstart
        0x00004314:    e92d4010    .@-.    PUSH     {r4,lr}
        0x00004318:    e3a01b01    ....    MOV      r1,#0x400
        0x0000431c:    e3a00c01    ....    MOV      r0,#0x100
        0x00004320:    ebfffb68    h...    BL       GPIO_ReadBit ; 0x30c8
        0x00004324:    e20000ff    ....    AND      r0,r0,#0xff
        0x00004328:    e3500000    ..P.    CMP      r0,#0
        0x0000432c:    0a000005    ....    BEQ      0x4348 ; POWER_5V_SETTING_initstart + 52
        0x00004330:    e3a01a01    ....    MOV      r1,#0x1000
        0x00004334:    e3a00d05    ....    MOV      r0,#0x140
        0x00004338:    ebfffb6c    l...    BL       GPIO_Set ; 0x30f0
        0x0000433c:    e8bd4010    .@..    POP      {r4,lr}
        0x00004340:    e28f0004    ....    ADR      r0,{pc}+0xc ; 0x434c
        0x00004344:    ea001a3f    ?...    B        sysprintf ; 0xac48
        0x00004348:    e8bd8010    ....    POP      {r4,pc}
    $d
        0x0000434c:    2076352b    +5v     DCD    544617771
        0x00004350:    45574f50    POWE    DCD    1163349840
        0x00004354:    204e4f52    RON     DCD    542003026
        0x00004358:    65636e6f    once    DCD    1701015151
        0x0000435c:    00000a0d    ....    DCD    2573
    $a
    i.Print
    Print
        0x00004360:    e92d4070    p@-.    PUSH     {r4-r6,lr}
        0x00004364:    e1a04000    .@..    MOV      r4,r0
        0x00004368:    e59f50a4    .P..    LDR      r5,[pc,#164] ; [0x4414] = 0xd3d8
        0x0000436c:    e3a06000    .`..    MOV      r6,#0
        0x00004370:    ea00001d    ....    B        0x43ec ; Print + 140
        0x00004374:    e35000a0    ..P.    CMP      r0,#0xa0
        0x00004378:    9a000009    ....    BLS      0x43a4 ; Print + 68
        0x0000437c:    e5950000    ....    LDR      r0,[r5,#0]
        0x00004380:    e3500e31    1.P.    CMP      r0,#0x310
        0x00004384:    da000003    ....    BLE      0x4398 ; Print + 56
        0x00004388:    e5856000    .`..    STR      r6,[r5,#0]
        0x0000438c:    e5950004    ....    LDR      r0,[r5,#4]
        0x00004390:    e2800010    ....    ADD      r0,r0,#0x10
        0x00004394:    e5850004    ....    STR      r0,[r5,#4]
        0x00004398:    e2840001    ....    ADD      r0,r4,#1
        0x0000439c:    e2804001    .@..    ADD      r4,r0,#1
        0x000043a0:    ea000011    ....    B        0x43ec ; Print + 140
        0x000043a4:    e350000d    ..P.    CMP      r0,#0xd
        0x000043a8:    1a000000    ....    BNE      0x43b0 ; Print + 80
        0x000043ac:    e2844001    .@..    ADD      r4,r4,#1
        0x000043b0:    e5d40000    ....    LDRB     r0,[r4,#0]
        0x000043b4:    e350000a    ..P.    CMP      r0,#0xa
        0x000043b8:    0a00000f    ....    BEQ      0x43fc ; Print + 156
        0x000043bc:    e5951000    ....    LDR      r1,[r5,#0]
        0x000043c0:    e3510e32    2.Q.    CMP      r1,#0x320
        0x000043c4:    da000003    ....    BLE      0x43d8 ; Print + 120
        0x000043c8:    e5856000    .`..    STR      r6,[r5,#0]
        0x000043cc:    e5951004    ....    LDR      r1,[r5,#4]
        0x000043d0:    e2811010    ....    ADD      r1,r1,#0x10
        0x000043d4:    e5851004    ....    STR      r1,[r5,#4]
        0x000043d8:    ebfffa28    (...    BL       Font_Print ; 0x2c80
        0x000043dc:    e2844001    .@..    ADD      r4,r4,#1
        0x000043e0:    e5950000    ....    LDR      r0,[r5,#0]
        0x000043e4:    e2800008    ....    ADD      r0,r0,#8
        0x000043e8:    e5850000    ....    STR      r0,[r5,#0]
        0x000043ec:    e5d40000    ....    LDRB     r0,[r4,#0]
        0x000043f0:    e3500000    ..P.    CMP      r0,#0
        0x000043f4:    1affffde    ....    BNE      0x4374 ; Print + 20
        0x000043f8:    e8bd8070    p...    POP      {r4-r6,pc}
        0x000043fc:    e5856000    .`..    STR      r6,[r5,#0]
        0x00004400:    e5950004    ....    LDR      r0,[r5,#4]
        0x00004404:    e2800010    ....    ADD      r0,r0,#0x10
        0x00004408:    e5850004    ....    STR      r0,[r5,#4]
        0x0000440c:    e2844001    .@..    ADD      r4,r4,#1
        0x00004410:    eafffff5    ....    B        0x43ec ; Print + 140
    $d
        0x00004414:    0000d3d8    ....    DCD    54232
    $a
    i.PutPixel
    PutPixel
        0x00004418:    e92d4010    .@-.    PUSH     {r4,lr}
        0x0000441c:    e59f304c    L0..    LDR      r3,[pc,#76] ; [0x4470] = 0x10560
        0x00004420:    e59fc04c    L...    LDR      r12,[pc,#76] ; [0x4474] = 0xd3d8
        0x00004424:    e5933000    .0..    LDR      r3,[r3,#0]
        0x00004428:    e58c300c    .0..    STR      r3,[r12,#0xc]
        0x0000442c:    e3500e32    2.P.    CMP      r0,#0x320
        0x00004430:    2a00000d    ...*    BCS      0x446c ; PutPixel + 84
        0x00004434:    e3510e1e    ..Q.    CMP      r1,#0x1e0
        0x00004438:    2a00000b    ...*    BCS      0x446c ; PutPixel + 84
        0x0000443c:    e3a0c0f8    ....    MOV      r12,#0xf8
        0x00004440:    e00c4822    "H..    AND      r4,r12,r2,LSR #16
        0x00004444:    e00cc422    "...    AND      r12,r12,r2,LSR #8
        0x00004448:    e1a04384    .C..    LSL      r4,r4,#7
        0x0000444c:    e184c10c    ....    ORR      r12,r4,r12,LSL #2
        0x00004450:    e20220f8    . ..    AND      r2,r2,#0xf8
        0x00004454:    e18c21a2    .!..    ORR      r2,r12,r2,LSR #3
        0x00004458:    e081c181    ....    ADD      r12,r1,r1,LSL #3
        0x0000445c:    e08c1201    ....    ADD      r1,r12,r1,LSL #4
        0x00004460:    e0800281    ....    ADD      r0,r0,r1,LSL #5
        0x00004464:    e0830080    ....    ADD      r0,r3,r0,LSL #1
        0x00004468:    e1c020b0    . ..    STRH     r2,[r0,#0]
        0x0000446c:    e8bd8010    ....    POP      {r4,pc}
    $d
        0x00004470:    00010560    `...    DCD    66912
        0x00004474:    0000d3d8    ....    DCD    54232
    $a
    i.REG_OPERATE
    REG_OPERATE
        0x00004478:    e3520000    ..R.    CMP      r2,#0
        0x0000447c:    0a000003    ....    BEQ      0x4490 ; REG_OPERATE + 24
        0x00004480:    e5902000    . ..    LDR      r2,[r0,#0]
        0x00004484:    e1811002    ....    ORR      r1,r1,r2
        0x00004488:    e5801000    ....    STR      r1,[r0,#0]
        0x0000448c:    e12fff1e    ../.    BX       lr
        0x00004490:    e5902000    . ..    LDR      r2,[r0,#0]
        0x00004494:    e1c21001    ....    BIC      r1,r2,r1
        0x00004498:    e5801000    ....    STR      r1,[r0,#0]
        0x0000449c:    e12fff1e    ../.    BX       lr
    i.RS485_HANDLE
    RS485_HANDLE
        0x000044a0:    e92d401c    .@-.    PUSH     {r2-r4,lr}
        0x000044a4:    e1a01400    ....    LSL      r1,r0,#8
        0x000044a8:    e281432e    .C..    ADD      r4,r1,#0xb8000000
        0x000044ac:    e594101c    ....    LDR      r1,[r4,#0x1c]
        0x000044b0:    e58d1004    ....    STR      r1,[sp,#4]
        0x000044b4:    e5941018    ....    LDR      r1,[r4,#0x18]
        0x000044b8:    e58d1000    ....    STR      r1,[sp,#0]
        0x000044bc:    e59d1004    ....    LDR      r1,[sp,#4]
        0x000044c0:    e3110004    ....    TST      r1,#4
        0x000044c4:    0a000009    ....    BEQ      0x44f0 ; RS485_HANDLE + 80
        0x000044c8:    e59d1004    ....    LDR      r1,[sp,#4]
        0x000044cc:    e3110001    ....    TST      r1,#1
        0x000044d0:    0a000006    ....    BEQ      0x44f0 ; RS485_HANDLE + 80
        0x000044d4:    e59d1000    ....    LDR      r1,[sp,#0]
        0x000044d8:    e3110008    ....    TST      r1,#8
        0x000044dc:    0a000007    ....    BEQ      0x4500 ; RS485_HANDLE + 96
        0x000044e0:    eb000a5b    [...    BL       _uartReceiveChars ; 0x6e54
        0x000044e4:    e3a00008    ....    MOV      r0,#8
        0x000044e8:    e5840018    ....    STR      r0,[r4,#0x18]
        0x000044ec:    ea000003    ....    B        0x4500 ; RS485_HANDLE + 96
        0x000044f0:    e59d1004    ....    LDR      r1,[sp,#4]
        0x000044f4:    e3110011    ....    TST      r1,#0x11
        0x000044f8:    0a000000    ....    BEQ      0x4500 ; RS485_HANDLE + 96
        0x000044fc:    eb000a54    T...    BL       _uartReceiveChars ; 0x6e54
        0x00004500:    e59d0004    ....    LDR      r0,[sp,#4]
        0x00004504:    e3100004    ....    TST      r0,#4
        0x00004508:    0a000007    ....    BEQ      0x452c ; RS485_HANDLE + 140
        0x0000450c:    e5940018    ....    LDR      r0,[r4,#0x18]
        0x00004510:    e58d0000    ....    STR      r0,[sp,#0]
        0x00004514:    e59d0000    ....    LDR      r0,[sp,#0]
        0x00004518:    e3100040    @...    TST      r0,#0x40
        0x0000451c:    0a000002    ....    BEQ      0x452c ; RS485_HANDLE + 140
        0x00004520:    e59f1008    ....    LDR      r1,[pc,#8] ; [0x4530] = 0xd9ec
        0x00004524:    e3a00001    ....    MOV      r0,#1
        0x00004528:    e5c10000    ....    STRB     r0,[r1,#0]
        0x0000452c:    e8bd801c    ....    POP      {r2-r4,pc}
    $d
        0x00004530:    0000d9ec    ....    DCD    55788
    $a
    i.RTC_Check
    RTC_Check
        0x00004534:    e59f004c    L...    LDR      r0,[pc,#76] ; [0x4588] = 0xda5c
        0x00004538:    e3a01000    ....    MOV      r1,#0
        0x0000453c:    e5801050    P...    STR      r1,[r0,#0x50]
        0x00004540:    e59f1044    D...    LDR      r1,[pc,#68] ; [0x458c] = 0xb8004000
        0x00004544:    e591202c    , ..    LDR      r2,[r1,#0x2c]
        0x00004548:    e2022102    .!..    AND      r2,r2,#0x80000000
        0x0000454c:    e5802054    T ..    STR      r2,[r0,#0x54]
        0x00004550:    ea000008    ....    B        0x4578 ; RTC_Check + 68
        0x00004554:    e591202c    , ..    LDR      r2,[r1,#0x2c]
        0x00004558:    e2022102    .!..    AND      r2,r2,#0x80000000
        0x0000455c:    e5802054    T ..    STR      r2,[r0,#0x54]
        0x00004560:    e5902050    P ..    LDR      r2,[r0,#0x50]
        0x00004564:    e2822001    . ..    ADD      r2,r2,#1
        0x00004568:    e5802050    P ..    STR      r2,[r0,#0x50]
        0x0000456c:    e5902050    P ..    LDR      r2,[r0,#0x50]
        0x00004570:    e3520a01    ..R.    CMP      r2,#0x1000
        0x00004574:    2a000002    ...*    BCS      0x4584 ; RTC_Check + 80
        0x00004578:    e5902054    T ..    LDR      r2,[r0,#0x54]
        0x0000457c:    e3520102    ..R.    CMP      r2,#0x80000000
        0x00004580:    0afffff3    ....    BEQ      0x4554 ; RTC_Check + 32
        0x00004584:    e12fff1e    ../.    BX       lr
    $d
        0x00004588:    0000da5c    \...    DCD    55900
        0x0000458c:    b8004000    .@..    DCD    3087024128
    $a
    i.RTC_DoFrequencyCompensation
    RTC_DoFrequencyCompensation
        0x00004590:    e92d4010    .@-.    PUSH     {r4,lr}
        0x00004594:    e3a01064    d...    MOV      r1,#0x64
        0x00004598:    ebfff144    D...    BL       __aeabi_idiv ; 0xab0
        0x0000459c:    e2404c7f    .L@.    SUB      r4,r0,#0x7f00
        0x000045a0:    e24440f9    .@D.    SUB      r4,r4,#0xf9
        0x000045a4:    e0610201    ..a.    RSB      r0,r1,r1,LSL #4
        0x000045a8:    e1a00100    ....    LSL      r0,r0,#2
        0x000045ac:    e3a01064    d...    MOV      r1,#0x64
        0x000045b0:    ebfff13e    >...    BL       __aeabi_idiv ; 0xab0
        0x000045b4:    e354000f    ..T.    CMP      r4,#0xf
        0x000045b8:    da000001    ....    BLE      0x45c4 ; RTC_DoFrequencyCompensation + 52
        0x000045bc:    e3a01001    ....    MOV      r1,#1
        0x000045c0:    ea000000    ....    B        0x45c8 ; RTC_DoFrequencyCompensation + 56
        0x000045c4:    e3a01000    ....    MOV      r1,#0
        0x000045c8:    e1911fa4    ....    ORRS     r1,r1,r4,LSR #31
        0x000045cc:    0a000001    ....    BEQ      0x45d8 ; RTC_DoFrequencyCompensation + 72
        0x000045d0:    e3a00005    ....    MOV      r0,#5
        0x000045d4:    e8bd8010    ....    POP      {r4,pc}
        0x000045d8:    e1804404    .D..    ORR      r4,r0,r4,LSL #8
        0x000045dc:    e3a00001    ....    MOV      r0,#1
        0x000045e0:    eb00039a    ....    BL       RTC_WriteEnable ; 0x5450
        0x000045e4:    e59f000c    ....    LDR      r0,[pc,#12] ; [0x45f8] = 0xb8004000
        0x000045e8:    e5804008    .@..    STR      r4,[r0,#8]
        0x000045ec:    ebffffd0    ....    BL       RTC_Check ; 0x4534
        0x000045f0:    e3a00000    ....    MOV      r0,#0
        0x000045f4:    e8bd8010    ....    POP      {r4,pc}
    $d
        0x000045f8:    b8004000    .@..    DCD    3087024128
    $a
    i.RTC_EnableClock
    RTC_EnableClock
        0x000045fc:    e3500000    ..P.    CMP      r0,#0
        0x00004600:    e3a0120b    ....    MOV      r1,#0xb0000000
        0x00004604:    0a000003    ....    BEQ      0x4618 ; RTC_EnableClock + 28
        0x00004608:    e5910218    ....    LDR      r0,[r1,#0x218]
        0x0000460c:    e3800004    ....    ORR      r0,r0,#4
        0x00004610:    e5810218    ....    STR      r0,[r1,#0x218]
        0x00004614:    e12fff1e    ../.    BX       lr
        0x00004618:    e5910218    ....    LDR      r0,[r1,#0x218]
        0x0000461c:    e3c00004    ....    BIC      r0,r0,#4
        0x00004620:    e5810218    ....    STR      r0,[r1,#0x218]
        0x00004624:    e12fff1e    ../.    BX       lr
    i.RTC_ISR
    RTC_ISR
        0x00004628:    e92d4038    8@-.    PUSH     {r3-r5,lr}
        0x0000462c:    e59f40fc    .@..    LDR      r4,[pc,#252] ; [0x4730] = 0xb8004000
        0x00004630:    e594002c    ,...    LDR      r0,[r4,#0x2c]
        0x00004634:    e58d0000    ....    STR      r0,[sp,#0]
        0x00004638:    e59d0000    ....    LDR      r0,[sp,#0]
        0x0000463c:    e59f50f0    .P..    LDR      r5,[pc,#240] ; [0x4734] = 0xda5c
        0x00004640:    e3100002    ....    TST      r0,#2
        0x00004644:    0a00000b    ....    BEQ      0x4678 ; RTC_ISR + 80
        0x00004648:    e3a00001    ....    MOV      r0,#1
        0x0000464c:    eb00037f    ....    BL       RTC_WriteEnable ; 0x5450
        0x00004650:    e3a00002    ....    MOV      r0,#2
        0x00004654:    e584002c    ,...    STR      r0,[r4,#0x2c]
        0x00004658:    ebffffb5    ....    BL       RTC_Check ; 0x4534
        0x0000465c:    e5950014    ....    LDR      r0,[r5,#0x14]
        0x00004660:    e2800001    ....    ADD      r0,r0,#1
        0x00004664:    e5850014    ....    STR      r0,[r5,#0x14]
        0x00004668:    e5950004    ....    LDR      r0,[r5,#4]
        0x0000466c:    e3500000    ..P.    CMP      r0,#0
        0x00004670:    0a000000    ....    BEQ      0x4678 ; RTC_ISR + 80
        0x00004674:    e12fff30    0./.    BLX      r0
        0x00004678:    e59d0000    ....    LDR      r0,[sp,#0]
        0x0000467c:    e3100001    ....    TST      r0,#1
        0x00004680:    0a000008    ....    BEQ      0x46a8 ; RTC_ISR + 128
        0x00004684:    e3a00001    ....    MOV      r0,#1
        0x00004688:    eb000370    p...    BL       RTC_WriteEnable ; 0x5450
        0x0000468c:    e3a00001    ....    MOV      r0,#1
        0x00004690:    e584002c    ,...    STR      r0,[r4,#0x2c]
        0x00004694:    ebffffa6    ....    BL       RTC_Check ; 0x4534
        0x00004698:    e5950008    ....    LDR      r0,[r5,#8]
        0x0000469c:    e3500000    ..P.    CMP      r0,#0
        0x000046a0:    0a000000    ....    BEQ      0x46a8 ; RTC_ISR + 128
        0x000046a4:    e12fff30    0./.    BLX      r0
        0x000046a8:    e59d0000    ....    LDR      r0,[sp,#0]
        0x000046ac:    e3100010    ....    TST      r0,#0x10
        0x000046b0:    0a00000f    ....    BEQ      0x46f4 ; RTC_ISR + 204
        0x000046b4:    e3a00001    ....    MOV      r0,#1
        0x000046b8:    eb000364    d...    BL       RTC_WriteEnable ; 0x5450
        0x000046bc:    e3a00010    ....    MOV      r0,#0x10
        0x000046c0:    e584002c    ,...    STR      r0,[r4,#0x2c]
        0x000046c4:    ebffff9a    ....    BL       RTC_Check ; 0x4534
        0x000046c8:    e3a03000    .0..    MOV      r3,#0
        0x000046cc:    e3a02010    . ..    MOV      r2,#0x10
        0x000046d0:    e3a01005    ....    MOV      r1,#5
        0x000046d4:    e1a00003    ....    MOV      r0,r3
        0x000046d8:    eb000052    R...    BL       RTC_Ioctl ; 0x4828
        0x000046dc:    e5950010    ....    LDR      r0,[r5,#0x10]
        0x000046e0:    e3500000    ..P.    CMP      r0,#0
        0x000046e4:    0a000002    ....    BEQ      0x46f4 ; RTC_ISR + 204
        0x000046e8:    e12fff30    0./.    BLX      r0
        0x000046ec:    e3a00000    ....    MOV      r0,#0
        0x000046f0:    e5850010    ....    STR      r0,[r5,#0x10]
        0x000046f4:    e59d0000    ....    LDR      r0,[sp,#0]
        0x000046f8:    e3100008    ....    TST      r0,#8
        0x000046fc:    0a00000a    ....    BEQ      0x472c ; RTC_ISR + 260
        0x00004700:    e3a00001    ....    MOV      r0,#1
        0x00004704:    eb000351    Q...    BL       RTC_WriteEnable ; 0x5450
        0x00004708:    e3a00008    ....    MOV      r0,#8
        0x0000470c:    e584002c    ,...    STR      r0,[r4,#0x2c]
        0x00004710:    ebffff87    ....    BL       RTC_Check ; 0x4534
        0x00004714:    e595000c    ....    LDR      r0,[r5,#0xc]
        0x00004718:    e3500000    ..P.    CMP      r0,#0
        0x0000471c:    0a000002    ....    BEQ      0x472c ; RTC_ISR + 260
        0x00004720:    e28dd004    ....    ADD      sp,sp,#4
        0x00004724:    e8bd4030    0@..    POP      {r4,r5,lr}
        0x00004728:    e12fff10    ../.    BX       r0
        0x0000472c:    e8bd8038    8...    POP      {r3-r5,pc}
    $d
        0x00004730:    b8004000    .@..    DCD    3087024128
        0x00004734:    0000da5c    \...    DCD    55900
    $a
    i.RTC_Init
    RTC_Init
        0x00004738:    e92d4010    .@-.    PUSH     {r4,lr}
        0x0000473c:    e59f10cc    ....    LDR      r1,[pc,#204] ; [0x4810] = 0xda5c
        0x00004740:    e3a00000    ....    MOV      r0,#0
        0x00004744:    e5810008    ....    STR      r0,[r1,#8]
        0x00004748:    e5810004    ....    STR      r0,[r1,#4]
        0x0000474c:    e581000c    ....    STR      r0,[r1,#0xc]
        0x00004750:    e5810010    ....    STR      r0,[r1,#0x10]
        0x00004754:    e5810014    ....    STR      r0,[r1,#0x14]
        0x00004758:    e59f30b4    .0..    LDR      r3,[pc,#180] ; [0x4814] = 0xb8004000
        0x0000475c:    e59f40b4    .@..    LDR      r4,[pc,#180] ; [0x4818] = 0xfff
        0x00004760:    e5931000    ....    LDR      r1,[r3,#0]
        0x00004764:    e3110001    ....    TST      r1,#1
        0x00004768:    1a000002    ....    BNE      0x4778 ; RTC_Init + 64
        0x0000476c:    e2800001    ....    ADD      r0,r0,#1
        0x00004770:    e1500004    ..P.    CMP      r0,r4
        0x00004774:    bafffff9    ....    BLT      0x4760 ; RTC_Init + 40
        0x00004778:    e59f009c    ....    LDR      r0,[pc,#156] ; [0x481c] = 0xa5eb1357
        0x0000477c:    e5830000    ....    STR      r0,[r3,#0]
        0x00004780:    ebffff6b    k...    BL       RTC_Check ; 0x4534
        0x00004784:    e3a00000    ....    MOV      r0,#0
        0x00004788:    e5931000    ....    LDR      r1,[r3,#0]
        0x0000478c:    e3110001    ....    TST      r1,#1
        0x00004790:    1a000002    ....    BNE      0x47a0 ; RTC_Init + 104
        0x00004794:    e2800001    ....    ADD      r0,r0,#1
        0x00004798:    e1500004    ..P.    CMP      r0,r4
        0x0000479c:    bafffff9    ....    BLT      0x4788 ; RTC_Init + 80
        0x000047a0:    e1500004    ..P.    CMP      r0,r4
        0x000047a4:    1a000001    ....    BNE      0x47b0 ; RTC_Init + 120
        0x000047a8:    e3a00006    ....    MOV      r0,#6
        0x000047ac:    e8bd8010    ....    POP      {r4,pc}
        0x000047b0:    e59f0068    h...    LDR      r0,[pc,#104] ; [0x4820] = 0xa965
        0x000047b4:    e5830004    ....    STR      r0,[r3,#4]
        0x000047b8:    ebffff5d    ]...    BL       RTC_Check ; 0x4534
        0x000047bc:    e3a00000    ....    MOV      r0,#0
        0x000047c0:    e5931004    ....    LDR      r1,[r3,#4]
        0x000047c4:    e3110801    ....    TST      r1,#0x10000
        0x000047c8:    1a000002    ....    BNE      0x47d8 ; RTC_Init + 160
        0x000047cc:    e2800001    ....    ADD      r0,r0,#1
        0x000047d0:    e1500004    ..P.    CMP      r0,r4
        0x000047d4:    bafffff9    ....    BLT      0x47c0 ; RTC_Init + 136
        0x000047d8:    e1500004    ..P.    CMP      r0,r4
        0x000047dc:    1a000001    ....    BNE      0x47e8 ; RTC_Init + 176
        0x000047e0:    e3a00006    ....    MOV      r0,#6
        0x000047e4:    e8bd8010    ....    POP      {r4,pc}
        0x000047e8:    e59f2034    4 ..    LDR      r2,[pc,#52] ; [0x4824] = 0x4628
        0x000047ec:    e3a0100f    ....    MOV      r1,#0xf
        0x000047f0:    e3a00001    ....    MOV      r0,#1
        0x000047f4:    eb0017f0    ....    BL       sysInstallISR ; 0xa7bc
        0x000047f8:    e3a0007f    ....    MOV      r0,#0x7f
        0x000047fc:    eb00182b    +...    BL       sysSetLocalInterrupt ; 0xa8b0
        0x00004800:    e3a0000f    ....    MOV      r0,#0xf
        0x00004804:    eb0015a5    ....    BL       sysEnableInterrupt ; 0x9ea0
        0x00004808:    e3a00000    ....    MOV      r0,#0
        0x0000480c:    e8bd8010    ....    POP      {r4,pc}
    $d
        0x00004810:    0000da5c    \...    DCD    55900
        0x00004814:    b8004000    .@..    DCD    3087024128
        0x00004818:    00000fff    ....    DCD    4095
        0x0000481c:    a5eb1357    W...    DCD    2783646551
        0x00004820:    0000a965    e...    DCD    43365
        0x00004824:    00004628    (F..    DCD    17960
    $a
    i.RTC_Ioctl
    RTC_Ioctl
        0x00004828:    e92d47f0    .G-.    PUSH     {r4-r10,lr}
        0x0000482c:    e1a04002    .@..    MOV      r4,r2
        0x00004830:    e1a09003    ....    MOV      r9,r3
        0x00004834:    e3500000    ..P.    CMP      r0,#0
        0x00004838:    0a000001    ....    BEQ      0x4844 ; RTC_Ioctl + 28
        0x0000483c:    e3a00008    ....    MOV      r0,#8
        0x00004840:    e8bd87f0    ....    POP      {r4-r10,pc}
        0x00004844:    e59f549c    .T..    LDR      r5,[pc,#1180] ; [0x4ce8] = 0xb8004000
        0x00004848:    e59f649c    .d..    LDR      r6,[pc,#1180] ; [0x4cec] = 0xda5c
        0x0000484c:    e3510013    ..Q.    CMP      r1,#0x13
        0x00004850:    e3a08001    ....    MOV      r8,#1
        0x00004854:    e20400ff    ....    AND      r0,r4,#0xff
        0x00004858:    e3a07000    .p..    MOV      r7,#0
        0x0000485c:    308ff101    ...0    ADDCC    pc,pc,r1,LSL #2
        0x00004860:    ea00011e    ....    B        0x4ce0 ; RTC_Ioctl + 1208
        0x00004864:    ea000011    ....    B        0x48b0 ; RTC_Ioctl + 136
        0x00004868:    ea000017    ....    B        0x48cc ; RTC_Ioctl + 164
        0x0000486c:    ea00003a    :...    B        0x495c ; RTC_Ioctl + 308
        0x00004870:    ea00003c    <...    B        0x4968 ; RTC_Ioctl + 320
        0x00004874:    ea00003d    =...    B        0x4970 ; RTC_Ioctl + 328
        0x00004878:    ea000069    i...    B        0x4a24 ; RTC_Ioctl + 508
        0x0000487c:    ea000117    ....    B        0x4ce0 ; RTC_Ioctl + 1208
        0x00004880:    ea000116    ....    B        0x4ce0 ; RTC_Ioctl + 1208
        0x00004884:    ea0000b0    ....    B        0x4b4c ; RTC_Ioctl + 804
        0x00004888:    ea0000b5    ....    B        0x4b64 ; RTC_Ioctl + 828
        0x0000488c:    ea0000be    ....    B        0x4b8c ; RTC_Ioctl + 868
        0x00004890:    ea0000c5    ....    B        0x4bac ; RTC_Ioctl + 900
        0x00004894:    ea0000d1    ....    B        0x4be0 ; RTC_Ioctl + 952
        0x00004898:    ea0000d7    ....    B        0x4bfc ; RTC_Ioctl + 980
        0x0000489c:    ea0000e8    ....    B        0x4c44 ; RTC_Ioctl + 1052
        0x000048a0:    ea0000dc    ....    B        0x4c18 ; RTC_Ioctl + 1008
        0x000048a4:    ea00010d    ....    B        0x4ce0 ; RTC_Ioctl + 1208
        0x000048a8:    ea00010c    ....    B        0x4ce0 ; RTC_Ioctl + 1208
        0x000048ac:    ea0000ed    ....    B        0x4c68 ; RTC_Ioctl + 1088
        0x000048b0:    e5950024    $...    LDR      r0,[r5,#0x24]
        0x000048b4:    e3100001    ....    TST      r0,#1
        0x000048b8:    0a000001    ....    BEQ      0x48c4 ; RTC_Ioctl + 156
        0x000048bc:    e5848000    ....    STR      r8,[r4,#0]
        0x000048c0:    ea000104    ....    B        0x4cd8 ; RTC_Ioctl + 1200
        0x000048c4:    e5847000    .p..    STR      r7,[r4,#0]
        0x000048c8:    ea000102    ....    B        0x4cd8 ; RTC_Ioctl + 1200
        0x000048cc:    e5d60001    ....    LDRB     r0,[r6,#1]
        0x000048d0:    e3500001    ..P.    CMP      r0,#1
        0x000048d4:    1a000005    ....    BNE      0x48f0 ; RTC_Ioctl + 200
        0x000048d8:    e3a03000    .0..    MOV      r3,#0
        0x000048dc:    e3a02002    . ..    MOV      r2,#2
        0x000048e0:    e3a01005    ....    MOV      r1,#5
        0x000048e4:    e1a00003    ....    MOV      r0,r3
        0x000048e8:    ebffffce    ....    BL       RTC_Ioctl ; 0x4828
        0x000048ec:    e5c68001    ....    STRB     r8,[r6,#1]
        0x000048f0:    e5867014    .p..    STR      r7,[r6,#0x14]
        0x000048f4:    e5d40000    ....    LDRB     r0,[r4,#0]
        0x000048f8:    e3500007    ..P.    CMP      r0,#7
        0x000048fc:    9a000001    ....    BLS      0x4908 ; RTC_Ioctl + 224
        0x00004900:    e3a00007    ....    MOV      r0,#7
        0x00004904:    e8bd87f0    ....    POP      {r4-r10,pc}
        0x00004908:    e3a00001    ....    MOV      r0,#1
        0x0000490c:    eb0002cf    ....    BL       RTC_WriteEnable ; 0x5450
        0x00004910:    e5d40000    ....    LDRB     r0,[r4,#0]
        0x00004914:    e5850030    0...    STR      r0,[r5,#0x30]
        0x00004918:    ebffff05    ....    BL       RTC_Check ; 0x4534
        0x0000491c:    e5940004    ....    LDR      r0,[r4,#4]
        0x00004920:    e3500000    ..P.    CMP      r0,#0
        0x00004924:    0a000001    ....    BEQ      0x4930 ; RTC_Ioctl + 264
        0x00004928:    e5860004    ....    STR      r0,[r6,#4]
        0x0000492c:    ea000000    ....    B        0x4934 ; RTC_Ioctl + 268
        0x00004930:    e5867004    .p..    STR      r7,[r6,#4]
        0x00004934:    e5d60001    ....    LDRB     r0,[r6,#1]
        0x00004938:    e3500001    ..P.    CMP      r0,#1
        0x0000493c:    1a0000e5    ....    BNE      0x4cd8 ; RTC_Ioctl + 1200
        0x00004940:    e3a03000    .0..    MOV      r3,#0
        0x00004944:    e3a02002    . ..    MOV      r2,#2
        0x00004948:    e3a01004    ....    MOV      r1,#4
        0x0000494c:    e1a00003    ....    MOV      r0,r3
        0x00004950:    ebffffb4    ....    BL       RTC_Ioctl ; 0x4828
        0x00004954:    e3a00000    ....    MOV      r0,#0
        0x00004958:    e8bd87f0    ....    POP      {r4-r10,pc}
        0x0000495c:    e5960014    ....    LDR      r0,[r6,#0x14]
        0x00004960:    e5840000    ....    STR      r0,[r4,#0]
        0x00004964:    ea0000db    ....    B        0x4cd8 ; RTC_Ioctl + 1200
        0x00004968:    e5867014    .p..    STR      r7,[r6,#0x14]
        0x0000496c:    ea0000d9    ....    B        0x4cd8 ; RTC_Ioctl + 1200
        0x00004970:    e3500001    ..P.    CMP      r0,#1
        0x00004974:    0a00000b    ....    BEQ      0x49a8 ; RTC_Ioctl + 384
        0x00004978:    e3500002    ..P.    CMP      r0,#2
        0x0000497c:    0a000005    ....    BEQ      0x4998 ; RTC_Ioctl + 368
        0x00004980:    e3500008    ..P.    CMP      r0,#8
        0x00004984:    0a00001e    ....    BEQ      0x4a04 ; RTC_Ioctl + 476
        0x00004988:    e3500010    ..P.    CMP      r0,#0x10
        0x0000498c:    0a000012    ....    BEQ      0x49dc ; RTC_Ioctl + 436
        0x00004990:    e3a00007    ....    MOV      r0,#7
        0x00004994:    e8bd87f0    ....    POP      {r4-r10,pc}
        0x00004998:    e5c68001    ....    STRB     r8,[r6,#1]
        0x0000499c:    e5950028    (...    LDR      r0,[r5,#0x28]
        0x000049a0:    e3804002    .@..    ORR      r4,r0,#2
        0x000049a4:    ea000019    ....    B        0x4a10 ; RTC_Ioctl + 488
        0x000049a8:    e5c68002    ....    STRB     r8,[r6,#2]
        0x000049ac:    e3a00001    ....    MOV      r0,#1
        0x000049b0:    eb0002a6    ....    BL       RTC_WriteEnable ; 0x5450
        0x000049b4:    e5950034    4...    LDR      r0,[r5,#0x34]
        0x000049b8:    e3800008    ....    ORR      r0,r0,#8
        0x000049bc:    e5850034    4...    STR      r0,[r5,#0x34]
        0x000049c0:    e5950028    (...    LDR      r0,[r5,#0x28]
        0x000049c4:    e3800001    ....    ORR      r0,r0,#1
        0x000049c8:    e5850028    (...    STR      r0,[r5,#0x28]
        0x000049cc:    ebfffed8    ....    BL       RTC_Check ; 0x4534
        0x000049d0:    e5950028    (...    LDR      r0,[r5,#0x28]
        0x000049d4:    e3804001    .@..    ORR      r4,r0,#1
        0x000049d8:    ea00000c    ....    B        0x4a10 ; RTC_Ioctl + 488
        0x000049dc:    e5c68002    ....    STRB     r8,[r6,#2]
        0x000049e0:    e3a00001    ....    MOV      r0,#1
        0x000049e4:    eb000299    ....    BL       RTC_WriteEnable ; 0x5450
        0x000049e8:    e5950034    4...    LDR      r0,[r5,#0x34]
        0x000049ec:    e3800010    ....    ORR      r0,r0,#0x10
        0x000049f0:    e5850034    4...    STR      r0,[r5,#0x34]
        0x000049f4:    ebfffece    ....    BL       RTC_Check ; 0x4534
        0x000049f8:    e5950028    (...    LDR      r0,[r5,#0x28]
        0x000049fc:    e3804010    .@..    ORR      r4,r0,#0x10
        0x00004a00:    ea000002    ....    B        0x4a10 ; RTC_Ioctl + 488
        0x00004a04:    e5c68002    ....    STRB     r8,[r6,#2]
        0x00004a08:    e5950028    (...    LDR      r0,[r5,#0x28]
        0x00004a0c:    e3804008    .@..    ORR      r4,r0,#8
        0x00004a10:    e3a00001    ....    MOV      r0,#1
        0x00004a14:    eb00028d    ....    BL       RTC_WriteEnable ; 0x5450
        0x00004a18:    e5854028    (@..    STR      r4,[r5,#0x28]
        0x00004a1c:    ebfffec4    ....    BL       RTC_Check ; 0x4534
        0x00004a20:    ea0000ac    ....    B        0x4cd8 ; RTC_Ioctl + 1200
        0x00004a24:    e3500008    ..P.    CMP      r0,#8
        0x00004a28:    0a000034    4...    BEQ      0x4b00 ; RTC_Ioctl + 728
        0x00004a2c:    ca000004    ....    BGT      0x4a44 ; RTC_Ioctl + 540
        0x00004a30:    e3500001    ..P.    CMP      r0,#1
        0x00004a34:    0a000012    ....    BEQ      0x4a84 ; RTC_Ioctl + 604
        0x00004a38:    e3500002    ..P.    CMP      r0,#2
        0x00004a3c:    1a000004    ....    BNE      0x4a54 ; RTC_Ioctl + 556
        0x00004a40:    ea000005    ....    B        0x4a5c ; RTC_Ioctl + 564
        0x00004a44:    e3500010    ..P.    CMP      r0,#0x10
        0x00004a48:    0a00001c    ....    BEQ      0x4ac0 ; RTC_Ioctl + 664
        0x00004a4c:    e350003f    ?.P.    CMP      r0,#0x3f
        0x00004a50:    0a000034    4...    BEQ      0x4b28 ; RTC_Ioctl + 768
        0x00004a54:    e3a00007    ....    MOV      r0,#7
        0x00004a58:    e8bd87f0    ....    POP      {r4-r10,pc}
        0x00004a5c:    e5c67001    .p..    STRB     r7,[r6,#1]
        0x00004a60:    e3a00001    ....    MOV      r0,#1
        0x00004a64:    eb000279    y...    BL       RTC_WriteEnable ; 0x5450
        0x00004a68:    e5950028    (...    LDR      r0,[r5,#0x28]
        0x00004a6c:    e3c00002    ....    BIC      r0,r0,#2
        0x00004a70:    e5850028    (...    STR      r0,[r5,#0x28]
        0x00004a74:    e3a00002    ....    MOV      r0,#2
        0x00004a78:    e585002c    ,...    STR      r0,[r5,#0x2c]
        0x00004a7c:    ebfffeac    ....    BL       RTC_Check ; 0x4534
        0x00004a80:    ea000094    ....    B        0x4cd8 ; RTC_Ioctl + 1200
        0x00004a84:    e5c67002    .p..    STRB     r7,[r6,#2]
        0x00004a88:    e3a00001    ....    MOV      r0,#1
        0x00004a8c:    eb00026f    o...    BL       RTC_WriteEnable ; 0x5450
        0x00004a90:    e5950028    (...    LDR      r0,[r5,#0x28]
        0x00004a94:    e3c00001    ....    BIC      r0,r0,#1
        0x00004a98:    e5850028    (...    STR      r0,[r5,#0x28]
        0x00004a9c:    ebfffea4    ....    BL       RTC_Check ; 0x4534
        0x00004aa0:    e3a00001    ....    MOV      r0,#1
        0x00004aa4:    eb000269    i...    BL       RTC_WriteEnable ; 0x5450
        0x00004aa8:    e5950034    4...    LDR      r0,[r5,#0x34]
        0x00004aac:    e3c00008    ....    BIC      r0,r0,#8
        0x00004ab0:    e5850034    4...    STR      r0,[r5,#0x34]
        0x00004ab4:    ebfffe9e    ....    BL       RTC_Check ; 0x4534
        0x00004ab8:    e585802c    ,...    STR      r8,[r5,#0x2c]
        0x00004abc:    ea000085    ....    B        0x4cd8 ; RTC_Ioctl + 1200
        0x00004ac0:    e5c67002    .p..    STRB     r7,[r6,#2]
        0x00004ac4:    e3a00001    ....    MOV      r0,#1
        0x00004ac8:    eb000260    `...    BL       RTC_WriteEnable ; 0x5450
        0x00004acc:    e5950028    (...    LDR      r0,[r5,#0x28]
        0x00004ad0:    e3c00010    ....    BIC      r0,r0,#0x10
        0x00004ad4:    e5850028    (...    STR      r0,[r5,#0x28]
        0x00004ad8:    ebfffe95    ....    BL       RTC_Check ; 0x4534
        0x00004adc:    e3a00001    ....    MOV      r0,#1
        0x00004ae0:    eb00025a    Z...    BL       RTC_WriteEnable ; 0x5450
        0x00004ae4:    e5950034    4...    LDR      r0,[r5,#0x34]
        0x00004ae8:    e3c00010    ....    BIC      r0,r0,#0x10
        0x00004aec:    e5850034    4...    STR      r0,[r5,#0x34]
        0x00004af0:    ebfffe8f    ....    BL       RTC_Check ; 0x4534
        0x00004af4:    e3a00010    ....    MOV      r0,#0x10
        0x00004af8:    e585002c    ,...    STR      r0,[r5,#0x2c]
        0x00004afc:    ea000075    u...    B        0x4cd8 ; RTC_Ioctl + 1200
        0x00004b00:    e5c67002    .p..    STRB     r7,[r6,#2]
        0x00004b04:    e3a00001    ....    MOV      r0,#1
        0x00004b08:    eb000250    P...    BL       RTC_WriteEnable ; 0x5450
        0x00004b0c:    e5950028    (...    LDR      r0,[r5,#0x28]
        0x00004b10:    e3c00008    ....    BIC      r0,r0,#8
        0x00004b14:    e5850028    (...    STR      r0,[r5,#0x28]
        0x00004b18:    ebfffe85    ....    BL       RTC_Check ; 0x4534
        0x00004b1c:    e3a00008    ....    MOV      r0,#8
        0x00004b20:    e585002c    ,...    STR      r0,[r5,#0x2c]
        0x00004b24:    ea00006b    k...    B        0x4cd8 ; RTC_Ioctl + 1200
        0x00004b28:    e5c67001    .p..    STRB     r7,[r6,#1]
        0x00004b2c:    e5c67002    .p..    STRB     r7,[r6,#2]
        0x00004b30:    e3a00001    ....    MOV      r0,#1
        0x00004b34:    eb000245    E...    BL       RTC_WriteEnable ; 0x5450
        0x00004b38:    e5857028    (p..    STR      r7,[r5,#0x28]
        0x00004b3c:    e3a0003f    ?...    MOV      r0,#0x3f
        0x00004b40:    e585002c    ,...    STR      r0,[r5,#0x2c]
        0x00004b44:    ebfffe7a    z...    BL       RTC_Check ; 0x4534
        0x00004b48:    ea000062    b...    B        0x4cd8 ; RTC_Ioctl + 1200
        0x00004b4c:    e1a00004    ....    MOV      r0,r4
        0x00004b50:    ebfffe8e    ....    BL       RTC_DoFrequencyCompensation ; 0x4590
        0x00004b54:    e3500000    ..P.    CMP      r0,#0
        0x00004b58:    0a00005e    ^...    BEQ      0x4cd8 ; RTC_Ioctl + 1200
        0x00004b5c:    e3a00007    ....    MOV      r0,#7
        0x00004b60:    e8bd87f0    ....    POP      {r4-r10,pc}
        0x00004b64:    e3a00001    ....    MOV      r0,#1
        0x00004b68:    eb000238    8...    BL       RTC_WriteEnable ; 0x5450
        0x00004b6c:    e5950034    4...    LDR      r0,[r5,#0x34]
        0x00004b70:    e3800001    ....    ORR      r0,r0,#1
        0x00004b74:    e5850034    4...    STR      r0,[r5,#0x34]
        0x00004b78:    ebfffe6d    m...    BL       RTC_Check ; 0x4534
        0x00004b7c:    e5950034    4...    LDR      r0,[r5,#0x34]
        0x00004b80:    e3100001    ....    TST      r0,#1
        0x00004b84:    0afffffc    ....    BEQ      0x4b7c ; RTC_Ioctl + 852
        0x00004b88:    ea000052    R...    B        0x4cd8 ; RTC_Ioctl + 1200
        0x00004b8c:    e3a00001    ....    MOV      r0,#1
        0x00004b90:    eb00022e    ....    BL       RTC_WriteEnable ; 0x5450
        0x00004b94:    e5950034    4...    LDR      r0,[r5,#0x34]
        0x00004b98:    e3c00001    ....    BIC      r0,r0,#1
        0x00004b9c:    e3800002    ....    ORR      r0,r0,#2
        0x00004ba0:    e5850034    4...    STR      r0,[r5,#0x34]
        0x00004ba4:    ebfffe62    b...    BL       RTC_Check ; 0x4534
        0x00004ba8:    eafffffe    ....    B        0x4ba8 ; RTC_Ioctl + 896
        0x00004bac:    e3540004    ..T.    CMP      r4,#4
        0x00004bb0:    2a000000    ...*    BCS      0x4bb8 ; RTC_Ioctl + 912
        0x00004bb4:    e3a04004    .@..    MOV      r4,#4
        0x00004bb8:    e2444004    .@D.    SUB      r4,r4,#4
        0x00004bbc:    e3a00001    ....    MOV      r0,#1
        0x00004bc0:    eb000222    "...    BL       RTC_WriteEnable ; 0x5450
        0x00004bc4:    e5950034    4...    LDR      r0,[r5,#0x34]
        0x00004bc8:    e204100f    ....    AND      r1,r4,#0xf
        0x00004bcc:    e3c00a0f    ....    BIC      r0,r0,#0xf000
        0x00004bd0:    e1800601    ....    ORR      r0,r0,r1,LSL #12
        0x00004bd4:    e5850034    4...    STR      r0,[r5,#0x34]
        0x00004bd8:    ebfffe55    U...    BL       RTC_Check ; 0x4534
        0x00004bdc:    ea00003d    =...    B        0x4cd8 ; RTC_Ioctl + 1200
        0x00004be0:    e3a00001    ....    MOV      r0,#1
        0x00004be4:    eb000219    ....    BL       RTC_WriteEnable ; 0x5450
        0x00004be8:    e5950034    4...    LDR      r0,[r5,#0x34]
        0x00004bec:    e3800004    ....    ORR      r0,r0,#4
        0x00004bf0:    e5850034    4...    STR      r0,[r5,#0x34]
        0x00004bf4:    ebfffe4e    N...    BL       RTC_Check ; 0x4534
        0x00004bf8:    ea000036    6...    B        0x4cd8 ; RTC_Ioctl + 1200
        0x00004bfc:    e3a00001    ....    MOV      r0,#1
        0x00004c00:    eb000212    ....    BL       RTC_WriteEnable ; 0x5450
        0x00004c04:    e5950034    4...    LDR      r0,[r5,#0x34]
        0x00004c08:    e3c00004    ....    BIC      r0,r0,#4
        0x00004c0c:    e5850034    4...    STR      r0,[r5,#0x34]
        0x00004c10:    ebfffe47    G...    BL       RTC_Check ; 0x4534
        0x00004c14:    ea00002f    /...    B        0x4cd8 ; RTC_Ioctl + 1200
        0x00004c18:    e3a03000    .0..    MOV      r3,#0
        0x00004c1c:    e3a02008    . ..    MOV      r2,#8
        0x00004c20:    e3a01004    ....    MOV      r1,#4
        0x00004c24:    e1a00003    ....    MOV      r0,r3
        0x00004c28:    ebfffefe    ....    BL       RTC_Ioctl ; 0x4828
        0x00004c2c:    e3540000    ..T.    CMP      r4,#0
        0x00004c30:    0a000001    ....    BEQ      0x4c3c ; RTC_Ioctl + 1044
        0x00004c34:    e586400c    .@..    STR      r4,[r6,#0xc]
        0x00004c38:    ea000026    &...    B        0x4cd8 ; RTC_Ioctl + 1200
        0x00004c3c:    e586700c    .p..    STR      r7,[r6,#0xc]
        0x00004c40:    ea000024    $...    B        0x4cd8 ; RTC_Ioctl + 1200
        0x00004c44:    e3a00001    ....    MOV      r0,#1
        0x00004c48:    eb000200    ....    BL       RTC_WriteEnable ; 0x5450
        0x00004c4c:    e5950034    4...    LDR      r0,[r5,#0x34]
        0x00004c50:    e3100080    ....    TST      r0,#0x80
        0x00004c54:    0a000001    ....    BEQ      0x4c60 ; RTC_Ioctl + 1080
        0x00004c58:    e5848000    ....    STR      r8,[r4,#0]
        0x00004c5c:    ea00001d    ....    B        0x4cd8 ; RTC_Ioctl + 1200
        0x00004c60:    e5847000    .p..    STR      r7,[r4,#0]
        0x00004c64:    ea00001b    ....    B        0x4cd8 ; RTC_Ioctl + 1200
        0x00004c68:    e5c68002    ....    STRB     r8,[r6,#2]
        0x00004c6c:    e3a00001    ....    MOV      r0,#1
        0x00004c70:    eb0001f6    ....    BL       RTC_WriteEnable ; 0x5450
        0x00004c74:    e5950034    4...    LDR      r0,[r5,#0x34]
        0x00004c78:    e59f1070    p...    LDR      r1,[pc,#112] ; [0x4cf0] = 0xf000ffef
        0x00004c7c:    e0000001    ....    AND      r0,r0,r1
        0x00004c80:    e5850034    4...    STR      r0,[r5,#0x34]
        0x00004c84:    ebfffe2a    *...    BL       RTC_Check ; 0x4534
        0x00004c88:    e3a00001    ....    MOV      r0,#1
        0x00004c8c:    eb0001ef    ....    BL       RTC_WriteEnable ; 0x5450
        0x00004c90:    e5950034    4...    LDR      r0,[r5,#0x34]
        0x00004c94:    e3c41a0f    ....    BIC      r1,r4,#0xf000
        0x00004c98:    e3c0040f    ....    BIC      r0,r0,#0xf000000
        0x00004c9c:    e3c008ff    ....    BIC      r0,r0,#0xff0000
        0x00004ca0:    e1800801    ....    ORR      r0,r0,r1,LSL #16
        0x00004ca4:    e3800010    ....    ORR      r0,r0,#0x10
        0x00004ca8:    e5850034    4...    STR      r0,[r5,#0x34]
        0x00004cac:    ebfffe20     ...    BL       RTC_Check ; 0x4534
        0x00004cb0:    e5c68002    ....    STRB     r8,[r6,#2]
        0x00004cb4:    e3a00001    ....    MOV      r0,#1
        0x00004cb8:    eb0001e4    ....    BL       RTC_WriteEnable ; 0x5450
        0x00004cbc:    e5950028    (...    LDR      r0,[r5,#0x28]
        0x00004cc0:    e3800010    ....    ORR      r0,r0,#0x10
        0x00004cc4:    e5850028    (...    STR      r0,[r5,#0x28]
        0x00004cc8:    ebfffe19    ....    BL       RTC_Check ; 0x4534
        0x00004ccc:    e3590000    ..Y.    CMP      r9,#0
        0x00004cd0:    0a000000    ....    BEQ      0x4cd8 ; RTC_Ioctl + 1200
        0x00004cd4:    e5869010    ....    STR      r9,[r6,#0x10]
        0x00004cd8:    e3a00000    ....    MOV      r0,#0
        0x00004cdc:    e8bd87f0    ....    POP      {r4-r10,pc}
        0x00004ce0:    e3a00007    ....    MOV      r0,#7
        0x00004ce4:    e8bd87f0    ....    POP      {r4-r10,pc}
    $d
        0x00004ce8:    b8004000    .@..    DCD    3087024128
        0x00004cec:    0000da5c    \...    DCD    55900
        0x00004cf0:    f000ffef    ....    DCD    4026597359
    $a
    i.RTC_Read
    RTC_Read
        0x00004cf4:    e92d4010    .@-.    PUSH     {r4,lr}
        0x00004cf8:    e59fc258    X...    LDR      r12,[pc,#600] ; [0x4f58] = 0xb8004000
        0x00004cfc:    e59c2014    . ..    LDR      r2,[r12,#0x14]
        0x00004d00:    e20230ff    .0..    AND      r3,r2,#0xff
        0x00004d04:    e5c13000    .0..    STRB     r3,[r1,#0]
        0x00004d08:    e59c2018    . ..    LDR      r2,[r12,#0x18]
        0x00004d0c:    e5812010    . ..    STR      r2,[r1,#0x10]
        0x00004d10:    e59f2244    D"..    LDR      r2,[pc,#580] ; [0x4f5c] = 0xda5c
        0x00004d14:    e3500000    ..P.    CMP      r0,#0
        0x00004d18:    0a000003    ....    BEQ      0x4d2c ; RTC_Read + 56
        0x00004d1c:    e3500001    ..P.    CMP      r0,#1
        0x00004d20:    0a000006    ....    BEQ      0x4d40 ; RTC_Read + 76
        0x00004d24:    e3a00007    ....    MOV      r0,#7
        0x00004d28:    e8bd8010    ....    POP      {r4,pc}
        0x00004d2c:    e59c4010    .@..    LDR      r4,[r12,#0x10]
        0x00004d30:    e5824018    .@..    STR      r4,[r2,#0x18]
        0x00004d34:    e59cc00c    ....    LDR      r12,[r12,#0xc]
        0x00004d38:    e582c01c    ....    STR      r12,[r2,#0x1c]
        0x00004d3c:    ea000003    ....    B        0x4d50 ; RTC_Read + 92
        0x00004d40:    e59c4020     @..    LDR      r4,[r12,#0x20]
        0x00004d44:    e5824018    .@..    STR      r4,[r2,#0x18]
        0x00004d48:    e59cc01c    ....    LDR      r12,[r12,#0x1c]
        0x00004d4c:    e582c01c    ....    STR      r12,[r2,#0x1c]
        0x00004d50:    e592c018    ....    LDR      r12,[r2,#0x18]
        0x00004d54:    e20cc60f    ....    AND      r12,r12,#0xf00000
        0x00004d58:    e1a0ca2c    ,...    LSR      r12,r12,#20
        0x00004d5c:    e582c020     ...    STR      r12,[r2,#0x20]
        0x00004d60:    e592c018    ....    LDR      r12,[r2,#0x18]
        0x00004d64:    e20cc80f    ....    AND      r12,r12,#0xf0000
        0x00004d68:    e1a0c82c    ,...    LSR      r12,r12,#16
        0x00004d6c:    e582c024    $...    STR      r12,[r2,#0x24]
        0x00004d70:    e592c018    ....    LDR      r12,[r2,#0x18]
        0x00004d74:    e20cca01    ....    AND      r12,r12,#0x1000
        0x00004d78:    e1a0c62c    ,...    LSR      r12,r12,#12
        0x00004d7c:    e582c028    (...    STR      r12,[r2,#0x28]
        0x00004d80:    e592c018    ....    LDR      r12,[r2,#0x18]
        0x00004d84:    e20ccc0f    ....    AND      r12,r12,#0xf00
        0x00004d88:    e1a0c42c    ,...    LSR      r12,r12,#8
        0x00004d8c:    e582c02c    ,...    STR      r12,[r2,#0x2c]
        0x00004d90:    e592c018    ....    LDR      r12,[r2,#0x18]
        0x00004d94:    e20cc030    0...    AND      r12,r12,#0x30
        0x00004d98:    e1a0c22c    ,...    LSR      r12,r12,#4
        0x00004d9c:    e582c030    0...    STR      r12,[r2,#0x30]
        0x00004da0:    e592c018    ....    LDR      r12,[r2,#0x18]
        0x00004da4:    e20cc00f    ....    AND      r12,r12,#0xf
        0x00004da8:    e582c034    4...    STR      r12,[r2,#0x34]
        0x00004dac:    e592c020     ...    LDR      r12,[r2,#0x20]
        0x00004db0:    e08cc10c    ....    ADD      r12,r12,r12,LSL #2
        0x00004db4:    e1a0c08c    ....    LSL      r12,r12,#1
        0x00004db8:    e5924024    $@..    LDR      r4,[r2,#0x24]
        0x00004dbc:    e08cc004    ....    ADD      r12,r12,r4
        0x00004dc0:    e28cce7d    }...    ADD      r12,r12,#0x7d0
        0x00004dc4:    e581c01c    ....    STR      r12,[r1,#0x1c]
        0x00004dc8:    e592c028    (...    LDR      r12,[r2,#0x28]
        0x00004dcc:    e08cc10c    ....    ADD      r12,r12,r12,LSL #2
        0x00004dd0:    e1a0c08c    ....    LSL      r12,r12,#1
        0x00004dd4:    e592402c    ,@..    LDR      r4,[r2,#0x2c]
        0x00004dd8:    e08cc004    ....    ADD      r12,r12,r4
        0x00004ddc:    e581c018    ....    STR      r12,[r1,#0x18]
        0x00004de0:    e592c030    0...    LDR      r12,[r2,#0x30]
        0x00004de4:    e08cc10c    ....    ADD      r12,r12,r12,LSL #2
        0x00004de8:    e1a0c08c    ....    LSL      r12,r12,#1
        0x00004dec:    e5924034    4@..    LDR      r4,[r2,#0x34]
        0x00004df0:    e08cc004    ....    ADD      r12,r12,r4
        0x00004df4:    e581c014    ....    STR      r12,[r1,#0x14]
        0x00004df8:    e592c01c    ....    LDR      r12,[r2,#0x1c]
        0x00004dfc:    e20cc603    ....    AND      r12,r12,#0x300000
        0x00004e00:    e1a0ca2c    ,...    LSR      r12,r12,#20
        0x00004e04:    e582c038    8...    STR      r12,[r2,#0x38]
        0x00004e08:    e592c01c    ....    LDR      r12,[r2,#0x1c]
        0x00004e0c:    e20cc80f    ....    AND      r12,r12,#0xf0000
        0x00004e10:    e1a0c82c    ,...    LSR      r12,r12,#16
        0x00004e14:    e582c03c    <...    STR      r12,[r2,#0x3c]
        0x00004e18:    e592c01c    ....    LDR      r12,[r2,#0x1c]
        0x00004e1c:    e20cca07    ....    AND      r12,r12,#0x7000
        0x00004e20:    e1a0c62c    ,...    LSR      r12,r12,#12
        0x00004e24:    e582c040    @...    STR      r12,[r2,#0x40]
        0x00004e28:    e592c01c    ....    LDR      r12,[r2,#0x1c]
        0x00004e2c:    e20ccc0f    ....    AND      r12,r12,#0xf00
        0x00004e30:    e1a0c42c    ,...    LSR      r12,r12,#8
        0x00004e34:    e582c044    D...    STR      r12,[r2,#0x44]
        0x00004e38:    e592c01c    ....    LDR      r12,[r2,#0x1c]
        0x00004e3c:    e20cc070    p...    AND      r12,r12,#0x70
        0x00004e40:    e1a0c22c    ,...    LSR      r12,r12,#4
        0x00004e44:    e582c048    H...    STR      r12,[r2,#0x48]
        0x00004e48:    e592c01c    ....    LDR      r12,[r2,#0x1c]
        0x00004e4c:    e20cc00f    ....    AND      r12,r12,#0xf
        0x00004e50:    e582c04c    L...    STR      r12,[r2,#0x4c]
        0x00004e54:    e3530000    ..S.    CMP      r3,#0
        0x00004e58:    0a000013    ....    BEQ      0x4eac ; RTC_Read + 440
        0x00004e5c:    e5920038    8...    LDR      r0,[r2,#0x38]
        0x00004e60:    e0800100    ....    ADD      r0,r0,r0,LSL #2
        0x00004e64:    e1a00080    ....    LSL      r0,r0,#1
        0x00004e68:    e592303c    <0..    LDR      r3,[r2,#0x3c]
        0x00004e6c:    e0800003    ....    ADD      r0,r0,r3
        0x00004e70:    e581000c    ....    STR      r0,[r1,#0xc]
        0x00004e74:    e5920040    @...    LDR      r0,[r2,#0x40]
        0x00004e78:    e0800100    ....    ADD      r0,r0,r0,LSL #2
        0x00004e7c:    e1a00080    ....    LSL      r0,r0,#1
        0x00004e80:    e5923044    D0..    LDR      r3,[r2,#0x44]
        0x00004e84:    e0800003    ....    ADD      r0,r0,r3
        0x00004e88:    e5810008    ....    STR      r0,[r1,#8]
        0x00004e8c:    e5920048    H...    LDR      r0,[r2,#0x48]
        0x00004e90:    e0800100    ....    ADD      r0,r0,r0,LSL #2
        0x00004e94:    e1a00080    ....    LSL      r0,r0,#1
        0x00004e98:    e592204c    L ..    LDR      r2,[r2,#0x4c]
        0x00004e9c:    e0800002    ....    ADD      r0,r0,r2
        0x00004ea0:    e5810004    ....    STR      r0,[r1,#4]
        0x00004ea4:    e3a00000    ....    MOV      r0,#0
        0x00004ea8:    e8bd8010    ....    POP      {r4,pc}
        0x00004eac:    e5923038    80..    LDR      r3,[r2,#0x38]
        0x00004eb0:    e0833103    .1..    ADD      r3,r3,r3,LSL #2
        0x00004eb4:    e1a03083    .0..    LSL      r3,r3,#1
        0x00004eb8:    e592c03c    <...    LDR      r12,[r2,#0x3c]
        0x00004ebc:    e083300c    .0..    ADD      r3,r3,r12
        0x00004ec0:    e581300c    .0..    STR      r3,[r1,#0xc]
        0x00004ec4:    e3500000    ..P.    CMP      r0,#0
        0x00004ec8:    e3a04001    .@..    MOV      r4,#1
        0x00004ecc:    e3a0c002    ....    MOV      r12,#2
        0x00004ed0:    0a000004    ....    BEQ      0x4ee8 ; RTC_Read + 500
        0x00004ed4:    e353000c    ..S.    CMP      r3,#0xc
        0x00004ed8:    2a00000e    ...*    BCS      0x4f18 ; RTC_Read + 548
        0x00004edc:    e3530000    ..S.    CMP      r3,#0
        0x00004ee0:    0a000008    ....    BEQ      0x4f08 ; RTC_Read + 532
        0x00004ee4:    ea000009    ....    B        0x4f10 ; RTC_Read + 540
        0x00004ee8:    e3530015    ..S.    CMP      r3,#0x15
        0x00004eec:    3a000003    ...:    BCC      0x4f00 ; RTC_Read + 524
        0x00004ef0:    e5c1c001    ....    STRB     r12,[r1,#1]
        0x00004ef4:    e2430014    ..C.    SUB      r0,r3,#0x14
        0x00004ef8:    e581000c    ....    STR      r0,[r1,#0xc]
        0x00004efc:    ea000008    ....    B        0x4f24 ; RTC_Read + 560
        0x00004f00:    e5c14001    .@..    STRB     r4,[r1,#1]
        0x00004f04:    ea000006    ....    B        0x4f24 ; RTC_Read + 560
        0x00004f08:    e3a0000c    ....    MOV      r0,#0xc
        0x00004f0c:    e581000c    ....    STR      r0,[r1,#0xc]
        0x00004f10:    e5c14001    .@..    STRB     r4,[r1,#1]
        0x00004f14:    ea000002    ....    B        0x4f24 ; RTC_Read + 560
        0x00004f18:    e243000c    ..C.    SUB      r0,r3,#0xc
        0x00004f1c:    e581000c    ....    STR      r0,[r1,#0xc]
        0x00004f20:    e5c1c001    ....    STRB     r12,[r1,#1]
        0x00004f24:    e5920040    @...    LDR      r0,[r2,#0x40]
        0x00004f28:    e0800100    ....    ADD      r0,r0,r0,LSL #2
        0x00004f2c:    e1a00080    ....    LSL      r0,r0,#1
        0x00004f30:    e5923044    D0..    LDR      r3,[r2,#0x44]
        0x00004f34:    e0800003    ....    ADD      r0,r0,r3
        0x00004f38:    e5810008    ....    STR      r0,[r1,#8]
        0x00004f3c:    e5920048    H...    LDR      r0,[r2,#0x48]
        0x00004f40:    e0800100    ....    ADD      r0,r0,r0,LSL #2
        0x00004f44:    e1a00080    ....    LSL      r0,r0,#1
        0x00004f48:    e592204c    L ..    LDR      r2,[r2,#0x4c]
        0x00004f4c:    e0800002    ....    ADD      r0,r0,r2
        0x00004f50:    e5810004    ....    STR      r0,[r1,#4]
        0x00004f54:    eaffffd2    ....    B        0x4ea4 ; RTC_Read + 432
    $d
        0x00004f58:    b8004000    .@..    DCD    3087024128
        0x00004f5c:    0000da5c    \...    DCD    55900
    $a
    i.RTC_Write
    RTC_Write
        0x00004f60:    e92d41f0    .A-.    PUSH     {r4-r8,lr}
        0x00004f64:    e1a04001    .@..    MOV      r4,r1
        0x00004f68:    e5941018    ....    LDR      r1,[r4,#0x18]
        0x00004f6c:    e3510000    ..Q.    CMP      r1,#0
        0x00004f70:    0a000001    ....    BEQ      0x4f7c ; RTC_Write + 28
        0x00004f74:    e351000c    ..Q.    CMP      r1,#0xc
        0x00004f78:    9a000001    ....    BLS      0x4f84 ; RTC_Write + 36
        0x00004f7c:    e3a02001    . ..    MOV      r2,#1
        0x00004f80:    ea000000    ....    B        0x4f88 ; RTC_Write + 40
        0x00004f84:    e3a02000    . ..    MOV      r2,#0
        0x00004f88:    e594301c    .0..    LDR      r3,[r4,#0x1c]
        0x00004f8c:    e2433e7d    }>C.    SUB      r3,r3,#0x7d0
        0x00004f90:    e3530063    c.S.    CMP      r3,#0x63
        0x00004f94:    9a000001    ....    BLS      0x4fa0 ; RTC_Write + 64
        0x00004f98:    e3a0c001    ....    MOV      r12,#1
        0x00004f9c:    ea000000    ....    B        0x4fa4 ; RTC_Write + 68
        0x00004fa0:    e3a0c000    ....    MOV      r12,#0
        0x00004fa4:    e182500c    .P..    ORR      r5,r2,r12
        0x00004fa8:    e5942014    . ..    LDR      r2,[r4,#0x14]
        0x00004fac:    e3520000    ..R.    CMP      r2,#0
        0x00004fb0:    0a000001    ....    BEQ      0x4fbc ; RTC_Write + 92
        0x00004fb4:    e352001f    ..R.    CMP      r2,#0x1f
        0x00004fb8:    9a000001    ....    BLS      0x4fc4 ; RTC_Write + 100
        0x00004fbc:    e3a0c001    ....    MOV      r12,#1
        0x00004fc0:    ea000000    ....    B        0x4fc8 ; RTC_Write + 104
        0x00004fc4:    e3a0c000    ....    MOV      r12,#0
        0x00004fc8:    e19cc005    ....    ORRS     r12,r12,r5
        0x00004fcc:    0a000001    ....    BEQ      0x4fd8 ; RTC_Write + 120
        0x00004fd0:    e3a00001    ....    MOV      r0,#1
        0x00004fd4:    e8bd81f0    ....    POP      {r4-r8,pc}
        0x00004fd8:    e3530063    c.S.    CMP      r3,#0x63
        0x00004fdc:    9a000001    ....    BLS      0x4fe8 ; RTC_Write + 136
        0x00004fe0:    e3a00001    ....    MOV      r0,#1
        0x00004fe4:    e8bd81f0    ....    POP      {r4-r8,pc}
        0x00004fe8:    e3510000    ..Q.    CMP      r1,#0
        0x00004fec:    0a000001    ....    BEQ      0x4ff8 ; RTC_Write + 152
        0x00004ff0:    e351000c    ..Q.    CMP      r1,#0xc
        0x00004ff4:    9a000001    ....    BLS      0x5000 ; RTC_Write + 160
        0x00004ff8:    e3a00001    ....    MOV      r0,#1
        0x00004ffc:    e8bd81f0    ....    POP      {r4-r8,pc}
        0x00005000:    e3520000    ..R.    CMP      r2,#0
        0x00005004:    0a000001    ....    BEQ      0x5010 ; RTC_Write + 176
        0x00005008:    e352001f    ..R.    CMP      r2,#0x1f
        0x0000500c:    9a000001    ....    BLS      0x5018 ; RTC_Write + 184
        0x00005010:    e3a00001    ....    MOV      r0,#1
        0x00005014:    e8bd81f0    ....    POP      {r4-r8,pc}
        0x00005018:    e5d41000    ....    LDRB     r1,[r4,#0]
        0x0000501c:    e3510000    ..Q.    CMP      r1,#0
        0x00005020:    0a000003    ....    BEQ      0x5034 ; RTC_Write + 212
        0x00005024:    e3510001    ..Q.    CMP      r1,#1
        0x00005028:    0a000008    ....    BEQ      0x5050 ; RTC_Write + 240
        0x0000502c:    e3a00003    ....    MOV      r0,#3
        0x00005030:    e8bd81f0    ....    POP      {r4-r8,pc}
        0x00005034:    e594200c    . ..    LDR      r2,[r4,#0xc]
        0x00005038:    e3520000    ..R.    CMP      r2,#0
        0x0000503c:    0a000001    ....    BEQ      0x5048 ; RTC_Write + 232
        0x00005040:    e352000c    ..R.    CMP      r2,#0xc
        0x00005044:    9a000006    ....    BLS      0x5064 ; RTC_Write + 260
        0x00005048:    e3a00003    ....    MOV      r0,#3
        0x0000504c:    e8bd81f0    ....    POP      {r4-r8,pc}
        0x00005050:    e594200c    . ..    LDR      r2,[r4,#0xc]
        0x00005054:    e3520017    ..R.    CMP      r2,#0x17
        0x00005058:    9a000001    ....    BLS      0x5064 ; RTC_Write + 260
        0x0000505c:    e3a00003    ....    MOV      r0,#3
        0x00005060:    e8bd81f0    ....    POP      {r4-r8,pc}
        0x00005064:    e5942008    . ..    LDR      r2,[r4,#8]
        0x00005068:    e352003b    ;.R.    CMP      r2,#0x3b
        0x0000506c:    9a000001    ....    BLS      0x5078 ; RTC_Write + 280
        0x00005070:    e3a00003    ....    MOV      r0,#3
        0x00005074:    e8bd81f0    ....    POP      {r4-r8,pc}
        0x00005078:    e5942004    . ..    LDR      r2,[r4,#4]
        0x0000507c:    e352003b    ;.R.    CMP      r2,#0x3b
        0x00005080:    9a000001    ....    BLS      0x508c ; RTC_Write + 300
        0x00005084:    e3a00003    ....    MOV      r0,#3
        0x00005088:    e8bd81f0    ....    POP      {r4-r8,pc}
        0x0000508c:    e5942010    . ..    LDR      r2,[r4,#0x10]
        0x00005090:    e3520006    ..R.    CMP      r2,#6
        0x00005094:    9a000001    ....    BLS      0x50a0 ; RTC_Write + 320
        0x00005098:    e3a00004    ....    MOV      r0,#4
        0x0000509c:    e8bd81f0    ....    POP      {r4-r8,pc}
        0x000050a0:    e59f53a0    .S..    LDR      r5,[pc,#928] ; [0x5448] = 0xda5c
        0x000050a4:    e59f63a0    .c..    LDR      r6,[pc,#928] ; [0x544c] = 0xb8004000
        0x000050a8:    e3500000    ..P.    CMP      r0,#0
        0x000050ac:    e3a07000    .p..    MOV      r7,#0
        0x000050b0:    0a000003    ....    BEQ      0x50c4 ; RTC_Write + 356
        0x000050b4:    e3500001    ..P.    CMP      r0,#1
        0x000050b8:    0a000069    i...    BEQ      0x5264 ; RTC_Write + 772
        0x000050bc:    e3a00007    ....    MOV      r0,#7
        0x000050c0:    e8bd81f0    ....    POP      {r4-r8,pc}
        0x000050c4:    e3510000    ..Q.    CMP      r1,#0
        0x000050c8:    0a000051    Q...    BEQ      0x5214 ; RTC_Write + 692
        0x000050cc:    e3a07001    .p..    MOV      r7,#1
        0x000050d0:    e5c57000    .p..    STRB     r7,[r5,#0]
        0x000050d4:    e3a00001    ....    MOV      r0,#1
        0x000050d8:    eb0000dc    ....    BL       RTC_WriteEnable ; 0x5450
        0x000050dc:    e5867014    .p..    STR      r7,[r6,#0x14]
        0x000050e0:    ebfffd13    ....    BL       RTC_Check ; 0x4534
        0x000050e4:    e594000c    ....    LDR      r0,[r4,#0xc]
        0x000050e8:    e3a0100a    ....    MOV      r1,#0xa
        0x000050ec:    ebfff27b    {...    BL       __aeabi_uidiv ; 0x1ae0
        0x000050f0:    e5850038    8...    STR      r0,[r5,#0x38]
        0x000050f4:    e585103c    <...    STR      r1,[r5,#0x3c]
        0x000050f8:    e5940008    ....    LDR      r0,[r4,#8]
        0x000050fc:    e3a0100a    ....    MOV      r1,#0xa
        0x00005100:    ebfff276    v...    BL       __aeabi_uidiv ; 0x1ae0
        0x00005104:    e5850040    @...    STR      r0,[r5,#0x40]
        0x00005108:    e5851044    D...    STR      r1,[r5,#0x44]
        0x0000510c:    e5940004    ....    LDR      r0,[r4,#4]
        0x00005110:    e3a0100a    ....    MOV      r1,#0xa
        0x00005114:    ebfff271    q...    BL       __aeabi_uidiv ; 0x1ae0
        0x00005118:    e5850048    H...    STR      r0,[r5,#0x48]
        0x0000511c:    e585104c    L...    STR      r1,[r5,#0x4c]
        0x00005120:    e5950038    8...    LDR      r0,[r5,#0x38]
        0x00005124:    e1a00a00    ....    LSL      r0,r0,#20
        0x00005128:    e595103c    <...    LDR      r1,[r5,#0x3c]
        0x0000512c:    e1800801    ....    ORR      r0,r0,r1,LSL #16
        0x00005130:    e5951040    @...    LDR      r1,[r5,#0x40]
        0x00005134:    e1800601    ....    ORR      r0,r0,r1,LSL #12
        0x00005138:    e5951044    D...    LDR      r1,[r5,#0x44]
        0x0000513c:    e1800401    ....    ORR      r0,r0,r1,LSL #8
        0x00005140:    e5951048    H...    LDR      r1,[r5,#0x48]
        0x00005144:    e1800201    ....    ORR      r0,r0,r1,LSL #4
        0x00005148:    e595104c    L...    LDR      r1,[r5,#0x4c]
        0x0000514c:    e1800001    ....    ORR      r0,r0,r1
        0x00005150:    e5850018    ....    STR      r0,[r5,#0x18]
        0x00005154:    e3a00001    ....    MOV      r0,#1
        0x00005158:    eb0000bc    ....    BL       RTC_WriteEnable ; 0x5450
        0x0000515c:    e5950018    ....    LDR      r0,[r5,#0x18]
        0x00005160:    e586000c    ....    STR      r0,[r6,#0xc]
        0x00005164:    ebfffcf2    ....    BL       RTC_Check ; 0x4534
        0x00005168:    e594001c    ....    LDR      r0,[r4,#0x1c]
        0x0000516c:    e3a0100a    ....    MOV      r1,#0xa
        0x00005170:    e2400e7d    }.@.    SUB      r0,r0,#0x7d0
        0x00005174:    ebfff259    Y...    BL       __aeabi_uidiv ; 0x1ae0
        0x00005178:    e5850020     ...    STR      r0,[r5,#0x20]
        0x0000517c:    e5851024    $...    STR      r1,[r5,#0x24]
        0x00005180:    e5940018    ....    LDR      r0,[r4,#0x18]
        0x00005184:    e3a0100a    ....    MOV      r1,#0xa
        0x00005188:    ebfff254    T...    BL       __aeabi_uidiv ; 0x1ae0
        0x0000518c:    e5850028    (...    STR      r0,[r5,#0x28]
        0x00005190:    e585102c    ,...    STR      r1,[r5,#0x2c]
        0x00005194:    e5940014    ....    LDR      r0,[r4,#0x14]
        0x00005198:    e3a0100a    ....    MOV      r1,#0xa
        0x0000519c:    ebfff24f    O...    BL       __aeabi_uidiv ; 0x1ae0
        0x000051a0:    e5850030    0...    STR      r0,[r5,#0x30]
        0x000051a4:    e5851034    4...    STR      r1,[r5,#0x34]
        0x000051a8:    e5950020     ...    LDR      r0,[r5,#0x20]
        0x000051ac:    e1a00a00    ....    LSL      r0,r0,#20
        0x000051b0:    e5951024    $...    LDR      r1,[r5,#0x24]
        0x000051b4:    e1800801    ....    ORR      r0,r0,r1,LSL #16
        0x000051b8:    e5951028    (...    LDR      r1,[r5,#0x28]
        0x000051bc:    e1800601    ....    ORR      r0,r0,r1,LSL #12
        0x000051c0:    e595102c    ,...    LDR      r1,[r5,#0x2c]
        0x000051c4:    e1800401    ....    ORR      r0,r0,r1,LSL #8
        0x000051c8:    e5951030    0...    LDR      r1,[r5,#0x30]
        0x000051cc:    e1800201    ....    ORR      r0,r0,r1,LSL #4
        0x000051d0:    e5951034    4...    LDR      r1,[r5,#0x34]
        0x000051d4:    e1800001    ....    ORR      r0,r0,r1
        0x000051d8:    e5850018    ....    STR      r0,[r5,#0x18]
        0x000051dc:    e3a00001    ....    MOV      r0,#1
        0x000051e0:    eb00009a    ....    BL       RTC_WriteEnable ; 0x5450
        0x000051e4:    e5950018    ....    LDR      r0,[r5,#0x18]
        0x000051e8:    e5860010    ....    STR      r0,[r6,#0x10]
        0x000051ec:    ebfffcd0    ....    BL       RTC_Check ; 0x4534
        0x000051f0:    e3a00001    ....    MOV      r0,#1
        0x000051f4:    eb000095    ....    BL       RTC_WriteEnable ; 0x5450
        0x000051f8:    e5940010    ....    LDR      r0,[r4,#0x10]
        0x000051fc:    e5860018    ....    STR      r0,[r6,#0x18]
        0x00005200:    ebfffccb    ....    BL       RTC_Check ; 0x4534
        0x00005204:    e5d40000    ....    LDRB     r0,[r4,#0]
        0x00005208:    e3500000    ..P.    CMP      r0,#0
        0x0000520c:    0a00000c    ....    BEQ      0x5244 ; RTC_Write + 740
        0x00005210:    ea000011    ....    B        0x525c ; RTC_Write + 764
        0x00005214:    e5c57000    .p..    STRB     r7,[r5,#0]
        0x00005218:    e3a00001    ....    MOV      r0,#1
        0x0000521c:    eb00008b    ....    BL       RTC_WriteEnable ; 0x5450
        0x00005220:    e5867014    .p..    STR      r7,[r6,#0x14]
        0x00005224:    ebfffcc2    ....    BL       RTC_Check ; 0x4534
        0x00005228:    e5d40001    ....    LDRB     r0,[r4,#1]
        0x0000522c:    e3500002    ..P.    CMP      r0,#2
        0x00005230:    1affffab    ....    BNE      0x50e4 ; RTC_Write + 388
        0x00005234:    e594000c    ....    LDR      r0,[r4,#0xc]
        0x00005238:    e2800014    ....    ADD      r0,r0,#0x14
        0x0000523c:    e584000c    ....    STR      r0,[r4,#0xc]
        0x00005240:    eaffffa7    ....    B        0x50e4 ; RTC_Write + 388
        0x00005244:    e5d40001    ....    LDRB     r0,[r4,#1]
        0x00005248:    e3500002    ..P.    CMP      r0,#2
        0x0000524c:    1a000002    ....    BNE      0x525c ; RTC_Write + 764
        0x00005250:    e594000c    ....    LDR      r0,[r4,#0xc]
        0x00005254:    e2400014    ..@.    SUB      r0,r0,#0x14
        0x00005258:    e584000c    ....    STR      r0,[r4,#0xc]
        0x0000525c:    e3a00000    ....    MOV      r0,#0
        0x00005260:    e8bd81f0    ....    POP      {r4-r8,pc}
        0x00005264:    e3a00001    ....    MOV      r0,#1
        0x00005268:    eb000078    x...    BL       RTC_WriteEnable ; 0x5450
        0x0000526c:    e5960034    4...    LDR      r0,[r6,#0x34]
        0x00005270:    e3c00008    ....    BIC      r0,r0,#8
        0x00005274:    e5860034    4...    STR      r0,[r6,#0x34]
        0x00005278:    ebfffcad    ....    BL       RTC_Check ; 0x4534
        0x0000527c:    e5857008    .p..    STR      r7,[r5,#8]
        0x00005280:    e594001c    ....    LDR      r0,[r4,#0x1c]
        0x00005284:    e3a0100a    ....    MOV      r1,#0xa
        0x00005288:    e2400e7d    }.@.    SUB      r0,r0,#0x7d0
        0x0000528c:    ebfff213    ....    BL       __aeabi_uidiv ; 0x1ae0
        0x00005290:    e5850020     ...    STR      r0,[r5,#0x20]
        0x00005294:    e5851024    $...    STR      r1,[r5,#0x24]
        0x00005298:    e5940018    ....    LDR      r0,[r4,#0x18]
        0x0000529c:    e3a0100a    ....    MOV      r1,#0xa
        0x000052a0:    ebfff20e    ....    BL       __aeabi_uidiv ; 0x1ae0
        0x000052a4:    e5850028    (...    STR      r0,[r5,#0x28]
        0x000052a8:    e585102c    ,...    STR      r1,[r5,#0x2c]
        0x000052ac:    e5940014    ....    LDR      r0,[r4,#0x14]
        0x000052b0:    e3a0100a    ....    MOV      r1,#0xa
        0x000052b4:    ebfff209    ....    BL       __aeabi_uidiv ; 0x1ae0
        0x000052b8:    e5850030    0...    STR      r0,[r5,#0x30]
        0x000052bc:    e5851034    4...    STR      r1,[r5,#0x34]
        0x000052c0:    e5d40010    ....    LDRB     r0,[r4,#0x10]
        0x000052c4:    e1a00e80    ....    LSL      r0,r0,#29
        0x000052c8:    e1a002a0    ....    LSR      r0,r0,#5
        0x000052cc:    e5951020     ...    LDR      r1,[r5,#0x20]
        0x000052d0:    e1800a01    ....    ORR      r0,r0,r1,LSL #20
        0x000052d4:    e5951024    $...    LDR      r1,[r5,#0x24]
        0x000052d8:    e1800801    ....    ORR      r0,r0,r1,LSL #16
        0x000052dc:    e5951028    (...    LDR      r1,[r5,#0x28]
        0x000052e0:    e1800601    ....    ORR      r0,r0,r1,LSL #12
        0x000052e4:    e595102c    ,...    LDR      r1,[r5,#0x2c]
        0x000052e8:    e1800401    ....    ORR      r0,r0,r1,LSL #8
        0x000052ec:    e5951030    0...    LDR      r1,[r5,#0x30]
        0x000052f0:    e1800201    ....    ORR      r0,r0,r1,LSL #4
        0x000052f4:    e5951034    4...    LDR      r1,[r5,#0x34]
        0x000052f8:    e1800001    ....    ORR      r0,r0,r1
        0x000052fc:    e5850018    ....    STR      r0,[r5,#0x18]
        0x00005300:    e3a00001    ....    MOV      r0,#1
        0x00005304:    eb000051    Q...    BL       RTC_WriteEnable ; 0x5450
        0x00005308:    e5950018    ....    LDR      r0,[r5,#0x18]
        0x0000530c:    e5860020     ...    STR      r0,[r6,#0x20]
        0x00005310:    ebfffc87    ....    BL       RTC_Check ; 0x4534
        0x00005314:    e5d50000    ....    LDRB     r0,[r5,#0]
        0x00005318:    e3500000    ..P.    CMP      r0,#0
        0x0000531c:    1a000005    ....    BNE      0x5338 ; RTC_Write + 984
        0x00005320:    e5d40001    ....    LDRB     r0,[r4,#1]
        0x00005324:    e3500002    ..P.    CMP      r0,#2
        0x00005328:    1a000002    ....    BNE      0x5338 ; RTC_Write + 984
        0x0000532c:    e594000c    ....    LDR      r0,[r4,#0xc]
        0x00005330:    e2800014    ....    ADD      r0,r0,#0x14
        0x00005334:    e584000c    ....    STR      r0,[r4,#0xc]
        0x00005338:    e594000c    ....    LDR      r0,[r4,#0xc]
        0x0000533c:    e3a0100a    ....    MOV      r1,#0xa
        0x00005340:    ebfff1e6    ....    BL       __aeabi_uidiv ; 0x1ae0
        0x00005344:    e5850038    8...    STR      r0,[r5,#0x38]
        0x00005348:    e585103c    <...    STR      r1,[r5,#0x3c]
        0x0000534c:    e5940008    ....    LDR      r0,[r4,#8]
        0x00005350:    e3a0100a    ....    MOV      r1,#0xa
        0x00005354:    ebfff1e1    ....    BL       __aeabi_uidiv ; 0x1ae0
        0x00005358:    e5850040    @...    STR      r0,[r5,#0x40]
        0x0000535c:    e5851044    D...    STR      r1,[r5,#0x44]
        0x00005360:    e5940004    ....    LDR      r0,[r4,#4]
        0x00005364:    e3a0100a    ....    MOV      r1,#0xa
        0x00005368:    ebfff1dc    ....    BL       __aeabi_uidiv ; 0x1ae0
        0x0000536c:    e5850048    H...    STR      r0,[r5,#0x48]
        0x00005370:    e585104c    L...    STR      r1,[r5,#0x4c]
        0x00005374:    e5d40028    (...    LDRB     r0,[r4,#0x28]
        0x00005378:    e1a00f80    ....    LSL      r0,r0,#31
        0x0000537c:    e1a000a0    ....    LSR      r0,r0,#1
        0x00005380:    e5951038    8...    LDR      r1,[r5,#0x38]
        0x00005384:    e1800a01    ....    ORR      r0,r0,r1,LSL #20
        0x00005388:    e595103c    <...    LDR      r1,[r5,#0x3c]
        0x0000538c:    e1800801    ....    ORR      r0,r0,r1,LSL #16
        0x00005390:    e5d41024    $...    LDRB     r1,[r4,#0x24]
        0x00005394:    e2011001    ....    AND      r1,r1,#1
        0x00005398:    e1800e81    ....    ORR      r0,r0,r1,LSL #29
        0x0000539c:    e5951040    @...    LDR      r1,[r5,#0x40]
        0x000053a0:    e1800601    ....    ORR      r0,r0,r1,LSL #12
        0x000053a4:    e5951044    D...    LDR      r1,[r5,#0x44]
        0x000053a8:    e1800401    ....    ORR      r0,r0,r1,LSL #8
        0x000053ac:    e5d41020     ...    LDRB     r1,[r4,#0x20]
        0x000053b0:    e2011001    ....    AND      r1,r1,#1
        0x000053b4:    e1800e01    ....    ORR      r0,r0,r1,LSL #28
        0x000053b8:    e5951048    H...    LDR      r1,[r5,#0x48]
        0x000053bc:    e1800201    ....    ORR      r0,r0,r1,LSL #4
        0x000053c0:    e595104c    L...    LDR      r1,[r5,#0x4c]
        0x000053c4:    e1800001    ....    ORR      r0,r0,r1
        0x000053c8:    e5850018    ....    STR      r0,[r5,#0x18]
        0x000053cc:    e3a00001    ....    MOV      r0,#1
        0x000053d0:    eb00001e    ....    BL       RTC_WriteEnable ; 0x5450
        0x000053d4:    e5950018    ....    LDR      r0,[r5,#0x18]
        0x000053d8:    e586001c    ....    STR      r0,[r6,#0x1c]
        0x000053dc:    ebfffc54    T...    BL       RTC_Check ; 0x4534
        0x000053e0:    e5d40000    ....    LDRB     r0,[r4,#0]
        0x000053e4:    e3500000    ..P.    CMP      r0,#0
        0x000053e8:    1a000005    ....    BNE      0x5404 ; RTC_Write + 1188
        0x000053ec:    e5d40001    ....    LDRB     r0,[r4,#1]
        0x000053f0:    e3500002    ..P.    CMP      r0,#2
        0x000053f4:    1a000002    ....    BNE      0x5404 ; RTC_Write + 1188
        0x000053f8:    e594000c    ....    LDR      r0,[r4,#0xc]
        0x000053fc:    e2400014    ..@.    SUB      r0,r0,#0x14
        0x00005400:    e584000c    ....    STR      r0,[r4,#0xc]
        0x00005404:    e594002c    ,...    LDR      r0,[r4,#0x2c]
        0x00005408:    e3500000    ..P.    CMP      r0,#0
        0x0000540c:    0a000000    ....    BEQ      0x5414 ; RTC_Write + 1204
        0x00005410:    e5850008    ....    STR      r0,[r5,#8]
        0x00005414:    e3a03000    .0..    MOV      r3,#0
        0x00005418:    e3a02001    . ..    MOV      r2,#1
        0x0000541c:    e3a01004    ....    MOV      r1,#4
        0x00005420:    e1a00003    ....    MOV      r0,r3
        0x00005424:    ebfffcff    ....    BL       RTC_Ioctl ; 0x4828
        0x00005428:    e3a00001    ....    MOV      r0,#1
        0x0000542c:    eb000007    ....    BL       RTC_WriteEnable ; 0x5450
        0x00005430:    e5960034    4...    LDR      r0,[r6,#0x34]
        0x00005434:    e3800008    ....    ORR      r0,r0,#8
        0x00005438:    e5860034    4...    STR      r0,[r6,#0x34]
        0x0000543c:    ebfffc3c    <...    BL       RTC_Check ; 0x4534
        0x00005440:    e3a00000    ....    MOV      r0,#0
        0x00005444:    e8bd81f0    ....    POP      {r4-r8,pc}
    $d
        0x00005448:    0000da5c    \...    DCD    55900
        0x0000544c:    b8004000    .@..    DCD    3087024128
    $a
    i.RTC_WriteEnable
    RTC_WriteEnable
        0x00005450:    e92d4078    x@-.    PUSH     {r3-r6,lr}
        0x00005454:    e1a05000    .P..    MOV      r5,r0
        0x00005458:    ebfffc35    5...    BL       RTC_Check ; 0x4534
        0x0000545c:    e59f308c    .0..    LDR      r3,[pc,#140] ; [0x54f0] = 0xb8004000
        0x00005460:    e59f408c    .@..    LDR      r4,[pc,#140] ; [0x54f4] = 0xfff
        0x00005464:    e3550000    ..U.    CMP      r5,#0
        0x00005468:    e3a06000    .`..    MOV      r6,#0
        0x0000546c:    0a000012    ....    BEQ      0x54bc ; RTC_WriteEnable + 108
        0x00005470:    e59f0080    ....    LDR      r0,[pc,#128] ; [0x54f8] = 0xa965
        0x00005474:    e5830004    ....    STR      r0,[r3,#4]
        0x00005478:    ebfffc2d    -...    BL       RTC_Check ; 0x4534
        0x0000547c:    e58d6000    .`..    STR      r6,[sp,#0]
        0x00005480:    ea000005    ....    B        0x549c ; RTC_WriteEnable + 76
        0x00005484:    e5930004    ....    LDR      r0,[r3,#4]
        0x00005488:    e3100801    ....    TST      r0,#0x10000
        0x0000548c:    1a000005    ....    BNE      0x54a8 ; RTC_WriteEnable + 88
        0x00005490:    e59d0000    ....    LDR      r0,[sp,#0]
        0x00005494:    e2800001    ....    ADD      r0,r0,#1
        0x00005498:    e58d0000    ....    STR      r0,[sp,#0]
        0x0000549c:    e59d0000    ....    LDR      r0,[sp,#0]
        0x000054a0:    e1500004    ..P.    CMP      r0,r4
        0x000054a4:    bafffff6    ....    BLT      0x5484 ; RTC_WriteEnable + 52
        0x000054a8:    e59d0000    ....    LDR      r0,[sp,#0]
        0x000054ac:    e1500004    ..P.    CMP      r0,r4
        0x000054b0:    1a00000c    ....    BNE      0x54e8 ; RTC_WriteEnable + 152
        0x000054b4:    e3a00006    ....    MOV      r0,#6
        0x000054b8:    e8bd8078    x...    POP      {r3-r6,pc}
        0x000054bc:    e58d6000    .`..    STR      r6,[sp,#0]
        0x000054c0:    ea000005    ....    B        0x54dc ; RTC_WriteEnable + 140
        0x000054c4:    e5930004    ....    LDR      r0,[r3,#4]
        0x000054c8:    e3500000    ..P.    CMP      r0,#0
        0x000054cc:    0a000005    ....    BEQ      0x54e8 ; RTC_WriteEnable + 152
        0x000054d0:    e59d0000    ....    LDR      r0,[sp,#0]
        0x000054d4:    e2800001    ....    ADD      r0,r0,#1
        0x000054d8:    e58d0000    ....    STR      r0,[sp,#0]
        0x000054dc:    e59d0000    ....    LDR      r0,[sp,#0]
        0x000054e0:    e1500004    ..P.    CMP      r0,r4
        0x000054e4:    bafffff6    ....    BLT      0x54c4 ; RTC_WriteEnable + 116
        0x000054e8:    e3a00000    ....    MOV      r0,#0
        0x000054ec:    e8bd8078    x...    POP      {r3-r6,pc}
    $d
        0x000054f0:    b8004000    .@..    DCD    3087024128
        0x000054f4:    00000fff    ....    DCD    4095
        0x000054f8:    0000a965    e...    DCD    43365
    $a
    i.SDRAM_TO_NANDFLASH
    SDRAM_TO_NANDFLASH
        0x000054fc:    e92d4ff7    .O-.    PUSH     {r0-r2,r4-r11,lr}
        0x00005500:    e24dd010    ..M.    SUB      sp,sp,#0x10
        0x00005504:    e1a09001    ....    MOV      r9,r1
        0x00005508:    e59fb210    ....    LDR      r11,[pc,#528] ; [0x5720] = 0xd616
        0x0000550c:    e3a08000    ....    MOV      r8,#0
        0x00005510:    e58d8000    ....    STR      r8,[sp,#0]
        0x00005514:    e319003f    ?...    TST      r9,#0x3f
        0x00005518:    0a000002    ....    BEQ      0x5528 ; SDRAM_TO_NANDFLASH + 44
        0x0000551c:    e3a00000    ....    MOV      r0,#0
        0x00005520:    e28dd01c    ....    ADD      sp,sp,#0x1c
        0x00005524:    e8bd8ff0    ....    POP      {r4-r11,pc}
        0x00005528:    e59f01f4    ....    LDR      r0,[pc,#500] ; [0x5724] = 0xd4e8
        0x0000552c:    e3a01001    ....    MOV      r1,#1
        0x00005530:    e5c01002    ....    STRB     r1,[r0,#2]
        0x00005534:    e3a05000    .P..    MOV      r5,#0
        0x00005538:    ea000071    q...    B        0x5704 ; SDRAM_TO_NANDFLASH + 520
        0x0000553c:    e58d8004    ....    STR      r8,[sp,#4]
        0x00005540:    e58d8008    ....    STR      r8,[sp,#8]
        0x00005544:    e0897005    .p..    ADD      r7,r9,r5
        0x00005548:    e58d700c    .p..    STR      r7,[sp,#0xc]
        0x0000554c:    e59d000c    ....    LDR      r0,[sp,#0xc]
        0x00005550:    e310003f    ?...    TST      r0,#0x3f
        0x00005554:    1a000002    ....    BNE      0x5564 ; SDRAM_TO_NANDFLASH + 104
        0x00005558:    e59d000c    ....    LDR      r0,[sp,#0xc]
        0x0000555c:    e1a00320     ...    LSR      r0,r0,#6
        0x00005560:    ebfff9dc    ....    BL       NAND_EraseBlock ; 0x3cd8
        0x00005564:    e59d0010    ....    LDR      r0,[sp,#0x10]
        0x00005568:    e3a02b02    .+..    MOV      r2,#0x800
        0x0000556c:    e0801585    ....    ADD      r1,r0,r5,LSL #11
        0x00005570:    e59f01b0    ....    LDR      r0,[pc,#432] ; [0x5728] = 0x20d70
        0x00005574:    ebffec9d    ....    BL       __aeabi_memcpy ; 0x7f0
        0x00005578:    e3a00000    ....    MOV      r0,#0
        0x0000557c:    e59f11a4    ....    LDR      r1,[pc,#420] ; [0x5728] = 0x20d70
        0x00005580:    e59d2000    . ..    LDR      r2,[sp,#0]
        0x00005584:    e7d13000    .0..    LDRB     r3,[r1,r0]
        0x00005588:    e0826003    .`..    ADD      r6,r2,r3
        0x0000558c:    e58d6000    .`..    STR      r6,[sp,#0]
        0x00005590:    e2800001    ....    ADD      r0,r0,#1
        0x00005594:    e3500b02    ..P.    CMP      r0,#0x800
        0x00005598:    3afffff8    ...:    BCC      0x5580 ; SDRAM_TO_NANDFLASH + 132
        0x0000559c:    e59f2184    .!..    LDR      r2,[pc,#388] ; [0x5728] = 0x20d70
        0x000055a0:    e59d000c    ....    LDR      r0,[sp,#0xc]
        0x000055a4:    e3a03b02    .;..    MOV      r3,#0x800
        0x000055a8:    e3a01000    ....    MOV      r1,#0
        0x000055ac:    ebfffad9    ....    BL       NAND_WritePage ; 0x4118
        0x000055b0:    e3500000    ..P.    CMP      r0,#0
        0x000055b4:    0a000005    ....    BEQ      0x55d0 ; SDRAM_TO_NANDFLASH + 212
        0x000055b8:    e59d000c    ....    LDR      r0,[sp,#0xc]
        0x000055bc:    e1a00500    ....    LSL      r0,r0,#10
        0x000055c0:    e1a00820     ...    LSR      r0,r0,#16
        0x000055c4:    ebfff3cb    ....    BL       BAD_BLOCK_CHANGE ; 0x24f8
        0x000055c8:    ebfff3e3    ....    BL       BAD_BLOCK_MARK ; 0x255c
        0x000055cc:    eaffffcf    ....    B        0x5510 ; SDRAM_TO_NANDFLASH + 20
        0x000055d0:    e3a00000    ....    MOV      r0,#0
        0x000055d4:    e2800001    ....    ADD      r0,r0,#1
        0x000055d8:    e3c00801    ....    BIC      r0,r0,#0x10000
        0x000055dc:    e3500b02    ..P.    CMP      r0,#0x800
        0x000055e0:    3afffffb    ...:    BCC      0x55d4 ; SDRAM_TO_NANDFLASH + 216
        0x000055e4:    e59f4138    8A..    LDR      r4,[pc,#312] ; [0x5724] = 0xd4e8
        0x000055e8:    e59d000c    ....    LDR      r0,[sp,#0xc]
        0x000055ec:    e5942024    $ ..    LDR      r2,[r4,#0x24]
        0x000055f0:    e3a03b02    .;..    MOV      r3,#0x800
        0x000055f4:    e3a01000    ....    MOV      r1,#0
        0x000055f8:    ebfffa39    9...    BL       NAND_ReadPage ; 0x3ee4
        0x000055fc:    e59f0124    $...    LDR      r0,[pc,#292] ; [0x5728] = 0x20d70
        0x00005600:    e5941024    $...    LDR      r1,[r4,#0x24]
        0x00005604:    e3a02b02    .+..    MOV      r2,#0x800
        0x00005608:    faffec55    U...    BLX      memcmp ; 0x764
        0x0000560c:    e3500000    ..P.    CMP      r0,#0
        0x00005610:    0a000005    ....    BEQ      0x562c ; SDRAM_TO_NANDFLASH + 304
        0x00005614:    e59d000c    ....    LDR      r0,[sp,#0xc]
        0x00005618:    e1a00500    ....    LSL      r0,r0,#10
        0x0000561c:    e1a00820     ...    LSR      r0,r0,#16
        0x00005620:    ebfff3b4    ....    BL       BAD_BLOCK_CHANGE ; 0x24f8
        0x00005624:    ebfff3cc    ....    BL       BAD_BLOCK_MARK ; 0x255c
        0x00005628:    eaffffb8    ....    B        0x5510 ; SDRAM_TO_NANDFLASH + 20
        0x0000562c:    e3a0003f    ?...    MOV      r0,#0x3f
        0x00005630:    e1d00005    ....    BICS     r0,r0,r5
        0x00005634:    1a000031    1...    BNE      0x5700 ; SDRAM_TO_NANDFLASH + 516
        0x00005638:    e3a04000    .@..    MOV      r4,#0
        0x0000563c:    e59fa0e8    ....    LDR      r10,[pc,#232] ; [0x572c] = 0xd11c
        0x00005640:    e247703f    ?pG.    SUB      r7,r7,#0x3f
        0x00005644:    e79a0104    ....    LDR      r0,[r10,r4,LSL #2]
        0x00005648:    e1570000    ..W.    CMP      r7,r0
        0x0000564c:    1a000027    '...    BNE      0x56f0 ; SDRAM_TO_NANDFLASH + 500
        0x00005650:    e3540006    ..T.    CMP      r4,#6
        0x00005654:    308ff104    ...0    ADDCC    pc,pc,r4,LSL #2
        0x00005658:    ea000020     ...    B        0x56e0 ; SDRAM_TO_NANDFLASH + 484
        0x0000565c:    ea00001d    ....    B        0x56d8 ; SDRAM_TO_NANDFLASH + 476
        0x00005660:    ea000019    ....    B        0x56cc ; SDRAM_TO_NANDFLASH + 464
        0x00005664:    ea000015    ....    B        0x56c0 ; SDRAM_TO_NANDFLASH + 452
        0x00005668:    ea000011    ....    B        0x56b4 ; SDRAM_TO_NANDFLASH + 440
        0x0000566c:    ea000008    ....    B        0x5694 ; SDRAM_TO_NANDFLASH + 408
        0x00005670:    eaffffff    ....    B        0x5674 ; SDRAM_TO_NANDFLASH + 376
        0x00005674:    e5db0000    ....    LDRB     r0,[r11,#0]
        0x00005678:    e3800001    ....    ORR      r0,r0,#1
        0x0000567c:    e5cb0000    ....    STRB     r0,[r11,#0]
        0x00005680:    e59f00a8    ....    LDR      r0,[pc,#168] ; [0x5730] = 0xd864
        0x00005684:    e5901000    ....    LDR      r1,[r0,#0]
        0x00005688:    e59f00a4    ....    LDR      r0,[pc,#164] ; [0x5734] = 0xd620
        0x0000568c:    e5801000    ....    STR      r1,[r0,#0]
        0x00005690:    ea000012    ....    B        0x56e0 ; SDRAM_TO_NANDFLASH + 484
        0x00005694:    e5db0000    ....    LDRB     r0,[r11,#0]
        0x00005698:    e3800002    ....    ORR      r0,r0,#2
        0x0000569c:    e5cb0000    ....    STRB     r0,[r11,#0]
        0x000056a0:    e59f0088    ....    LDR      r0,[pc,#136] ; [0x5730] = 0xd864
        0x000056a4:    e5901000    ....    LDR      r1,[r0,#0]
        0x000056a8:    e59f0084    ....    LDR      r0,[pc,#132] ; [0x5734] = 0xd620
        0x000056ac:    e5801000    ....    STR      r1,[r0,#0]
        0x000056b0:    ea00000a    ....    B        0x56e0 ; SDRAM_TO_NANDFLASH + 484
        0x000056b4:    e3a00003    ....    MOV      r0,#3
        0x000056b8:    eb0002f0    ....    BL       W25Q128_Write ; 0x6280
        0x000056bc:    ea000007    ....    B        0x56e0 ; SDRAM_TO_NANDFLASH + 484
        0x000056c0:    e3a00002    ....    MOV      r0,#2
        0x000056c4:    eb0002ed    ....    BL       W25Q128_Write ; 0x6280
        0x000056c8:    ea000004    ....    B        0x56e0 ; SDRAM_TO_NANDFLASH + 484
        0x000056cc:    e3a00001    ....    MOV      r0,#1
        0x000056d0:    eb0002ea    ....    BL       W25Q128_Write ; 0x6280
        0x000056d4:    ea000001    ....    B        0x56e0 ; SDRAM_TO_NANDFLASH + 484
        0x000056d8:    e3a00000    ....    MOV      r0,#0
        0x000056dc:    eb0002e7    ....    BL       W25Q128_Write ; 0x6280
        0x000056e0:    e59f0050    P...    LDR      r0,[pc,#80] ; [0x5738] = 0x21e40
        0x000056e4:    e7806104    .a..    STR      r6,[r0,r4,LSL #2]
        0x000056e8:    e3a00007    ....    MOV      r0,#7
        0x000056ec:    eb0002e3    ....    BL       W25Q128_Write ; 0x6280
        0x000056f0:    e2844001    .@..    ADD      r4,r4,#1
        0x000056f4:    e3540006    ..T.    CMP      r4,#6
        0x000056f8:    3affffd1    ...:    BCC      0x5644 ; SDRAM_TO_NANDFLASH + 328
        0x000056fc:    e58d8000    ....    STR      r8,[sp,#0]
        0x00005700:    e2855001    .P..    ADD      r5,r5,#1
        0x00005704:    e59d0018    ....    LDR      r0,[sp,#0x18]
        0x00005708:    e1550300    ..U.    CMP      r5,r0,LSL #6
        0x0000570c:    3affff8a    ...:    BCC      0x553c ; SDRAM_TO_NANDFLASH + 64
        0x00005710:    e59f000c    ....    LDR      r0,[pc,#12] ; [0x5724] = 0xd4e8
        0x00005714:    e5c08002    ....    STRB     r8,[r0,#2]
        0x00005718:    e3a00001    ....    MOV      r0,#1
        0x0000571c:    eaffff7f    ....    B        0x5520 ; SDRAM_TO_NANDFLASH + 36
    $d
        0x00005720:    0000d616    ....    DCD    54806
        0x00005724:    0000d4e8    ....    DCD    54504
        0x00005728:    00020d70    p...    DCD    134512
        0x0000572c:    0000d11c    ....    DCD    53532
        0x00005730:    0000d864    d...    DCD    55396
        0x00005734:    0000d620     ...    DCD    54816
        0x00005738:    00021e40    @...    DCD    138816
    $a
    i.SEND_data
    SEND_data
        0x0000573c:    e92d4010    .@-.    PUSH     {r4,lr}
        0x00005740:    eb000217    ....    BL       Touch_int_disable ; 0x5fa4
        0x00005744:    e59f40e8    .@..    LDR      r4,[pc,#232] ; [0x5834] = 0xd3ec
        0x00005748:    e594203c    < ..    LDR      r2,[r4,#0x3c]
        0x0000574c:    e5941040    @...    LDR      r1,[r4,#0x40]
        0x00005750:    e3a00000    ....    MOV      r0,#0
        0x00005754:    e1520001    ..R.    CMP      r2,r1
        0x00005758:    2a00000c    ...*    BCS      0x5790 ; SEND_data + 84
        0x0000575c:    e5941040    @...    LDR      r1,[r4,#0x40]
        0x00005760:    e3510000    ..Q.    CMP      r1,#0
        0x00005764:    0a000009    ....    BEQ      0x5790 ; SEND_data + 84
        0x00005768:    e5941040    @...    LDR      r1,[r4,#0x40]
        0x0000576c:    e594203c    < ..    LDR      r2,[r4,#0x3c]
        0x00005770:    e0411002    ..A.    SUB      r1,r1,r2
        0x00005774:    e3510ffa    ..Q.    CMP      r1,#0x3e8
        0x00005778:    9a000003    ....    BLS      0x578c ; SEND_data + 80
        0x0000577c:    e1d411b0    ....    LDRH     r1,[r4,#0x10]
        0x00005780:    e1c411b2    ....    STRH     r1,[r4,#0x12]
        0x00005784:    e584003c    <...    STR      r0,[r4,#0x3c]
        0x00005788:    e5840040    @...    STR      r0,[r4,#0x40]
        0x0000578c:    e8bd8010    ....    POP      {r4,pc}
        0x00005790:    e594103c    <...    LDR      r1,[r4,#0x3c]
        0x00005794:    e5942040    @ ..    LDR      r2,[r4,#0x40]
        0x00005798:    e1510002    ..Q.    CMP      r1,r2
        0x0000579c:    3a000004    ...:    BCC      0x57b4 ; SEND_data + 120
        0x000057a0:    e5941040    @...    LDR      r1,[r4,#0x40]
        0x000057a4:    e3510ffa    ..Q.    CMP      r1,#0x3e8
        0x000057a8:    9a000001    ....    BLS      0x57b4 ; SEND_data + 120
        0x000057ac:    e584003c    <...    STR      r0,[r4,#0x3c]
        0x000057b0:    e5840040    @...    STR      r0,[r4,#0x40]
        0x000057b4:    e1d401b0    ....    LDRH     r0,[r4,#0x10]
        0x000057b8:    e1d411b2    ....    LDRH     r1,[r4,#0x12]
        0x000057bc:    e1500001    ..P.    CMP      r0,r1
        0x000057c0:    0a000019    ....    BEQ      0x582c ; SEND_data + 240
        0x000057c4:    e3a02001    . ..    MOV      r2,#1
        0x000057c8:    e5c42008    . ..    STRB     r2,[r4,#8]
        0x000057cc:    e3a02b02    .+..    MOV      r2,#0x800
        0x000057d0:    ebfff533    3...    BL       GET_READ_RXNUM ; 0x2ca4
        0x000057d4:    e1a02000    . ..    MOV      r2,r0
        0x000057d8:    e3a03000    .0..    MOV      r3,#0
        0x000057dc:    e5941038    8...    LDR      r1,[r4,#0x38]
        0x000057e0:    ea000009    ....    B        0x580c ; SEND_data + 208
        0x000057e4:    e1d4c1b2    ....    LDRH     r12,[r4,#0x12]
        0x000057e8:    e5940030    0...    LDR      r0,[r4,#0x30]
        0x000057ec:    e7d0000c    ....    LDRB     r0,[r0,r12]
        0x000057f0:    e7c10003    ....    STRB     r0,[r1,r3]
        0x000057f4:    e1d401b2    ....    LDRH     r0,[r4,#0x12]
        0x000057f8:    e2800001    ....    ADD      r0,r0,#1
        0x000057fc:    e3c00b7e    ~...    BIC      r0,r0,#0x1f800
        0x00005800:    e1c401b2    ....    STRH     r0,[r4,#0x12]
        0x00005804:    e2830001    ....    ADD      r0,r3,#1
        0x00005808:    e3c03801    .8..    BIC      r3,r0,#0x10000
        0x0000580c:    e1530002    ..S.    CMP      r3,r2
        0x00005810:    3afffff3    ...:    BCC      0x57e4 ; SEND_data + 168
        0x00005814:    e5940040    @...    LDR      r0,[r4,#0x40]
        0x00005818:    e0800002    ....    ADD      r0,r0,r2
        0x0000581c:    e5840040    @...    STR      r0,[r4,#0x40]
        0x00005820:    e59f0010    ....    LDR      r0,[pc,#16] ; [0x5838] = 0x205a0
        0x00005824:    e5d00008    ....    LDRB     r0,[r0,#8]
        0x00005828:    eb001929    )...    BL       uartWrite ; 0xbcd4
        0x0000582c:    e8bd4010    .@..    POP      {r4,lr}
        0x00005830:    ea0001dd    ....    B        Touch_int_enable ; 0x5fac
    $d
        0x00005834:    0000d3ec    ....    DCD    54252
        0x00005838:    000205a0    ....    DCD    132512
    $a
    i.SYS_Interrupt_Shell
    SYS_Interrupt_Shell
        0x0000583c:    e59f0008    ....    LDR      r0,[pc,#8] ; [0x584c] = 0xb8002000
        0x00005840:    e5901120     ...    LDR      r1,[r0,#0x120]
        0x00005844:    e28f0004    ....    ADR      r0,{pc}+0xc ; 0x5850
        0x00005848:    ea0014fe    ....    B        sysprintf ; 0xac48
    $d
        0x0000584c:    b8002000    . ..    DCD    3087015936
        0x00005850:    20525349    ISR     DCD    542266185
        0x00005854:    20746f6e    not     DCD    544501614
        0x00005858:    6e756f66    foun    DCD    1853189990
        0x0000585c:    49202164    d! I    DCD    1226842468
        0x00005860:    3d524e53    SNR=    DCD    1028804179
        0x00005864:    000a6425    %d..    DCD    680997
    $a
    i.SetZuobiao
    SetZuobiao
        0x00005868:    e59f2008    . ..    LDR      r2,[pc,#8] ; [0x5878] = 0xd3d8
        0x0000586c:    e5820000    ....    STR      r0,[r2,#0]
        0x00005870:    e5821004    ....    STR      r1,[r2,#4]
        0x00005874:    e12fff1e    ../.    BX       lr
    $d
        0x00005878:    0000d3d8    ....    DCD    54232
    $a
    i.SpiFlash_NormalPageProgram
    SpiFlash_NormalPageProgram
        0x0000587c:    e92d4070    p@-.    PUSH     {r4-r6,lr}
        0x00005880:    e1a04000    .@..    MOV      r4,r0
        0x00005884:    e1a05001    .P..    MOV      r5,r1
        0x00005888:    e1a06002    .`..    MOV      r6,r2
        0x0000588c:    e3a03000    .0..    MOV      r3,#0
        0x00005890:    e1a02003    . ..    MOV      r2,r3
        0x00005894:    e3a01009    ....    MOV      r1,#9
        0x00005898:    e1a00003    ....    MOV      r0,r3
        0x0000589c:    eb00100b    ....    BL       spiIoctl ; 0x98d0
        0x000058a0:    e3a01000    ....    MOV      r1,#0
        0x000058a4:    e3a02006    . ..    MOV      r2,#6
        0x000058a8:    e1a00001    ....    MOV      r0,r1
        0x000058ac:    eb001147    G...    BL       spiWrite ; 0x9dd0
        0x000058b0:    e3a03000    .0..    MOV      r3,#0
        0x000058b4:    e1a02003    . ..    MOV      r2,r3
        0x000058b8:    e1a01003    ....    MOV      r1,r3
        0x000058bc:    e1a00003    ....    MOV      r0,r3
        0x000058c0:    eb001002    ....    BL       spiIoctl ; 0x98d0
        0x000058c4:    e3a00000    ....    MOV      r0,#0
        0x000058c8:    eb000fd2    ....    BL       spiGetBusyStatus ; 0x9818
        0x000058cc:    e3500000    ..P.    CMP      r0,#0
        0x000058d0:    1afffffb    ....    BNE      0x58c4 ; SpiFlash_NormalPageProgram + 72
        0x000058d4:    e3a03000    .0..    MOV      r3,#0
        0x000058d8:    e1a02003    . ..    MOV      r2,r3
        0x000058dc:    e3a0100a    ....    MOV      r1,#0xa
        0x000058e0:    e1a00003    ....    MOV      r0,r3
        0x000058e4:    eb000ff9    ....    BL       spiIoctl ; 0x98d0
        0x000058e8:    e3a03000    .0..    MOV      r3,#0
        0x000058ec:    e1a02003    . ..    MOV      r2,r3
        0x000058f0:    e3a01009    ....    MOV      r1,#9
        0x000058f4:    e1a00003    ....    MOV      r0,r3
        0x000058f8:    eb000ff4    ....    BL       spiIoctl ; 0x98d0
        0x000058fc:    e3a01000    ....    MOV      r1,#0
        0x00005900:    e3a02002    . ..    MOV      r2,#2
        0x00005904:    e1a00001    ....    MOV      r0,r1
        0x00005908:    eb001130    0...    BL       spiWrite ; 0x9dd0
        0x0000590c:    e3a03000    .0..    MOV      r3,#0
        0x00005910:    e1a02003    . ..    MOV      r2,r3
        0x00005914:    e1a01003    ....    MOV      r1,r3
        0x00005918:    e1a00003    ....    MOV      r0,r3
        0x0000591c:    eb000feb    ....    BL       spiIoctl ; 0x98d0
        0x00005920:    e3a00000    ....    MOV      r0,#0
        0x00005924:    eb000fbb    ....    BL       spiGetBusyStatus ; 0x9818
        0x00005928:    e3500000    ..P.    CMP      r0,#0
        0x0000592c:    1afffffb    ....    BNE      0x5920 ; SpiFlash_NormalPageProgram + 164
        0x00005930:    e1a00404    ....    LSL      r0,r4,#8
        0x00005934:    e1a02c20     ,..    LSR      r2,r0,#24
        0x00005938:    e3a01000    ....    MOV      r1,#0
        0x0000593c:    e1a00001    ....    MOV      r0,r1
        0x00005940:    eb001122    "...    BL       spiWrite ; 0x9dd0
        0x00005944:    e3a03000    .0..    MOV      r3,#0
        0x00005948:    e1a02003    . ..    MOV      r2,r3
        0x0000594c:    e1a01003    ....    MOV      r1,r3
        0x00005950:    e1a00003    ....    MOV      r0,r3
        0x00005954:    eb000fdd    ....    BL       spiIoctl ; 0x98d0
        0x00005958:    e3a00000    ....    MOV      r0,#0
        0x0000595c:    eb000fad    ....    BL       spiGetBusyStatus ; 0x9818
        0x00005960:    e3500000    ..P.    CMP      r0,#0
        0x00005964:    1afffffb    ....    BNE      0x5958 ; SpiFlash_NormalPageProgram + 220
        0x00005968:    e1a00804    ....    LSL      r0,r4,#16
        0x0000596c:    e1a02c20     ,..    LSR      r2,r0,#24
        0x00005970:    e3a01000    ....    MOV      r1,#0
        0x00005974:    e1a00001    ....    MOV      r0,r1
        0x00005978:    eb001114    ....    BL       spiWrite ; 0x9dd0
        0x0000597c:    e3a03000    .0..    MOV      r3,#0
        0x00005980:    e1a02003    . ..    MOV      r2,r3
        0x00005984:    e1a01003    ....    MOV      r1,r3
        0x00005988:    e1a00003    ....    MOV      r0,r3
        0x0000598c:    eb000fcf    ....    BL       spiIoctl ; 0x98d0
        0x00005990:    e3a00000    ....    MOV      r0,#0
        0x00005994:    eb000f9f    ....    BL       spiGetBusyStatus ; 0x9818
        0x00005998:    e3500000    ..P.    CMP      r0,#0
        0x0000599c:    1afffffb    ....    BNE      0x5990 ; SpiFlash_NormalPageProgram + 276
        0x000059a0:    e3a01000    ....    MOV      r1,#0
        0x000059a4:    e20420ff    . ..    AND      r2,r4,#0xff
        0x000059a8:    e1a00001    ....    MOV      r0,r1
        0x000059ac:    eb001107    ....    BL       spiWrite ; 0x9dd0
        0x000059b0:    e3a03000    .0..    MOV      r3,#0
        0x000059b4:    e1a02003    . ..    MOV      r2,r3
        0x000059b8:    e1a01003    ....    MOV      r1,r3
        0x000059bc:    e1a00003    ....    MOV      r0,r3
        0x000059c0:    eb000fc2    ....    BL       spiIoctl ; 0x98d0
        0x000059c4:    e3a00000    ....    MOV      r0,#0
        0x000059c8:    eb000f92    ....    BL       spiGetBusyStatus ; 0x9818
        0x000059cc:    e3500000    ..P.    CMP      r0,#0
        0x000059d0:    1afffffb    ....    BNE      0x59c4 ; SpiFlash_NormalPageProgram + 328
        0x000059d4:    e3a04000    .@..    MOV      r4,#0
        0x000059d8:    ea00000d    ....    B        0x5a14 ; SpiFlash_NormalPageProgram + 408
        0x000059dc:    e3a01000    ....    MOV      r1,#0
        0x000059e0:    e7d52004    . ..    LDRB     r2,[r5,r4]
        0x000059e4:    e1a00001    ....    MOV      r0,r1
        0x000059e8:    eb0010f8    ....    BL       spiWrite ; 0x9dd0
        0x000059ec:    e3a03000    .0..    MOV      r3,#0
        0x000059f0:    e1a02003    . ..    MOV      r2,r3
        0x000059f4:    e1a01003    ....    MOV      r1,r3
        0x000059f8:    e1a00003    ....    MOV      r0,r3
        0x000059fc:    eb000fb3    ....    BL       spiIoctl ; 0x98d0
        0x00005a00:    e3a00000    ....    MOV      r0,#0
        0x00005a04:    eb000f83    ....    BL       spiGetBusyStatus ; 0x9818
        0x00005a08:    e3500000    ..P.    CMP      r0,#0
        0x00005a0c:    1afffffb    ....    BNE      0x5a00 ; SpiFlash_NormalPageProgram + 388
        0x00005a10:    e2844001    .@..    ADD      r4,r4,#1
        0x00005a14:    e1540006    ..T.    CMP      r4,r6
        0x00005a18:    3affffef    ...:    BCC      0x59dc ; SpiFlash_NormalPageProgram + 352
        0x00005a1c:    e3a03000    .0..    MOV      r3,#0
        0x00005a20:    e1a02003    . ..    MOV      r2,r3
        0x00005a24:    e3a0100a    ....    MOV      r1,#0xa
        0x00005a28:    e1a00003    ....    MOV      r0,r3
        0x00005a2c:    eb000fa7    ....    BL       spiIoctl ; 0x98d0
        0x00005a30:    e8bd4070    p@..    POP      {r4-r6,lr}
        0x00005a34:    ea00014a    J...    B        SpiFlash_WaitReady ; 0x5f64
    i.SpiFlash_NormalPageProgram_16
    SpiFlash_NormalPageProgram_16
        0x00005a38:    e92d41f0    .A-.    PUSH     {r4-r8,lr}
        0x00005a3c:    e1a06000    .`..    MOV      r6,r0
        0x00005a40:    e1a07001    .p..    MOV      r7,r1
        0x00005a44:    e1a05002    .P..    MOV      r5,r2
        0x00005a48:    e1b00a06    ....    LSLS     r0,r6,#20
        0x00005a4c:    1a00001b    ....    BNE      0x5ac0 ; SpiFlash_NormalPageProgram_16 + 136
        0x00005a50:    e3550a01    ..U.    CMP      r5,#0x1000
        0x00005a54:    8a000019    ....    BHI      0x5ac0 ; SpiFlash_NormalPageProgram_16 + 136
        0x00005a58:    e1a00006    ....    MOV      r0,r6
        0x00005a5c:    eb0000e5    ....    BL       SpiFlash_SectorErase ; 0x5df8
        0x00005a60:    e3550c01    ..U.    CMP      r5,#0x100
        0x00005a64:    9a000001    ....    BLS      0x5a70 ; SpiFlash_NormalPageProgram_16 + 56
        0x00005a68:    e3a04c01    .L..    MOV      r4,#0x100
        0x00005a6c:    ea000011    ....    B        0x5ab8 ; SpiFlash_NormalPageProgram_16 + 128
        0x00005a70:    e1a04005    .@..    MOV      r4,r5
        0x00005a74:    ea00000f    ....    B        0x5ab8 ; SpiFlash_NormalPageProgram_16 + 128
        0x00005a78:    e1a02004    . ..    MOV      r2,r4
        0x00005a7c:    e1a01007    ....    MOV      r1,r7
        0x00005a80:    e1a00006    ....    MOV      r0,r6
        0x00005a84:    ebffff7c    |...    BL       SpiFlash_NormalPageProgram ; 0x587c
        0x00005a88:    e0450004    ..E.    SUB      r0,r5,r4
        0x00005a8c:    e1a05800    .X..    LSL      r5,r0,#16
        0x00005a90:    e1a05825    %X..    LSR      r5,r5,#16
        0x00005a94:    e3550000    ..U.    CMP      r5,#0
        0x00005a98:    0a000001    ....    BEQ      0x5aa4 ; SpiFlash_NormalPageProgram_16 + 108
        0x00005a9c:    e0877004    .p..    ADD      r7,r7,r4
        0x00005aa0:    e0866004    .`..    ADD      r6,r6,r4
        0x00005aa4:    e3550c01    ..U.    CMP      r5,#0x100
        0x00005aa8:    9a000001    ....    BLS      0x5ab4 ; SpiFlash_NormalPageProgram_16 + 124
        0x00005aac:    e3a04c01    .L..    MOV      r4,#0x100
        0x00005ab0:    ea000000    ....    B        0x5ab8 ; SpiFlash_NormalPageProgram_16 + 128
        0x00005ab4:    e1a04005    .@..    MOV      r4,r5
        0x00005ab8:    e3540000    ..T.    CMP      r4,#0
        0x00005abc:    1affffed    ....    BNE      0x5a78 ; SpiFlash_NormalPageProgram_16 + 64
        0x00005ac0:    e8bd81f0    ....    POP      {r4-r8,pc}
    i.SpiFlash_NormalPageProgram_32
    SpiFlash_NormalPageProgram_32
        0x00005ac4:    e92d4070    p@-.    PUSH     {r4-r6,lr}
        0x00005ac8:    e1a05000    .P..    MOV      r5,r0
        0x00005acc:    e1a06001    .`..    MOV      r6,r1
        0x00005ad0:    e1b00805    ....    LSLS     r0,r5,#16
        0x00005ad4:    1a00000e    ....    BNE      0x5b14 ; SpiFlash_NormalPageProgram_32 + 80
        0x00005ad8:    e3520802    ..R.    CMP      r2,#0x20000
        0x00005adc:    1a00000c    ....    BNE      0x5b14 ; SpiFlash_NormalPageProgram_32 + 80
        0x00005ae0:    e3a04000    .@..    MOV      r4,#0
        0x00005ae4:    e3a02a01    .*..    MOV      r2,#0x1000
        0x00005ae8:    e1a01006    ....    MOV      r1,r6
        0x00005aec:    e1a00005    ....    MOV      r0,r5
        0x00005af0:    ebffffd0    ....    BL       SpiFlash_NormalPageProgram_16 ; 0x5a38
        0x00005af4:    e354001f    ..T.    CMP      r4,#0x1f
        0x00005af8:    0a000001    ....    BEQ      0x5b04 ; SpiFlash_NormalPageProgram_32 + 64
        0x00005afc:    e2855a01    .Z..    ADD      r5,r5,#0x1000
        0x00005b00:    e2866a01    .j..    ADD      r6,r6,#0x1000
        0x00005b04:    e2840001    ....    ADD      r0,r4,#1
        0x00005b08:    e3c04801    .H..    BIC      r4,r0,#0x10000
        0x00005b0c:    e3540020     .T.    CMP      r4,#0x20
        0x00005b10:    3afffff3    ...:    BCC      0x5ae4 ; SpiFlash_NormalPageProgram_32 + 32
        0x00005b14:    e8bd8070    p...    POP      {r4-r6,pc}
    i.SpiFlash_NormalRead
    SpiFlash_NormalRead
        0x00005b18:    e92d4070    p@-.    PUSH     {r4-r6,lr}
        0x00005b1c:    e1a04000    .@..    MOV      r4,r0
        0x00005b20:    e1a05001    .P..    MOV      r5,r1
        0x00005b24:    e1a06002    .`..    MOV      r6,r2
        0x00005b28:    e3a03000    .0..    MOV      r3,#0
        0x00005b2c:    e1a02003    . ..    MOV      r2,r3
        0x00005b30:    e3a01009    ....    MOV      r1,#9
        0x00005b34:    e1a00003    ....    MOV      r0,r3
        0x00005b38:    eb000f64    d...    BL       spiIoctl ; 0x98d0
        0x00005b3c:    e3a01000    ....    MOV      r1,#0
        0x00005b40:    e3a02003    . ..    MOV      r2,#3
        0x00005b44:    e1a00001    ....    MOV      r0,r1
        0x00005b48:    eb0010a0    ....    BL       spiWrite ; 0x9dd0
        0x00005b4c:    e3a03000    .0..    MOV      r3,#0
        0x00005b50:    e1a02003    . ..    MOV      r2,r3
        0x00005b54:    e1a01003    ....    MOV      r1,r3
        0x00005b58:    e1a00003    ....    MOV      r0,r3
        0x00005b5c:    eb000f5b    [...    BL       spiIoctl ; 0x98d0
        0x00005b60:    e3a00000    ....    MOV      r0,#0
        0x00005b64:    eb000f2b    +...    BL       spiGetBusyStatus ; 0x9818
        0x00005b68:    e3500000    ..P.    CMP      r0,#0
        0x00005b6c:    1afffffb    ....    BNE      0x5b60 ; SpiFlash_NormalRead + 72
        0x00005b70:    e1a00404    ....    LSL      r0,r4,#8
        0x00005b74:    e1a02c20     ,..    LSR      r2,r0,#24
        0x00005b78:    e3a01000    ....    MOV      r1,#0
        0x00005b7c:    e1a00001    ....    MOV      r0,r1
        0x00005b80:    eb001092    ....    BL       spiWrite ; 0x9dd0
        0x00005b84:    e3a03000    .0..    MOV      r3,#0
        0x00005b88:    e1a02003    . ..    MOV      r2,r3
        0x00005b8c:    e1a01003    ....    MOV      r1,r3
        0x00005b90:    e1a00003    ....    MOV      r0,r3
        0x00005b94:    eb000f4d    M...    BL       spiIoctl ; 0x98d0
        0x00005b98:    e3a00000    ....    MOV      r0,#0
        0x00005b9c:    eb000f1d    ....    BL       spiGetBusyStatus ; 0x9818
        0x00005ba0:    e3500000    ..P.    CMP      r0,#0
        0x00005ba4:    1afffffb    ....    BNE      0x5b98 ; SpiFlash_NormalRead + 128
        0x00005ba8:    e1a00804    ....    LSL      r0,r4,#16
        0x00005bac:    e1a02c20     ,..    LSR      r2,r0,#24
        0x00005bb0:    e3a01000    ....    MOV      r1,#0
        0x00005bb4:    e1a00001    ....    MOV      r0,r1
        0x00005bb8:    eb001084    ....    BL       spiWrite ; 0x9dd0
        0x00005bbc:    e3a03000    .0..    MOV      r3,#0
        0x00005bc0:    e1a02003    . ..    MOV      r2,r3
        0x00005bc4:    e1a01003    ....    MOV      r1,r3
        0x00005bc8:    e1a00003    ....    MOV      r0,r3
        0x00005bcc:    eb000f3f    ?...    BL       spiIoctl ; 0x98d0
        0x00005bd0:    e3a00000    ....    MOV      r0,#0
        0x00005bd4:    eb000f0f    ....    BL       spiGetBusyStatus ; 0x9818
        0x00005bd8:    e3500000    ..P.    CMP      r0,#0
        0x00005bdc:    1afffffb    ....    BNE      0x5bd0 ; SpiFlash_NormalRead + 184
        0x00005be0:    e3a01000    ....    MOV      r1,#0
        0x00005be4:    e20420ff    . ..    AND      r2,r4,#0xff
        0x00005be8:    e1a00001    ....    MOV      r0,r1
        0x00005bec:    eb001077    w...    BL       spiWrite ; 0x9dd0
        0x00005bf0:    e3a03000    .0..    MOV      r3,#0
        0x00005bf4:    e1a02003    . ..    MOV      r2,r3
        0x00005bf8:    e1a01003    ....    MOV      r1,r3
        0x00005bfc:    e1a00003    ....    MOV      r0,r3
        0x00005c00:    eb000f32    2...    BL       spiIoctl ; 0x98d0
        0x00005c04:    e3a00000    ....    MOV      r0,#0
        0x00005c08:    eb000f02    ....    BL       spiGetBusyStatus ; 0x9818
        0x00005c0c:    e3500000    ..P.    CMP      r0,#0
        0x00005c10:    1afffffb    ....    BNE      0x5c04 ; SpiFlash_NormalRead + 236
        0x00005c14:    e3a04000    .@..    MOV      r4,#0
        0x00005c18:    ea000011    ....    B        0x5c64 ; SpiFlash_NormalRead + 332
        0x00005c1c:    e3a02000    . ..    MOV      r2,#0
        0x00005c20:    e1a01002    ....    MOV      r1,r2
        0x00005c24:    e1a00002    ....    MOV      r0,r2
        0x00005c28:    eb001068    h...    BL       spiWrite ; 0x9dd0
        0x00005c2c:    e3a03000    .0..    MOV      r3,#0
        0x00005c30:    e1a02003    . ..    MOV      r2,r3
        0x00005c34:    e1a01003    ....    MOV      r1,r3
        0x00005c38:    e1a00003    ....    MOV      r0,r3
        0x00005c3c:    eb000f23    #...    BL       spiIoctl ; 0x98d0
        0x00005c40:    e3a00000    ....    MOV      r0,#0
        0x00005c44:    eb000ef3    ....    BL       spiGetBusyStatus ; 0x9818
        0x00005c48:    e3500000    ..P.    CMP      r0,#0
        0x00005c4c:    1afffffb    ....    BNE      0x5c40 ; SpiFlash_NormalRead + 296
        0x00005c50:    e3a01000    ....    MOV      r1,#0
        0x00005c54:    e1a00001    ....    MOV      r0,r1
        0x00005c58:    eb001044    D...    BL       spiRead ; 0x9d70
        0x00005c5c:    e7c50004    ....    STRB     r0,[r5,r4]
        0x00005c60:    e2844001    .@..    ADD      r4,r4,#1
        0x00005c64:    e1540006    ..T.    CMP      r4,r6
        0x00005c68:    3affffeb    ...:    BCC      0x5c1c ; SpiFlash_NormalRead + 260
        0x00005c6c:    e8bd4070    p@..    POP      {r4-r6,lr}
        0x00005c70:    ea0000bb    ....    B        SpiFlash_WaitReady ; 0x5f64
    i.SpiFlash_NormalRead_16
    SpiFlash_NormalRead_16
        0x00005c74:    e92d41f0    .A-.    PUSH     {r4-r8,lr}
        0x00005c78:    e1a06000    .`..    MOV      r6,r0
        0x00005c7c:    e1a07001    .p..    MOV      r7,r1
        0x00005c80:    e1a05002    .P..    MOV      r5,r2
        0x00005c84:    e1b00a06    ....    LSLS     r0,r6,#20
        0x00005c88:    1a000019    ....    BNE      0x5cf4 ; SpiFlash_NormalRead_16 + 128
        0x00005c8c:    e3550a01    ..U.    CMP      r5,#0x1000
        0x00005c90:    8a000017    ....    BHI      0x5cf4 ; SpiFlash_NormalRead_16 + 128
        0x00005c94:    e3550c01    ..U.    CMP      r5,#0x100
        0x00005c98:    9a000001    ....    BLS      0x5ca4 ; SpiFlash_NormalRead_16 + 48
        0x00005c9c:    e3a04c01    .L..    MOV      r4,#0x100
        0x00005ca0:    ea000011    ....    B        0x5cec ; SpiFlash_NormalRead_16 + 120
        0x00005ca4:    e1a04005    .@..    MOV      r4,r5
        0x00005ca8:    ea00000f    ....    B        0x5cec ; SpiFlash_NormalRead_16 + 120
        0x00005cac:    e1a02004    . ..    MOV      r2,r4
        0x00005cb0:    e1a01007    ....    MOV      r1,r7
        0x00005cb4:    e1a00006    ....    MOV      r0,r6
        0x00005cb8:    ebffff96    ....    BL       SpiFlash_NormalRead ; 0x5b18
        0x00005cbc:    e0450004    ..E.    SUB      r0,r5,r4
        0x00005cc0:    e1a05800    .X..    LSL      r5,r0,#16
        0x00005cc4:    e1a05825    %X..    LSR      r5,r5,#16
        0x00005cc8:    e3550000    ..U.    CMP      r5,#0
        0x00005ccc:    0a000001    ....    BEQ      0x5cd8 ; SpiFlash_NormalRead_16 + 100
        0x00005cd0:    e0866004    .`..    ADD      r6,r6,r4
        0x00005cd4:    e0877004    .p..    ADD      r7,r7,r4
        0x00005cd8:    e3550c01    ..U.    CMP      r5,#0x100
        0x00005cdc:    9a000001    ....    BLS      0x5ce8 ; SpiFlash_NormalRead_16 + 116
        0x00005ce0:    e3a04c01    .L..    MOV      r4,#0x100
        0x00005ce4:    ea000000    ....    B        0x5cec ; SpiFlash_NormalRead_16 + 120
        0x00005ce8:    e1a04005    .@..    MOV      r4,r5
        0x00005cec:    e3540000    ..T.    CMP      r4,#0
        0x00005cf0:    1affffed    ....    BNE      0x5cac ; SpiFlash_NormalRead_16 + 56
        0x00005cf4:    e8bd81f0    ....    POP      {r4-r8,pc}
    i.SpiFlash_NormalRead_32
    SpiFlash_NormalRead_32
        0x00005cf8:    e92d4070    p@-.    PUSH     {r4-r6,lr}
        0x00005cfc:    e1a05000    .P..    MOV      r5,r0
        0x00005d00:    e1a06001    .`..    MOV      r6,r1
        0x00005d04:    e1b00805    ....    LSLS     r0,r5,#16
        0x00005d08:    1a00000e    ....    BNE      0x5d48 ; SpiFlash_NormalRead_32 + 80
        0x00005d0c:    e3520802    ..R.    CMP      r2,#0x20000
        0x00005d10:    1a00000c    ....    BNE      0x5d48 ; SpiFlash_NormalRead_32 + 80
        0x00005d14:    e3a04000    .@..    MOV      r4,#0
        0x00005d18:    e3a02a01    .*..    MOV      r2,#0x1000
        0x00005d1c:    e1a01006    ....    MOV      r1,r6
        0x00005d20:    e1a00005    ....    MOV      r0,r5
        0x00005d24:    ebffffd2    ....    BL       SpiFlash_NormalRead_16 ; 0x5c74
        0x00005d28:    e354001f    ..T.    CMP      r4,#0x1f
        0x00005d2c:    0a000001    ....    BEQ      0x5d38 ; SpiFlash_NormalRead_32 + 64
        0x00005d30:    e2855a01    .Z..    ADD      r5,r5,#0x1000
        0x00005d34:    e2866a01    .j..    ADD      r6,r6,#0x1000
        0x00005d38:    e2840001    ....    ADD      r0,r4,#1
        0x00005d3c:    e3c04801    .H..    BIC      r4,r0,#0x10000
        0x00005d40:    e3540020     .T.    CMP      r4,#0x20
        0x00005d44:    3afffff3    ...:    BCC      0x5d18 ; SpiFlash_NormalRead_32 + 32
        0x00005d48:    e8bd8070    p...    POP      {r4-r6,pc}
    i.SpiFlash_ReadStatusReg
    SpiFlash_ReadStatusReg
        0x00005d4c:    e92d4010    .@-.    PUSH     {r4,lr}
        0x00005d50:    e3a03000    .0..    MOV      r3,#0
        0x00005d54:    e1a02003    . ..    MOV      r2,r3
        0x00005d58:    e3a01009    ....    MOV      r1,#9
        0x00005d5c:    e1a00003    ....    MOV      r0,r3
        0x00005d60:    eb000eda    ....    BL       spiIoctl ; 0x98d0
        0x00005d64:    e3a01000    ....    MOV      r1,#0
        0x00005d68:    e3a02005    . ..    MOV      r2,#5
        0x00005d6c:    e1a00001    ....    MOV      r0,r1
        0x00005d70:    eb001016    ....    BL       spiWrite ; 0x9dd0
        0x00005d74:    e3a03000    .0..    MOV      r3,#0
        0x00005d78:    e1a02003    . ..    MOV      r2,r3
        0x00005d7c:    e1a01003    ....    MOV      r1,r3
        0x00005d80:    e1a00003    ....    MOV      r0,r3
        0x00005d84:    eb000ed1    ....    BL       spiIoctl ; 0x98d0
        0x00005d88:    e3a00000    ....    MOV      r0,#0
        0x00005d8c:    eb000ea1    ....    BL       spiGetBusyStatus ; 0x9818
        0x00005d90:    e3500000    ..P.    CMP      r0,#0
        0x00005d94:    1afffffb    ....    BNE      0x5d88 ; SpiFlash_ReadStatusReg + 60
        0x00005d98:    e3a02000    . ..    MOV      r2,#0
        0x00005d9c:    e1a01002    ....    MOV      r1,r2
        0x00005da0:    e1a00002    ....    MOV      r0,r2
        0x00005da4:    eb001009    ....    BL       spiWrite ; 0x9dd0
        0x00005da8:    e3a03000    .0..    MOV      r3,#0
        0x00005dac:    e1a02003    . ..    MOV      r2,r3
        0x00005db0:    e1a01003    ....    MOV      r1,r3
        0x00005db4:    e1a00003    ....    MOV      r0,r3
        0x00005db8:    eb000ec4    ....    BL       spiIoctl ; 0x98d0
        0x00005dbc:    e3a00000    ....    MOV      r0,#0
        0x00005dc0:    eb000e94    ....    BL       spiGetBusyStatus ; 0x9818
        0x00005dc4:    e3500000    ..P.    CMP      r0,#0
        0x00005dc8:    1afffffb    ....    BNE      0x5dbc ; SpiFlash_ReadStatusReg + 112
        0x00005dcc:    e3a01000    ....    MOV      r1,#0
        0x00005dd0:    e1a00001    ....    MOV      r0,r1
        0x00005dd4:    eb000fe5    ....    BL       spiRead ; 0x9d70
        0x00005dd8:    e20040ff    .@..    AND      r4,r0,#0xff
        0x00005ddc:    e3a03000    .0..    MOV      r3,#0
        0x00005de0:    e1a02003    . ..    MOV      r2,r3
        0x00005de4:    e3a0100a    ....    MOV      r1,#0xa
        0x00005de8:    e1a00003    ....    MOV      r0,r3
        0x00005dec:    eb000eb7    ....    BL       spiIoctl ; 0x98d0
        0x00005df0:    e1a00004    ....    MOV      r0,r4
        0x00005df4:    e8bd8010    ....    POP      {r4,pc}
    i.SpiFlash_SectorErase
    SpiFlash_SectorErase
        0x00005df8:    e92d4010    .@-.    PUSH     {r4,lr}
        0x00005dfc:    e1a04000    .@..    MOV      r4,r0
        0x00005e00:    e3a03000    .0..    MOV      r3,#0
        0x00005e04:    e1a02003    . ..    MOV      r2,r3
        0x00005e08:    e3a01009    ....    MOV      r1,#9
        0x00005e0c:    e1a00003    ....    MOV      r0,r3
        0x00005e10:    eb000eae    ....    BL       spiIoctl ; 0x98d0
        0x00005e14:    e3a01000    ....    MOV      r1,#0
        0x00005e18:    e3a02006    . ..    MOV      r2,#6
        0x00005e1c:    e1a00001    ....    MOV      r0,r1
        0x00005e20:    eb000fea    ....    BL       spiWrite ; 0x9dd0
        0x00005e24:    e3a03000    .0..    MOV      r3,#0
        0x00005e28:    e1a02003    . ..    MOV      r2,r3
        0x00005e2c:    e1a01003    ....    MOV      r1,r3
        0x00005e30:    e1a00003    ....    MOV      r0,r3
        0x00005e34:    eb000ea5    ....    BL       spiIoctl ; 0x98d0
        0x00005e38:    e3a00000    ....    MOV      r0,#0
        0x00005e3c:    eb000e75    u...    BL       spiGetBusyStatus ; 0x9818
        0x00005e40:    e3500000    ..P.    CMP      r0,#0
        0x00005e44:    1afffffb    ....    BNE      0x5e38 ; SpiFlash_SectorErase + 64
        0x00005e48:    e3a03000    .0..    MOV      r3,#0
        0x00005e4c:    e1a02003    . ..    MOV      r2,r3
        0x00005e50:    e3a0100a    ....    MOV      r1,#0xa
        0x00005e54:    e1a00003    ....    MOV      r0,r3
        0x00005e58:    eb000e9c    ....    BL       spiIoctl ; 0x98d0
        0x00005e5c:    e3a03000    .0..    MOV      r3,#0
        0x00005e60:    e1a02003    . ..    MOV      r2,r3
        0x00005e64:    e3a01009    ....    MOV      r1,#9
        0x00005e68:    e1a00003    ....    MOV      r0,r3
        0x00005e6c:    eb000e97    ....    BL       spiIoctl ; 0x98d0
        0x00005e70:    e3a01000    ....    MOV      r1,#0
        0x00005e74:    e3a02020      ..    MOV      r2,#0x20
        0x00005e78:    e1a00001    ....    MOV      r0,r1
        0x00005e7c:    eb000fd3    ....    BL       spiWrite ; 0x9dd0
        0x00005e80:    e3a03000    .0..    MOV      r3,#0
        0x00005e84:    e1a02003    . ..    MOV      r2,r3
        0x00005e88:    e1a01003    ....    MOV      r1,r3
        0x00005e8c:    e1a00003    ....    MOV      r0,r3
        0x00005e90:    eb000e8e    ....    BL       spiIoctl ; 0x98d0
        0x00005e94:    e3a00000    ....    MOV      r0,#0
        0x00005e98:    eb000e5e    ^...    BL       spiGetBusyStatus ; 0x9818
        0x00005e9c:    e3500000    ..P.    CMP      r0,#0
        0x00005ea0:    1afffffb    ....    BNE      0x5e94 ; SpiFlash_SectorErase + 156
        0x00005ea4:    e1a00404    ....    LSL      r0,r4,#8
        0x00005ea8:    e1a02c20     ,..    LSR      r2,r0,#24
        0x00005eac:    e3a01000    ....    MOV      r1,#0
        0x00005eb0:    e1a00001    ....    MOV      r0,r1
        0x00005eb4:    eb000fc5    ....    BL       spiWrite ; 0x9dd0
        0x00005eb8:    e3a03000    .0..    MOV      r3,#0
        0x00005ebc:    e1a02003    . ..    MOV      r2,r3
        0x00005ec0:    e1a01003    ....    MOV      r1,r3
        0x00005ec4:    e1a00003    ....    MOV      r0,r3
        0x00005ec8:    eb000e80    ....    BL       spiIoctl ; 0x98d0
        0x00005ecc:    e3a00000    ....    MOV      r0,#0
        0x00005ed0:    eb000e50    P...    BL       spiGetBusyStatus ; 0x9818
        0x00005ed4:    e3500000    ..P.    CMP      r0,#0
        0x00005ed8:    1afffffb    ....    BNE      0x5ecc ; SpiFlash_SectorErase + 212
        0x00005edc:    e1a00804    ....    LSL      r0,r4,#16
        0x00005ee0:    e1a02c20     ,..    LSR      r2,r0,#24
        0x00005ee4:    e3a01000    ....    MOV      r1,#0
        0x00005ee8:    e1a00001    ....    MOV      r0,r1
        0x00005eec:    eb000fb7    ....    BL       spiWrite ; 0x9dd0
        0x00005ef0:    e3a03000    .0..    MOV      r3,#0
        0x00005ef4:    e1a02003    . ..    MOV      r2,r3
        0x00005ef8:    e1a01003    ....    MOV      r1,r3
        0x00005efc:    e1a00003    ....    MOV      r0,r3
        0x00005f00:    eb000e72    r...    BL       spiIoctl ; 0x98d0
        0x00005f04:    e3a00000    ....    MOV      r0,#0
        0x00005f08:    eb000e42    B...    BL       spiGetBusyStatus ; 0x9818
        0x00005f0c:    e3500000    ..P.    CMP      r0,#0
        0x00005f10:    1afffffb    ....    BNE      0x5f04 ; SpiFlash_SectorErase + 268
        0x00005f14:    e3a01000    ....    MOV      r1,#0
        0x00005f18:    e20420ff    . ..    AND      r2,r4,#0xff
        0x00005f1c:    e1a00001    ....    MOV      r0,r1
        0x00005f20:    eb000faa    ....    BL       spiWrite ; 0x9dd0
        0x00005f24:    e3a03000    .0..    MOV      r3,#0
        0x00005f28:    e1a02003    . ..    MOV      r2,r3
        0x00005f2c:    e1a01003    ....    MOV      r1,r3
        0x00005f30:    e1a00003    ....    MOV      r0,r3
        0x00005f34:    eb000e65    e...    BL       spiIoctl ; 0x98d0
        0x00005f38:    e3a00000    ....    MOV      r0,#0
        0x00005f3c:    eb000e35    5...    BL       spiGetBusyStatus ; 0x9818
        0x00005f40:    e3500000    ..P.    CMP      r0,#0
        0x00005f44:    1afffffb    ....    BNE      0x5f38 ; SpiFlash_SectorErase + 320
        0x00005f48:    e3a03000    .0..    MOV      r3,#0
        0x00005f4c:    e1a02003    . ..    MOV      r2,r3
        0x00005f50:    e3a0100a    ....    MOV      r1,#0xa
        0x00005f54:    e1a00003    ....    MOV      r0,r3
        0x00005f58:    eb000e5c    \...    BL       spiIoctl ; 0x98d0
        0x00005f5c:    e8bd4010    .@..    POP      {r4,lr}
        0x00005f60:    e1a00000    ....    MOV      r0,r0
    i.SpiFlash_WaitReady
    SpiFlash_WaitReady
        0x00005f64:    e92d4010    .@-.    PUSH     {r4,lr}
        0x00005f68:    ebffff77    w...    BL       SpiFlash_ReadStatusReg ; 0x5d4c
        0x00005f6c:    e2000001    ....    AND      r0,r0,#1
        0x00005f70:    e3500000    ..P.    CMP      r0,#0
        0x00005f74:    1afffffb    ....    BNE      0x5f68 ; SpiFlash_WaitReady + 4
        0x00005f78:    e8bd8010    ....    POP      {r4,pc}
    i.Timer_1ms_Init
    Timer_1ms_Init
        0x00005f7c:    e92d4010    .@-.    PUSH     {r4,lr}
        0x00005f80:    e59f1018    ....    LDR      r1,[pc,#24] ; [0x5fa0] = 0xb71b00
        0x00005f84:    e3a00000    ....    MOV      r0,#0
        0x00005f88:    eb001260    `...    BL       sysSetTimerReferenceClock ; 0xa910
        0x00005f8c:    e8bd4010    .@..    POP      {r4,lr}
        0x00005f90:    e3a02001    . ..    MOV      r2,#1
        0x00005f94:    e3a01ffa    ....    MOV      r1,#0x3e8
        0x00005f98:    e3a00000    ....    MOV      r0,#0
        0x00005f9c:    ea001267    g...    B        sysStartTimer ; 0xa940
    $d
        0x00005fa0:    00b71b00    ....    DCD    12000000
    $a
    i.Touch_int_disable
    Touch_int_disable
        0x00005fa4:    e3a00001    ....    MOV      r0,#1
        0x00005fa8:    ea000dec    ....    B        set_touchint ; 0x9760
    i.Touch_int_enable
    Touch_int_enable
        0x00005fac:    e92d4010    .@-.    PUSH     {r4,lr}
        0x00005fb0:    e59f0020     ...    LDR      r0,[pc,#32] ; [0x5fd8] = 0xd4b4
        0x00005fb4:    e5d00004    ....    LDRB     r0,[r0,#4]
        0x00005fb8:    e3500002    ..P.    CMP      r0,#2
        0x00005fbc:    1a000002    ....    BNE      0x5fcc ; Touch_int_enable + 32
        0x00005fc0:    e3a00000    ....    MOV      r0,#0
        0x00005fc4:    eb000de5    ....    BL       set_touchint ; 0x9760
        0x00005fc8:    eb000575    u...    BL       check_tp_send ; 0x75a4
        0x00005fcc:    e8bd4010    .@..    POP      {r4,lr}
        0x00005fd0:    e3a00000    ....    MOV      r0,#0
        0x00005fd4:    ea000de1    ....    B        set_touchint ; 0x9760
    $d
        0x00005fd8:    0000d4b4    ....    DCD    54452
    $a
    i.Touch_tim_init
    Touch_tim_init
        0x00005fdc:    e92d4010    .@-.    PUSH     {r4,lr}
        0x00005fe0:    e59f0044    D...    LDR      r0,[pc,#68] ; [0x602c] = 0xb0000218
        0x00005fe4:    e3a02001    . ..    MOV      r2,#1
        0x00005fe8:    e3a01040    @...    MOV      r1,#0x40
        0x00005fec:    ebfff921    !...    BL       REG_OPERATE ; 0x4478
        0x00005ff0:    e3a02014    . ..    MOV      r2,#0x14
        0x00005ff4:    e3a01010    ....    MOV      r1,#0x10
        0x00005ff8:    e3a00002    ....    MOV      r0,#2
        0x00005ffc:    ebfff21d    ....    BL       ETIMER_Open ; 0x2878
        0x00006000:    e3a00002    ....    MOV      r0,#2
        0x00006004:    ebfff1e4    ....    BL       ETIMER_EnableInt ; 0x279c
        0x00006008:    e59f2020      ..    LDR      r2,[pc,#32] ; [0x6030] = 0x2a88
        0x0000600c:    e3a01031    1...    MOV      r1,#0x31
        0x00006010:    e3a00002    ....    MOV      r0,#2
        0x00006014:    eb0011e8    ....    BL       sysInstallISR ; 0xa7bc
        0x00006018:    e3a0007f    ....    MOV      r0,#0x7f
        0x0000601c:    eb001223    #...    BL       sysSetLocalInterrupt ; 0xa8b0
        0x00006020:    e8bd4010    .@..    POP      {r4,lr}
        0x00006024:    e3a00031    1...    MOV      r0,#0x31
        0x00006028:    ea000f9c    ....    B        sysEnableInterrupt ; 0x9ea0
    $d
        0x0000602c:    b0000218    ....    DCD    2952790552
        0x00006030:    00002a88    .*..    DCD    10888
    $a
    i.Touch_tim_stop
    Touch_tim_stop
        0x00006034:    e3a00002    ....    MOV      r0,#2
        0x00006038:    eafff274    t...    B        ETIMER_Stop ; 0x2a10
    i.UART_TOIO
    UART_TOIO
        0x0000603c:    e92d4010    .@-.    PUSH     {r4,lr}
        0x00006040:    e59f00b0    ....    LDR      r0,[pc,#176] ; [0x60f8] = 0xb0000090
        0x00006044:    e3a02000    . ..    MOV      r2,#0
        0x00006048:    e3a01cff    ....    MOV      r1,#0xff00
        0x0000604c:    ebfff909    ....    BL       REG_OPERATE ; 0x4478
        0x00006050:    e59f00a4    ....    LDR      r0,[pc,#164] ; [0x60fc] = 0xb00000ac
        0x00006054:    e3a02000    . ..    MOV      r2,#0
        0x00006058:    e3a010ff    ....    MOV      r1,#0xff
        0x0000605c:    ebfff905    ....    BL       REG_OPERATE ; 0x4478
        0x00006060:    e59f0098    ....    LDR      r0,[pc,#152] ; [0x6100] = 0xb00000b0
        0x00006064:    e3a02000    . ..    MOV      r2,#0
        0x00006068:    e3a01aff    ....    MOV      r1,#0xff000
        0x0000606c:    ebfff901    ....    BL       REG_OPERATE ; 0x4478
        0x00006070:    e3a03001    .0..    MOV      r3,#1
        0x00006074:    e1a02003    . ..    MOV      r2,r3
        0x00006078:    e3a0100c    ....    MOV      r1,#0xc
        0x0000607c:    e3a00c01    ....    MOV      r0,#0x100
        0x00006080:    ebfff3f0    ....    BL       GPIO_OpenBit ; 0x3048
        0x00006084:    e3a03001    .0..    MOV      r3,#1
        0x00006088:    e1a02003    . ..    MOV      r2,r3
        0x0000608c:    e3a01c03    ....    MOV      r1,#0x300
        0x00006090:    e3a00d07    ....    MOV      r0,#0x1c0
        0x00006094:    ebfff3eb    ....    BL       GPIO_OpenBit ; 0x3048
        0x00006098:    e3a03001    .0..    MOV      r3,#1
        0x0000609c:    e1a02003    . ..    MOV      r2,r3
        0x000060a0:    e3a01018    ....    MOV      r1,#0x18
        0x000060a4:    e3a00c02    ....    MOV      r0,#0x200
        0x000060a8:    ebfff3e6    ....    BL       GPIO_OpenBit ; 0x3048
        0x000060ac:    e3a01004    ....    MOV      r1,#4
        0x000060b0:    e3a00c01    ....    MOV      r0,#0x100
        0x000060b4:    ebfff345    E...    BL       GPIO_Clr ; 0x2dd0
        0x000060b8:    e3a01008    ....    MOV      r1,#8
        0x000060bc:    e3a00c01    ....    MOV      r0,#0x100
        0x000060c0:    ebfff342    B...    BL       GPIO_Clr ; 0x2dd0
        0x000060c4:    e3a01c01    ....    MOV      r1,#0x100
        0x000060c8:    e3a00d07    ....    MOV      r0,#0x1c0
        0x000060cc:    ebfff33f    ?...    BL       GPIO_Clr ; 0x2dd0
        0x000060d0:    e3a01c02    ....    MOV      r1,#0x200
        0x000060d4:    e3a00d07    ....    MOV      r0,#0x1c0
        0x000060d8:    ebfff33c    <...    BL       GPIO_Clr ; 0x2dd0
        0x000060dc:    e3a01008    ....    MOV      r1,#8
        0x000060e0:    e3a00c02    ....    MOV      r0,#0x200
        0x000060e4:    ebfff339    9...    BL       GPIO_Clr ; 0x2dd0
        0x000060e8:    e8bd4010    .@..    POP      {r4,lr}
        0x000060ec:    e3a01010    ....    MOV      r1,#0x10
        0x000060f0:    e3a00c02    ....    MOV      r0,#0x200
        0x000060f4:    eafff335    5...    B        GPIO_Clr ; 0x2dd0
    $d
        0x000060f8:    b0000090    ....    DCD    2952790160
        0x000060fc:    b00000ac    ....    DCD    2952790188
        0x00006100:    b00000b0    ....    DCD    2952790192
    $a
    i.W25Q128_Read
    W25Q128_Read
        0x00006104:    e92d4030    0@-.    PUSH     {r4,r5,lr}
        0x00006108:    e24dd024    $.M.    SUB      sp,sp,#0x24
        0x0000610c:    e1a05000    .P..    MOV      r5,r0
        0x00006110:    e3a01024    $...    MOV      r1,#0x24
        0x00006114:    e1a0000d    ....    MOV      r0,sp
        0x00006118:    ebffea12    ....    BL       __aeabi_memclr4 ; 0x968
        0x0000611c:    e59f0140    @...    LDR      r0,[pc,#320] ; [0x6264] = 0x10560
        0x00006120:    e59f4138    8A..    LDR      r4,[pc,#312] ; [0x6260] = 0xd510
        0x00006124:    e5901014    ....    LDR      r1,[r0,#0x14]
        0x00006128:    e3550009    ..U.    CMP      r5,#9
        0x0000612c:    308ff105    ...0    ADDCC    pc,pc,r5,LSL #2
        0x00006130:    ea000021    !...    B        0x61bc ; W25Q128_Read + 184
        0x00006134:    ea000045    E...    B        0x6250 ; W25Q128_Read + 332
        0x00006138:    ea00003f    ?...    B        0x623c ; W25Q128_Read + 312
        0x0000613c:    ea000039    9...    B        0x6228 ; W25Q128_Read + 292
        0x00006140:    ea000033    3...    B        0x6214 ; W25Q128_Read + 272
        0x00006144:    ea00002a    *...    B        0x61f4 ; W25Q128_Read + 240
        0x00006148:    ea000024    $...    B        0x61e0 ; W25Q128_Read + 220
        0x0000614c:    ea00001e    ....    B        0x61cc ; W25Q128_Read + 200
        0x00006150:    ea00001b    ....    B        0x61c4 ; W25Q128_Read + 192
        0x00006154:    eaffffff    ....    B        0x6158 ; W25Q128_Read + 84
        0x00006158:    e59f0108    ....    LDR      r0,[pc,#264] ; [0x6268] = 0xfff000
        0x0000615c:    e3a02024    $ ..    MOV      r2,#0x24
        0x00006160:    e1a0100d    ....    MOV      r1,sp
        0x00006164:    ebfffe6b    k...    BL       SpiFlash_NormalRead ; 0x5b18
        0x00006168:    e5940000    ....    LDR      r0,[r4,#0]
        0x0000616c:    e3a02009    . ..    MOV      r2,#9
        0x00006170:    e1a0100d    ....    MOV      r1,sp
        0x00006174:    e280001b    ....    ADD      r0,r0,#0x1b
        0x00006178:    ebffe99c    ....    BL       __aeabi_memcpy ; 0x7f0
        0x0000617c:    e5940000    ....    LDR      r0,[r4,#0]
        0x00006180:    e3a02009    . ..    MOV      r2,#9
        0x00006184:    e1a0500d    .P..    MOV      r5,sp
        0x00006188:    e28d1009    ....    ADD      r1,sp,#9
        0x0000618c:    e2800024    $...    ADD      r0,r0,#0x24
        0x00006190:    ebffe996    ....    BL       __aeabi_memcpy ; 0x7f0
        0x00006194:    e5940000    ....    LDR      r0,[r4,#0]
        0x00006198:    e3a02009    . ..    MOV      r2,#9
        0x0000619c:    e2851012    ....    ADD      r1,r5,#0x12
        0x000061a0:    e280006c    l...    ADD      r0,r0,#0x6c
        0x000061a4:    ebffe991    ....    BL       __aeabi_memcpy ; 0x7f0
        0x000061a8:    e5940000    ....    LDR      r0,[r4,#0]
        0x000061ac:    e3a02009    . ..    MOV      r2,#9
        0x000061b0:    e285101b    ....    ADD      r1,r5,#0x1b
        0x000061b4:    e2800075    u...    ADD      r0,r0,#0x75
        0x000061b8:    ebffe98c    ....    BL       __aeabi_memcpy ; 0x7f0
        0x000061bc:    e28dd024    $...    ADD      sp,sp,#0x24
        0x000061c0:    e8bd8030    0...    POP      {r4,r5,pc}
        0x000061c4:    ebfff163    c...    BL       DATACLASS1_Check_Read ; 0x2758
        0x000061c8:    eafffffb    ....    B        0x61bc ; W25Q128_Read + 184
        0x000061cc:    e59f1098    ....    LDR      r1,[pc,#152] ; [0x626c] = 0x20afc
        0x000061d0:    e3a02f55    U/..    MOV      r2,#0x154
        0x000061d4:    e3a008ff    ....    MOV      r0,#0xff0000
        0x000061d8:    ebfffea5    ....    BL       SpiFlash_NormalRead_16 ; 0x5c74
        0x000061dc:    eafffff6    ....    B        0x61bc ; W25Q128_Read + 184
        0x000061e0:    e59f2088    . ..    LDR      r2,[pc,#136] ; [0x6270] = 0x5c4
        0x000061e4:    e5941000    ....    LDR      r1,[r4,#0]
        0x000061e8:    e3a008fd    ....    MOV      r0,#0xfd0000
        0x000061ec:    ebfffea0    ....    BL       SpiFlash_NormalRead_16 ; 0x5c74
        0x000061f0:    eafffff1    ....    B        0x61bc ; W25Q128_Read + 184
        0x000061f4:    e59f107c    |...    LDR      r1,[pc,#124] ; [0x6278] = 0xd613
        0x000061f8:    e59f0074    t...    LDR      r0,[pc,#116] ; [0x6274] = 0xddcc
        0x000061fc:    e5d11000    ....    LDRB     r1,[r1,#0]
        0x00006200:    e59f2074    t ..    LDR      r2,[pc,#116] ; [0x627c] = 0x3e9
        0x00006204:    e7901101    ....    LDR      r1,[r0,r1,LSL #2]
        0x00006208:    e3a008fb    ....    MOV      r0,#0xfb0000
        0x0000620c:    ebfffe98    ....    BL       SpiFlash_NormalRead_16 ; 0x5c74
        0x00006210:    eaffffe9    ....    B        0x61bc ; W25Q128_Read + 184
        0x00006214:    e2811806    ....    ADD      r1,r1,#0x60000
        0x00006218:    e3a02802    .(..    MOV      r2,#0x20000
        0x0000621c:    e3a008f9    ....    MOV      r0,#0xf90000
        0x00006220:    ebfffeb4    ....    BL       SpiFlash_NormalRead_32 ; 0x5cf8
        0x00006224:    eaffffe4    ....    B        0x61bc ; W25Q128_Read + 184
        0x00006228:    e2811701    ....    ADD      r1,r1,#0x40000
        0x0000622c:    e3a02802    .(..    MOV      r2,#0x20000
        0x00006230:    e3a008f7    ....    MOV      r0,#0xf70000
        0x00006234:    ebfffeaf    ....    BL       SpiFlash_NormalRead_32 ; 0x5cf8
        0x00006238:    eaffffdf    ....    B        0x61bc ; W25Q128_Read + 184
        0x0000623c:    e2811802    ....    ADD      r1,r1,#0x20000
        0x00006240:    e3a02802    .(..    MOV      r2,#0x20000
        0x00006244:    e3a008f5    ....    MOV      r0,#0xf50000
        0x00006248:    ebfffeaa    ....    BL       SpiFlash_NormalRead_32 ; 0x5cf8
        0x0000624c:    eaffffda    ....    B        0x61bc ; W25Q128_Read + 184
        0x00006250:    e3a02802    .(..    MOV      r2,#0x20000
        0x00006254:    e3a008f3    ....    MOV      r0,#0xf30000
        0x00006258:    ebfffea6    ....    BL       SpiFlash_NormalRead_32 ; 0x5cf8
        0x0000625c:    eaffffd6    ....    B        0x61bc ; W25Q128_Read + 184
    $d
        0x00006260:    0000d510    ....    DCD    54544
        0x00006264:    00010560    `...    DCD    66912
        0x00006268:    00fff000    ....    DCD    16773120
        0x0000626c:    00020afc    ....    DCD    133884
        0x00006270:    000005c4    ....    DCD    1476
        0x00006274:    0000ddcc    ....    DCD    56780
        0x00006278:    0000d613    ....    DCD    54803
        0x0000627c:    000003e9    ....    DCD    1001
    $a
    i.W25Q128_Write
    W25Q128_Write
        0x00006280:    e92d4030    0@-.    PUSH     {r4,r5,lr}
        0x00006284:    e24dd024    $.M.    SUB      sp,sp,#0x24
        0x00006288:    e1a05000    .P..    MOV      r5,r0
        0x0000628c:    e3a01024    $...    MOV      r1,#0x24
        0x00006290:    e1a0000d    ....    MOV      r0,sp
        0x00006294:    ebffe9b3    ....    BL       __aeabi_memclr4 ; 0x968
        0x00006298:    e59f013c    <...    LDR      r0,[pc,#316] ; [0x63dc] = 0xd510
        0x0000629c:    e59f113c    <...    LDR      r1,[pc,#316] ; [0x63e0] = 0x10560
        0x000062a0:    e5904000    .@..    LDR      r4,[r0,#0]
        0x000062a4:    e5911014    ....    LDR      r1,[r1,#0x14]
        0x000062a8:    e3550009    ..U.    CMP      r5,#9
        0x000062ac:    308ff105    ...0    ADDCC    pc,pc,r5,LSL #2
        0x000062b0:    ea000020     ...    B        0x6338 ; W25Q128_Write + 184
        0x000062b4:    ea000044    D...    B        0x63cc ; W25Q128_Write + 332
        0x000062b8:    ea00003e    >...    B        0x63b8 ; W25Q128_Write + 312
        0x000062bc:    ea000038    8...    B        0x63a4 ; W25Q128_Write + 292
        0x000062c0:    ea000032    2...    B        0x6390 ; W25Q128_Write + 272
        0x000062c4:    ea000029    )...    B        0x6370 ; W25Q128_Write + 240
        0x000062c8:    ea000023    #...    B        0x635c ; W25Q128_Write + 220
        0x000062cc:    ea00001d    ....    B        0x6348 ; W25Q128_Write + 200
        0x000062d0:    ea00001a    ....    B        0x6340 ; W25Q128_Write + 192
        0x000062d4:    eaffffff    ....    B        0x62d8 ; W25Q128_Write + 88
        0x000062d8:    e3a02009    . ..    MOV      r2,#9
        0x000062dc:    e284101b    ....    ADD      r1,r4,#0x1b
        0x000062e0:    e1a0000d    ....    MOV      r0,sp
        0x000062e4:    ebffe941    A...    BL       __aeabi_memcpy ; 0x7f0
        0x000062e8:    e3a02009    . ..    MOV      r2,#9
        0x000062ec:    e2841024    $...    ADD      r1,r4,#0x24
        0x000062f0:    e1a0500d    .P..    MOV      r5,sp
        0x000062f4:    e28d0009    ....    ADD      r0,sp,#9
        0x000062f8:    ebffe93c    <...    BL       __aeabi_memcpy ; 0x7f0
        0x000062fc:    e3a02009    . ..    MOV      r2,#9
        0x00006300:    e284106c    l...    ADD      r1,r4,#0x6c
        0x00006304:    e2850012    ....    ADD      r0,r5,#0x12
        0x00006308:    ebffe938    8...    BL       __aeabi_memcpy ; 0x7f0
        0x0000630c:    e3a02009    . ..    MOV      r2,#9
        0x00006310:    e2841075    u...    ADD      r1,r4,#0x75
        0x00006314:    e285001b    ....    ADD      r0,r5,#0x1b
        0x00006318:    ebffe934    4...    BL       __aeabi_memcpy ; 0x7f0
        0x0000631c:    e59f40c0    .@..    LDR      r4,[pc,#192] ; [0x63e4] = 0xfff000
        0x00006320:    e1a00004    ....    MOV      r0,r4
        0x00006324:    ebfffeb3    ....    BL       SpiFlash_SectorErase ; 0x5df8
        0x00006328:    e3a02024    $ ..    MOV      r2,#0x24
        0x0000632c:    e1a0100d    ....    MOV      r1,sp
        0x00006330:    e1a00004    ....    MOV      r0,r4
        0x00006334:    ebfffd50    P...    BL       SpiFlash_NormalPageProgram ; 0x587c
        0x00006338:    e28dd024    $...    ADD      sp,sp,#0x24
        0x0000633c:    e8bd8030    0...    POP      {r4,r5,pc}
        0x00006340:    ebfff10a    ....    BL       DATACLASS1_Check_Write ; 0x2770
        0x00006344:    eafffffb    ....    B        0x6338 ; W25Q128_Write + 184
        0x00006348:    e59f1098    ....    LDR      r1,[pc,#152] ; [0x63e8] = 0x20afc
        0x0000634c:    e3a02f55    U/..    MOV      r2,#0x154
        0x00006350:    e3a008ff    ....    MOV      r0,#0xff0000
        0x00006354:    ebfffdb7    ....    BL       SpiFlash_NormalPageProgram_16 ; 0x5a38
        0x00006358:    eafffff6    ....    B        0x6338 ; W25Q128_Write + 184
        0x0000635c:    e59f2088    . ..    LDR      r2,[pc,#136] ; [0x63ec] = 0x5c4
        0x00006360:    e1a01004    ....    MOV      r1,r4
        0x00006364:    e3a008fd    ....    MOV      r0,#0xfd0000
        0x00006368:    ebfffdb2    ....    BL       SpiFlash_NormalPageProgram_16 ; 0x5a38
        0x0000636c:    eafffff1    ....    B        0x6338 ; W25Q128_Write + 184
        0x00006370:    e59f107c    |...    LDR      r1,[pc,#124] ; [0x63f4] = 0xd613
        0x00006374:    e59f0074    t...    LDR      r0,[pc,#116] ; [0x63f0] = 0xddcc
        0x00006378:    e5d11000    ....    LDRB     r1,[r1,#0]
        0x0000637c:    e59f2074    t ..    LDR      r2,[pc,#116] ; [0x63f8] = 0x3e9
        0x00006380:    e7901101    ....    LDR      r1,[r0,r1,LSL #2]
        0x00006384:    e3a008fb    ....    MOV      r0,#0xfb0000
        0x00006388:    ebfffdaa    ....    BL       SpiFlash_NormalPageProgram_16 ; 0x5a38
        0x0000638c:    eaffffe9    ....    B        0x6338 ; W25Q128_Write + 184
        0x00006390:    e2811806    ....    ADD      r1,r1,#0x60000
        0x00006394:    e3a02802    .(..    MOV      r2,#0x20000
        0x00006398:    e3a008f9    ....    MOV      r0,#0xf90000
        0x0000639c:    ebfffdc8    ....    BL       SpiFlash_NormalPageProgram_32 ; 0x5ac4
        0x000063a0:    eaffffe4    ....    B        0x6338 ; W25Q128_Write + 184
        0x000063a4:    e2811701    ....    ADD      r1,r1,#0x40000
        0x000063a8:    e3a02802    .(..    MOV      r2,#0x20000
        0x000063ac:    e3a008f7    ....    MOV      r0,#0xf70000
        0x000063b0:    ebfffdc3    ....    BL       SpiFlash_NormalPageProgram_32 ; 0x5ac4
        0x000063b4:    eaffffdf    ....    B        0x6338 ; W25Q128_Write + 184
        0x000063b8:    e2811802    ....    ADD      r1,r1,#0x20000
        0x000063bc:    e3a02802    .(..    MOV      r2,#0x20000
        0x000063c0:    e3a008f5    ....    MOV      r0,#0xf50000
        0x000063c4:    ebfffdbe    ....    BL       SpiFlash_NormalPageProgram_32 ; 0x5ac4
        0x000063c8:    eaffffda    ....    B        0x6338 ; W25Q128_Write + 184
        0x000063cc:    e3a02802    .(..    MOV      r2,#0x20000
        0x000063d0:    e3a008f3    ....    MOV      r0,#0xf30000
        0x000063d4:    ebfffdba    ....    BL       SpiFlash_NormalPageProgram_32 ; 0x5ac4
        0x000063d8:    eaffffd6    ....    B        0x6338 ; W25Q128_Write + 184
    $d
        0x000063dc:    0000d510    ....    DCD    54544
        0x000063e0:    00010560    `...    DCD    66912
        0x000063e4:    00fff000    ....    DCD    16773120
        0x000063e8:    00020afc    ....    DCD    133884
        0x000063ec:    000005c4    ....    DCD    1476
        0x000063f0:    0000ddcc    ....    DCD    56780
        0x000063f4:    0000d613    ....    DCD    54803
        0x000063f8:    000003e9    ....    DCD    1001
    $a
    i.W25Q128_init
    W25Q128_init
        0x000063fc:    e92d4010    .@-.    PUSH     {r4,lr}
        0x00006400:    e59f40a4    .@..    LDR      r4,[pc,#164] ; [0x64ac] = 0xb0000078
        0x00006404:    e3a02000    . ..    MOV      r2,#0
        0x00006408:    e3a014ff    ....    MOV      r1,#0xff000000
        0x0000640c:    e1a00004    ....    MOV      r0,r4
        0x00006410:    ebfff818    ....    BL       REG_OPERATE ; 0x4478
        0x00006414:    e3a02001    . ..    MOV      r2,#1
        0x00006418:    e3a014bb    ....    MOV      r1,#0xbb000000
        0x0000641c:    e1a00004    ....    MOV      r0,r4
        0x00006420:    ebfff814    ....    BL       REG_OPERATE ; 0x4478
        0x00006424:    e1844d24    $M..    ORR      r4,r4,r4,LSR #26
        0x00006428:    e59f1080    ....    LDR      r1,[pc,#128] ; [0x64b0] = 0xfff
        0x0000642c:    e3a02000    . ..    MOV      r2,#0
        0x00006430:    e1a00004    ....    MOV      r0,r4
        0x00006434:    ebfff80f    ....    BL       REG_OPERATE ; 0x4478
        0x00006438:    e59f1074    t...    LDR      r1,[pc,#116] ; [0x64b4] = 0xbbb
        0x0000643c:    e3a02001    . ..    MOV      r2,#1
        0x00006440:    e1a00004    ....    MOV      r0,r4
        0x00006444:    ebfff80b    ....    BL       REG_OPERATE ; 0x4478
        0x00006448:    e3a00000    ....    MOV      r0,#0
        0x0000644c:    eb000d02    ....    BL       spiInit ; 0x985c
        0x00006450:    e3a00000    ....    MOV      r0,#0
        0x00006454:    eb000dff    ....    BL       spiOpen ; 0x9c58
        0x00006458:    e3a03000    .0..    MOV      r3,#0
        0x0000645c:    e59f2054    T ..    LDR      r2,[pc,#84] ; [0x64b8] = 0x1e8480
        0x00006460:    e3a01002    ....    MOV      r1,#2
        0x00006464:    e1a00003    ....    MOV      r0,r3
        0x00006468:    eb000d18    ....    BL       spiIoctl ; 0x98d0
        0x0000646c:    e3a03000    .0..    MOV      r3,#0
        0x00006470:    e3a02008    . ..    MOV      r2,#8
        0x00006474:    e3a01007    ....    MOV      r1,#7
        0x00006478:    e1a00003    ....    MOV      r0,r3
        0x0000647c:    eb000d13    ....    BL       spiIoctl ; 0x98d0
        0x00006480:    e3a03000    .0..    MOV      r3,#0
        0x00006484:    e1a02003    . ..    MOV      r2,r3
        0x00006488:    e3a01008    ....    MOV      r1,#8
        0x0000648c:    e1a00003    ....    MOV      r0,r3
        0x00006490:    eb000d0e    ....    BL       spiIoctl ; 0x98d0
        0x00006494:    e3a03000    .0..    MOV      r3,#0
        0x00006498:    e8bd4010    .@..    POP      {r4,lr}
        0x0000649c:    e1a02003    . ..    MOV      r2,r3
        0x000064a0:    e3a0100a    ....    MOV      r1,#0xa
        0x000064a4:    e1a00003    ....    MOV      r0,r3
        0x000064a8:    ea000d08    ....    B        spiIoctl ; 0x98d0
    $d
        0x000064ac:    b0000078    x...    DCD    2952790136
        0x000064b0:    00000fff    ....    DCD    4095
        0x000064b4:    00000bbb    ....    DCD    3003
        0x000064b8:    001e8480    ....    DCD    2000000
    $a
    i.WWDT_Open
    WWDT_Open
        0x000064bc:    e3520000    ..R.    CMP      r2,#0
        0x000064c0:    e1801801    ....    ORR      r1,r0,r1,LSL #16
        0x000064c4:    0a000001    ....    BEQ      0x64d0 ; WWDT_Open + 20
        0x000064c8:    e3a00002    ....    MOV      r0,#2
        0x000064cc:    ea000000    ....    B        0x64d4 ; WWDT_Open + 24
        0x000064d0:    e3a00000    ....    MOV      r0,#0
        0x000064d4:    e1800001    ....    ORR      r0,r0,r1
        0x000064d8:    e3800001    ....    ORR      r0,r0,#1
        0x000064dc:    e59f1004    ....    LDR      r1,[pc,#4] ; [0x64e8] = 0xb8001904
        0x000064e0:    e5810000    ....    STR      r0,[r1,#0]
        0x000064e4:    e12fff1e    ../.    BX       lr
    $d
        0x000064e8:    b8001904    ....    DCD    3087014148
    $a
    i.WriteAreaConfig_new
    WriteAreaConfig_new
        0x000064ec:    e92d41f0    .A-.    PUSH     {r4-r8,lr}
        0x000064f0:    e3a04000    .@..    MOV      r4,#0
        0x000064f4:    e59f608c    .`..    LDR      r6,[pc,#140] ; [0x6588] = 0xdbcc
        0x000064f8:    e59f708c    .p..    LDR      r7,[pc,#140] ; [0x658c] = 0xd510
        0x000064fc:    e2140003    ....    ANDS     r0,r4,#3
        0x00006500:    0a000006    ....    BEQ      0x6520 ; WriteAreaConfig_new + 52
        0x00006504:    e3500001    ..P.    CMP      r0,#1
        0x00006508:    0a000007    ....    BEQ      0x652c ; WriteAreaConfig_new + 64
        0x0000650c:    e3500002    ..P.    CMP      r0,#2
        0x00006510:    0a000009    ....    BEQ      0x653c ; WriteAreaConfig_new + 80
        0x00006514:    e3500003    ..P.    CMP      r0,#3
        0x00006518:    1a00000e    ....    BNE      0x6558 ; WriteAreaConfig_new + 108
        0x0000651c:    ea00000a    ....    B        0x654c ; WriteAreaConfig_new + 96
        0x00006520:    e1a00124    $...    LSR      r0,r4,#2
        0x00006524:    e7965200    .R..    LDR      r5,[r6,r0,LSL #4]
        0x00006528:    ea00000a    ....    B        0x6558 ; WriteAreaConfig_new + 108
        0x0000652c:    e1a00124    $...    LSR      r0,r4,#2
        0x00006530:    e0860200    ....    ADD      r0,r6,r0,LSL #4
        0x00006534:    e5905004    .P..    LDR      r5,[r0,#4]
        0x00006538:    ea000006    ....    B        0x6558 ; WriteAreaConfig_new + 108
        0x0000653c:    e1a00124    $...    LSR      r0,r4,#2
        0x00006540:    e0860200    ....    ADD      r0,r6,r0,LSL #4
        0x00006544:    e5905008    .P..    LDR      r5,[r0,#8]
        0x00006548:    ea000002    ....    B        0x6558 ; WriteAreaConfig_new + 108
        0x0000654c:    e1a00124    $...    LSR      r0,r4,#2
        0x00006550:    e0860200    ....    ADD      r0,r6,r0,LSL #4
        0x00006554:    e590500c    .P..    LDR      r5,[r0,#0xc]
        0x00006558:    e5971000    ....    LDR      r1,[r7,#0]
        0x0000655c:    e2840020     ...    ADD      r0,r4,#0x20
        0x00006560:    e0800180    ....    ADD      r0,r0,r0,LSL #3
        0x00006564:    e0800001    ....    ADD      r0,r0,r1
        0x00006568:    e1a02005    . ..    MOV      r2,r5
        0x0000656c:    e28f101c    ....    ADR      r1,{pc}+0x24 ; 0x6590
        0x00006570:    faffe7a1    ....    BLX      __2sprintf ; 0x3fc
        0x00006574:    e2840001    ....    ADD      r0,r4,#1
        0x00006578:    e3c04801    .H..    BIC      r4,r0,#0x10000
        0x0000657c:    e3540040    @.T.    CMP      r4,#0x40
        0x00006580:    3affffdd    ...:    BCC      0x64fc ; WriteAreaConfig_new + 16
        0x00006584:    e8bd81f0    ....    POP      {r4-r8,pc}
    $d
        0x00006588:    0000dbcc    ....    DCD    56268
        0x0000658c:    0000d510    ....    DCD    54544
        0x00006590:    58383025    %08X    DCD    1480077349
        0x00006594:    00000000    ....    DCD    0
    $a
    i.__ARM_fpclassify
    __ARM_fpclassify
        0x00006598:    e1a01081    ....    LSL      r1,r1,#1
        0x0000659c:    e1900581    ....    ORRS     r0,r0,r1,LSL #11
        0x000065a0:    13a00004    ....    MOVNE    r0,#4
        0x000065a4:    e1b02aa1    .*..    LSRS     r2,r1,#21
        0x000065a8:    e59f2014    . ..    LDR      r2,[pc,#20] ; [0x65c4] = 0x7ff
        0x000065ac:    13800001    ....    ORRNE    r0,r0,#1
        0x000065b0:    e1520aa1    ..R.    CMP      r2,r1,LSR #21
        0x000065b4:    03800002    ....    ORREQ    r0,r0,#2
        0x000065b8:    e3500001    ..P.    CMP      r0,#1
        0x000065bc:    03a00005    ....    MOVEQ    r0,#5
        0x000065c0:    e12fff1e    ../.    BX       lr
    $d
        0x000065c4:    000007ff    ....    DCD    2047
    $a
    i.__user_setup_stackheap
    __user_setup_stackheap
        0x000065c8:    e92d400f    .@-.    PUSH     {r0-r3,lr}
        0x000065cc:    e59f0010    ....    LDR      r0,[pc,#16] ; [0x65e4] = 0x68318
        0x000065d0:    e58d0000    ....    STR      r0,[sp,#0]
        0x000065d4:    e58d1004    ....    STR      r1,[sp,#4]
        0x000065d8:    e89d000f    ....    LDM      sp,{r0-r3}
        0x000065dc:    e28dd010    ....    ADD      sp,sp,#0x10
        0x000065e0:    e49df004    ....    POP      {pc}
    $d
        0x000065e4:    00068318    ....    DCD    426776
    $t
    i._is_digit
    _is_digit
        0x000065e8:    3830        08      SUBS     r0,r0,#0x30
        0x000065ea:    280a        .(      CMP      r0,#0xa
        0x000065ec:    d201        ..      BCS      0x65f2 ; _is_digit + 10
        0x000065ee:    2001        .       MOVS     r0,#1
        0x000065f0:    4770        pG      BX       lr
        0x000065f2:    2000        .       MOVS     r0,#0
        0x000065f4:    4770        pG      BX       lr
        0x000065f6:    0000        ..      MOVS     r0,r0
    $a
    i._sys_exit
    _sys_exit
        0x000065f8:    eafffffe    ....    B        _sys_exit ; 0x65f8
    i._ttywrch
    _ttywrch
        0x000065fc:    e12fff1e    ../.    BX       lr
    i._uartBUFSpaceAlloc
    _uartBUFSpaceAlloc
        0x00006600:    e92d41f0    .A-.    PUSH     {r4-r8,lr}
        0x00006604:    e1a05000    .P..    MOV      r5,r0
        0x00006608:    e59f10d0    ....    LDR      r1,[pc,#208] ; [0x66e0] = 0x6810c
        0x0000660c:    e0850085    ....    ADD      r0,r5,r5,LSL #1
        0x00006610:    e0800185    ....    ADD      r0,r0,r5,LSL #3
        0x00006614:    e0814100    .A..    ADD      r4,r1,r0,LSL #2
        0x00006618:    e59f60c4    .`..    LDR      r6,[pc,#196] ; [0x66e4] = 0xda04
        0x0000661c:    e7960105    ....    LDR      r0,[r6,r5,LSL #2]
        0x00006620:    e2800040    @...    ADD      r0,r0,#0x40
        0x00006624:    faffe73d    =...    BLX      _maybe_terminate_alloc ; 0x320
        0x00006628:    e5840010    ....    STR      r0,[r4,#0x10]
        0x0000662c:    e3500000    ..P.    CMP      r0,#0
        0x00006630:    0a00001e    ....    BEQ      0x66b0 ; _uartBUFSpaceAlloc + 176
        0x00006634:    e286702c    ,p..    ADD      r7,r6,#0x2c
        0x00006638:    e7970105    ....    LDR      r0,[r7,r5,LSL #2]
        0x0000663c:    e2800040    @...    ADD      r0,r0,#0x40
        0x00006640:    faffe736    6...    BLX      _maybe_terminate_alloc ; 0x320
        0x00006644:    e5840014    ....    STR      r0,[r4,#0x14]
        0x00006648:    e3500000    ..P.    CMP      r0,#0
        0x0000664c:    0a000019    ....    BEQ      0x66b8 ; _uartBUFSpaceAlloc + 184
        0x00006650:    e7970105    ....    LDR      r0,[r7,r5,LSL #2]
        0x00006654:    e3a01040    @...    MOV      r1,#0x40
        0x00006658:    e0810100    ....    ADD      r0,r1,r0,LSL #2
        0x0000665c:    faffe72f    /...    BLX      _maybe_terminate_alloc ; 0x320
        0x00006660:    e5840020     ...    STR      r0,[r4,#0x20]
        0x00006664:    e3500000    ..P.    CMP      r0,#0
        0x00006668:    0a000016    ....    BEQ      0x66c8 ; _uartBUFSpaceAlloc + 200
        0x0000666c:    e7961105    ....    LDR      r1,[r6,r5,LSL #2]
        0x00006670:    e5940010    ....    LDR      r0,[r4,#0x10]
        0x00006674:    ebffe8ab    ....    BL       __aeabi_memclr ; 0x928
        0x00006678:    e7971105    ....    LDR      r1,[r7,r5,LSL #2]
        0x0000667c:    e5940014    ....    LDR      r0,[r4,#0x14]
        0x00006680:    ebffe8a8    ....    BL       __aeabi_memclr ; 0x928
        0x00006684:    e7970105    ....    LDR      r0,[r7,r5,LSL #2]
        0x00006688:    e1a01100    ....    LSL      r1,r0,#2
        0x0000668c:    e5940020     ...    LDR      r0,[r4,#0x20]
        0x00006690:    ebffe8b4    ....    BL       __aeabi_memclr4 ; 0x968
        0x00006694:    e3a00000    ....    MOV      r0,#0
        0x00006698:    e5840004    ....    STR      r0,[r4,#4]
        0x0000669c:    e5840000    ....    STR      r0,[r4,#0]
        0x000066a0:    e584000c    ....    STR      r0,[r4,#0xc]
        0x000066a4:    e5840008    ....    STR      r0,[r4,#8]
        0x000066a8:    e3a00001    ....    MOV      r0,#1
        0x000066ac:    e8bd81f0    ....    POP      {r4-r8,pc}
        0x000066b0:    e3a00000    ....    MOV      r0,#0
        0x000066b4:    e8bd81f0    ....    POP      {r4-r8,pc}
        0x000066b8:    e5940010    ....    LDR      r0,[r4,#0x10]
        0x000066bc:    fbffe72f    /...    BLX      free ; 0x382
        0x000066c0:    e3a00000    ....    MOV      r0,#0
        0x000066c4:    e8bd81f0    ....    POP      {r4-r8,pc}
        0x000066c8:    e5940010    ....    LDR      r0,[r4,#0x10]
        0x000066cc:    fbffe72b    +...    BLX      free ; 0x382
        0x000066d0:    e5940014    ....    LDR      r0,[r4,#0x14]
        0x000066d4:    fbffe729    )...    BLX      free ; 0x382
        0x000066d8:    e3a00000    ....    MOV      r0,#0
        0x000066dc:    e8bd81f0    ....    POP      {r4-r8,pc}
    $d
        0x000066e0:    0006810c    ....    DCD    426252
        0x000066e4:    0000da04    ....    DCD    55812
    $a
    i._uartCheckModemStatus
    _uartCheckModemStatus
        0x000066e8:    e24dd008    ..M.    SUB      sp,sp,#8
        0x000066ec:    e1a02400    .$..    LSL      r2,r0,#8
        0x000066f0:    e59f307c    |0..    LDR      r3,[pc,#124] ; [0x6774] = 0x6810c
        0x000066f4:    e0801080    ....    ADD      r1,r0,r0,LSL #1
        0x000066f8:    e0811180    ....    ADD      r1,r1,r0,LSL #3
        0x000066fc:    e0831101    ....    ADD      r1,r3,r1,LSL #2
        0x00006700:    e282232e    .#..    ADD      r2,r2,#0xb8000000
        0x00006704:    e5922014    . ..    LDR      r2,[r2,#0x14]
        0x00006708:    e58d2004    . ..    STR      r2,[sp,#4]
        0x0000670c:    e59f2064    d ..    LDR      r2,[pc,#100] ; [0x6778] = 0xd9ec
        0x00006710:    e5d23016    .0..    LDRB     r3,[r2,#0x16]
        0x00006714:    e3530000    ..S.    CMP      r3,#0
        0x00006718:    0a00000b    ....    BEQ      0x674c ; _uartCheckModemStatus + 100
        0x0000671c:    e59d3004    .0..    LDR      r3,[sp,#4]
        0x00006720:    e3130010    ....    TST      r3,#0x10
        0x00006724:    1a000010    ....    BNE      0x676c ; _uartCheckModemStatus + 132
        0x00006728:    e3a03000    .0..    MOV      r3,#0
        0x0000672c:    e5c23016    .0..    STRB     r3,[r2,#0x16]
        0x00006730:    e5912000    . ..    LDR      r2,[r1,#0]
        0x00006734:    e5911004    ....    LDR      r1,[r1,#4]
        0x00006738:    e1520001    ..R.    CMP      r2,r1
        0x0000673c:    0a00000a    ....    BEQ      0x676c ; _uartCheckModemStatus + 132
        0x00006740:    e3a01002    ....    MOV      r1,#2
        0x00006744:    e28dd008    ....    ADD      sp,sp,#8
        0x00006748:    ea0000c5    ....    B        _uartEnableInterrupt ; 0x6a64
        0x0000674c:    e59d1004    ....    LDR      r1,[sp,#4]
        0x00006750:    e3110010    ....    TST      r1,#0x10
        0x00006754:    1a000004    ....    BNE      0x676c ; _uartCheckModemStatus + 132
        0x00006758:    e3a01001    ....    MOV      r1,#1
        0x0000675c:    e5c21016    ....    STRB     r1,[r2,#0x16]
        0x00006760:    e3a01002    ....    MOV      r1,#2
        0x00006764:    e28dd008    ....    ADD      sp,sp,#8
        0x00006768:    ea0000b2    ....    B        _uartDisableInterrupt ; 0x6a38
        0x0000676c:    e28dd008    ....    ADD      sp,sp,#8
        0x00006770:    e12fff1e    ../.    BX       lr
    $d
        0x00006774:    0006810c    ....    DCD    426252
        0x00006778:    0000d9ec    ....    DCD    55788
    $a
    i._uartCheckTxBufSpace
    _uartCheckTxBufSpace
        0x0000677c:    e92d41f0    .A-.    PUSH     {r4-r8,lr}
        0x00006780:    e1a07000    .p..    MOV      r7,r0
        0x00006784:    e1a04001    .@..    MOV      r4,r1
        0x00006788:    e1a05002    .P..    MOV      r5,r2
        0x0000678c:    e1a06003    .`..    MOV      r6,r3
        0x00006790:    e1a01005    ....    MOV      r1,r5
        0x00006794:    e1a00007    ....    MOV      r0,r7
        0x00006798:    eb000291    ....    BL       _uartTxBufGetNextOne ; 0x71e4
        0x0000679c:    e1500004    ..P.    CMP      r0,r4
        0x000067a0:    1a000001    ....    BNE      0x67ac ; _uartCheckTxBufSpace + 48
        0x000067a4:    e3a00000    ....    MOV      r0,#0
        0x000067a8:    e8bd81f0    ....    POP      {r4-r8,pc}
        0x000067ac:    e1540005    ..T.    CMP      r4,r5
        0x000067b0:    1a000001    ....    BNE      0x67bc ; _uartCheckTxBufSpace + 64
        0x000067b4:    e3a00001    ....    MOV      r0,#1
        0x000067b8:    e8bd81f0    ....    POP      {r4-r8,pc}
        0x000067bc:    e1550004    ..U.    CMP      r5,r4
        0x000067c0:    9a000009    ....    BLS      0x67ec ; _uartCheckTxBufSpace + 112
        0x000067c4:    e59f003c    <...    LDR      r0,[pc,#60] ; [0x6808] = 0xda04
        0x000067c8:    e0451004    ..E.    SUB      r1,r5,r4
        0x000067cc:    e7900107    ....    LDR      r0,[r0,r7,LSL #2]
        0x000067d0:    e0400001    ..@.    SUB      r0,r0,r1
        0x000067d4:    e1500006    ..P.    CMP      r0,r6
        0x000067d8:    8a000001    ....    BHI      0x67e4 ; _uartCheckTxBufSpace + 104
        0x000067dc:    e3a00000    ....    MOV      r0,#0
        0x000067e0:    e8bd81f0    ....    POP      {r4-r8,pc}
        0x000067e4:    e3a00001    ....    MOV      r0,#1
        0x000067e8:    e8bd81f0    ....    POP      {r4-r8,pc}
        0x000067ec:    e0440005    ..D.    SUB      r0,r4,r5
        0x000067f0:    e1500006    ..P.    CMP      r0,r6
        0x000067f4:    8a000001    ....    BHI      0x6800 ; _uartCheckTxBufSpace + 132
        0x000067f8:    e3a00000    ....    MOV      r0,#0
        0x000067fc:    e8bd81f0    ....    POP      {r4-r8,pc}
        0x00006800:    e3a00001    ....    MOV      r0,#1
        0x00006804:    e8bd81f0    ....    POP      {r4-r8,pc}
    $d
        0x00006808:    0000da04    ....    DCD    55812
    $a
    i._uartConfigureUART
    _uartConfigureUART
        0x0000680c:    e92d4070    p@-.    PUSH     {r4-r6,lr}
        0x00006810:    e1a04000    .@..    MOV      r4,r0
        0x00006814:    e5d40008    ....    LDRB     r0,[r4,#8]
        0x00006818:    e1a02400    .$..    LSL      r2,r0,#8
        0x0000681c:    e350000a    ..P.    CMP      r0,#0xa
        0x00006820:    9a000001    ....    BLS      0x682c ; _uartConfigureUART + 32
        0x00006824:    e3e00004    ....    MVN      r0,#4
        0x00006828:    e8bd8070    p...    POP      {r4-r6,pc}
        0x0000682c:    e5d4100b    ....    LDRB     r1,[r4,#0xb]
        0x00006830:    e3510000    ..Q.    CMP      r1,#0
        0x00006834:    0a000009    ....    BEQ      0x6860 ; _uartConfigureUART + 84
        0x00006838:    e3510018    ..Q.    CMP      r1,#0x18
        0x0000683c:    0a000007    ....    BEQ      0x6860 ; _uartConfigureUART + 84
        0x00006840:    e3510008    ..Q.    CMP      r1,#8
        0x00006844:    0a000005    ....    BEQ      0x6860 ; _uartConfigureUART + 84
        0x00006848:    e3510048    H.Q.    CMP      r1,#0x48
        0x0000684c:    0a000003    ....    BEQ      0x6860 ; _uartConfigureUART + 84
        0x00006850:    e3510058    X.Q.    CMP      r1,#0x58
        0x00006854:    0a000001    ....    BEQ      0x6860 ; _uartConfigureUART + 84
        0x00006858:    e3e00000    ....    MVN      r0,#0
        0x0000685c:    e8bd8070    p...    POP      {r4-r6,pc}
        0x00006860:    e5d41009    ....    LDRB     r1,[r4,#9]
        0x00006864:    e3510000    ..Q.    CMP      r1,#0
        0x00006868:    0a000007    ....    BEQ      0x688c ; _uartConfigureUART + 128
        0x0000686c:    e3510001    ..Q.    CMP      r1,#1
        0x00006870:    0a000005    ....    BEQ      0x688c ; _uartConfigureUART + 128
        0x00006874:    e3510002    ..Q.    CMP      r1,#2
        0x00006878:    0a000003    ....    BEQ      0x688c ; _uartConfigureUART + 128
        0x0000687c:    e3510003    ..Q.    CMP      r1,#3
        0x00006880:    0a000001    ....    BEQ      0x688c ; _uartConfigureUART + 128
        0x00006884:    e3e00001    ....    MVN      r0,#1
        0x00006888:    e8bd8070    p...    POP      {r4-r6,pc}
        0x0000688c:    e5d4100a    ....    LDRB     r1,[r4,#0xa]
        0x00006890:    e3510000    ..Q.    CMP      r1,#0
        0x00006894:    0a000003    ....    BEQ      0x68a8 ; _uartConfigureUART + 156
        0x00006898:    e3510004    ..Q.    CMP      r1,#4
        0x0000689c:    0a000001    ....    BEQ      0x68a8 ; _uartConfigureUART + 156
        0x000068a0:    e3e00002    ....    MVN      r0,#2
        0x000068a4:    e8bd8070    p...    POP      {r4-r6,pc}
        0x000068a8:    e3500001    ..P.    CMP      r0,#1
        0x000068ac:    0a000014    ....    BEQ      0x6904 ; _uartConfigureUART + 248
        0x000068b0:    e3500002    ..P.    CMP      r0,#2
        0x000068b4:    0a000012    ....    BEQ      0x6904 ; _uartConfigureUART + 248
        0x000068b8:    e3500004    ..P.    CMP      r0,#4
        0x000068bc:    0a000010    ....    BEQ      0x6904 ; _uartConfigureUART + 248
        0x000068c0:    e3500006    ..P.    CMP      r0,#6
        0x000068c4:    0a00000e    ....    BEQ      0x6904 ; _uartConfigureUART + 248
        0x000068c8:    e3500008    ..P.    CMP      r0,#8
        0x000068cc:    0a00000c    ....    BEQ      0x6904 ; _uartConfigureUART + 248
        0x000068d0:    e350000a    ..P.    CMP      r0,#0xa
        0x000068d4:    0a00000a    ....    BEQ      0x6904 ; _uartConfigureUART + 248
        0x000068d8:    e5d4100c    ....    LDRB     r1,[r4,#0xc]
        0x000068dc:    e3510000    ..Q.    CMP      r1,#0
        0x000068e0:    0a000018    ....    BEQ      0x6948 ; _uartConfigureUART + 316
        0x000068e4:    e3510010    ..Q.    CMP      r1,#0x10
        0x000068e8:    0a000016    ....    BEQ      0x6948 ; _uartConfigureUART + 316
        0x000068ec:    e3510020     .Q.    CMP      r1,#0x20
        0x000068f0:    0a000014    ....    BEQ      0x6948 ; _uartConfigureUART + 316
        0x000068f4:    e3510040    @.Q.    CMP      r1,#0x40
        0x000068f8:    0a000012    ....    BEQ      0x6948 ; _uartConfigureUART + 316
        0x000068fc:    e3e00003    ....    MVN      r0,#3
        0x00006900:    e8bd8070    p...    POP      {r4-r6,pc}
        0x00006904:    e5d4100c    ....    LDRB     r1,[r4,#0xc]
        0x00006908:    e3510000    ..Q.    CMP      r1,#0
        0x0000690c:    0a00000d    ....    BEQ      0x6948 ; _uartConfigureUART + 316
        0x00006910:    e3510010    ..Q.    CMP      r1,#0x10
        0x00006914:    0a00000b    ....    BEQ      0x6948 ; _uartConfigureUART + 316
        0x00006918:    e3510020     .Q.    CMP      r1,#0x20
        0x0000691c:    0a000009    ....    BEQ      0x6948 ; _uartConfigureUART + 316
        0x00006920:    e3510030    0.Q.    CMP      r1,#0x30
        0x00006924:    0a000007    ....    BEQ      0x6948 ; _uartConfigureUART + 316
        0x00006928:    e3510040    @.Q.    CMP      r1,#0x40
        0x0000692c:    0a000005    ....    BEQ      0x6948 ; _uartConfigureUART + 316
        0x00006930:    e3510050    P.Q.    CMP      r1,#0x50
        0x00006934:    0a000003    ....    BEQ      0x6948 ; _uartConfigureUART + 316
        0x00006938:    e3510060    `.Q.    CMP      r1,#0x60
        0x0000693c:    0a000001    ....    BEQ      0x6948 ; _uartConfigureUART + 316
        0x00006940:    e3e00003    ....    MVN      r0,#3
        0x00006944:    e8bd8070    p...    POP      {r4-r6,pc}
        0x00006948:    e3a0120b    ....    MOV      r1,#0xb0000000
        0x0000694c:    e5913218    .2..    LDR      r3,[r1,#0x218]
        0x00006950:    e2800010    ....    ADD      r0,r0,#0x10
        0x00006954:    e3a06001    .`..    MOV      r6,#1
        0x00006958:    e1830016    ....    ORR      r0,r3,r6,LSL r0
        0x0000695c:    e5810218    ....    STR      r0,[r1,#0x218]
        0x00006960:    e282532e    .S..    ADD      r5,r2,#0xb8000000
        0x00006964:    e5950008    ....    LDR      r0,[r5,#8]
        0x00006968:    e3800006    ....    ORR      r0,r0,#6
        0x0000696c:    e5850008    ....    STR      r0,[r5,#8]
        0x00006970:    e5d40008    ....    LDRB     r0,[r4,#8]
        0x00006974:    e1a01004    ....    MOV      r1,r4
        0x00006978:    eb0001d8    ....    BL       _uartSetBaudRate ; 0x70e0
        0x0000697c:    e3500000    ..P.    CMP      r0,#0
        0x00006980:    aa000001    ....    BGE      0x698c ; _uartConfigureUART + 384
        0x00006984:    e3e0000c    ....    MVN      r0,#0xc
        0x00006988:    e8bd8070    p...    POP      {r4-r6,pc}
        0x0000698c:    e5d4000b    ....    LDRB     r0,[r4,#0xb]
        0x00006990:    e5d41009    ....    LDRB     r1,[r4,#9]
        0x00006994:    e1800001    ....    ORR      r0,r0,r1
        0x00006998:    e5d4100a    ....    LDRB     r1,[r4,#0xa]
        0x0000699c:    e1800001    ....    ORR      r0,r0,r1
        0x000069a0:    e585000c    ....    STR      r0,[r5,#0xc]
        0x000069a4:    e3a000a0    ....    MOV      r0,#0xa0
        0x000069a8:    e5850020     ...    STR      r0,[r5,#0x20]
        0x000069ac:    e5d4000c    ....    LDRB     r0,[r4,#0xc]
        0x000069b0:    e5850008    ....    STR      r0,[r5,#8]
        0x000069b4:    e5d40008    ....    LDRB     r0,[r4,#8]
        0x000069b8:    e59f5074    tP..    LDR      r5,[pc,#116] ; [0x6a34] = 0x6810c
        0x000069bc:    e0801080    ....    ADD      r1,r0,r0,LSL #1
        0x000069c0:    e0811180    ....    ADD      r1,r1,r0,LSL #3
        0x000069c4:    e0851101    ....    ADD      r1,r5,r1,LSL #2
        0x000069c8:    e5d1101e    ....    LDRB     r1,[r1,#0x1e]
        0x000069cc:    e3510000    ..Q.    CMP      r1,#0
        0x000069d0:    1a000010    ....    BNE      0x6a18 ; _uartConfigureUART + 524
        0x000069d4:    ebffff09    ....    BL       _uartBUFSpaceAlloc ; 0x6600
        0x000069d8:    e3500000    ..P.    CMP      r0,#0
        0x000069dc:    0a000009    ....    BEQ      0x6a08 ; _uartConfigureUART + 508
        0x000069e0:    e5d40008    ....    LDRB     r0,[r4,#8]
        0x000069e4:    eb000080    ....    BL       _uartInstallISR ; 0x6bec
        0x000069e8:    e5d40008    ....    LDRB     r0,[r4,#8]
        0x000069ec:    e0801080    ....    ADD      r1,r0,r0,LSL #1
        0x000069f0:    e0811180    ....    ADD      r1,r1,r0,LSL #3
        0x000069f4:    e0851101    ....    ADD      r1,r5,r1,LSL #2
        0x000069f8:    e5d1101d    ....    LDRB     r1,[r1,#0x1d]
        0x000069fc:    e3510001    ..Q.    CMP      r1,#1
        0x00006a00:    0a000002    ....    BEQ      0x6a10 ; _uartConfigureUART + 516
        0x00006a04:    ea000003    ....    B        0x6a18 ; _uartConfigureUART + 524
        0x00006a08:    e3e00005    ....    MVN      r0,#5
        0x00006a0c:    e8bd8070    p...    POP      {r4-r6,pc}
        0x00006a10:    e3a01001    ....    MOV      r1,#1
        0x00006a14:    eb000012    ....    BL       _uartEnableInterrupt ; 0x6a64
        0x00006a18:    e5d40008    ....    LDRB     r0,[r4,#8]
        0x00006a1c:    e0801080    ....    ADD      r1,r0,r0,LSL #1
        0x00006a20:    e0810180    ....    ADD      r0,r1,r0,LSL #3
        0x00006a24:    e0850100    ....    ADD      r0,r5,r0,LSL #2
        0x00006a28:    e5c0601e    .`..    STRB     r6,[r0,#0x1e]
        0x00006a2c:    e3a00000    ....    MOV      r0,#0
        0x00006a30:    e8bd8070    p...    POP      {r4-r6,pc}
    $d
        0x00006a34:    0006810c    ....    DCD    426252
    $a
    i._uartDisableInterrupt
    _uartDisableInterrupt
        0x00006a38:    e1a00400    ....    LSL      r0,r0,#8
        0x00006a3c:    e3510000    ..Q.    CMP      r1,#0
        0x00006a40:    e280032e    ....    ADD      r0,r0,#0xb8000000
        0x00006a44:    0a000003    ....    BEQ      0x6a58 ; _uartDisableInterrupt + 32
        0x00006a48:    e5902004    . ..    LDR      r2,[r0,#4]
        0x00006a4c:    e1c21001    ....    BIC      r1,r2,r1
        0x00006a50:    e5801004    ....    STR      r1,[r0,#4]
        0x00006a54:    e12fff1e    ../.    BX       lr
        0x00006a58:    e3a01000    ....    MOV      r1,#0
        0x00006a5c:    e5801004    ....    STR      r1,[r0,#4]
        0x00006a60:    e12fff1e    ../.    BX       lr
    i._uartEnableInterrupt
    _uartEnableInterrupt
        0x00006a64:    e1a00400    ....    LSL      r0,r0,#8
        0x00006a68:    e280032e    ....    ADD      r0,r0,#0xb8000000
        0x00006a6c:    e5902004    . ..    LDR      r2,[r0,#4]
        0x00006a70:    e1811002    ....    ORR      r1,r1,r2
        0x00006a74:    e5801004    ....    STR      r1,[r0,#4]
        0x00006a78:    e12fff1e    ../.    BX       lr
    i._uartGetRegisterValue
    _uartGetRegisterValue
        0x00006a7c:    e92d4070    p@-.    PUSH     {r4-r6,lr}
        0x00006a80:    e1a04001    .@..    MOV      r4,r1
        0x00006a84:    e1a05400    .T..    LSL      r5,r0,#8
        0x00006a88:    e3a01070    p...    MOV      r1,#0x70
        0x00006a8c:    e1a00004    ....    MOV      r0,r4
        0x00006a90:    ebffe7b4    ....    BL       __aeabi_memclr4 ; 0x968
        0x00006a94:    e3e003ee    ....    MVN      r0,#0xb8000003
        0x00006a98:    e0450000    ..E.    SUB      r0,r5,r0
        0x00006a9c:    e5840000    ....    STR      r0,[r4,#0]
        0x00006aa0:    e285032e    ....    ADD      r0,r5,#0xb8000000
        0x00006aa4:    e5901004    ....    LDR      r1,[r0,#4]
        0x00006aa8:    e5841004    ....    STR      r1,[r4,#4]
        0x00006aac:    e59f1104    ....    LDR      r1,[pc,#260] ; [0x6bb8] = 0xb8000008
        0x00006ab0:    e0811005    ....    ADD      r1,r1,r5
        0x00006ab4:    e5841008    ....    STR      r1,[r4,#8]
        0x00006ab8:    e5901008    ....    LDR      r1,[r0,#8]
        0x00006abc:    e584100c    ....    STR      r1,[r4,#0xc]
        0x00006ac0:    e59f10f4    ....    LDR      r1,[pc,#244] ; [0x6bbc] = 0xb800000c
        0x00006ac4:    e0811005    ....    ADD      r1,r1,r5
        0x00006ac8:    e5841010    ....    STR      r1,[r4,#0x10]
        0x00006acc:    e590100c    ....    LDR      r1,[r0,#0xc]
        0x00006ad0:    e5841014    ....    STR      r1,[r4,#0x14]
        0x00006ad4:    e59f10e4    ....    LDR      r1,[pc,#228] ; [0x6bc0] = 0xb8000010
        0x00006ad8:    e0811005    ....    ADD      r1,r1,r5
        0x00006adc:    e5841018    ....    STR      r1,[r4,#0x18]
        0x00006ae0:    e5901010    ....    LDR      r1,[r0,#0x10]
        0x00006ae4:    e584101c    ....    STR      r1,[r4,#0x1c]
        0x00006ae8:    e59f10d4    ....    LDR      r1,[pc,#212] ; [0x6bc4] = 0xb8000014
        0x00006aec:    e0811005    ....    ADD      r1,r1,r5
        0x00006af0:    e5841020     ...    STR      r1,[r4,#0x20]
        0x00006af4:    e5901014    ....    LDR      r1,[r0,#0x14]
        0x00006af8:    e5841024    $...    STR      r1,[r4,#0x24]
        0x00006afc:    e59f10c4    ....    LDR      r1,[pc,#196] ; [0x6bc8] = 0xb8000018
        0x00006b00:    e0811005    ....    ADD      r1,r1,r5
        0x00006b04:    e5841028    (...    STR      r1,[r4,#0x28]
        0x00006b08:    e5901018    ....    LDR      r1,[r0,#0x18]
        0x00006b0c:    e584102c    ,...    STR      r1,[r4,#0x2c]
        0x00006b10:    e59f10b4    ....    LDR      r1,[pc,#180] ; [0x6bcc] = 0xb800001c
        0x00006b14:    e0811005    ....    ADD      r1,r1,r5
        0x00006b18:    e5841030    0...    STR      r1,[r4,#0x30]
        0x00006b1c:    e590101c    ....    LDR      r1,[r0,#0x1c]
        0x00006b20:    e5841034    4...    STR      r1,[r4,#0x34]
        0x00006b24:    e59f10a4    ....    LDR      r1,[pc,#164] ; [0x6bd0] = 0xb8000020
        0x00006b28:    e0811005    ....    ADD      r1,r1,r5
        0x00006b2c:    e5841038    8...    STR      r1,[r4,#0x38]
        0x00006b30:    e5901020     ...    LDR      r1,[r0,#0x20]
        0x00006b34:    e584103c    <...    STR      r1,[r4,#0x3c]
        0x00006b38:    e59f1094    ....    LDR      r1,[pc,#148] ; [0x6bd4] = 0xb8000024
        0x00006b3c:    e0811005    ....    ADD      r1,r1,r5
        0x00006b40:    e5841040    @...    STR      r1,[r4,#0x40]
        0x00006b44:    e5901024    $...    LDR      r1,[r0,#0x24]
        0x00006b48:    e5841044    D...    STR      r1,[r4,#0x44]
        0x00006b4c:    e59f1084    ....    LDR      r1,[pc,#132] ; [0x6bd8] = 0xb8000028
        0x00006b50:    e0811005    ....    ADD      r1,r1,r5
        0x00006b54:    e5841048    H...    STR      r1,[r4,#0x48]
        0x00006b58:    e5901028    (...    LDR      r1,[r0,#0x28]
        0x00006b5c:    e584104c    L...    STR      r1,[r4,#0x4c]
        0x00006b60:    e59f1074    t...    LDR      r1,[pc,#116] ; [0x6bdc] = 0xb800002c
        0x00006b64:    e0811005    ....    ADD      r1,r1,r5
        0x00006b68:    e5841050    P...    STR      r1,[r4,#0x50]
        0x00006b6c:    e590102c    ,...    LDR      r1,[r0,#0x2c]
        0x00006b70:    e5841054    T...    STR      r1,[r4,#0x54]
        0x00006b74:    e59f1064    d...    LDR      r1,[pc,#100] ; [0x6be0] = 0xb8000030
        0x00006b78:    e0811005    ....    ADD      r1,r1,r5
        0x00006b7c:    e5841058    X...    STR      r1,[r4,#0x58]
        0x00006b80:    e5901030    0...    LDR      r1,[r0,#0x30]
        0x00006b84:    e584105c    \...    STR      r1,[r4,#0x5c]
        0x00006b88:    e59f1054    T...    LDR      r1,[pc,#84] ; [0x6be4] = 0xb8000034
        0x00006b8c:    e0811005    ....    ADD      r1,r1,r5
        0x00006b90:    e5841060    `...    STR      r1,[r4,#0x60]
        0x00006b94:    e5901034    4...    LDR      r1,[r0,#0x34]
        0x00006b98:    e5841064    d...    STR      r1,[r4,#0x64]
        0x00006b9c:    e59f1044    D...    LDR      r1,[pc,#68] ; [0x6be8] = 0xb8000038
        0x00006ba0:    e0811005    ....    ADD      r1,r1,r5
        0x00006ba4:    e5841068    h...    STR      r1,[r4,#0x68]
        0x00006ba8:    e5901038    8...    LDR      r1,[r0,#0x38]
        0x00006bac:    e3a0000e    ....    MOV      r0,#0xe
        0x00006bb0:    e584106c    l...    STR      r1,[r4,#0x6c]
        0x00006bb4:    e8bd8070    p...    POP      {r4-r6,pc}
    $d
        0x00006bb8:    b8000008    ....    DCD    3087007752
        0x00006bbc:    b800000c    ....    DCD    3087007756
        0x00006bc0:    b8000010    ....    DCD    3087007760
        0x00006bc4:    b8000014    ....    DCD    3087007764
        0x00006bc8:    b8000018    ....    DCD    3087007768
        0x00006bcc:    b800001c    ....    DCD    3087007772
        0x00006bd0:    b8000020     ...    DCD    3087007776
        0x00006bd4:    b8000024    $...    DCD    3087007780
        0x00006bd8:    b8000028    (...    DCD    3087007784
        0x00006bdc:    b800002c    ,...    DCD    3087007788
        0x00006be0:    b8000030    0...    DCD    3087007792
        0x00006be4:    b8000034    4...    DCD    3087007796
        0x00006be8:    b8000038    8...    DCD    3087007800
    $a
    i._uartInstallISR
    _uartInstallISR
        0x00006bec:    e92d4070    p@-.    PUSH     {r4-r6,lr}
        0x00006bf0:    e59f21a8    .!..    LDR      r2,[pc,#424] ; [0x6da0] = 0x6810c
        0x00006bf4:    e0801080    ....    ADD      r1,r0,r0,LSL #1
        0x00006bf8:    e0811180    ....    ADD      r1,r1,r0,LSL #3
        0x00006bfc:    e0824101    .A..    ADD      r4,r2,r1,LSL #2
        0x00006c00:    e3500000    ..P.    CMP      r0,#0
        0x00006c04:    0a00001e    ....    BEQ      0x6c84 ; _uartInstallISR + 152
        0x00006c08:    e3500001    ..P.    CMP      r0,#1
        0x00006c0c:    0a000023    #...    BEQ      0x6ca0 ; _uartInstallISR + 180
        0x00006c10:    e3500002    ..P.    CMP      r0,#2
        0x00006c14:    0a000028    (...    BEQ      0x6cbc ; _uartInstallISR + 208
        0x00006c18:    e3500003    ..P.    CMP      r0,#3
        0x00006c1c:    0a00002d    -...    BEQ      0x6cd8 ; _uartInstallISR + 236
        0x00006c20:    e3500004    ..P.    CMP      r0,#4
        0x00006c24:    0a000032    2...    BEQ      0x6cf4 ; _uartInstallISR + 264
        0x00006c28:    e3500005    ..P.    CMP      r0,#5
        0x00006c2c:    0a000037    7...    BEQ      0x6d10 ; _uartInstallISR + 292
        0x00006c30:    e3500006    ..P.    CMP      r0,#6
        0x00006c34:    0a00003c    <...    BEQ      0x6d2c ; _uartInstallISR + 320
        0x00006c38:    e3500007    ..P.    CMP      r0,#7
        0x00006c3c:    0a000041    A...    BEQ      0x6d48 ; _uartInstallISR + 348
        0x00006c40:    e3500008    ..P.    CMP      r0,#8
        0x00006c44:    0a000046    F...    BEQ      0x6d64 ; _uartInstallISR + 376
        0x00006c48:    e3500009    ..P.    CMP      r0,#9
        0x00006c4c:    0a00004b    K...    BEQ      0x6d80 ; _uartInstallISR + 404
        0x00006c50:    e350000a    ..P.    CMP      r0,#0xa
        0x00006c54:    1a000050    P...    BNE      0x6d9c ; _uartInstallISR + 432
        0x00006c58:    e3a0502a    *P..    MOV      r5,#0x2a
        0x00006c5c:    e59f2140    @!..    LDR      r2,[pc,#320] ; [0x6da4] = 0xacec
        0x00006c60:    e1a01005    ....    MOV      r1,r5
        0x00006c64:    e3a00043    C...    MOV      r0,#0x43
        0x00006c68:    eb000ed3    ....    BL       sysInstallISR ; 0xa7bc
        0x00006c6c:    e5840018    ....    STR      r0,[r4,#0x18]
        0x00006c70:    e3a0007f    ....    MOV      r0,#0x7f
        0x00006c74:    eb000f0d    ....    BL       sysSetLocalInterrupt ; 0xa8b0
        0x00006c78:    e1a00005    ....    MOV      r0,r5
        0x00006c7c:    e8bd4070    p@..    POP      {r4-r6,lr}
        0x00006c80:    ea000c86    ....    B        sysEnableInterrupt ; 0x9ea0
        0x00006c84:    e3a05024    $P..    MOV      r5,#0x24
        0x00006c88:    e59f2118    .!..    LDR      r2,[pc,#280] ; [0x6da8] = 0xac7c
        0x00006c8c:    e1a01005    ....    MOV      r1,r5
        0x00006c90:    e3a00043    C...    MOV      r0,#0x43
        0x00006c94:    eb000ec8    ....    BL       sysInstallISR ; 0xa7bc
        0x00006c98:    e5840018    ....    STR      r0,[r4,#0x18]
        0x00006c9c:    eafffff3    ....    B        0x6c70 ; _uartInstallISR + 132
        0x00006ca0:    e3a05025    %P..    MOV      r5,#0x25
        0x00006ca4:    e59f2100    .!..    LDR      r2,[pc,#256] ; [0x6dac] = 0xadec
        0x00006ca8:    e1a01005    ....    MOV      r1,r5
        0x00006cac:    e3a00043    C...    MOV      r0,#0x43
        0x00006cb0:    eb000ec1    ....    BL       sysInstallISR ; 0xa7bc
        0x00006cb4:    e5840018    ....    STR      r0,[r4,#0x18]
        0x00006cb8:    eaffffec    ....    B        0x6c70 ; _uartInstallISR + 132
        0x00006cbc:    e3a05026    &P..    MOV      r5,#0x26
        0x00006cc0:    e59f20e8    . ..    LDR      r2,[pc,#232] ; [0x6db0] = 0xaed0
        0x00006cc4:    e1a01005    ....    MOV      r1,r5
        0x00006cc8:    e3a00043    C...    MOV      r0,#0x43
        0x00006ccc:    eb000eba    ....    BL       sysInstallISR ; 0xa7bc
        0x00006cd0:    e5840018    ....    STR      r0,[r4,#0x18]
        0x00006cd4:    eaffffe5    ....    B        0x6c70 ; _uartInstallISR + 132
        0x00006cd8:    e3a0502b    +P..    MOV      r5,#0x2b
        0x00006cdc:    e59f20d0    . ..    LDR      r2,[pc,#208] ; [0x6db4] = 0xafd8
        0x00006ce0:    e1a01005    ....    MOV      r1,r5
        0x00006ce4:    e3a00043    C...    MOV      r0,#0x43
        0x00006ce8:    eb000eb3    ....    BL       sysInstallISR ; 0xa7bc
        0x00006cec:    e5840018    ....    STR      r0,[r4,#0x18]
        0x00006cf0:    eaffffde    ....    B        0x6c70 ; _uartInstallISR + 132
        0x00006cf4:    e3a05027    'P..    MOV      r5,#0x27
        0x00006cf8:    e59f20b8    . ..    LDR      r2,[pc,#184] ; [0x6db8] = 0xb0bc
        0x00006cfc:    e1a01005    ....    MOV      r1,r5
        0x00006d00:    e3a00043    C...    MOV      r0,#0x43
        0x00006d04:    eb000eac    ....    BL       sysInstallISR ; 0xa7bc
        0x00006d08:    e5840018    ....    STR      r0,[r4,#0x18]
        0x00006d0c:    eaffffd7    ....    B        0x6c70 ; _uartInstallISR + 132
        0x00006d10:    e3a0502c    ,P..    MOV      r5,#0x2c
        0x00006d14:    e59f20a0    . ..    LDR      r2,[pc,#160] ; [0x6dbc] = 0xb1bc
        0x00006d18:    e1a01005    ....    MOV      r1,r5
        0x00006d1c:    e3a00043    C...    MOV      r0,#0x43
        0x00006d20:    eb000ea5    ....    BL       sysInstallISR ; 0xa7bc
        0x00006d24:    e5840018    ....    STR      r0,[r4,#0x18]
        0x00006d28:    eaffffd0    ....    B        0x6c70 ; _uartInstallISR + 132
        0x00006d2c:    e3a05028    (P..    MOV      r5,#0x28
        0x00006d30:    e59f2088    . ..    LDR      r2,[pc,#136] ; [0x6dc0] = 0xb2bc
        0x00006d34:    e1a01005    ....    MOV      r1,r5
        0x00006d38:    e3a00043    C...    MOV      r0,#0x43
        0x00006d3c:    eb000e9e    ....    BL       sysInstallISR ; 0xa7bc
        0x00006d40:    e5840018    ....    STR      r0,[r4,#0x18]
        0x00006d44:    eaffffc9    ....    B        0x6c70 ; _uartInstallISR + 132
        0x00006d48:    e3a0502d    -P..    MOV      r5,#0x2d
        0x00006d4c:    e59f2070    p ..    LDR      r2,[pc,#112] ; [0x6dc4] = 0xb3bc
        0x00006d50:    e1a01005    ....    MOV      r1,r5
        0x00006d54:    e3a00043    C...    MOV      r0,#0x43
        0x00006d58:    eb000e97    ....    BL       sysInstallISR ; 0xa7bc
        0x00006d5c:    e5840018    ....    STR      r0,[r4,#0x18]
        0x00006d60:    eaffffc2    ....    B        0x6c70 ; _uartInstallISR + 132
        0x00006d64:    e3a05029    )P..    MOV      r5,#0x29
        0x00006d68:    e59f2058    X ..    LDR      r2,[pc,#88] ; [0x6dc8] = 0xb4bc
        0x00006d6c:    e1a01005    ....    MOV      r1,r5
        0x00006d70:    e3a00043    C...    MOV      r0,#0x43
        0x00006d74:    eb000e90    ....    BL       sysInstallISR ; 0xa7bc
        0x00006d78:    e5840018    ....    STR      r0,[r4,#0x18]
        0x00006d7c:    eaffffbb    ....    B        0x6c70 ; _uartInstallISR + 132
        0x00006d80:    e3a0502e    .P..    MOV      r5,#0x2e
        0x00006d84:    e59f2040    @ ..    LDR      r2,[pc,#64] ; [0x6dcc] = 0xb5bc
        0x00006d88:    e1a01005    ....    MOV      r1,r5
        0x00006d8c:    e3a00043    C...    MOV      r0,#0x43
        0x00006d90:    eb000e89    ....    BL       sysInstallISR ; 0xa7bc
        0x00006d94:    e5840018    ....    STR      r0,[r4,#0x18]
        0x00006d98:    eaffffb4    ....    B        0x6c70 ; _uartInstallISR + 132
        0x00006d9c:    e8bd8070    p...    POP      {r4-r6,pc}
    $d
        0x00006da0:    0006810c    ....    DCD    426252
        0x00006da4:    0000acec    ....    DCD    44268
        0x00006da8:    0000ac7c    |...    DCD    44156
        0x00006dac:    0000adec    ....    DCD    44524
        0x00006db0:    0000aed0    ....    DCD    44752
        0x00006db4:    0000afd8    ....    DCD    45016
        0x00006db8:    0000b0bc    ....    DCD    45244
        0x00006dbc:    0000b1bc    ....    DCD    45500
        0x00006dc0:    0000b2bc    ....    DCD    45756
        0x00006dc4:    0000b3bc    ....    DCD    46012
        0x00006dc8:    0000b4bc    ....    DCD    46268
        0x00006dcc:    0000b5bc    ....    DCD    46524
    $a
    i._uartPerformIrDA
    _uartPerformIrDA
        0x00006dd0:    e1a00400    ....    LSL      r0,r0,#8
        0x00006dd4:    e3510000    ..Q.    CMP      r1,#0
        0x00006dd8:    e3a03000    .0..    MOV      r3,#0
        0x00006ddc:    e280032e    ....    ADD      r0,r0,#0xb8000000
        0x00006de0:    0a000016    ....    BEQ      0x6e40 ; _uartPerformIrDA + 112
        0x00006de4:    e3510001    ..Q.    CMP      r1,#1
        0x00006de8:    0a000001    ....    BEQ      0x6df4 ; _uartPerformIrDA + 36
        0x00006dec:    e3e00009    ....    MVN      r0,#9
        0x00006df0:    e12fff1e    ../.    BX       lr
        0x00006df4:    e5901024    $...    LDR      r1,[r0,#0x24]
        0x00006df8:    e1a01801    ....    LSL      r1,r1,#16
        0x00006dfc:    e1a01821    !...    LSR      r1,r1,#16
        0x00006e00:    e2811002    ....    ADD      r1,r1,#2
        0x00006e04:    e1a01221    !...    LSR      r1,r1,#4
        0x00006e08:    e2411002    ..A.    SUB      r1,r1,#2
        0x00006e0c:    e5801024    $...    STR      r1,[r0,#0x24]
        0x00006e10:    e3520000    ..R.    CMP      r2,#0
        0x00006e14:    e3a01002    ....    MOV      r1,#2
        0x00006e18:    0a000003    ....    BEQ      0x6e2c ; _uartPerformIrDA + 92
        0x00006e1c:    e3520001    ..R.    CMP      r2,#1
        0x00006e20:    0a000003    ....    BEQ      0x6e34 ; _uartPerformIrDA + 100
        0x00006e24:    e3e00009    ....    MVN      r0,#9
        0x00006e28:    e12fff1e    ../.    BX       lr
        0x00006e2c:    e5801028    (...    STR      r1,[r0,#0x28]
        0x00006e30:    ea000000    ....    B        0x6e38 ; _uartPerformIrDA + 104
        0x00006e34:    e5803028    (0..    STR      r3,[r0,#0x28]
        0x00006e38:    e5801030    0...    STR      r1,[r0,#0x30]
        0x00006e3c:    ea000002    ....    B        0x6e4c ; _uartPerformIrDA + 124
        0x00006e40:    e3a01040    @...    MOV      r1,#0x40
        0x00006e44:    e5801028    (...    STR      r1,[r0,#0x28]
        0x00006e48:    e5803030    00..    STR      r3,[r0,#0x30]
        0x00006e4c:    e3a00000    ....    MOV      r0,#0
        0x00006e50:    e12fff1e    ../.    BX       lr
    i._uartReceiveChars
    _uartReceiveChars
        0x00006e54:    e92d47f0    .G-.    PUSH     {r4-r10,lr}
        0x00006e58:    e24dd020     .M.    SUB      sp,sp,#0x20
        0x00006e5c:    e1a0a000    ....    MOV      r10,r0
        0x00006e60:    e3a09000    ....    MOV      r9,#0
        0x00006e64:    e58d9004    ....    STR      r9,[sp,#4]
        0x00006e68:    e1a0040a    ....    LSL      r0,r10,#8
        0x00006e6c:    e58d0000    ....    STR      r0,[sp,#0]
        0x00006e70:    e3a06c01    .l..    MOV      r6,#0x100
        0x00006e74:    e59f1230    0...    LDR      r1,[pc,#560] ; [0x70ac] = 0x6810c
        0x00006e78:    e08a008a    ....    ADD      r0,r10,r10,LSL #1
        0x00006e7c:    e080018a    ....    ADD      r0,r0,r10,LSL #3
        0x00006e80:    e0814100    .A..    ADD      r4,r1,r0,LSL #2
        0x00006e84:    e59d0000    ....    LDR      r0,[sp,#0]
        0x00006e88:    e280532e    .S..    ADD      r5,r0,#0xb8000000
        0x00006e8c:    e5950030    0...    LDR      r0,[r5,#0x30]
        0x00006e90:    e58d0014    ....    STR      r0,[sp,#0x14]
        0x00006e94:    e3a08001    ....    MOV      r8,#1
        0x00006e98:    e59d0000    ....    LDR      r0,[sp,#0]
        0x00006e9c:    e280132e    ....    ADD      r1,r0,#0xb8000000
        0x00006ea0:    e5910018    ....    LDR      r0,[r1,#0x18]
        0x00006ea4:    e58d001c    ....    STR      r0,[sp,#0x1c]
        0x00006ea8:    e5910038    8...    LDR      r0,[r1,#0x38]
        0x00006eac:    e58d000c    ....    STR      r0,[sp,#0xc]
        0x00006eb0:    e591001c    ....    LDR      r0,[r1,#0x1c]
        0x00006eb4:    e58d0008    ....    STR      r0,[sp,#8]
        0x00006eb8:    e5d17000    .p..    LDRB     r7,[r1,#0]
        0x00006ebc:    e59d001c    ....    LDR      r0,[sp,#0x1c]
        0x00006ec0:    e3100008    ....    TST      r0,#8
        0x00006ec4:    0a000011    ....    BEQ      0x6f10 ; _uartReceiveChars + 188
        0x00006ec8:    e59d0014    ....    LDR      r0,[sp,#0x14]
        0x00006ecc:    e3500003    ..P.    CMP      r0,#3
        0x00006ed0:    1a00000e    ....    BNE      0x6f10 ; _uartReceiveChars + 188
        0x00006ed4:    e595002c    ,...    LDR      r0,[r5,#0x2c]
        0x00006ed8:    e58d0018    ....    STR      r0,[sp,#0x18]
        0x00006edc:    e5950008    ....    LDR      r0,[r5,#8]
        0x00006ee0:    e58d0010    ....    STR      r0,[sp,#0x10]
        0x00006ee4:    e59d0018    ....    LDR      r0,[sp,#0x18]
        0x00006ee8:    e3100c01    ....    TST      r0,#0x100
        0x00006eec:    0a000007    ....    BEQ      0x6f10 ; _uartReceiveChars + 188
        0x00006ef0:    e59d0018    ....    LDR      r0,[sp,#0x18]
        0x00006ef4:    e1570c20     .W.    CMP      r7,r0,LSR #24
        0x00006ef8:    1a000010    ....    BNE      0x6f40 ; _uartReceiveChars + 236
        0x00006efc:    e59d0010    ....    LDR      r0,[sp,#0x10]
        0x00006f00:    e3c00c01    ....    BIC      r0,r0,#0x100
        0x00006f04:    e58d0010    ....    STR      r0,[sp,#0x10]
        0x00006f08:    e59d0010    ....    LDR      r0,[sp,#0x10]
        0x00006f0c:    e5850008    ....    STR      r0,[r5,#8]
        0x00006f10:    e594100c    ....    LDR      r1,[r4,#0xc]
        0x00006f14:    e1a0000a    ....    MOV      r0,r10
        0x00006f18:    eb000066    f...    BL       _uartRxBufGetNextOne ; 0x70b8
        0x00006f1c:    e58d0004    ....    STR      r0,[sp,#4]
        0x00006f20:    e5940008    ....    LDR      r0,[r4,#8]
        0x00006f24:    e59d1004    ....    LDR      r1,[sp,#4]
        0x00006f28:    e1500001    ..P.    CMP      r0,r1
        0x00006f2c:    1a00000c    ....    BNE      0x6f64 ; _uartReceiveChars + 272
        0x00006f30:    e59f0178    x...    LDR      r0,[pc,#376] ; [0x70b0] = 0xd9ec
        0x00006f34:    e5d00017    ....    LDRB     r0,[r0,#0x17]
        0x00006f38:    e28dd020     ...    ADD      sp,sp,#0x20
        0x00006f3c:    e8bd87f0    ....    POP      {r4-r10,pc}
        0x00006f40:    e59d0010    ....    LDR      r0,[sp,#0x10]
        0x00006f44:    e3800c01    ....    ORR      r0,r0,#0x100
        0x00006f48:    e58d0010    ....    STR      r0,[sp,#0x10]
        0x00006f4c:    e59d0010    ....    LDR      r0,[sp,#0x10]
        0x00006f50:    e3800002    ....    ORR      r0,r0,#2
        0x00006f54:    e58d0010    ....    STR      r0,[sp,#0x10]
        0x00006f58:    e59d0010    ....    LDR      r0,[sp,#0x10]
        0x00006f5c:    e5850008    ....    STR      r0,[r5,#8]
        0x00006f60:    eafffff4    ....    B        0x6f38 ; _uartReceiveChars + 228
        0x00006f64:    e5940014    ....    LDR      r0,[r4,#0x14]
        0x00006f68:    e594100c    ....    LDR      r1,[r4,#0xc]
        0x00006f6c:    e7c07001    .p..    STRB     r7,[r0,r1]
        0x00006f70:    e5940020     ...    LDR      r0,[r4,#0x20]
        0x00006f74:    e594100c    ....    LDR      r1,[r4,#0xc]
        0x00006f78:    e7809101    ....    STR      r9,[r0,r1,LSL #2]
        0x00006f7c:    e59d001c    ....    LDR      r0,[sp,#0x1c]
        0x00006f80:    e3100040    @...    TST      r0,#0x40
        0x00006f84:    0a000004    ....    BEQ      0x6f9c ; _uartReceiveChars + 328
        0x00006f88:    e5941020     ...    LDR      r1,[r4,#0x20]
        0x00006f8c:    e594200c    . ..    LDR      r2,[r4,#0xc]
        0x00006f90:    e3a00040    @...    MOV      r0,#0x40
        0x00006f94:    e7810102    ....    STR      r0,[r1,r2,LSL #2]
        0x00006f98:    ea00001d    ....    B        0x7014 ; _uartReceiveChars + 448
        0x00006f9c:    e59d001c    ....    LDR      r0,[sp,#0x1c]
        0x00006fa0:    e3100020     ...    TST      r0,#0x20
        0x00006fa4:    0a000004    ....    BEQ      0x6fbc ; _uartReceiveChars + 360
        0x00006fa8:    e5941020     ...    LDR      r1,[r4,#0x20]
        0x00006fac:    e594200c    . ..    LDR      r2,[r4,#0xc]
        0x00006fb0:    e3a00020     ...    MOV      r0,#0x20
        0x00006fb4:    e7810102    ....    STR      r0,[r1,r2,LSL #2]
        0x00006fb8:    ea000015    ....    B        0x7014 ; _uartReceiveChars + 448
        0x00006fbc:    e59d001c    ....    LDR      r0,[sp,#0x1c]
        0x00006fc0:    e3100010    ....    TST      r0,#0x10
        0x00006fc4:    0a000004    ....    BEQ      0x6fdc ; _uartReceiveChars + 392
        0x00006fc8:    e5941020     ...    LDR      r1,[r4,#0x20]
        0x00006fcc:    e594200c    . ..    LDR      r2,[r4,#0xc]
        0x00006fd0:    e3a00010    ....    MOV      r0,#0x10
        0x00006fd4:    e7810102    ....    STR      r0,[r1,r2,LSL #2]
        0x00006fd8:    ea00000d    ....    B        0x7014 ; _uartReceiveChars + 448
        0x00006fdc:    e59d001c    ....    LDR      r0,[sp,#0x1c]
        0x00006fe0:    e3100001    ....    TST      r0,#1
        0x00006fe4:    0a000003    ....    BEQ      0x6ff8 ; _uartReceiveChars + 420
        0x00006fe8:    e5940020     ...    LDR      r0,[r4,#0x20]
        0x00006fec:    e594100c    ....    LDR      r1,[r4,#0xc]
        0x00006ff0:    e7808101    ....    STR      r8,[r0,r1,LSL #2]
        0x00006ff4:    ea000006    ....    B        0x7014 ; _uartReceiveChars + 448
        0x00006ff8:    e59d001c    ....    LDR      r0,[sp,#0x1c]
        0x00006ffc:    e3100008    ....    TST      r0,#8
        0x00007000:    0a000003    ....    BEQ      0x7014 ; _uartReceiveChars + 448
        0x00007004:    e5941020     ...    LDR      r1,[r4,#0x20]
        0x00007008:    e594200c    . ..    LDR      r2,[r4,#0xc]
        0x0000700c:    e3a00008    ....    MOV      r0,#8
        0x00007010:    e7810102    ....    STR      r0,[r1,r2,LSL #2]
        0x00007014:    e59d0014    ....    LDR      r0,[sp,#0x14]
        0x00007018:    e3500001    ..P.    CMP      r0,#1
        0x0000701c:    1a00000b    ....    BNE      0x7050 ; _uartReceiveChars + 508
        0x00007020:    e59d0008    ....    LDR      r0,[sp,#8]
        0x00007024:    e3100080    ....    TST      r0,#0x80
        0x00007028:    0a000008    ....    BEQ      0x7050 ; _uartReceiveChars + 508
        0x0000702c:    e59d000c    ....    LDR      r0,[sp,#0xc]
        0x00007030:    e5941024    $...    LDR      r1,[r4,#0x24]
        0x00007034:    e594200c    . ..    LDR      r2,[r4,#0xc]
        0x00007038:    e7810102    ....    STR      r0,[r1,r2,LSL #2]
        0x0000703c:    e3a01080    ....    MOV      r1,#0x80
        0x00007040:    e3a0032e    ....    MOV      r0,#0xb8000000
        0x00007044:    e580101c    ....    STR      r1,[r0,#0x1c]
        0x00007048:    e59f1064    d...    LDR      r1,[pc,#100] ; [0x70b4] = 0x30f
        0x0000704c:    e5801038    8...    STR      r1,[r0,#0x38]
        0x00007050:    e594100c    ....    LDR      r1,[r4,#0xc]
        0x00007054:    e1a0000a    ....    MOV      r0,r10
        0x00007058:    eb000016    ....    BL       _uartRxBufGetNextOne ; 0x70b8
        0x0000705c:    e584000c    ....    STR      r0,[r4,#0xc]
        0x00007060:    e59d001c    ....    LDR      r0,[sp,#0x1c]
        0x00007064:    e3100001    ....    TST      r0,#1
        0x00007068:    0a000006    ....    BEQ      0x7088 ; _uartReceiveChars + 564
        0x0000706c:    e5940020     ...    LDR      r0,[r4,#0x20]
        0x00007070:    e594100c    ....    LDR      r1,[r4,#0xc]
        0x00007074:    e7808101    ....    STR      r8,[r0,r1,LSL #2]
        0x00007078:    e594100c    ....    LDR      r1,[r4,#0xc]
        0x0000707c:    e1a0000a    ....    MOV      r0,r10
        0x00007080:    eb00000c    ....    BL       _uartRxBufGetNextOne ; 0x70b8
        0x00007084:    e584000c    ....    STR      r0,[r4,#0xc]
        0x00007088:    e5950018    ....    LDR      r0,[r5,#0x18]
        0x0000708c:    e58d001c    ....    STR      r0,[sp,#0x1c]
        0x00007090:    e59d001c    ....    LDR      r0,[sp,#0x1c]
        0x00007094:    e3100901    ....    TST      r0,#0x4000
        0x00007098:    1affffa6    ....    BNE      0x6f38 ; _uartReceiveChars + 228
        0x0000709c:    e2560000    ..V.    SUBS     r0,r6,#0
        0x000070a0:    e2466001    .`F.    SUB      r6,r6,#1
        0x000070a4:    caffff7b    {...    BGT      0x6e98 ; _uartReceiveChars + 68
        0x000070a8:    eaffffa2    ....    B        0x6f38 ; _uartReceiveChars + 228
    $d
        0x000070ac:    0006810c    ....    DCD    426252
        0x000070b0:    0000d9ec    ....    DCD    55788
        0x000070b4:    0000030f    ....    DCD    783
    $a
    i._uartRxBufGetNextOne
    _uartRxBufGetNextOne
        0x000070b8:    e59f201c    . ..    LDR      r2,[pc,#28] ; [0x70dc] = 0xda30
        0x000070bc:    e7920100    ....    LDR      r0,[r2,r0,LSL #2]
        0x000070c0:    e2812001    . ..    ADD      r2,r1,#1
        0x000070c4:    e1500002    ..P.    CMP      r0,r2
        0x000070c8:    1a000001    ....    BNE      0x70d4 ; _uartRxBufGetNextOne + 28
        0x000070cc:    e3a00000    ....    MOV      r0,#0
        0x000070d0:    e12fff1e    ../.    BX       lr
        0x000070d4:    e2810001    ....    ADD      r0,r1,#1
        0x000070d8:    e12fff1e    ../.    BX       lr
    $d
        0x000070dc:    0000da30    0...    DCD    55856
    $a
    i._uartSetBaudRate
    _uartSetBaudRate
        0x000070e0:    e92d4070    p@-.    PUSH     {r4-r6,lr}
        0x000070e4:    e1a06400    .d..    LSL      r6,r0,#8
        0x000070e8:    e5915000    .P..    LDR      r5,[r1,#0]
        0x000070ec:    e5914004    .@..    LDR      r4,[r1,#4]
        0x000070f0:    e08500a4    ....    ADD      r0,r5,r4,LSR #1
        0x000070f4:    e1a01004    ....    MOV      r1,r4
        0x000070f8:    ebffea78    x...    BL       __aeabi_uidiv ; 0x1ae0
        0x000070fc:    e2400002    ..@.    SUB      r0,r0,#2
        0x00007100:    e3500801    ..P.    CMP      r0,#0x10000
        0x00007104:    3a000005    ...:    BCC      0x7120 ; _uartSetBaudRate + 64
        0x00007108:    e0850184    ....    ADD      r0,r5,r4,LSL #3
        0x0000710c:    e1a01004    ....    MOV      r1,r4
        0x00007110:    ebffea72    r...    BL       __aeabi_uidiv ; 0x1ae0
        0x00007114:    e3e01001    ....    MVN      r1,#1
        0x00007118:    e0810220     ...    ADD      r0,r1,r0,LSR #4
        0x0000711c:    ea000000    ....    B        0x7124 ; _uartSetBaudRate + 68
        0x00007120:    e3800203    ....    ORR      r0,r0,#0x30000000
        0x00007124:    e286132e    ....    ADD      r1,r6,#0xb8000000
        0x00007128:    e5810024    $...    STR      r0,[r1,#0x24]
        0x0000712c:    e3a00000    ....    MOV      r0,#0
        0x00007130:    e8bd8070    p...    POP      {r4-r6,pc}
    i._uartTransmitChars
    _uartTransmitChars
        0x00007134:    e92d40f8    .@-.    PUSH     {r3-r7,lr}
        0x00007138:    e1a07000    .p..    MOV      r7,r0
        0x0000713c:    e59f1098    ....    LDR      r1,[pc,#152] ; [0x71dc] = 0x6810c
        0x00007140:    e0870087    ....    ADD      r0,r7,r7,LSL #1
        0x00007144:    e0800187    ....    ADD      r0,r0,r7,LSL #3
        0x00007148:    e0814100    .A..    ADD      r4,r1,r0,LSL #2
        0x0000714c:    e5940000    ....    LDR      r0,[r4,#0]
        0x00007150:    e5941004    ....    LDR      r1,[r4,#4]
        0x00007154:    e1500001    ..P.    CMP      r0,r1
        0x00007158:    0a000017    ....    BEQ      0x71bc ; _uartTransmitChars + 136
        0x0000715c:    e3a00000    ....    MOV      r0,#0
        0x00007160:    e58d0000    ....    STR      r0,[sp,#0]
        0x00007164:    e1a00407    ....    LSL      r0,r7,#8
        0x00007168:    e59f5070    pP..    LDR      r5,[pc,#112] ; [0x71e0] = 0xd428
        0x0000716c:    e280632e    .c..    ADD      r6,r0,#0xb8000000
        0x00007170:    ea000015    ....    B        0x71cc ; _uartTransmitChars + 152
        0x00007174:    e5940010    ....    LDR      r0,[r4,#0x10]
        0x00007178:    e5941000    ....    LDR      r1,[r4,#0]
        0x0000717c:    e7d00001    ....    LDRB     r0,[r0,r1]
        0x00007180:    e5860000    ....    STR      r0,[r6,#0]
        0x00007184:    e5941000    ....    LDR      r1,[r4,#0]
        0x00007188:    e1a00007    ....    MOV      r0,r7
        0x0000718c:    eb000014    ....    BL       _uartTxBufGetNextOne ; 0x71e4
        0x00007190:    e5840000    ....    STR      r0,[r4,#0]
        0x00007194:    e5950000    ....    LDR      r0,[r5,#0]
        0x00007198:    e2800001    ....    ADD      r0,r0,#1
        0x0000719c:    e5850000    ....    STR      r0,[r5,#0]
        0x000071a0:    e5940000    ....    LDR      r0,[r4,#0]
        0x000071a4:    e5941004    ....    LDR      r1,[r4,#4]
        0x000071a8:    e1500001    ..P.    CMP      r0,r1
        0x000071ac:    1a000003    ....    BNE      0x71c0 ; _uartTransmitChars + 140
        0x000071b0:    e3a01002    ....    MOV      r1,#2
        0x000071b4:    e1a00007    ....    MOV      r0,r7
        0x000071b8:    ebfffe1e    ....    BL       _uartDisableInterrupt ; 0x6a38
        0x000071bc:    e8bd80f8    ....    POP      {r3-r7,pc}
        0x000071c0:    e59d0000    ....    LDR      r0,[sp,#0]
        0x000071c4:    e2800001    ....    ADD      r0,r0,#1
        0x000071c8:    e58d0000    ....    STR      r0,[sp,#0]
        0x000071cc:    e59d0000    ....    LDR      r0,[sp,#0]
        0x000071d0:    e3500008    ..P.    CMP      r0,#8
        0x000071d4:    3affffe6    ...:    BCC      0x7174 ; _uartTransmitChars + 64
        0x000071d8:    e8bd80f8    ....    POP      {r3-r7,pc}
    $d
        0x000071dc:    0006810c    ....    DCD    426252
        0x000071e0:    0000d428    (...    DCD    54312
    $a
    i._uartTxBufGetNextOne
    _uartTxBufGetNextOne
        0x000071e4:    e59f201c    . ..    LDR      r2,[pc,#28] ; [0x7208] = 0xda04
        0x000071e8:    e7920100    ....    LDR      r0,[r2,r0,LSL #2]
        0x000071ec:    e2812001    . ..    ADD      r2,r1,#1
        0x000071f0:    e1500002    ..P.    CMP      r0,r2
        0x000071f4:    1a000001    ....    BNE      0x7200 ; _uartTxBufGetNextOne + 28
        0x000071f8:    e3a00000    ....    MOV      r0,#0
        0x000071fc:    e12fff1e    ../.    BX       lr
        0x00007200:    e2810001    ....    ADD      r0,r1,#1
        0x00007204:    e12fff1e    ../.    BX       lr
    $d
        0x00007208:    0000da04    ....    DCD    55812
    $a
    i._uartWriteTxBuf
    _uartWriteTxBuf
        0x0000720c:    e92d41f0    .A-.    PUSH     {r4-r8,lr}
        0x00007210:    e1a08000    ....    MOV      r8,r0
        0x00007214:    e1a04001    .@..    MOV      r4,r1
        0x00007218:    e1a06002    .`..    MOV      r6,r2
        0x0000721c:    e1a07408    .t..    LSL      r7,r8,#8
        0x00007220:    e59f109c    ....    LDR      r1,[pc,#156] ; [0x72c4] = 0x6810c
        0x00007224:    e0880088    ....    ADD      r0,r8,r8,LSL #1
        0x00007228:    e0800188    ....    ADD      r0,r0,r8,LSL #3
        0x0000722c:    e0815100    .Q..    ADD      r5,r1,r0,LSL #2
        0x00007230:    e5d5001c    ....    LDRB     r0,[r5,#0x1c]
        0x00007234:    e3500001    ..P.    CMP      r0,#1
        0x00007238:    0a00000b    ....    BEQ      0x726c ; _uartWriteTxBuf + 96
        0x0000723c:    e3a00000    ....    MOV      r0,#0
        0x00007240:    e59f3080    .0..    LDR      r3,[pc,#128] ; [0x72c8] = 0xd428
        0x00007244:    e287132e    ....    ADD      r1,r7,#0xb8000000
        0x00007248:    ea00001a    ....    B        0x72b8 ; _uartWriteTxBuf + 172
        0x0000724c:    e4d40001    ....    LDRB     r0,[r4],#1
        0x00007250:    e5951010    ....    LDR      r1,[r5,#0x10]
        0x00007254:    e5952004    . ..    LDR      r2,[r5,#4]
        0x00007258:    e7c10002    ....    STRB     r0,[r1,r2]
        0x0000725c:    e5951004    ....    LDR      r1,[r5,#4]
        0x00007260:    e1a00008    ....    MOV      r0,r8
        0x00007264:    ebffffde    ....    BL       _uartTxBufGetNextOne ; 0x71e4
        0x00007268:    e5850004    ....    STR      r0,[r5,#4]
        0x0000726c:    e2566001    .`V.    SUBS     r6,r6,#1
        0x00007270:    2afffff5    ...*    BCS      0x724c ; _uartWriteTxBuf + 64
        0x00007274:    e287032e    ....    ADD      r0,r7,#0xb8000000
        0x00007278:    e5900004    ....    LDR      r0,[r0,#4]
        0x0000727c:    e3100002    ....    TST      r0,#2
        0x00007280:    1a00000e    ....    BNE      0x72c0 ; _uartWriteTxBuf + 180
        0x00007284:    e1a00008    ....    MOV      r0,r8
        0x00007288:    e8bd41f0    .A..    POP      {r4-r8,lr}
        0x0000728c:    e3a01002    ....    MOV      r1,#2
        0x00007290:    eafffdf3    ....    B        _uartEnableInterrupt ; 0x6a64
        0x00007294:    e5912018    . ..    LDR      r2,[r1,#0x18]
        0x00007298:    e3120201    ....    TST      r2,#0x10000000
        0x0000729c:    0afffffc    ....    BEQ      0x7294 ; _uartWriteTxBuf + 136
        0x000072a0:    e4d42001    . ..    LDRB     r2,[r4],#1
        0x000072a4:    e5812000    . ..    STR      r2,[r1,#0]
        0x000072a8:    e5932000    . ..    LDR      r2,[r3,#0]
        0x000072ac:    e2822001    . ..    ADD      r2,r2,#1
        0x000072b0:    e5832000    . ..    STR      r2,[r3,#0]
        0x000072b4:    e2800001    ....    ADD      r0,r0,#1
        0x000072b8:    e1500006    ..P.    CMP      r0,r6
        0x000072bc:    3afffff4    ...:    BCC      0x7294 ; _uartWriteTxBuf + 136
        0x000072c0:    e8bd81f0    ....    POP      {r4-r8,pc}
    $d
        0x000072c4:    0006810c    ....    DCD    426252
        0x000072c8:    0000d428    (...    DCD    54312
    $a
    i.adcOpen
    adcOpen
        0x000072cc:    e3a00ffa    ....    MOV      r0,#0x3e8
        0x000072d0:    e1a00000    ....    MOV      r0,r0
    i.adcOpen2
    adcOpen2
        0x000072d4:    e92d4010    .@-.    PUSH     {r4,lr}
        0x000072d8:    e3a02401    .$..    MOV      r2,#0x1000000
        0x000072dc:    e3a0120b    ....    MOV      r1,#0xb0000000
        0x000072e0:    e5812068    h ..    STR      r2,[r1,#0x68]
        0x000072e4:    e3a02000    . ..    MOV      r2,#0
        0x000072e8:    e5812068    h ..    STR      r2,[r1,#0x68]
        0x000072ec:    e59f1044    D...    LDR      r1,[pc,#68] ; [0x7338] = 0xbb8
        0x000072f0:    e1500001    ..P.    CMP      r0,r1
        0x000072f4:    9a000000    ....    BLS      0x72fc ; adcOpen2 + 40
        0x000072f8:    e1a00001    ....    MOV      r0,r1
        0x000072fc:    e59f4038    8@..    LDR      r4,[pc,#56] ; [0x733c] = 0xb000023c
        0x00007300:    e3a02000    . ..    MOV      r2,#0
        0x00007304:    e3e01000    ....    MVN      r1,#0
        0x00007308:    e1a00004    ....    MOV      r0,r4
        0x0000730c:    ebfff459    Y...    BL       REG_OPERATE ; 0x4478
        0x00007310:    e59f1028    (...    LDR      r1,[pc,#40] ; [0x7340] = 0x631a0000
        0x00007314:    e3a02001    . ..    MOV      r2,#1
        0x00007318:    e1a00004    ....    MOV      r0,r4
        0x0000731c:    ebfff455    U...    BL       REG_OPERATE ; 0x4478
        0x00007320:    e3a01401    ....    MOV      r1,#0x1000000
        0x00007324:    e3a02001    . ..    MOV      r2,#1
        0x00007328:    e1c409c1    ....    BIC      r0,r4,r1,ASR #19
        0x0000732c:    ebfff451    Q...    BL       REG_OPERATE ; 0x4478
        0x00007330:    e3a00000    ....    MOV      r0,#0
        0x00007334:    e8bd8010    ....    POP      {r4,pc}
    $d
        0x00007338:    00000bb8    ....    DCD    3000
        0x0000733c:    b000023c    <...    DCD    2952790588
        0x00007340:    631a0000    ...c    DCD    1662648320
    $a
    i.basedata_ram_to_sdram
    basedata_ram_to_sdram
        0x00007344:    e92d4070    p@-.    PUSH     {r4-r6,lr}
        0x00007348:    e59f4094    .@..    LDR      r4,[pc,#148] ; [0x73e4] = 0xd510
        0x0000734c:    e5940000    ....    LDR      r0,[r4,#0]
        0x00007350:    e1a0c000    ....    MOV      r12,r0
        0x00007354:    e3a02000    . ..    MOV      r2,#0
        0x00007358:    e3a01000    ....    MOV      r1,#0
        0x0000735c:    e59f3084    .0..    LDR      r3,[pc,#132] ; [0x73e8] = 0x5bb
        0x00007360:    e5d05000    .P..    LDRB     r5,[r0,#0]
        0x00007364:    e0822005    . ..    ADD      r2,r2,r5
        0x00007368:    e2800001    ....    ADD      r0,r0,#1
        0x0000736c:    e2811001    ....    ADD      r1,r1,#1
        0x00007370:    e3c11801    ....    BIC      r1,r1,#0x10000
        0x00007374:    e1510003    ..Q.    CMP      r1,r3
        0x00007378:    3afffff8    ...:    BCC      0x7360 ; basedata_ram_to_sdram + 28
        0x0000737c:    e28c0c05    ....    ADD      r0,r12,#0x500
        0x00007380:    e28f1064    d...    ADR      r1,{pc}+0x6c ; 0x73ec
        0x00007384:    e28000bb    ....    ADD      r0,r0,#0xbb
        0x00007388:    faffe41b    ....    BLX      __2sprintf ; 0x3fc
        0x0000738c:    e59f6060    ``..    LDR      r6,[pc,#96] ; [0x73f4] = 0x5c4
        0x00007390:    e59f5060    `P..    LDR      r5,[pc,#96] ; [0x73f8] = 0xd474
        0x00007394:    e5941000    ....    LDR      r1,[r4,#0]
        0x00007398:    e5950000    ....    LDR      r0,[r5,#0]
        0x0000739c:    e1a02006    . ..    MOV      r2,r6
        0x000073a0:    ebffe512    ....    BL       __aeabi_memcpy ; 0x7f0
        0x000073a4:    e5950000    ....    LDR      r0,[r5,#0]
        0x000073a8:    e5941000    ....    LDR      r1,[r4,#0]
        0x000073ac:    e1a02006    . ..    MOV      r2,r6
        0x000073b0:    e2800a05    ....    ADD      r0,r0,#0x5000
        0x000073b4:    ebffe50d    ....    BL       __aeabi_memcpy ; 0x7f0
        0x000073b8:    e5950000    ....    LDR      r0,[r5,#0]
        0x000073bc:    e5941000    ....    LDR      r1,[r4,#0]
        0x000073c0:    e1a02006    . ..    MOV      r2,r6
        0x000073c4:    e2800801    ....    ADD      r0,r0,#0x10000
        0x000073c8:    ebffe508    ....    BL       __aeabi_memcpy ; 0x7f0
        0x000073cc:    e5950000    ....    LDR      r0,[r5,#0]
        0x000073d0:    e5941000    ....    LDR      r1,[r4,#0]
        0x000073d4:    e1a02006    . ..    MOV      r2,r6
        0x000073d8:    e8bd4070    p@..    POP      {r4-r6,lr}
        0x000073dc:    e2800a15    ....    ADD      r0,r0,#0x15000
        0x000073e0:    eaffe502    ....    B        __aeabi_memcpy ; 0x7f0
    $d
        0x000073e4:    0000d510    ....    DCD    54544
        0x000073e8:    000005bb    ....    DCD    1467
        0x000073ec:    58383025    %08X    DCD    1480077349
        0x000073f0:    00000000    ....    DCD    0
        0x000073f4:    000005c4    ....    DCD    1476
        0x000073f8:    0000d474    t...    DCD    54388
    $a
    i.board_nand_init
    board_nand_init
        0x000073fc:    e92d4010    .@-.    PUSH     {r4,lr}
        0x00007400:    e3a0020b    ....    MOV      r0,#0xb0000000
        0x00007404:    e5901210    ....    LDR      r1,[r0,#0x210]
        0x00007408:    e3811603    ....    ORR      r1,r1,#0x300000
        0x0000740c:    e5801210    ....    STR      r1,[r0,#0x210]
        0x00007410:    e59f1078    x...    LDR      r1,[pc,#120] ; [0x7490] = 0x55555555
        0x00007414:    e5801080    ....    STR      r1,[r0,#0x80]
        0x00007418:    e59f1074    t...    LDR      r1,[pc,#116] ; [0x7494] = 0x5055555
        0x0000741c:    e5801084    ....    STR      r1,[r0,#0x84]
        0x00007420:    e3a03000    .0..    MOV      r3,#0
        0x00007424:    e1a02003    . ..    MOV      r2,r3
        0x00007428:    e3a01a02    ....    MOV      r1,#0x2000
        0x0000742c:    e3a00080    ....    MOV      r0,#0x80
        0x00007430:    ebffef04    ....    BL       GPIO_OpenBit ; 0x3048
        0x00007434:    e59f005c    \...    LDR      r0,[pc,#92] ; [0x7498] = 0xb000d800
        0x00007438:    e3a02001    . ..    MOV      r2,#1
        0x0000743c:    e3a01008    ....    MOV      r1,#8
        0x00007440:    ebfff40c    ....    BL       REG_OPERATE ; 0x4478
        0x00007444:    e59f0050    P...    LDR      r0,[pc,#80] ; [0x749c] = 0x20305
        0x00007448:    e59f1050    P...    LDR      r1,[pc,#80] ; [0x74a0] = 0xb000d8a4
        0x0000744c:    e5810000    ....    STR      r0,[r1,#0]
        0x00007450:    e1c10000    ....    BIC      r0,r1,r0
        0x00007454:    e5901000    ....    LDR      r1,[r0,#0]
        0x00007458:    e3c11406    ....    BIC      r1,r1,#0x6000000
        0x0000745c:    e3811301    ....    ORR      r1,r1,#0x4000000
        0x00007460:    e5801000    ....    STR      r1,[r0,#0]
        0x00007464:    e3a01001    ....    MOV      r1,#1
        0x00007468:    e2802020      ..    ADD      r2,r0,#0x20
        0x0000746c:    e5821000    ....    STR      r1,[r2,#0]
        0x00007470:    e5901000    ....    LDR      r1,[r0,#0]
        0x00007474:    e3811001    ....    ORR      r1,r1,#1
        0x00007478:    e5801000    ....    STR      r1,[r0,#0]
        0x0000747c:    e5901000    ....    LDR      r1,[r0,#0]
        0x00007480:    e3110001    ....    TST      r1,#1
        0x00007484:    1afffffc    ....    BNE      0x747c ; board_nand_init + 128
        0x00007488:    e3a00000    ....    MOV      r0,#0
        0x0000748c:    e8bd8010    ....    POP      {r4,pc}
    $d
        0x00007490:    55555555    UUUU    DCD    1431655765
        0x00007494:    05055555    UU..    DCD    84235605
        0x00007498:    b000d800    ....    DCD    2952845312
        0x0000749c:    00020305    ....    DCD    131845
        0x000074a0:    b000d8a4    ....    DCD    2952845476
    $a
    i.check_io_state
    check_io_state
        0x000074a4:    e92d4070    p@-.    PUSH     {r4-r6,lr}
        0x000074a8:    e1a06000    .`..    MOV      r6,r0
        0x000074ac:    e3a04000    .@..    MOV      r4,#0
        0x000074b0:    e3a05000    .P..    MOV      r5,#0
        0x000074b4:    e3560000    ..V.    CMP      r6,#0
        0x000074b8:    0a000002    ....    BEQ      0x74c8 ; check_io_state + 36
        0x000074bc:    e3560001    ..V.    CMP      r6,#1
        0x000074c0:    1a00000b    ....    BNE      0x74f4 ; check_io_state + 80
        0x000074c4:    ea000005    ....    B        0x74e0 ; check_io_state + 60
        0x000074c8:    e3a01080    ....    MOV      r1,#0x80
        0x000074cc:    e3a000c0    ....    MOV      r0,#0xc0
        0x000074d0:    ebffeefc    ....    BL       GPIO_ReadBit ; 0x30c8
        0x000074d4:    e0800004    ....    ADD      r0,r0,r4
        0x000074d8:    e20040ff    .@..    AND      r4,r0,#0xff
        0x000074dc:    ea000004    ....    B        0x74f4 ; check_io_state + 80
        0x000074e0:    e3a01a01    ....    MOV      r1,#0x1000
        0x000074e4:    e3a00040    @...    MOV      r0,#0x40
        0x000074e8:    ebffeef6    ....    BL       GPIO_ReadBit ; 0x30c8
        0x000074ec:    e0800004    ....    ADD      r0,r0,r4
        0x000074f0:    e20040ff    .@..    AND      r4,r0,#0xff
        0x000074f4:    e2850001    ....    ADD      r0,r5,#1
        0x000074f8:    e20050ff    .P..    AND      r5,r0,#0xff
        0x000074fc:    e3550032    2.U.    CMP      r5,#0x32
        0x00007500:    3affffeb    ...:    BCC      0x74b4 ; check_io_state + 16
        0x00007504:    e3540000    ..T.    CMP      r4,#0
        0x00007508:    0a000003    ....    BEQ      0x751c ; check_io_state + 120
        0x0000750c:    e3540032    2.T.    CMP      r4,#0x32
        0x00007510:    0a000003    ....    BEQ      0x7524 ; check_io_state + 128
        0x00007514:    e3a00002    ....    MOV      r0,#2
        0x00007518:    e8bd8070    p...    POP      {r4-r6,pc}
        0x0000751c:    e3a00000    ....    MOV      r0,#0
        0x00007520:    e8bd8070    p...    POP      {r4-r6,pc}
        0x00007524:    e3a00001    ....    MOV      r0,#1
        0x00007528:    e8bd8070    p...    POP      {r4-r6,pc}
    i.check_sw5
    check_sw5
        0x0000752c:    e92d4070    p@-.    PUSH     {r4-r6,lr}
        0x00007530:    e59f4068    h@..    LDR      r4,[pc,#104] ; [0x75a0] = 0xd4c0
        0x00007534:    e5d40002    ....    LDRB     r0,[r4,#2]
        0x00007538:    e3500000    ..P.    CMP      r0,#0
        0x0000753c:    1a00000d    ....    BNE      0x7578 ; check_sw5 + 76
        0x00007540:    e3a05001    .P..    MOV      r5,#1
        0x00007544:    e5c45002    .P..    STRB     r5,[r4,#2]
        0x00007548:    e3a01004    ....    MOV      r1,#4
        0x0000754c:    e3a00d07    ....    MOV      r0,#0x1c0
        0x00007550:    ebffeedc    ....    BL       GPIO_ReadBit ; 0x30c8
        0x00007554:    e3500001    ..P.    CMP      r0,#1
        0x00007558:    0a000007    ....    BEQ      0x757c ; check_sw5 + 80
        0x0000755c:    e3a01001    ....    MOV      r1,#1
        0x00007560:    e3a00040    @...    MOV      r0,#0x40
        0x00007564:    ebffeee1    ....    BL       GPIO_Set ; 0x30f0
        0x00007568:    e3a01002    ....    MOV      r1,#2
        0x0000756c:    e3a00040    @...    MOV      r0,#0x40
        0x00007570:    ebffee16    ....    BL       GPIO_Clr ; 0x2dd0
        0x00007574:    e5c45009    .P..    STRB     r5,[r4,#9]
        0x00007578:    e8bd8070    p...    POP      {r4-r6,pc}
        0x0000757c:    e3a01001    ....    MOV      r1,#1
        0x00007580:    e3a00040    @...    MOV      r0,#0x40
        0x00007584:    ebffee11    ....    BL       GPIO_Clr ; 0x2dd0
        0x00007588:    e3a01002    ....    MOV      r1,#2
        0x0000758c:    e3a00040    @...    MOV      r0,#0x40
        0x00007590:    ebffeed6    ....    BL       GPIO_Set ; 0x30f0
        0x00007594:    e3a00000    ....    MOV      r0,#0
        0x00007598:    e5c40009    ....    STRB     r0,[r4,#9]
        0x0000759c:    e8bd8070    p...    POP      {r4-r6,pc}
    $d
        0x000075a0:    0000d4c0    ....    DCD    54464
    $a
    i.check_tp_send
    check_tp_send
        0x000075a4:    e92d47f0    .G-.    PUSH     {r4-r10,lr}
        0x000075a8:    e59f42d0    .B..    LDR      r4,[pc,#720] ; [0x7880] = 0xd4b4
        0x000075ac:    e5d40004    ....    LDRB     r0,[r4,#4]
        0x000075b0:    e3500001    ..P.    CMP      r0,#1
        0x000075b4:    0a000018    ....    BEQ      0x761c ; check_tp_send + 120
        0x000075b8:    e59f02c4    ....    LDR      r0,[pc,#708] ; [0x7884] = 0x10504
        0x000075bc:    e5d41001    ....    LDRB     r1,[r4,#1]
        0x000075c0:    e5d02000    . ..    LDRB     r2,[r0,#0]
        0x000075c4:    e3510000    ..Q.    CMP      r1,#0
        0x000075c8:    0a000007    ....    BEQ      0x75ec ; check_tp_send + 72
        0x000075cc:    e5d40000    ....    LDRB     r0,[r4,#0]
        0x000075d0:    e2800001    ....    ADD      r0,r0,#1
        0x000075d4:    e20000ff    ....    AND      r0,r0,#0xff
        0x000075d8:    e5c40000    ....    STRB     r0,[r4,#0]
        0x000075dc:    e1520000    ..R.    CMP      r2,r0
        0x000075e0:    8a000001    ....    BHI      0x75ec ; check_tp_send + 72
        0x000075e4:    e2820001    ....    ADD      r0,r2,#1
        0x000075e8:    e5c40000    ....    STRB     r0,[r4,#0]
        0x000075ec:    e3a06000    .`..    MOV      r6,#0
        0x000075f0:    e5c46005    .`..    STRB     r6,[r4,#5]
        0x000075f4:    e5c46006    .`..    STRB     r6,[r4,#6]
        0x000075f8:    e5c46007    .`..    STRB     r6,[r4,#7]
        0x000075fc:    e59f8284    ....    LDR      r8,[pc,#644] ; [0x7888] = 0x2096c
        0x00007600:    e2485f79    y_H.    SUB      r5,r8,#0x1e4
        0x00007604:    e5d43007    .0..    LDRB     r3,[r4,#7]
        0x00007608:    e0850203    ....    ADD      r0,r5,r3,LSL #4
        0x0000760c:    e1d010b0    ....    LDRH     r1,[r0,#0]
        0x00007610:    e3510000    ..Q.    CMP      r1,#0
        0x00007614:    0a000003    ....    BEQ      0x7628 ; check_tp_send + 132
        0x00007618:    ea000017    ....    B        0x767c ; check_tp_send + 216
        0x0000761c:    e8bd47f0    .G..    POP      {r4-r10,lr}
        0x00007620:    e3a00002    ....    MOV      r0,#2
        0x00007624:    ea00084d    M...    B        set_touchint ; 0x9760
        0x00007628:    e5901008    ....    LDR      r1,[r0,#8]
        0x0000762c:    e3510002    ..Q.    CMP      r1,#2
        0x00007630:    aa000011    ....    BGE      0x767c ; check_tp_send + 216
        0x00007634:    e5d0c00c    ....    LDRB     r12,[r0,#0xc]
        0x00007638:    e35c0001    ..\.    CMP      r12,#1
        0x0000763c:    1a00000e    ....    BNE      0x767c ; check_tp_send + 216
        0x00007640:    e281c001    ....    ADD      r12,r1,#1
        0x00007644:    e580c008    ....    STR      r12,[r0,#8]
        0x00007648:    e5d47005    .p..    LDRB     r7,[r4,#5]
        0x0000764c:    e3a09052    R...    MOV      r9,#0x52
        0x00007650:    e0881187    ....    ADD      r1,r8,r7,LSL #3
        0x00007654:    e5819004    ....    STR      r9,[r1,#4]
        0x00007658:    e1d090b2    ....    LDRH     r9,[r0,#2]
        0x0000765c:    e1c190b0    ....    STRH     r9,[r1,#0]
        0x00007660:    e1d090b4    ....    LDRH     r9,[r0,#4]
        0x00007664:    e1c190b2    ....    STRH     r9,[r1,#2]
        0x00007668:    e2871001    ....    ADD      r1,r7,#1
        0x0000766c:    e5c41005    ....    STRB     r1,[r4,#5]
        0x00007670:    e35c0002    ..\.    CMP      r12,#2
        0x00007674:    1a000000    ....    BNE      0x767c ; check_tp_send + 216
        0x00007678:    e5c0600c    .`..    STRB     r6,[r0,#0xc]
        0x0000767c:    e2830001    ....    ADD      r0,r3,#1
        0x00007680:    e20000ff    ....    AND      r0,r0,#0xff
        0x00007684:    e5c40007    ....    STRB     r0,[r4,#7]
        0x00007688:    e350000a    ..P.    CMP      r0,#0xa
        0x0000768c:    3affffdc    ...:    BCC      0x7604 ; check_tp_send + 96
        0x00007690:    e5d40005    ....    LDRB     r0,[r4,#5]
        0x00007694:    e3500003    ..P.    CMP      r0,#3
        0x00007698:    0a000008    ....    BEQ      0x76c0 ; check_tp_send + 284
        0x0000769c:    e5c46007    .`..    STRB     r6,[r4,#7]
        0x000076a0:    e5d43007    .0..    LDRB     r3,[r4,#7]
        0x000076a4:    e0850203    ....    ADD      r0,r5,r3,LSL #4
        0x000076a8:    e1d010f0    ....    LDRSH    r1,[r0,#0]
        0x000076ac:    e3510001    ..Q.    CMP      r1,#1
        0x000076b0:    0a000005    ....    BEQ      0x76cc ; check_tp_send + 296
        0x000076b4:    e3510002    ..Q.    CMP      r1,#2
        0x000076b8:    0a000003    ....    BEQ      0x76cc ; check_tp_send + 296
        0x000076bc:    ea000014    ....    B        0x7714 ; check_tp_send + 368
        0x000076c0:    e3a000ff    ....    MOV      r0,#0xff
        0x000076c4:    e5c40007    ....    STRB     r0,[r4,#7]
        0x000076c8:    ea000016    ....    B        0x7728 ; check_tp_send + 388
        0x000076cc:    e5806008    .`..    STR      r6,[r0,#8]
        0x000076d0:    e5d4c005    ....    LDRB     r12,[r4,#5]
        0x000076d4:    e3a07054    Tp..    MOV      r7,#0x54
        0x000076d8:    e088118c    ....    ADD      r1,r8,r12,LSL #3
        0x000076dc:    e5817004    .p..    STR      r7,[r1,#4]
        0x000076e0:    e1d070b2    .p..    LDRH     r7,[r0,#2]
        0x000076e4:    e1c170b0    .p..    STRH     r7,[r1,#0]
        0x000076e8:    e1d070b4    .p..    LDRH     r7,[r0,#4]
        0x000076ec:    e1c170b2    .p..    STRH     r7,[r1,#2]
        0x000076f0:    e28c1001    ....    ADD      r1,r12,#1
        0x000076f4:    e20110ff    ....    AND      r1,r1,#0xff
        0x000076f8:    e5c41005    ....    STRB     r1,[r4,#5]
        0x000076fc:    e3a0c002    ....    MOV      r12,#2
        0x00007700:    e1c0c0b0    ....    STRH     r12,[r0,#0]
        0x00007704:    e3a0c001    ....    MOV      r12,#1
        0x00007708:    e5c0c00c    ....    STRB     r12,[r0,#0xc]
        0x0000770c:    e3510003    ..Q.    CMP      r1,#3
        0x00007710:    2a000004    ...*    BCS      0x7728 ; check_tp_send + 388
        0x00007714:    e2830001    ....    ADD      r0,r3,#1
        0x00007718:    e20000ff    ....    AND      r0,r0,#0xff
        0x0000771c:    e5c40007    ....    STRB     r0,[r4,#7]
        0x00007720:    e350000a    ..P.    CMP      r0,#0xa
        0x00007724:    3affffdd    ...:    BCC      0x76a0 ; check_tp_send + 252
        0x00007728:    e5d40007    ....    LDRB     r0,[r4,#7]
        0x0000772c:    e2800001    ....    ADD      r0,r0,#1
        0x00007730:    e5c40007    ....    STRB     r0,[r4,#7]
        0x00007734:    e3a0c003    ....    MOV      r12,#3
        0x00007738:    ea00000a    ....    B        0x7768 ; check_tp_send + 452
        0x0000773c:    e0850201    ....    ADD      r0,r5,r1,LSL #4
        0x00007740:    e1d030f0    .0..    LDRSH    r3,[r0,#0]
        0x00007744:    e3530001    ..S.    CMP      r3,#1
        0x00007748:    0a000001    ....    BEQ      0x7754 ; check_tp_send + 432
        0x0000774c:    e3530002    ..S.    CMP      r3,#2
        0x00007750:    1a000002    ....    BNE      0x7760 ; check_tp_send + 444
        0x00007754:    e5806008    .`..    STR      r6,[r0,#8]
        0x00007758:    e1c0c0b0    ....    STRH     r12,[r0,#0]
        0x0000775c:    e5c0600c    .`..    STRB     r6,[r0,#0xc]
        0x00007760:    e2810001    ....    ADD      r0,r1,#1
        0x00007764:    e5c40007    ....    STRB     r0,[r4,#7]
        0x00007768:    e5d41007    ....    LDRB     r1,[r4,#7]
        0x0000776c:    e351000a    ..Q.    CMP      r1,#0xa
        0x00007770:    3afffff1    ...:    BCC      0x773c ; check_tp_send + 408
        0x00007774:    e5d41005    ....    LDRB     r1,[r4,#5]
        0x00007778:    e3510000    ..Q.    CMP      r1,#0
        0x0000777c:    0a00003a    :...    BEQ      0x786c ; check_tp_send + 712
        0x00007780:    e5d40000    ....    LDRB     r0,[r4,#0]
        0x00007784:    e1520000    ..R.    CMP      r2,r0
        0x00007788:    8a000001    ....    BHI      0x7794 ; check_tp_send + 496
        0x0000778c:    e59f00f4    ....    LDR      r0,[pc,#244] ; [0x7888] = 0x2096c
        0x00007790:    eb000791    ....    BL       send_tcp_xy_mul ; 0x95dc
        0x00007794:    e5c46007    .`..    STRB     r6,[r4,#7]
        0x00007798:    e59f70ec    .p..    LDR      r7,[pc,#236] ; [0x788c] = 0x209ec
        0x0000779c:    e5d4c007    ....    LDRB     r12,[r4,#7]
        0x000077a0:    e085020c    ....    ADD      r0,r5,r12,LSL #4
        0x000077a4:    e5d0200c    . ..    LDRB     r2,[r0,#0xc]
        0x000077a8:    e3520001    ..R.    CMP      r2,#1
        0x000077ac:    1a00000c    ....    BNE      0x77e4 ; check_tp_send + 576
        0x000077b0:    e5d43006    .0..    LDRB     r3,[r4,#6]
        0x000077b4:    e5908008    ....    LDR      r8,[r0,#8]
        0x000077b8:    e0871203    ....    ADD      r1,r7,r3,LSL #4
        0x000077bc:    e5818008    ....    STR      r8,[r1,#8]
        0x000077c0:    e1d080b0    ....    LDRH     r8,[r0,#0]
        0x000077c4:    e1c180b0    ....    STRH     r8,[r1,#0]
        0x000077c8:    e5c1200c    . ..    STRB     r2,[r1,#0xc]
        0x000077cc:    e1d020b2    . ..    LDRH     r2,[r0,#2]
        0x000077d0:    e1c120b2    . ..    STRH     r2,[r1,#2]
        0x000077d4:    e1d000b4    ....    LDRH     r0,[r0,#4]
        0x000077d8:    e1c100b4    ....    STRH     r0,[r1,#4]
        0x000077dc:    e2830001    ....    ADD      r0,r3,#1
        0x000077e0:    e5c40006    ....    STRB     r0,[r4,#6]
        0x000077e4:    e28c0001    ....    ADD      r0,r12,#1
        0x000077e8:    e20000ff    ....    AND      r0,r0,#0xff
        0x000077ec:    e5c40007    ....    STRB     r0,[r4,#7]
        0x000077f0:    e350000a    ..P.    CMP      r0,#0xa
        0x000077f4:    3affffe8    ...:    BCC      0x779c ; check_tp_send + 504
        0x000077f8:    e5c46007    .`..    STRB     r6,[r4,#7]
        0x000077fc:    e5d4c007    ....    LDRB     r12,[r4,#7]
        0x00007800:    e085020c    ....    ADD      r0,r5,r12,LSL #4
        0x00007804:    e5d0200c    . ..    LDRB     r2,[r0,#0xc]
        0x00007808:    e3520000    ..R.    CMP      r2,#0
        0x0000780c:    1a00000c    ....    BNE      0x7844 ; check_tp_send + 672
        0x00007810:    e5d43006    .0..    LDRB     r3,[r4,#6]
        0x00007814:    e5906008    .`..    LDR      r6,[r0,#8]
        0x00007818:    e0871203    ....    ADD      r1,r7,r3,LSL #4
        0x0000781c:    e5816008    .`..    STR      r6,[r1,#8]
        0x00007820:    e1d060b0    .`..    LDRH     r6,[r0,#0]
        0x00007824:    e1c160b0    .`..    STRH     r6,[r1,#0]
        0x00007828:    e5c1200c    . ..    STRB     r2,[r1,#0xc]
        0x0000782c:    e1d020b2    . ..    LDRH     r2,[r0,#2]
        0x00007830:    e1c120b2    . ..    STRH     r2,[r1,#2]
        0x00007834:    e1d000b4    ....    LDRH     r0,[r0,#4]
        0x00007838:    e1c100b4    ....    STRH     r0,[r1,#4]
        0x0000783c:    e2830001    ....    ADD      r0,r3,#1
        0x00007840:    e5c40006    ....    STRB     r0,[r4,#6]
        0x00007844:    e28c0001    ....    ADD      r0,r12,#1
        0x00007848:    e20000ff    ....    AND      r0,r0,#0xff
        0x0000784c:    e5c40007    ....    STRB     r0,[r4,#7]
        0x00007850:    e350000a    ..P.    CMP      r0,#0xa
        0x00007854:    3affffe8    ...:    BCC      0x77fc ; check_tp_send + 600
        0x00007858:    e8bd47f0    .G..    POP      {r4-r10,lr}
        0x0000785c:    e59f1028    (...    LDR      r1,[pc,#40] ; [0x788c] = 0x209ec
        0x00007860:    e3a020a0    . ..    MOV      r2,#0xa0
        0x00007864:    e2410f99    ..A.    SUB      r0,r1,#0x264
        0x00007868:    eaffe415    ....    B        __aeabi_memcpy4 ; 0x8c4
        0x0000786c:    ebfff9f0    ....    BL       Touch_tim_stop ; 0x6034
        0x00007870:    e5c46000    .`..    STRB     r6,[r4,#0]
        0x00007874:    e5c46001    .`..    STRB     r6,[r4,#1]
        0x00007878:    e5c46003    .`..    STRB     r6,[r4,#3]
        0x0000787c:    e8bd87f0    ....    POP      {r4-r10,pc}
    $d
        0x00007880:    0000d4b4    ....    DCD    54452
        0x00007884:    00010504    ....    DCD    66820
        0x00007888:    0002096c    l...    DCD    133484
        0x0000788c:    000209ec    ....    DCD    133612
    $a
    i.delay_ms
    delay_ms
        0x00007890:    e3500000    ..P.    CMP      r0,#0
        0x00007894:    0a000007    ....    BEQ      0x78b8 ; delay_ms + 40
        0x00007898:    e59f201c    . ..    LDR      r2,[pc,#28] ; [0x78bc] = 0xc350
        0x0000789c:    e1a01002    ....    MOV      r1,r2
        0x000078a0:    e2411001    ..A.    SUB      r1,r1,#1
        0x000078a4:    e3510000    ..Q.    CMP      r1,#0
        0x000078a8:    1afffffc    ....    BNE      0x78a0 ; delay_ms + 16
        0x000078ac:    e2400001    ..@.    SUB      r0,r0,#1
        0x000078b0:    e3500000    ..P.    CMP      r0,#0
        0x000078b4:    1afffff8    ....    BNE      0x789c ; delay_ms + 12
        0x000078b8:    e12fff1e    ../.    BX       lr
    $d
        0x000078bc:    0000c350    P...    DCD    50000
    $a
    i.delay_us
    delay_us
        0x000078c0:    e92d4008    .@-.    PUSH     {r3,lr}
        0x000078c4:    e3a01f4b    K...    MOV      r1,#0x12c
        0x000078c8:    e0000091    ....    MUL      r0,r1,r0
        0x000078cc:    e58d0000    ....    STR      r0,[sp,#0]
        0x000078d0:    ea000002    ....    B        0x78e0 ; delay_us + 32
        0x000078d4:    e59d0000    ....    LDR      r0,[sp,#0]
        0x000078d8:    e2400001    ..@.    SUB      r0,r0,#1
        0x000078dc:    e58d0000    ....    STR      r0,[sp,#0]
        0x000078e0:    e59d0000    ....    LDR      r0,[sp,#0]
        0x000078e4:    e3500000    ..P.    CMP      r0,#0
        0x000078e8:    cafffff9    ....    BGT      0x78d4 ; delay_us + 20
        0x000078ec:    e8bd8008    ....    POP      {r3,pc}
    i.display_init
    display_init
        0x000078f0:    e92d407c    |@-.    PUSH     {r2-r6,lr}
        0x000078f4:    e3a0020b    ....    MOV      r0,#0xb0000000
        0x000078f8:    e59010a0    ....    LDR      r1,[r0,#0xa0]
        0x000078fc:    e3c114ff    ....    BIC      r1,r1,#0xff000000
        0x00007900:    e3811422    "...    ORR      r1,r1,#0x22000000
        0x00007904:    e58010a0    ....    STR      r1,[r0,#0xa0]
        0x00007908:    e59010a4    ....    LDR      r1,[r0,#0xa4]
        0x0000790c:    e3c110ff    ....    BIC      r1,r1,#0xff
        0x00007910:    e3811022    "...    ORR      r1,r1,#0x22
        0x00007914:    e58010a4    ....    STR      r1,[r0,#0xa4]
        0x00007918:    e59f1158    X...    LDR      r1,[pc,#344] ; [0x7a78] = 0x22222222
        0x0000791c:    e5801070    p...    STR      r1,[r0,#0x70]
        0x00007920:    e5801074    t...    STR      r1,[r0,#0x74]
        0x00007924:    e580108c    ....    STR      r1,[r0,#0x8c]
        0x00007928:    e5901224    $...    LDR      r1,[r0,#0x224]
        0x0000792c:    e3c11cff    ....    BIC      r1,r1,#0xff00
        0x00007930:    e3c1101f    ....    BIC      r1,r1,#0x1f
        0x00007934:    e3811b02    ....    ORR      r1,r1,#0x800
        0x00007938:    e3811f46    F...    ORR      r1,r1,#0x118
        0x0000793c:    e5801224    $...    STR      r1,[r0,#0x224]
        0x00007940:    e3a00000    ....    MOV      r0,#0
        0x00007944:    eb001184    ....    BL       vpostLCMInit ; 0xbf5c
        0x00007948:    e3a00000    ....    MOV      r0,#0
        0x0000794c:    e1a03000    .0..    MOV      r3,r0
        0x00007950:    e3a02001    . ..    MOV      r2,#1
        0x00007954:    e1a01000    ....    MOV      r1,r0
        0x00007958:    e58d0000    ....    STR      r0,[sp,#0]
        0x0000795c:    e1a00002    ....    MOV      r0,r2
        0x00007960:    eb0011e9    ....    BL       vpostVAScalingCtrl ; 0xc10c
        0x00007964:    e3a00b01    ....    MOV      r0,#0x400
        0x00007968:    eb0011a7    ....    BL       vpostSetVASrc ; 0xc00c
        0x0000796c:    eb00114d    M...    BL       vpostGetFrameBuffer ; 0xbea8
        0x00007970:    e59f4104    .A..    LDR      r4,[pc,#260] ; [0x7a7c] = 0x10560
        0x00007974:    e5840000    ....    STR      r0,[r4,#0]
        0x00007978:    e59f5100    .Q..    LDR      r5,[pc,#256] ; [0x7a80] = 0xbb840
        0x0000797c:    e1a00005    ....    MOV      r0,r5
        0x00007980:    faffe266    f...    BLX      _maybe_terminate_alloc ; 0x320
        0x00007984:    e5840004    ....    STR      r0,[r4,#4]
        0x00007988:    e3a01020     ...    MOV      r1,#0x20
        0x0000798c:    eb00077e    ~...    BL       shift_pointer ; 0x978c
        0x00007990:    e2800020     ...    ADD      r0,r0,#0x20
        0x00007994:    e5840004    ....    STR      r0,[r4,#4]
        0x00007998:    e1a00005    ....    MOV      r0,r5
        0x0000799c:    faffe25f    _...    BLX      _maybe_terminate_alloc ; 0x320
        0x000079a0:    e5840008    ....    STR      r0,[r4,#8]
        0x000079a4:    e3a01020     ...    MOV      r1,#0x20
        0x000079a8:    eb000777    w...    BL       shift_pointer ; 0x978c
        0x000079ac:    e2800020     ...    ADD      r0,r0,#0x20
        0x000079b0:    e5840008    ....    STR      r0,[r4,#8]
        0x000079b4:    e1a00005    ....    MOV      r0,r5
        0x000079b8:    faffe258    X...    BLX      _maybe_terminate_alloc ; 0x320
        0x000079bc:    e584000c    ....    STR      r0,[r4,#0xc]
        0x000079c0:    e3a01020     ...    MOV      r1,#0x20
        0x000079c4:    eb000770    p...    BL       shift_pointer ; 0x978c
        0x000079c8:    e2800020     ...    ADD      r0,r0,#0x20
        0x000079cc:    e584000c    ....    STR      r0,[r4,#0xc]
        0x000079d0:    e1a00005    ....    MOV      r0,r5
        0x000079d4:    faffe251    Q...    BLX      _maybe_terminate_alloc ; 0x320
        0x000079d8:    e5840010    ....    STR      r0,[r4,#0x10]
        0x000079dc:    e3a01020     ...    MOV      r1,#0x20
        0x000079e0:    eb000769    i...    BL       shift_pointer ; 0x978c
        0x000079e4:    e2801020     ...    ADD      r1,r0,#0x20
        0x000079e8:    e5940000    ....    LDR      r0,[r4,#0]
        0x000079ec:    e3800102    ....    ORR      r0,r0,#0x80000000
        0x000079f0:    e5840000    ....    STR      r0,[r4,#0]
        0x000079f4:    e5940004    ....    LDR      r0,[r4,#4]
        0x000079f8:    e3800102    ....    ORR      r0,r0,#0x80000000
        0x000079fc:    e5840004    ....    STR      r0,[r4,#4]
        0x00007a00:    e5942008    . ..    LDR      r2,[r4,#8]
        0x00007a04:    e3822102    .!..    ORR      r2,r2,#0x80000000
        0x00007a08:    e5842008    . ..    STR      r2,[r4,#8]
        0x00007a0c:    e594200c    . ..    LDR      r2,[r4,#0xc]
        0x00007a10:    e3822102    .!..    ORR      r2,r2,#0x80000000
        0x00007a14:    e584200c    . ..    STR      r2,[r4,#0xc]
        0x00007a18:    e3811102    ....    ORR      r1,r1,#0x80000000
        0x00007a1c:    e5841010    ....    STR      r1,[r4,#0x10]
        0x00007a20:    e2455040    @PE.    SUB      r5,r5,#0x40
        0x00007a24:    e1a01005    ....    MOV      r1,r5
        0x00007a28:    ebffe3be    ....    BL       __aeabi_memclr ; 0x928
        0x00007a2c:    e5940008    ....    LDR      r0,[r4,#8]
        0x00007a30:    e1a01005    ....    MOV      r1,r5
        0x00007a34:    ebffe3bb    ....    BL       __aeabi_memclr ; 0x928
        0x00007a38:    e594000c    ....    LDR      r0,[r4,#0xc]
        0x00007a3c:    e1a01005    ....    MOV      r1,r5
        0x00007a40:    ebffe3b8    ....    BL       __aeabi_memclr ; 0x928
        0x00007a44:    e5940010    ....    LDR      r0,[r4,#0x10]
        0x00007a48:    e1a01005    ....    MOV      r1,r5
        0x00007a4c:    ebffe3b5    ....    BL       __aeabi_memclr ; 0x928
        0x00007a50:    eb0011ba    ....    BL       vpostVAStartTrigger ; 0xc140
        0x00007a54:    e5940004    ....    LDR      r0,[r4,#4]
        0x00007a58:    e5941000    ....    LDR      r1,[r4,#0]
        0x00007a5c:    e1cd00f0    ....    STRD     r0,r1,[sp,#0]
        0x00007a60:    e3a01000    ....    MOV      r1,#0
        0x00007a64:    e3a03e1e    .>..    MOV      r3,#0x1e0
        0x00007a68:    e3a02e32    2...    MOV      r2,#0x320
        0x00007a6c:    e1a00001    ....    MOV      r0,r1
        0x00007a70:    eb00004e    N...    BL       ge2dSpriteBlt_Screen ; 0x7bb0
        0x00007a74:    e8bd807c    |...    POP      {r2-r6,pc}
    $d
        0x00007a78:    22222222    """"    DCD    572662306
        0x00007a7c:    00010560    `...    DCD    66912
        0x00007a80:    000bb840    @...    DCD    768064
    $a
    i.download_gpio_set_input
    download_gpio_set_input
        0x00007a84:    e92d4010    .@-.    PUSH     {r4,lr}
        0x00007a88:    e3a01a06    ....    MOV      r1,#0x6000
        0x00007a8c:    e3a00d05    ....    MOV      r0,#0x140
        0x00007a90:    ebffecbd    ....    BL       GPIO_CloseBit ; 0x2d8c
        0x00007a94:    e59f0020     ...    LDR      r0,[pc,#32] ; [0x7abc] = 0xb000009c
        0x00007a98:    e3a02000    . ..    MOV      r2,#0
        0x00007a9c:    e3a016ff    ....    MOV      r1,#0xff00000
        0x00007aa0:    ebfff274    t...    BL       REG_OPERATE ; 0x4478
        0x00007aa4:    e8bd4010    .@..    POP      {r4,lr}
        0x00007aa8:    e3a03001    .0..    MOV      r3,#1
        0x00007aac:    e3a02000    . ..    MOV      r2,#0
        0x00007ab0:    e3a01a06    ....    MOV      r1,#0x6000
        0x00007ab4:    e3a00d05    ....    MOV      r0,#0x140
        0x00007ab8:    eaffed62    b...    B        GPIO_OpenBit ; 0x3048
    $d
        0x00007abc:    b000009c    ....    DCD    2952790172
    $a
    i.download_gpio_set_output
    download_gpio_set_output
        0x00007ac0:    e92d4010    .@-.    PUSH     {r4,lr}
        0x00007ac4:    e3a01a06    ....    MOV      r1,#0x6000
        0x00007ac8:    e3a00d05    ....    MOV      r0,#0x140
        0x00007acc:    ebffecae    ....    BL       GPIO_CloseBit ; 0x2d8c
        0x00007ad0:    e59f0038    8...    LDR      r0,[pc,#56] ; [0x7b10] = 0xb000009c
        0x00007ad4:    e3a02000    . ..    MOV      r2,#0
        0x00007ad8:    e3a016ff    ....    MOV      r1,#0xff00000
        0x00007adc:    ebfff265    e...    BL       REG_OPERATE ; 0x4478
        0x00007ae0:    e3a03000    .0..    MOV      r3,#0
        0x00007ae4:    e3a02001    . ..    MOV      r2,#1
        0x00007ae8:    e3a01a06    ....    MOV      r1,#0x6000
        0x00007aec:    e3a00d05    ....    MOV      r0,#0x140
        0x00007af0:    ebffed54    T...    BL       GPIO_OpenBit ; 0x3048
        0x00007af4:    e3a01901    ....    MOV      r1,#0x4000
        0x00007af8:    e3a00d05    ....    MOV      r0,#0x140
        0x00007afc:    ebffecb3    ....    BL       GPIO_Clr ; 0x2dd0
        0x00007b00:    e8bd4010    .@..    POP      {r4,lr}
        0x00007b04:    e3a01a02    ....    MOV      r1,#0x2000
        0x00007b08:    e3a00d05    ....    MOV      r0,#0x140
        0x00007b0c:    eaffecaf    ....    B        GPIO_Clr ; 0x2dd0
    $d
        0x00007b10:    b000009c    ....    DCD    2952790172
    $a
    i.field_info_save
    field_info_save
        0x00007b14:    e92d41f0    .A-.    PUSH     {r4-r8,lr}
        0x00007b18:    e3a04000    .@..    MOV      r4,#0
        0x00007b1c:    e59f607c    |`..    LDR      r6,[pc,#124] ; [0x7ba0] = 0x21d80
        0x00007b20:    e59f707c    |p..    LDR      r7,[pc,#124] ; [0x7ba4] = 0xd510
        0x00007b24:    e3a01003    ....    MOV      r1,#3
        0x00007b28:    e1a00004    ....    MOV      r0,r4
        0x00007b2c:    ebffe7eb    ....    BL       __aeabi_uidiv ; 0x1ae0
        0x00007b30:    e3510000    ..Q.    CMP      r1,#0
        0x00007b34:    0a000004    ....    BEQ      0x7b4c ; field_info_save + 56
        0x00007b38:    e3510001    ..Q.    CMP      r1,#1
        0x00007b3c:    0a000005    ....    BEQ      0x7b58 ; field_info_save + 68
        0x00007b40:    e3510002    ..Q.    CMP      r1,#2
        0x00007b44:    1a00000a    ....    BNE      0x7b74 ; field_info_save + 96
        0x00007b48:    ea000006    ....    B        0x7b68 ; field_info_save + 84
        0x00007b4c:    e0800080    ....    ADD      r0,r0,r0,LSL #1
        0x00007b50:    e7965100    .Q..    LDR      r5,[r6,r0,LSL #2]
        0x00007b54:    ea000006    ....    B        0x7b74 ; field_info_save + 96
        0x00007b58:    e0800080    ....    ADD      r0,r0,r0,LSL #1
        0x00007b5c:    e0860100    ....    ADD      r0,r6,r0,LSL #2
        0x00007b60:    e5905004    .P..    LDR      r5,[r0,#4]
        0x00007b64:    ea000002    ....    B        0x7b74 ; field_info_save + 96
        0x00007b68:    e0800080    ....    ADD      r0,r0,r0,LSL #1
        0x00007b6c:    e0860100    ....    ADD      r0,r6,r0,LSL #2
        0x00007b70:    e5905008    .P..    LDR      r5,[r0,#8]
        0x00007b74:    e5971000    ....    LDR      r1,[r7,#0]
        0x00007b78:    e2840070    p...    ADD      r0,r4,#0x70
        0x00007b7c:    e0800180    ....    ADD      r0,r0,r0,LSL #3
        0x00007b80:    e0800001    ....    ADD      r0,r0,r1
        0x00007b84:    e1a02005    . ..    MOV      r2,r5
        0x00007b88:    e28f1018    ....    ADR      r1,{pc}+0x20 ; 0x7ba8
        0x00007b8c:    faffe21a    ....    BLX      __2sprintf ; 0x3fc
        0x00007b90:    e2844001    .@..    ADD      r4,r4,#1
        0x00007b94:    e3540030    0.T.    CMP      r4,#0x30
        0x00007b98:    3affffe1    ...:    BCC      0x7b24 ; field_info_save + 16
        0x00007b9c:    e8bd81f0    ....    POP      {r4-r8,pc}
    $d
        0x00007ba0:    00021d80    ....    DCD    138624
        0x00007ba4:    0000d510    ....    DCD    54544
        0x00007ba8:    58383025    %08X    DCD    1480077349
        0x00007bac:    00000000    ....    DCD    0
    $a
    i.ge2dSpriteBlt_Screen
    ge2dSpriteBlt_Screen
        0x00007bb0:    e92d5ff0    ._-.    PUSH     {r4-r12,lr}
        0x00007bb4:    e59d9028    (...    LDR      r9,[sp,#0x28]
        0x00007bb8:    e59da02c    ,...    LDR      r10,[sp,#0x2c]
        0x00007bbc:    e1a06000    .`..    MOV      r6,r0
        0x00007bc0:    e1a05001    .P..    MOV      r5,r1
        0x00007bc4:    e1a0b002    ....    MOV      r11,r2
        0x00007bc8:    e59f007c    |...    LDR      r0,[pc,#124] ; [0x7c4c] = 0xd9a0
        0x00007bcc:    e1a0708b    .p..    LSL      r7,r11,#1
        0x00007bd0:    e5d00000    ....    LDRB     r0,[r0,#0]
        0x00007bd4:    e0858003    ....    ADD      r8,r5,r3
        0x00007bd8:    e3500000    ..P.    CMP      r0,#0
        0x00007bdc:    1a000017    ....    BNE      0x7c40 ; ge2dSpriteBlt_Screen + 144
        0x00007be0:    e1a04005    .@..    MOV      r4,r5
        0x00007be4:    ea000009    ....    B        0x7c10 ; ge2dSpriteBlt_Screen + 96
        0x00007be8:    e0441005    ..D.    SUB      r1,r4,r5
        0x00007bec:    e0840184    ....    ADD      r0,r4,r4,LSL #3
        0x00007bf0:    e001019b    ....    MUL      r1,r11,r1
        0x00007bf4:    e0800204    ....    ADD      r0,r0,r4,LSL #4
        0x00007bf8:    e08a0300    ....    ADD      r0,r10,r0,LSL #6
        0x00007bfc:    e0800086    ....    ADD      r0,r0,r6,LSL #1
        0x00007c00:    e1a02007    . ..    MOV      r2,r7
        0x00007c04:    e0891081    ....    ADD      r1,r9,r1,LSL #1
        0x00007c08:    ebffe2f8    ....    BL       __aeabi_memcpy ; 0x7f0
        0x00007c0c:    e2844001    .@..    ADD      r4,r4,#1
        0x00007c10:    e1580004    ..X.    CMP      r8,r4
        0x00007c14:    8afffff3    ....    BHI      0x7be8 ; ge2dSpriteBlt_Screen + 56
        0x00007c18:    e8bd9ff0    ....    POP      {r4-r12,pc}
        0x00007c1c:    e0850185    ....    ADD      r0,r5,r5,LSL #3
        0x00007c20:    e0800205    ....    ADD      r0,r0,r5,LSL #4
        0x00007c24:    e0891300    ....    ADD      r1,r9,r0,LSL #6
        0x00007c28:    e08a0300    ....    ADD      r0,r10,r0,LSL #6
        0x00007c2c:    e0811086    ....    ADD      r1,r1,r6,LSL #1
        0x00007c30:    e0800086    ....    ADD      r0,r0,r6,LSL #1
        0x00007c34:    e1a02007    . ..    MOV      r2,r7
        0x00007c38:    ebffe2ec    ....    BL       __aeabi_memcpy ; 0x7f0
        0x00007c3c:    e2855001    .P..    ADD      r5,r5,#1
        0x00007c40:    e1580005    ..X.    CMP      r8,r5
        0x00007c44:    8afffff4    ....    BHI      0x7c1c ; ge2dSpriteBlt_Screen + 108
        0x00007c48:    e8bd9ff0    ....    POP      {r4-r12,pc}
    $d
        0x00007c4c:    0000d9a0    ....    DCD    55712
    $a
    i.get_main_pwr_ad_value
    get_main_pwr_ad_value
        0x00007c50:    e92d4070    p@-.    PUSH     {r4-r6,lr}
        0x00007c54:    e59f50b8    .P..    LDR      r5,[pc,#184] ; [0x7d14] = 0xd630
        0x00007c58:    e3a00000    ....    MOV      r0,#0
        0x00007c5c:    e5c50003    ....    STRB     r0,[r5,#3]
        0x00007c60:    e59f40b0    .@..    LDR      r4,[pc,#176] ; [0x7d18] = 0xb800a000
        0x00007c64:    e3a06001    .`..    MOV      r6,#1
        0x00007c68:    e3a02001    . ..    MOV      r2,#1
        0x00007c6c:    e3a01c01    ....    MOV      r1,#0x100
        0x00007c70:    e1a00004    ....    MOV      r0,r4
        0x00007c74:    ebfff1ff    ....    BL       REG_OPERATE ; 0x4478
        0x00007c78:    e3a01000    ....    MOV      r1,#0
        0x00007c7c:    ea000002    ....    B        0x7c8c ; get_main_pwr_ad_value + 60
        0x00007c80:    e2811001    ....    ADD      r1,r1,#1
        0x00007c84:    e3510c02    ..Q.    CMP      r1,#0x200
        0x00007c88:    8a000002    ....    BHI      0x7c98 ; get_main_pwr_ad_value + 72
        0x00007c8c:    e594200c    . ..    LDR      r2,[r4,#0xc]
        0x00007c90:    e3120001    ....    TST      r2,#1
        0x00007c94:    0afffff9    ....    BEQ      0x7c80 ; get_main_pwr_ad_value + 48
        0x00007c98:    e584600c    .`..    STR      r6,[r4,#0xc]
        0x00007c9c:    e594000c    ....    LDR      r0,[r4,#0xc]
        0x00007ca0:    e3100b01    ....    TST      r0,#0x400
        0x00007ca4:    0a00000e    ....    BEQ      0x7ce4 ; get_main_pwr_ad_value + 148
        0x00007ca8:    e5d50002    ....    LDRB     r0,[r5,#2]
        0x00007cac:    e3500000    ..P.    CMP      r0,#0
        0x00007cb0:    0a000008    ....    BEQ      0x7cd8 ; get_main_pwr_ad_value + 136
        0x00007cb4:    e5940028    (...    LDR      r0,[r4,#0x28]
        0x00007cb8:    e5951010    ....    LDR      r1,[r5,#0x10]
        0x00007cbc:    e0800001    ....    ADD      r0,r0,r1
        0x00007cc0:    e1a000a0    ....    LSR      r0,r0,#1
        0x00007cc4:    e5850010    ....    STR      r0,[r5,#0x10]
        0x00007cc8:    e5c56002    .`..    STRB     r6,[r5,#2]
        0x00007ccc:    e3a00b01    ....    MOV      r0,#0x400
        0x00007cd0:    e584000c    ....    STR      r0,[r4,#0xc]
        0x00007cd4:    ea000004    ....    B        0x7cec ; get_main_pwr_ad_value + 156
        0x00007cd8:    e5940028    (...    LDR      r0,[r4,#0x28]
        0x00007cdc:    e5850010    ....    STR      r0,[r5,#0x10]
        0x00007ce0:    eafffff8    ....    B        0x7cc8 ; get_main_pwr_ad_value + 120
        0x00007ce4:    e594000c    ....    LDR      r0,[r4,#0xc]
        0x00007ce8:    e584000c    ....    STR      r0,[r4,#0xc]
        0x00007cec:    e5d50003    ....    LDRB     r0,[r5,#3]
        0x00007cf0:    e2800001    ....    ADD      r0,r0,#1
        0x00007cf4:    e20010ff    ....    AND      r1,r0,#0xff
        0x00007cf8:    e5c51003    ....    STRB     r1,[r5,#3]
        0x00007cfc:    e3510064    d.Q.    CMP      r1,#0x64
        0x00007d00:    3affffd8    ...:    BCC      0x7c68 ; get_main_pwr_ad_value + 24
        0x00007d04:    e1d501b0    ....    LDRH     r0,[r5,#0x10]
        0x00007d08:    e1a00800    ....    LSL      r0,r0,#16
        0x00007d0c:    e1a00820     ...    LSR      r0,r0,#16
        0x00007d10:    e8bd8070    p...    POP      {r4-r6,pc}
    $d
        0x00007d14:    0000d630    0...    DCD    54832
        0x00007d18:    b800a000    ....    DCD    3087048704
    $a
    i.init_gpio
    init_gpio
        0x00007d1c:    e92d4070    p@-.    PUSH     {r4-r6,lr}
        0x00007d20:    e59f42c8    .B..    LDR      r4,[pc,#712] ; [0x7ff0] = 0xb00000b4
        0x00007d24:    e3a02000    . ..    MOV      r2,#0
        0x00007d28:    e3a0100f    ....    MOV      r1,#0xf
        0x00007d2c:    e1a00004    ....    MOV      r0,r4
        0x00007d30:    ebfff1d0    ....    BL       REG_OPERATE ; 0x4478
        0x00007d34:    e3a02000    . ..    MOV      r2,#0
        0x00007d38:    e2421601    ..B.    SUB      r1,r2,#0x100000
        0x00007d3c:    e0040841    A...    AND      r0,r4,r1,ASR #16
        0x00007d40:    ebfff1cc    ....    BL       REG_OPERATE ; 0x4478
        0x00007d44:    e3a03001    .0..    MOV      r3,#1
        0x00007d48:    e1a02003    . ..    MOV      r2,r3
        0x00007d4c:    e3a01e1e    ....    MOV      r1,#0x1e0
        0x00007d50:    e3a00c02    ....    MOV      r0,#0x200
        0x00007d54:    ebffecbb    ....    BL       GPIO_OpenBit ; 0x3048
        0x00007d58:    e3a0120b    ....    MOV      r1,#0xb0000000
        0x00007d5c:    e591106c    l...    LDR      r1,[r1,#0x6c]
        0x00007d60:    e3110020     ...    TST      r1,#0x20
        0x00007d64:    0a00000c    ....    BEQ      0x7d9c ; init_gpio + 128
        0x00007d68:    e3a01020     ...    MOV      r1,#0x20
        0x00007d6c:    e3a00c02    ....    MOV      r0,#0x200
        0x00007d70:    ebffecde    ....    BL       GPIO_Set ; 0x30f0
        0x00007d74:    e3a01c01    ....    MOV      r1,#0x100
        0x00007d78:    e3a00c02    ....    MOV      r0,#0x200
        0x00007d7c:    ebffecdb    ....    BL       GPIO_Set ; 0x30f0
        0x00007d80:    e3a01080    ....    MOV      r1,#0x80
        0x00007d84:    e3a00c02    ....    MOV      r0,#0x200
        0x00007d88:    ebffec10    ....    BL       GPIO_Clr ; 0x2dd0
        0x00007d8c:    e3a01040    @...    MOV      r1,#0x40
        0x00007d90:    e3a00c02    ....    MOV      r0,#0x200
        0x00007d94:    ebffecd5    ....    BL       GPIO_Set ; 0x30f0
        0x00007d98:    ea00000b    ....    B        0x7dcc ; init_gpio + 176
        0x00007d9c:    e3a01020     ...    MOV      r1,#0x20
        0x00007da0:    e3a00c02    ....    MOV      r0,#0x200
        0x00007da4:    ebffec09    ....    BL       GPIO_Clr ; 0x2dd0
        0x00007da8:    e3a01c01    ....    MOV      r1,#0x100
        0x00007dac:    e3a00c02    ....    MOV      r0,#0x200
        0x00007db0:    ebffecce    ....    BL       GPIO_Set ; 0x30f0
        0x00007db4:    e3a01080    ....    MOV      r1,#0x80
        0x00007db8:    e3a00c02    ....    MOV      r0,#0x200
        0x00007dbc:    ebffeccb    ....    BL       GPIO_Set ; 0x30f0
        0x00007dc0:    e3a01040    @...    MOV      r1,#0x40
        0x00007dc4:    e3a00c02    ....    MOV      r0,#0x200
        0x00007dc8:    ebffecc8    ....    BL       GPIO_Set ; 0x30f0
        0x00007dcc:    e59f1220     ...    LDR      r1,[pc,#544] ; [0x7ff4] = 0xffff00
        0x00007dd0:    e59f0220     ...    LDR      r0,[pc,#544] ; [0x7ff8] = 0xb0000094
        0x00007dd4:    e3a02000    . ..    MOV      r2,#0
        0x00007dd8:    ebfff1a6    ....    BL       REG_OPERATE ; 0x4478
        0x00007ddc:    e3a03001    .0..    MOV      r3,#1
        0x00007de0:    e3a02000    . ..    MOV      r2,#0
        0x00007de4:    e3a01b0f    ....    MOV      r1,#0x3c00
        0x00007de8:    e3a00c01    ....    MOV      r0,#0x100
        0x00007dec:    ebffec95    ....    BL       GPIO_OpenBit ; 0x3048
        0x00007df0:    e59f0204    ....    LDR      r0,[pc,#516] ; [0x7ffc] = 0xb00000a8
        0x00007df4:    e3a02000    . ..    MOV      r2,#0
        0x00007df8:    e3a01cff    ....    MOV      r1,#0xff00
        0x00007dfc:    ebfff19d    ....    BL       REG_OPERATE ; 0x4478
        0x00007e00:    e3a03001    .0..    MOV      r3,#1
        0x00007e04:    e3a02000    . ..    MOV      r2,#0
        0x00007e08:    e3a0100c    ....    MOV      r1,#0xc
        0x00007e0c:    e3a00d07    ....    MOV      r0,#0x1c0
        0x00007e10:    ebffec8c    ....    BL       GPIO_OpenBit ; 0x3048
        0x00007e14:    e59f01e4    ....    LDR      r0,[pc,#484] ; [0x8000] = 0xb000009c
        0x00007e18:    e3a02000    . ..    MOV      r2,#0
        0x00007e1c:    e3a0180f    ....    MOV      r1,#0xf0000
        0x00007e20:    ebfff194    ....    BL       REG_OPERATE ; 0x4478
        0x00007e24:    e3a03001    .0..    MOV      r3,#1
        0x00007e28:    e1a02003    . ..    MOV      r2,r3
        0x00007e2c:    e3a01a01    ....    MOV      r1,#0x1000
        0x00007e30:    e3a00d05    ....    MOV      r0,#0x140
        0x00007e34:    ebffec83    ....    BL       GPIO_OpenBit ; 0x3048
        0x00007e38:    e59f51c4    .Q..    LDR      r5,[pc,#452] ; [0x8004] = 0xb0000078
        0x00007e3c:    e3a02000    . ..    MOV      r2,#0
        0x00007e40:    e3a0180f    ....    MOV      r1,#0xf0000
        0x00007e44:    e1a00005    ....    MOV      r0,r5
        0x00007e48:    ebfff18a    ....    BL       REG_OPERATE ; 0x4478
        0x00007e4c:    e3a03001    .0..    MOV      r3,#1
        0x00007e50:    e1a02003    . ..    MOV      r2,r3
        0x00007e54:    e3a01010    ....    MOV      r1,#0x10
        0x00007e58:    e3a00040    @...    MOV      r0,#0x40
        0x00007e5c:    ebffec79    y...    BL       GPIO_OpenBit ; 0x3048
        0x00007e60:    e3a01010    ....    MOV      r1,#0x10
        0x00007e64:    e3a00040    @...    MOV      r0,#0x40
        0x00007e68:    ebffebd8    ....    BL       GPIO_Clr ; 0x2dd0
        0x00007e6c:    e3a02000    . ..    MOV      r2,#0
        0x00007e70:    e3a010ff    ....    MOV      r1,#0xff
        0x00007e74:    e1a00005    ....    MOV      r0,r5
        0x00007e78:    ebfff17e    ~...    BL       REG_OPERATE ; 0x4478
        0x00007e7c:    e3a03001    .0..    MOV      r3,#1
        0x00007e80:    e1a02003    . ..    MOV      r2,r3
        0x00007e84:    e3a01003    ....    MOV      r1,#3
        0x00007e88:    e3a00040    @...    MOV      r0,#0x40
        0x00007e8c:    ebffec6d    m...    BL       GPIO_OpenBit ; 0x3048
        0x00007e90:    e3a02000    . ..    MOV      r2,#0
        0x00007e94:    e3a0160f    ....    MOV      r1,#0xf00000
        0x00007e98:    e1a00004    ....    MOV      r0,r4
        0x00007e9c:    ebfff175    u...    BL       REG_OPERATE ; 0x4478
        0x00007ea0:    e3a03000    .0..    MOV      r3,#0
        0x00007ea4:    e3a02001    . ..    MOV      r2,#1
        0x00007ea8:    e3a01a02    ....    MOV      r1,#0x2000
        0x00007eac:    e3a00c02    ....    MOV      r0,#0x200
        0x00007eb0:    ebffec64    d...    BL       GPIO_OpenBit ; 0x3048
        0x00007eb4:    e3a01a02    ....    MOV      r1,#0x2000
        0x00007eb8:    e3a00c02    ....    MOV      r0,#0x200
        0x00007ebc:    ebffebc3    ....    BL       GPIO_Clr ; 0x2dd0
        0x00007ec0:    e3a02000    . ..    MOV      r2,#0
        0x00007ec4:    e3a01a0f    ....    MOV      r1,#0xf000
        0x00007ec8:    e1a00004    ....    MOV      r0,r4
        0x00007ecc:    ebfff169    i...    BL       REG_OPERATE ; 0x4478
        0x00007ed0:    e3a03001    .0..    MOV      r3,#1
        0x00007ed4:    e1a02003    . ..    MOV      r2,r3
        0x00007ed8:    e3a01b02    ....    MOV      r1,#0x800
        0x00007edc:    e3a00c02    ....    MOV      r0,#0x200
        0x00007ee0:    ebffec58    X...    BL       GPIO_OpenBit ; 0x3048
        0x00007ee4:    e3a01b02    ....    MOV      r1,#0x800
        0x00007ee8:    e3a00c02    ....    MOV      r0,#0x200
        0x00007eec:    ebffebb7    ....    BL       GPIO_Clr ; 0x2dd0
        0x00007ef0:    e3a01b02    ....    MOV      r1,#0x800
        0x00007ef4:    e3a00c02    ....    MOV      r0,#0x200
        0x00007ef8:    ebffec7c    |...    BL       GPIO_Set ; 0x30f0
        0x00007efc:    e3a0120f    ....    MOV      r1,#0xf0000000
        0x00007f00:    e3a02000    . ..    MOV      r2,#0
        0x00007f04:    e0450c41    A.E.    SUB      r0,r5,r1,ASR #24
        0x00007f08:    ebfff15a    Z...    BL       REG_OPERATE ; 0x4478
        0x00007f0c:    e3a03001    .0..    MOV      r3,#1
        0x00007f10:    e3a02000    . ..    MOV      r2,#0
        0x00007f14:    e3a01080    ....    MOV      r1,#0x80
        0x00007f18:    e3a000c0    ....    MOV      r0,#0xc0
        0x00007f1c:    ebffec49    I...    BL       GPIO_OpenBit ; 0x3048
        0x00007f20:    e3a0180f    ....    MOV      r1,#0xf0000
        0x00007f24:    e3a02000    . ..    MOV      r2,#0
        0x00007f28:    e1850741    A...    ORR      r0,r5,r1,ASR #14
        0x00007f2c:    ebfff151    Q...    BL       REG_OPERATE ; 0x4478
        0x00007f30:    e3a03001    .0..    MOV      r3,#1
        0x00007f34:    e3a02000    . ..    MOV      r2,#0
        0x00007f38:    e3a01a01    ....    MOV      r1,#0x1000
        0x00007f3c:    e3a00040    @...    MOV      r0,#0x40
        0x00007f40:    ebffec40    @...    BL       GPIO_OpenBit ; 0x3048
        0x00007f44:    e3a02000    . ..    MOV      r2,#0
        0x00007f48:    e3a0140f    ....    MOV      r1,#0xf000000
        0x00007f4c:    e1a00004    ....    MOV      r0,r4
        0x00007f50:    ebfff148    H...    BL       REG_OPERATE ; 0x4478
        0x00007f54:    e3a03000    .0..    MOV      r3,#0
        0x00007f58:    e3a02001    . ..    MOV      r2,#1
        0x00007f5c:    e3a01901    ....    MOV      r1,#0x4000
        0x00007f60:    e3a00c02    ....    MOV      r0,#0x200
        0x00007f64:    ebffec37    7...    BL       GPIO_OpenBit ; 0x3048
        0x00007f68:    e3a01901    ....    MOV      r1,#0x4000
        0x00007f6c:    e3a00c02    ....    MOV      r0,#0x200
        0x00007f70:    ebffec5e    ^...    BL       GPIO_Set ; 0x30f0
        0x00007f74:    e3a02000    . ..    MOV      r2,#0
        0x00007f78:    e3a0180f    ....    MOV      r1,#0xf0000
        0x00007f7c:    e1a00004    ....    MOV      r0,r4
        0x00007f80:    ebfff13c    <...    BL       REG_OPERATE ; 0x4478
        0x00007f84:    e3a03000    .0..    MOV      r3,#0
        0x00007f88:    e1a02003    . ..    MOV      r2,r3
        0x00007f8c:    e3a01a01    ....    MOV      r1,#0x1000
        0x00007f90:    e3a00c02    ....    MOV      r0,#0x200
        0x00007f94:    ebffec2b    +...    BL       GPIO_OpenBit ; 0x3048
        0x00007f98:    e3a02004    . ..    MOV      r2,#4
        0x00007f9c:    e3a01a01    ....    MOV      r1,#0x1000
        0x00007fa0:    e3a00c02    ....    MOV      r0,#0x200
        0x00007fa4:    ebffebcf    ....    BL       GPIO_EnableTriggerType ; 0x2ee8
        0x00007fa8:    e59f1058    X...    LDR      r1,[pc,#88] ; [0x8008] = 0x2d10
        0x00007fac:    e3a02000    . ..    MOV      r2,#0
        0x00007fb0:    e3a00c02    ....    MOV      r0,#0x200
        0x00007fb4:    ebffebb7    ....    BL       GPIO_EnableInt ; 0x2e98
        0x00007fb8:    ebfffeb1    ....    BL       download_gpio_set_input ; 0x7a84
        0x00007fbc:    e3a02000    . ..    MOV      r2,#0
        0x00007fc0:    e3a0140f    ....    MOV      r1,#0xf000000
        0x00007fc4:    e285000c    ....    ADD      r0,r5,#0xc
        0x00007fc8:    ebfff12a    *...    BL       REG_OPERATE ; 0x4478
        0x00007fcc:    e3a03001    .0..    MOV      r3,#1
        0x00007fd0:    e1a02003    . ..    MOV      r2,r3
        0x00007fd4:    e3a01901    ....    MOV      r1,#0x4000
        0x00007fd8:    e3a00080    ....    MOV      r0,#0x80
        0x00007fdc:    ebffec19    ....    BL       GPIO_OpenBit ; 0x3048
        0x00007fe0:    e8bd4070    p@..    POP      {r4-r6,lr}
        0x00007fe4:    e3a01901    ....    MOV      r1,#0x4000
        0x00007fe8:    e3a00080    ....    MOV      r0,#0x80
        0x00007fec:    eaffeb77    w...    B        GPIO_Clr ; 0x2dd0
    $d
        0x00007ff0:    b00000b4    ....    DCD    2952790196
        0x00007ff4:    00ffff00    ....    DCD    16776960
        0x00007ff8:    b0000094    ....    DCD    2952790164
        0x00007ffc:    b00000a8    ....    DCD    2952790184
        0x00008000:    b000009c    ....    DCD    2952790172
        0x00008004:    b0000078    x...    DCD    2952790136
        0x00008008:    00002d10    .-..    DCD    11536
    $a
    i.lcd_printf_new
    lcd_printf_new
        0x0000800c:    e92d000f    ..-.    PUSH     {r0-r3}
        0x00008010:    e92d4010    .@-.    PUSH     {r4,lr}
        0x00008014:    e28d200c    . ..    ADD      r2,sp,#0xc
        0x00008018:    e59f0014    ....    LDR      r0,[pc,#20] ; [0x8034] = 0xdacc
        0x0000801c:    e59d1008    ....    LDR      r1,[sp,#8]
        0x00008020:    faffe0ea    ....    BLX      vsprintf ; 0x3d0
        0x00008024:    e59f0008    ....    LDR      r0,[pc,#8] ; [0x8034] = 0xdacc
        0x00008028:    ebfff0cc    ....    BL       Print ; 0x4360
        0x0000802c:    e49d4004    .@..    POP      {r4}
        0x00008030:    e49df014    ....    LDR      pc,[sp],#0x14
    $d
        0x00008034:    0000dacc    ....    DCD    56012
    $a
    i.main
    main
        0x00008038:    e24dd028    (.M.    SUB      sp,sp,#0x28
        0x0000803c:    e3a04000    .@..    MOV      r4,#0
        0x00008040:    e58d4024    $@..    STR      r4,[sp,#0x24]
        0x00008044:    e58d4018    .@..    STR      r4,[sp,#0x18]
        0x00008048:    e58d401c    .@..    STR      r4,[sp,#0x1c]
        0x0000804c:    e58d4020     @..    STR      r4,[sp,#0x20]
        0x00008050:    e59f01d4    ....    LDR      r0,[pc,#468] ; [0x822c] = 0xb8002000
        0x00008054:    e3e01000    ....    MVN      r1,#0
        0x00008058:    e5801138    8...    STR      r1,[r0,#0x138]
        0x0000805c:    e580113c    <...    STR      r1,[r0,#0x13c]
        0x00008060:    eb000761    a...    BL       sysDisableCache ; 0x9dec
        0x00008064:    e3a00008    ....    MOV      r0,#8
        0x00008068:    eb0007b8    ....    BL       sysFlushCache ; 0x9f50
        0x0000806c:    e3a00000    ....    MOV      r0,#0
        0x00008070:    eb00077f    ....    BL       sysEnableCache ; 0x9e74
        0x00008074:    e59f11b4    ....    LDR      r1,[pc,#436] ; [0x8230] = 0x123c0000
        0x00008078:    e59f01b4    ....    LDR      r0,[pc,#436] ; [0x8234] = 0xb0000210
        0x0000807c:    e3a02000    . ..    MOV      r2,#0
        0x00008080:    ebfff0fc    ....    BL       REG_OPERATE ; 0x4478
        0x00008084:    e3a0020b    ....    MOV      r0,#0xb0000000
        0x00008088:    e5804218    .B..    STR      r4,[r0,#0x218]
        0x0000808c:    e580421c    .B..    STR      r4,[r0,#0x21c]
        0x00008090:    e3a02001    . ..    MOV      r2,#1
        0x00008094:    e3e01000    ....    MVN      r1,#0
        0x00008098:    e2800060    `...    ADD      r0,r0,#0x60
        0x0000809c:    ebfff0f5    ....    BL       REG_OPERATE ; 0x4478
        0x000080a0:    e59f0190    ....    LDR      r0,[pc,#400] ; [0x8238] = 0xb0000064
        0x000080a4:    e3a02001    . ..    MOV      r2,#1
        0x000080a8:    e3e01000    ....    MVN      r1,#0
        0x000080ac:    ebfff0f1    ....    BL       REG_OPERATE ; 0x4478
        0x000080b0:    e59f0184    ....    LDR      r0,[pc,#388] ; [0x823c] = 0xb0000068
        0x000080b4:    e3a02001    . ..    MOV      r2,#1
        0x000080b8:    e3e01000    ....    MVN      r1,#0
        0x000080bc:    ebfff0ed    ....    BL       REG_OPERATE ; 0x4478
        0x000080c0:    eb0009ac    ....    BL       sysInitializeUART ; 0xa778
        0x000080c4:    ebffff14    ....    BL       init_gpio ; 0x7d1c
        0x000080c8:    ebfff7db    ....    BL       UART_TOIO ; 0x603c
        0x000080cc:    ebfff090    ....    BL       POWER_5V_SETTING_initstart ; 0x4314
        0x000080d0:    eb00008a    ....    BL       power_checkon ; 0x8300
        0x000080d4:    ebfff7a8    ....    BL       Timer_1ms_Init ; 0x5f7c
        0x000080d8:    ebfffe04    ....    BL       display_init ; 0x78f0
        0x000080dc:    ebffead9    ....    BL       FT5x06_Init ; 0x2c48
        0x000080e0:    ebfff7bd    ....    BL       Touch_tim_init ; 0x5fdc
        0x000080e4:    eb000f3a    :...    BL       usb_deinit ; 0xbdd4
        0x000080e8:    eb000167    g...    BL       protocol_uart_init ; 0x868c
        0x000080ec:    eb000508    ....    BL       rtc_init ; 0x9514
        0x000080f0:    ebffe89a    ....    BL       AD_init_8V ; 0x2360
        0x000080f4:    e59f4144    DA..    LDR      r4,[pc,#324] ; [0x8240] = 0xd3e8
        0x000080f8:    e3a00000    ....    MOV      r0,#0
        0x000080fc:    ebfffce8    ....    BL       check_io_state ; 0x74a4
        0x00008100:    e5c40000    ....    STRB     r0,[r4,#0]
        0x00008104:    e3500002    ..P.    CMP      r0,#2
        0x00008108:    0afffffa    ....    BEQ      0x80f8 ; main + 192
        0x0000810c:    e3a00001    ....    MOV      r0,#1
        0x00008110:    ebfffce3    ....    BL       check_io_state ; 0x74a4
        0x00008114:    e5c40001    ....    STRB     r0,[r4,#1]
        0x00008118:    e3500002    ..P.    CMP      r0,#2
        0x0000811c:    0afffffa    ....    BEQ      0x810c ; main + 212
        0x00008120:    e3a00001    ....    MOV      r0,#1
        0x00008124:    e5c40000    ....    STRB     r0,[r4,#0]
        0x00008128:    e5c40001    ....    STRB     r0,[r4,#1]
        0x0000812c:    ebfffec7    ....    BL       get_main_pwr_ad_value ; 0x7c50
        0x00008130:    e5d41000    ....    LDRB     r1,[r4,#0]
        0x00008134:    e3510000    ..Q.    CMP      r1,#0
        0x00008138:    0a000039    9...    BEQ      0x8224 ; main + 492
        0x0000813c:    e3a01000    ....    MOV      r1,#0
        0x00008140:    e3e020e0    . ..    MVN      r2,#0xe0
        0x00008144:    e0010192    ....    MUL      r1,r2,r1
        0x00008148:    e2811b02    ....    ADD      r1,r1,#0x800
        0x0000814c:    e281106c    l...    ADD      r1,r1,#0x6c
        0x00008150:    e1500001    ..P.    CMP      r0,r1
        0x00008154:    3afffff4    ...:    BCC      0x812c ; main + 244
        0x00008158:    e3a01020     ...    MOV      r1,#0x20
        0x0000815c:    e3a00c02    ....    MOV      r0,#0x200
        0x00008160:    ebffeb1a    ....    BL       GPIO_Clr ; 0x2dd0
        0x00008164:    e3a01080    ....    MOV      r1,#0x80
        0x00008168:    e3a00c02    ....    MOV      r0,#0x200
        0x0000816c:    ebffebdf    ....    BL       GPIO_Set ; 0x30f0
        0x00008170:    ebffe8af    ....    BL       AD_init_vbat ; 0x2434
        0x00008174:    e59f00c8    ....    LDR      r0,[pc,#200] ; [0x8244] = 0xb0000020
        0x00008178:    e3a02000    . ..    MOV      r2,#0
        0x0000817c:    e3a01001    ....    MOV      r1,#1
        0x00008180:    ebfff0bc    ....    BL       REG_OPERATE ; 0x4478
        0x00008184:    ebfff89c    ....    BL       W25Q128_init ; 0x63fc
        0x00008188:    eb000031    1...    BL       nandflash_init ; 0x8254
        0x0000818c:    ebfffce6    ....    BL       check_sw5 ; 0x752c
        0x00008190:    ebfff053    S...    BL       POWER_5V_SETTING_initover ; 0x42e4
        0x00008194:    e3a00000    ....    MOV      r0,#0
        0x00008198:    ebffe913    ....    BL       Backlinght_Control_Init_HARDV4 ; 0x25ec
        0x0000819c:    eb000f15    ....    BL       voice_tim_init ; 0xbdf8
        0x000081a0:    e59f00a0    ....    LDR      r0,[pc,#160] ; [0x8248] = 0xfffe
        0x000081a4:    eb000558    X...    BL       send_wt588h_init ; 0x970c
        0x000081a8:    e3a0000a    ....    MOV      r0,#0xa
        0x000081ac:    ebfffdb7    ....    BL       delay_ms ; 0x7890
        0x000081b0:    ebffee22    "...    BL       LVD_init_irq ; 0x3a40
        0x000081b4:    e59f0090    ....    LDR      r0,[pc,#144] ; [0x824c] = 0x17e40
        0x000081b8:    e3a03008    .0..    MOV      r3,#8
        0x000081bc:    e28d2018    . ..    ADD      r2,sp,#0x18
        0x000081c0:    e3a01000    ....    MOV      r1,#0
        0x000081c4:    ebffef46    F...    BL       NAND_ReadPage ; 0x3ee4
        0x000081c8:    e5dd001e    ....    LDRB     r0,[sp,#0x1e]
        0x000081cc:    e5dd101c    ....    LDRB     r1,[sp,#0x1c]
        0x000081d0:    e5dd201f    . ..    LDRB     r2,[sp,#0x1f]
        0x000081d4:    e5dd301d    .0..    LDRB     r3,[sp,#0x1d]
        0x000081d8:    e58d0010    ....    STR      r0,[sp,#0x10]
        0x000081dc:    e58d1008    ....    STR      r1,[sp,#8]
        0x000081e0:    e5dd001b    ....    LDRB     r0,[sp,#0x1b]
        0x000081e4:    e5dd101a    ....    LDRB     r1,[sp,#0x1a]
        0x000081e8:    e58d2014    . ..    STR      r2,[sp,#0x14]
        0x000081ec:    e58d0004    ....    STR      r0,[sp,#4]
        0x000081f0:    e58d300c    .0..    STR      r3,[sp,#0xc]
        0x000081f4:    e58d1000    ....    STR      r1,[sp,#0]
        0x000081f8:    e5dd3019    .0..    LDRB     r3,[sp,#0x19]
        0x000081fc:    e5dd2018    . ..    LDRB     r2,[sp,#0x18]
        0x00008200:    e59f1048    H...    LDR      r1,[pc,#72] ; [0x8250] = 0xd234
        0x00008204:    e28d0024    $...    ADD      r0,sp,#0x24
        0x00008208:    faffe07b    {...    BLX      __2sprintf ; 0x3fc
        0x0000820c:    e3a01f46    F...    MOV      r1,#0x118
        0x00008210:    e3a0000a    ....    MOV      r0,#0xa
        0x00008214:    ebfff593    ....    BL       SetZuobiao ; 0x5868
        0x00008218:    e28d0024    $...    ADD      r0,sp,#0x24
        0x0000821c:    ebffff7a    z...    BL       lcd_printf_new ; 0x800c
        0x00008220:    eafffffe    ....    B        0x8220 ; main + 488
        0x00008224:    e3a01001    ....    MOV      r1,#1
        0x00008228:    eaffffc4    ....    B        0x8140 ; main + 264
    $d
        0x0000822c:    b8002000    . ..    DCD    3087015936
        0x00008230:    123c0000    ..<.    DCD    305922048
        0x00008234:    b0000210    ....    DCD    2952790544
        0x00008238:    b0000064    d...    DCD    2952790116
        0x0000823c:    b0000068    h...    DCD    2952790120
        0x00008240:    0000d3e8    ....    DCD    54248
        0x00008244:    b0000020     ...    DCD    2952790048
        0x00008248:    0000fffe    ....    DCD    65534
        0x0000824c:    00017e40    @~..    DCD    97856
        0x00008250:    0000d234    4...    DCD    53812
    $a
    i.nandflash_init
    nandflash_init
        0x00008254:    e92d4030    0@-.    PUSH     {r4,r5,lr}
        0x00008258:    e24dd03c    <.M.    SUB      sp,sp,#0x3c
        0x0000825c:    e59f5070    pP..    LDR      r5,[pc,#112] ; [0x82d4] = 0x205b0
        0x00008260:    e28540b0    .@..    ADD      r4,r5,#0xb0
        0x00008264:    e3a01032    2...    MOV      r1,#0x32
        0x00008268:    e28d0008    ....    ADD      r0,sp,#8
        0x0000826c:    ebffe1bd    ....    BL       __aeabi_memclr4 ; 0x968
        0x00008270:    e59f0060    `...    LDR      r0,[pc,#96] ; [0x82d8] = 0xd118
        0x00008274:    e5900000    ....    LDR      r0,[r0,#0]
        0x00008278:    e58d0004    ....    STR      r0,[sp,#4]
        0x0000827c:    e3a0020b    ....    MOV      r0,#0xb0000000
        0x00008280:    e5901210    ....    LDR      r1,[r0,#0x210]
        0x00008284:    e3811603    ....    ORR      r1,r1,#0x300000
        0x00008288:    e5801210    ....    STR      r1,[r0,#0x210]
        0x0000828c:    e59f1048    H...    LDR      r1,[pc,#72] ; [0x82dc] = 0x55555555
        0x00008290:    e5801080    ....    STR      r1,[r0,#0x80]
        0x00008294:    e0811000    ....    ADD      r1,r1,r0
        0x00008298:    e5801084    ....    STR      r1,[r0,#0x84]
        0x0000829c:    e5854094    .@..    STR      r4,[r5,#0x94]
        0x000082a0:    e59f0038    8...    LDR      r0,[pc,#56] ; [0x82e0] = 0xb000d8b8
        0x000082a4:    e5840004    ....    STR      r0,[r4,#4]
        0x000082a8:    e5840000    ....    STR      r0,[r4,#0]
        0x000082ac:    e1a00004    ....    MOV      r0,r4
        0x000082b0:    ebfffc51    Q...    BL       board_nand_init ; 0x73fc
        0x000082b4:    e3500000    ..P.    CMP      r0,#0
        0x000082b8:    1a000003    ....    BNE      0x82cc ; nandflash_init + 120
        0x000082bc:    ebffeeed    ....    BL       NAND_ReadID ; 0x3e78
        0x000082c0:    e1a01006    ....    MOV      r1,r6
        0x000082c4:    e28f0018    ....    ADR      r0,{pc}+0x20 ; 0x82e4
        0x000082c8:    eb000a5e    ^...    BL       sysprintf ; 0xac48
        0x000082cc:    e28dd03c    <...    ADD      sp,sp,#0x3c
        0x000082d0:    e8bd8030    0...    POP      {r4,r5,pc}
    $d
        0x000082d4:    000205b0    ....    DCD    132528
        0x000082d8:    0000d118    ....    DCD    53528
        0x000082dc:    55555555    UUUU    DCD    1431655765
        0x000082e0:    b000d8b8    ....    DCD    2952845496
        0x000082e4:    000a7825    %x..    DCD    686117
    $a
    i.nuc970_dev_ready
    nuc970_dev_ready
        0x000082e8:    e59f000c    ....    LDR      r0,[pc,#12] ; [0x82fc] = 0xb8003000
        0x000082ec:    e5900088    ....    LDR      r0,[r0,#0x88]
        0x000082f0:    e2000a02    ....    AND      r0,r0,#0x2000
        0x000082f4:    e1a006a0    ....    LSR      r0,r0,#13
        0x000082f8:    e12fff1e    ../.    BX       lr
    $d
        0x000082fc:    b8003000    .0..    DCD    3087020032
    $a
    i.power_checkon
    power_checkon
        0x00008300:    e92d4010    .@-.    PUSH     {r4,lr}
        0x00008304:    e59f0034    4...    LDR      r0,[pc,#52] ; [0x8340] = 0xb00000a8
        0x00008308:    e3a02000    . ..    MOV      r2,#0
        0x0000830c:    e3a0160f    ....    MOV      r1,#0xf00000
        0x00008310:    ebfff058    X...    BL       REG_OPERATE ; 0x4478
        0x00008314:    e3a03001    .0..    MOV      r3,#1
        0x00008318:    e3a02000    . ..    MOV      r2,#0
        0x0000831c:    e3a01020     ...    MOV      r1,#0x20
        0x00008320:    e3a00d07    ....    MOV      r0,#0x1c0
        0x00008324:    ebffeb47    G...    BL       GPIO_OpenBit ; 0x3048
        0x00008328:    e3a01020     ...    MOV      r1,#0x20
        0x0000832c:    e3a00d07    ....    MOV      r0,#0x1c0
        0x00008330:    ebffeb64    d...    BL       GPIO_ReadBit ; 0x30c8
        0x00008334:    e3500000    ..P.    CMP      r0,#0
        0x00008338:    0afffffa    ....    BEQ      0x8328 ; power_checkon + 40
        0x0000833c:    e8bd8010    ....    POP      {r4,pc}
    $d
        0x00008340:    b00000a8    ....    DCD    2952790184
    $a
    i.power_checkreset
    power_checkreset
        0x00008344:    e92d4010    .@-.    PUSH     {r4,lr}
        0x00008348:    e59f001c    ....    LDR      r0,[pc,#28] ; [0x836c] = 0xb0000218
        0x0000834c:    e3a02001    . ..    MOV      r2,#1
        0x00008350:    e3a01002    ....    MOV      r1,#2
        0x00008354:    ebfff047    G...    BL       REG_OPERATE ; 0x4478
        0x00008358:    e8bd4010    .@..    POP      {r4,lr}
        0x0000835c:    e3a02001    . ..    MOV      r2,#1
        0x00008360:    e3a0101f    ....    MOV      r1,#0x1f
        0x00008364:    e3a00c0f    ....    MOV      r0,#0xf00
        0x00008368:    eafff853    S...    B        WWDT_Open ; 0x64bc
    $d
        0x0000836c:    b0000218    ....    DCD    2952790552
    $a
    i.power_save
    power_save
        0x00008370:    e92d4070    p@-.    PUSH     {r4-r6,lr}
        0x00008374:    e3a01020     ...    MOV      r1,#0x20
        0x00008378:    e3a00c02    ....    MOV      r0,#0x200
        0x0000837c:    ebffeb5b    [...    BL       GPIO_Set ; 0x30f0
        0x00008380:    e3a01040    @...    MOV      r1,#0x40
        0x00008384:    e3a00c02    ....    MOV      r0,#0x200
        0x00008388:    ebffeb58    X...    BL       GPIO_Set ; 0x30f0
        0x0000838c:    e3a01c01    ....    MOV      r1,#0x100
        0x00008390:    e3a00c02    ....    MOV      r0,#0x200
        0x00008394:    ebffeb55    U...    BL       GPIO_Set ; 0x30f0
        0x00008398:    e3a01080    ....    MOV      r1,#0x80
        0x0000839c:    e3a00c02    ....    MOV      r0,#0x200
        0x000083a0:    ebffeb52    R...    BL       GPIO_Set ; 0x30f0
        0x000083a4:    e59f424c    LB..    LDR      r4,[pc,#588] ; [0x85f8] = 0xb00000a0
        0x000083a8:    e3a02000    . ..    MOV      r2,#0
        0x000083ac:    e3a01c0f    ....    MOV      r1,#0xf00
        0x000083b0:    e1a00004    ....    MOV      r0,r4
        0x000083b4:    ebfff02f    /...    BL       REG_OPERATE ; 0x4478
        0x000083b8:    e3a03001    .0..    MOV      r3,#1
        0x000083bc:    e1a02003    . ..    MOV      r2,r3
        0x000083c0:    e3a01004    ....    MOV      r1,#4
        0x000083c4:    e3a00d06    ....    MOV      r0,#0x180
        0x000083c8:    ebffeb1e    ....    BL       GPIO_OpenBit ; 0x3048
        0x000083cc:    e3a01004    ....    MOV      r1,#4
        0x000083d0:    e3a00d06    ....    MOV      r0,#0x180
        0x000083d4:    ebffea7d    }...    BL       GPIO_Clr ; 0x2dd0
        0x000083d8:    e3a01010    ....    MOV      r1,#0x10
        0x000083dc:    e3a00040    @...    MOV      r0,#0x40
        0x000083e0:    ebffeb42    B...    BL       GPIO_Set ; 0x30f0
        0x000083e4:    e3a01a01    ....    MOV      r1,#0x1000
        0x000083e8:    e3a00d05    ....    MOV      r0,#0x140
        0x000083ec:    ebffea77    w...    BL       GPIO_Clr ; 0x2dd0
        0x000083f0:    ebfffdb2    ....    BL       download_gpio_set_output ; 0x7ac0
        0x000083f4:    e59f1200    ....    LDR      r1,[pc,#512] ; [0x85fc] = 0x12040000
        0x000083f8:    e3a02000    . ..    MOV      r2,#0
        0x000083fc:    e2840e17    ....    ADD      r0,r4,#0x170
        0x00008400:    ebfff01c    ....    BL       REG_OPERATE ; 0x4478
        0x00008404:    e59f11f4    ....    LDR      r1,[pc,#500] ; [0x8600] = 0x30080
        0x00008408:    e3a02000    . ..    MOV      r2,#0
        0x0000840c:    e2840f5e    ^...    ADD      r0,r4,#0x178
        0x00008410:    ebfff018    ....    BL       REG_OPERATE ; 0x4478
        0x00008414:    e2845f5f    __..    ADD      r5,r4,#0x17c
        0x00008418:    e3a02000    . ..    MOV      r2,#0
        0x0000841c:    e3a01409    ....    MOV      r1,#0x9000000
        0x00008420:    e1a00005    ....    MOV      r0,r5
        0x00008424:    ebfff013    ....    BL       REG_OPERATE ; 0x4478
        0x00008428:    e3a02000    . ..    MOV      r2,#0
        0x0000842c:    e3a01010    ....    MOV      r1,#0x10
        0x00008430:    e1a00005    ....    MOV      r0,r5
        0x00008434:    ebfff00f    ....    BL       REG_OPERATE ; 0x4478
        0x00008438:    e3a01080    ....    MOV      r1,#0x80
        0x0000843c:    e3a00c02    ....    MOV      r0,#0x200
        0x00008440:    ebffea62    b...    BL       GPIO_Clr ; 0x2dd0
        0x00008444:    e3a01901    ....    MOV      r1,#0x4000
        0x00008448:    e3a00c02    ....    MOV      r0,#0x200
        0x0000844c:    ebffea5f    _...    BL       GPIO_Clr ; 0x2dd0
        0x00008450:    e3a01a02    ....    MOV      r1,#0x2000
        0x00008454:    e3a00c02    ....    MOV      r0,#0x200
        0x00008458:    ebffeb24    $...    BL       GPIO_Set ; 0x30f0
        0x0000845c:    e3a01b02    ....    MOV      r1,#0x800
        0x00008460:    e3a00c02    ....    MOV      r0,#0x200
        0x00008464:    ebffea59    Y...    BL       GPIO_Clr ; 0x2dd0
        0x00008468:    e2445028    (PD.    SUB      r5,r4,#0x28
        0x0000846c:    e3a02000    . ..    MOV      r2,#0
        0x00008470:    e3a01a0f    ....    MOV      r1,#0xf000
        0x00008474:    e1a00005    ....    MOV      r0,r5
        0x00008478:    ebffeffe    ....    BL       REG_OPERATE ; 0x4478
        0x0000847c:    e3a03001    .0..    MOV      r3,#1
        0x00008480:    e1a02003    . ..    MOV      r2,r3
        0x00008484:    e3a01008    ....    MOV      r1,#8
        0x00008488:    e3a00040    @...    MOV      r0,#0x40
        0x0000848c:    ebffeaed    ....    BL       GPIO_OpenBit ; 0x3048
        0x00008490:    e3a01008    ....    MOV      r1,#8
        0x00008494:    e3a00040    @...    MOV      r0,#0x40
        0x00008498:    ebffea4c    L...    BL       GPIO_Clr ; 0x2dd0
        0x0000849c:    e3e01000    ....    MVN      r1,#0
        0x000084a0:    e3a02000    . ..    MOV      r2,#0
        0x000084a4:    e0850101    ....    ADD      r0,r5,r1,LSL #2
        0x000084a8:    ebffeff2    ....    BL       REG_OPERATE ; 0x4478
        0x000084ac:    e3e01000    ....    MVN      r1,#0
        0x000084b0:    e3a02000    . ..    MOV      r2,#0
        0x000084b4:    e1c50e21    !...    BIC      r0,r5,r1,LSR #28
        0x000084b8:    ebffefee    ....    BL       REG_OPERATE ; 0x4478
        0x000084bc:    e3a02000    . ..    MOV      r2,#0
        0x000084c0:    e3a010ff    ....    MOV      r1,#0xff
        0x000084c4:    e1a00005    ....    MOV      r0,r5
        0x000084c8:    ebffefea    ....    BL       REG_OPERATE ; 0x4478
        0x000084cc:    e3a01a0f    ....    MOV      r1,#0xf000
        0x000084d0:    e3a02000    . ..    MOV      r2,#0
        0x000084d4:    e1850541    A...    ORR      r0,r5,r1,ASR #10
        0x000084d8:    ebffefe6    ....    BL       REG_OPERATE ; 0x4478
        0x000084dc:    e3a02000    . ..    MOV      r2,#0
        0x000084e0:    e3e01000    ....    MVN      r1,#0
        0x000084e4:    e2440014    ..D.    SUB      r0,r4,#0x14
        0x000084e8:    ebffefe2    ....    BL       REG_OPERATE ; 0x4478
        0x000084ec:    e3a02000    . ..    MOV      r2,#0
        0x000084f0:    e3a010ff    ....    MOV      r1,#0xff
        0x000084f4:    e244000c    ..D.    SUB      r0,r4,#0xc
        0x000084f8:    ebffefde    ....    BL       REG_OPERATE ; 0x4478
        0x000084fc:    e3a0120f    ....    MOV      r1,#0xf0000000
        0x00008500:    e3a02000    . ..    MOV      r2,#0
        0x00008504:    e0840c41    A...    ADD      r0,r4,r1,ASR #24
        0x00008508:    ebffefda    ....    BL       REG_OPERATE ; 0x4478
        0x0000850c:    e3a02000    . ..    MOV      r2,#0
        0x00008510:    e3a010ff    ....    MOV      r1,#0xff
        0x00008514:    e2840004    ....    ADD      r0,r4,#4
        0x00008518:    ebffefd6    ....    BL       REG_OPERATE ; 0x4478
        0x0000851c:    e59f10e0    ....    LDR      r1,[pc,#224] ; [0x8604] = 0xff000f00
        0x00008520:    e3a02000    . ..    MOV      r2,#0
        0x00008524:    e1a00004    ....    MOV      r0,r4
        0x00008528:    ebffefd2    ....    BL       REG_OPERATE ; 0x4478
        0x0000852c:    e3a01080    ....    MOV      r1,#0x80
        0x00008530:    e3a00c01    ....    MOV      r0,#0x100
        0x00008534:    ebffea49    I...    BL       GPIO_DisableTriggerType ; 0x2e60
        0x00008538:    e3a00c01    ....    MOV      r0,#0x100
        0x0000853c:    ebffea31    1...    BL       GPIO_DisableInt ; 0x2e08
        0x00008540:    e3a03001    .0..    MOV      r3,#1
        0x00008544:    e0634803    .Hc.    RSB      r4,r3,r3,LSL #16
        0x00008548:    e1a02003    . ..    MOV      r2,r3
        0x0000854c:    e1a01004    ....    MOV      r1,r4
        0x00008550:    e3a00000    ....    MOV      r0,#0
        0x00008554:    ebffeabb    ....    BL       GPIO_OpenBit ; 0x3048
        0x00008558:    e3a03001    .0..    MOV      r3,#1
        0x0000855c:    e1a02003    . ..    MOV      r2,r3
        0x00008560:    e3a01cff    ....    MOV      r1,#0xff00
        0x00008564:    e3a000c0    ....    MOV      r0,#0xc0
        0x00008568:    ebffeab6    ....    BL       GPIO_OpenBit ; 0x3048
        0x0000856c:    e59f5094    .P..    LDR      r5,[pc,#148] ; [0x8608] = 0x803
        0x00008570:    e3a03001    .0..    MOV      r3,#1
        0x00008574:    e1a02003    . ..    MOV      r2,r3
        0x00008578:    e1a01005    ....    MOV      r1,r5
        0x0000857c:    e3a00040    @...    MOV      r0,#0x40
        0x00008580:    ebffeab0    ....    BL       GPIO_OpenBit ; 0x3048
        0x00008584:    e3a03001    .0..    MOV      r3,#1
        0x00008588:    e1a02003    . ..    MOV      r2,r3
        0x0000858c:    e3a01d0e    ....    MOV      r1,#0x380
        0x00008590:    e3a00c01    ....    MOV      r0,#0x100
        0x00008594:    ebffeaab    ....    BL       GPIO_OpenBit ; 0x3048
        0x00008598:    e3a03001    .0..    MOV      r3,#1
        0x0000859c:    e1a02003    . ..    MOV      r2,r3
        0x000085a0:    e3a01ff1    ....    MOV      r1,#0x3c4
        0x000085a4:    e3a00d06    ....    MOV      r0,#0x180
        0x000085a8:    ebffeaa6    ....    BL       GPIO_OpenBit ; 0x3048
        0x000085ac:    e1a01004    ....    MOV      r1,r4
        0x000085b0:    e3a00000    ....    MOV      r0,#0
        0x000085b4:    ebffea05    ....    BL       GPIO_Clr ; 0x2dd0
        0x000085b8:    e1a01005    ....    MOV      r1,r5
        0x000085bc:    e3a00040    @...    MOV      r0,#0x40
        0x000085c0:    ebffea02    ....    BL       GPIO_Clr ; 0x2dd0
        0x000085c4:    e3a01cff    ....    MOV      r1,#0xff00
        0x000085c8:    e3a000c0    ....    MOV      r0,#0xc0
        0x000085cc:    ebffe9ff    ....    BL       GPIO_Clr ; 0x2dd0
        0x000085d0:    e3a01d0e    ....    MOV      r1,#0x380
        0x000085d4:    e3a00c01    ....    MOV      r0,#0x100
        0x000085d8:    ebffe9fc    ....    BL       GPIO_Clr ; 0x2dd0
        0x000085dc:    e3a01ff1    ....    MOV      r1,#0x3c4
        0x000085e0:    e3a00d06    ....    MOV      r0,#0x180
        0x000085e4:    ebffe9f9    ....    BL       GPIO_Clr ; 0x2dd0
        0x000085e8:    e8bd4070    p@..    POP      {r4-r6,lr}
        0x000085ec:    e3a01010    ....    MOV      r1,#0x10
        0x000085f0:    e3a00040    @...    MOV      r0,#0x40
        0x000085f4:    eaffeabd    ....    B        GPIO_Set ; 0x30f0
    $d
        0x000085f8:    b00000a0    ....    DCD    2952790176
        0x000085fc:    12040000    ....    DCD    302252032
        0x00008600:    00030080    ....    DCD    196736
        0x00008604:    ff000f00    ....    DCD    4278193920
        0x00008608:    00000803    ....    DCD    2051
    $a
    i.protocol_D8_D9_command_time_dealwith
    protocol_D8_D9_command_time_dealwith
        0x0000860c:    e59f0068    h...    LDR      r0,[pc,#104] ; [0x867c] = 0xd3ec
        0x00008610:    e5d01007    ....    LDRB     r1,[r0,#7]
        0x00008614:    e3510000    ..Q.    CMP      r1,#0
        0x00008618:    1a000016    ....    BNE      0x8678 ; protocol_D8_D9_command_time_dealwith + 108
        0x0000861c:    e1d011b6    ....    LDRH     r1,[r0,#0x16]
        0x00008620:    e3510000    ..Q.    CMP      r1,#0
        0x00008624:    0a000013    ....    BEQ      0x8678 ; protocol_D8_D9_command_time_dealwith + 108
        0x00008628:    e1d011b6    ....    LDRH     r1,[r0,#0x16]
        0x0000862c:    e2411001    ..A.    SUB      r1,r1,#1
        0x00008630:    e1c011b6    ....    STRH     r1,[r0,#0x16]
        0x00008634:    e1d011b6    ....    LDRH     r1,[r0,#0x16]
        0x00008638:    e3510000    ..Q.    CMP      r1,#0
        0x0000863c:    1a00000d    ....    BNE      0x8678 ; protocol_D8_D9_command_time_dealwith + 108
        0x00008640:    e59f1038    8...    LDR      r1,[pc,#56] ; [0x8680] = 0xe44c
        0x00008644:    e1d110b0    ....    LDRH     r1,[r1,#0]
        0x00008648:    e3510000    ..Q.    CMP      r1,#0
        0x0000864c:    1a000007    ....    BNE      0x8670 ; protocol_D8_D9_command_time_dealwith + 100
        0x00008650:    e59f102c    ,...    LDR      r1,[pc,#44] ; [0x8684] = 0xea4c
        0x00008654:    e1d110b2    ....    LDRH     r1,[r1,#2]
        0x00008658:    e3510000    ..Q.    CMP      r1,#0
        0x0000865c:    1a000003    ....    BNE      0x8670 ; protocol_D8_D9_command_time_dealwith + 100
        0x00008660:    e59f1020     ...    LDR      r1,[pc,#32] ; [0x8688] = 0xf04c
        0x00008664:    e1d110b4    ....    LDRH     r1,[r1,#4]
        0x00008668:    e3510000    ..Q.    CMP      r1,#0
        0x0000866c:    0a000001    ....    BEQ      0x8678 ; protocol_D8_D9_command_time_dealwith + 108
        0x00008670:    e3a01001    ....    MOV      r1,#1
        0x00008674:    e5c01009    ....    STRB     r1,[r0,#9]
        0x00008678:    e12fff1e    ../.    BX       lr
    $d
        0x0000867c:    0000d3ec    ....    DCD    54252
        0x00008680:    0000e44c    L...    DCD    58444
        0x00008684:    0000ea4c    L...    DCD    59980
        0x00008688:    0000f04c    L...    DCD    61516
    $a
    i.protocol_uart_init
    protocol_uart_init
        0x0000868c:    e92d4010    .@-.    PUSH     {r4,lr}
        0x00008690:    e59f3104    .1..    LDR      r3,[pc,#260] ; [0x879c] = 0xb0000064
        0x00008694:    e3a02001    . ..    MOV      r2,#1
        0x00008698:    e3a01802    ....    MOV      r1,#0x20000
        0x0000869c:    e1a00003    ....    MOV      r0,r3
        0x000086a0:    ebffef74    t...    BL       REG_OPERATE ; 0x4478
        0x000086a4:    e2834f6d    mO..    ADD      r4,r3,#0x1b4
        0x000086a8:    e3a02000    . ..    MOV      r2,#0
        0x000086ac:    e3a01802    ....    MOV      r1,#0x20000
        0x000086b0:    e1a00004    ....    MOV      r0,r4
        0x000086b4:    ebffef6f    o...    BL       REG_OPERATE ; 0x4478
        0x000086b8:    e3a02000    . ..    MOV      r2,#0
        0x000086bc:    e3a01802    ....    MOV      r1,#0x20000
        0x000086c0:    e1a00003    ....    MOV      r0,r3
        0x000086c4:    ebffef6b    k...    BL       REG_OPERATE ; 0x4478
        0x000086c8:    e3a02001    . ..    MOV      r2,#1
        0x000086cc:    e3a01802    ....    MOV      r1,#0x20000
        0x000086d0:    e1a00004    ....    MOV      r0,r4
        0x000086d4:    ebffef67    g...    BL       REG_OPERATE ; 0x4478
        0x000086d8:    e283302c    ,0..    ADD      r3,r3,#0x2c
        0x000086dc:    e3a02000    . ..    MOV      r2,#0
        0x000086e0:    e3a01cff    ....    MOV      r1,#0xff00
        0x000086e4:    e1a00003    ....    MOV      r0,r3
        0x000086e8:    ebffef62    b...    BL       REG_OPERATE ; 0x4478
        0x000086ec:    e3a02001    . ..    MOV      r2,#1
        0x000086f0:    e3a01c99    ....    MOV      r1,#0x9900
        0x000086f4:    e1a00003    ....    MOV      r0,r3
        0x000086f8:    ebffef5e    ^...    BL       REG_OPERATE ; 0x4478
        0x000086fc:    e59f009c    ....    LDR      r0,[pc,#156] ; [0x87a0] = 0xb71b00
        0x00008700:    e59f409c    .@..    LDR      r4,[pc,#156] ; [0x87a4] = 0x205a0
        0x00008704:    e5840000    ....    STR      r0,[r4,#0]
        0x00008708:    e3a00c96    ....    MOV      r0,#0x9600
        0x0000870c:    e5840004    ....    STR      r0,[r4,#4]
        0x00008710:    e3a00001    ....    MOV      r0,#1
        0x00008714:    e5c40008    ....    STRB     r0,[r4,#8]
        0x00008718:    e3a00003    ....    MOV      r0,#3
        0x0000871c:    e5c40009    ....    STRB     r0,[r4,#9]
        0x00008720:    e3a00000    ....    MOV      r0,#0
        0x00008724:    e5c4000a    ....    STRB     r0,[r4,#0xa]
        0x00008728:    e3a01018    ....    MOV      r1,#0x18
        0x0000872c:    e5c4100b    ....    STRB     r1,[r4,#0xb]
        0x00008730:    e5c4000c    ....    STRB     r0,[r4,#0xc]
        0x00008734:    e2840000    ....    ADD      r0,r4,#0
        0x00008738:    eb000d4c    L...    BL       uartOpen ; 0xbc70
        0x0000873c:    e3500000    ..P.    CMP      r0,#0
        0x00008740:    0a000001    ....    BEQ      0x874c ; protocol_uart_init + 192
        0x00008744:    e28f005c    \...    ADR      r0,{pc}+0x64 ; 0x87a8
        0x00008748:    eb00093e    >...    BL       sysprintf ; 0xac48
        0x0000874c:    e5d40008    ....    LDRB     r0,[r4,#8]
        0x00008750:    e3a03000    .0..    MOV      r3,#0
        0x00008754:    e3a02001    . ..    MOV      r2,#1
        0x00008758:    e3a01002    ....    MOV      r1,#2
        0x0000875c:    eb000bd6    ....    BL       uartIoctl ; 0xb6bc
        0x00008760:    e3500000    ..P.    CMP      r0,#0
        0x00008764:    0a000001    ....    BEQ      0x8770 ; protocol_uart_init + 228
        0x00008768:    e28f0054    T...    ADR      r0,{pc}+0x5c ; 0x87c4
        0x0000876c:    eb000935    5...    BL       sysprintf ; 0xac48
        0x00008770:    e3a03000    .0..    MOV      r3,#0
        0x00008774:    e5d40008    ....    LDRB     r0,[r4,#8]
        0x00008778:    e1a02003    . ..    MOV      r2,r3
        0x0000877c:    e3a01001    ....    MOV      r1,#1
        0x00008780:    eb000bcd    ....    BL       uartIoctl ; 0xb6bc
        0x00008784:    e3500000    ..P.    CMP      r0,#0
        0x00008788:    0a000002    ....    BEQ      0x8798 ; protocol_uart_init + 268
        0x0000878c:    e8bd4010    .@..    POP      {r4,lr}
        0x00008790:    e28f0058    X...    ADR      r0,{pc}+0x60 ; 0x87f0
        0x00008794:    ea00092b    +...    B        sysprintf ; 0xac48
        0x00008798:    e8bd8010    ....    POP      {r4,pc}
    $d
        0x0000879c:    b0000064    d...    DCD    2952790116
        0x000087a0:    00b71b00    ....    DCD    12000000
        0x000087a4:    000205a0    ....    DCD    132512
        0x000087a8:    efbdbfef    ....    DCD    4022190063
        0x000087ac:    bfefbdbf    ....    DCD    3220159935
        0x000087b0:    efb4dabd    ....    DCD    4021607101
        0x000087b4:    a7cabdbf    ....    DCD    2815081919
        0x000087b8:    efbdbfef    ....    DCD    4022190063
        0x000087bc:    0a21bdbf    ..!.    DCD    169983423
        0x000087c0:    00000000    ....    DCD    0
        0x000087c4:    efbdbfef    ....    DCD    4022190063
        0x000087c8:    bfefbdbf    ....    DCD    3220159935
        0x000087cc:    efbdc3bd    ....    DCD    4022191037
        0x000087d0:    bfefbdbf    ....    DCD    3220159935
        0x000087d4:    bdbfefbd    ....    DCD    3183472573
        0x000087d8:    d0bdbfef    ....    DCD    3502096367
        0x000087dc:    bdbfefb6    ....    DCD    3183472566
        0x000087e0:    bdcaa3c4    ....    DCD    3184174020
        0x000087e4:    bfefa7ca    ....    DCD    3220154314
        0x000087e8:    bdbfefbd    ....    DCD    3183472573
        0x000087ec:    00000a21    !...    DCD    2593
        0x000087f0:    efbdbfef    ....    DCD    4022190063
        0x000087f4:    bfefbdbf    ....    DCD    3220159935
        0x000087f8:    efb7c3bd    ....    DCD    4021797821
        0x000087fc:    bfefbdbf    ....    DCD    3220159935
        0x00008800:    bdbfefbd    ....    DCD    3183472573
        0x00008804:    d0bdbfef    ....    DCD    3502096367
        0x00008808:    bdbfefb6    ....    DCD    3183472566
        0x0000880c:    bdcaa3c4    ....    DCD    3184174020
        0x00008810:    bfefa7ca    ....    DCD    3220154314
        0x00008814:    bdbfefbd    ....    DCD    3183472573
        0x00008818:    00000a21    !...    DCD    2593
    $a
    i.pwmCleanPIIR
    pwmCleanPIIR
        0x0000881c:    e3500004    ..P.    CMP      r0,#4
        0x00008820:    3a000001    ...:    BCC      0x882c ; pwmCleanPIIR + 16
        0x00008824:    e59f001c    ....    LDR      r0,[pc,#28] ; [0x8848] = 0xffff1301
        0x00008828:    e12fff1e    ../.    BX       lr
        0x0000882c:    e59f2018    . ..    LDR      r2,[pc,#24] ; [0x884c] = 0xb8007000
        0x00008830:    e5921040    @...    LDR      r1,[r2,#0x40]
        0x00008834:    e3a03001    .0..    MOV      r3,#1
        0x00008838:    e1c10013    ....    BIC      r0,r1,r3,LSL r0
        0x0000883c:    e5820040    @...    STR      r0,[r2,#0x40]
        0x00008840:    e3a00000    ....    MOV      r0,#0
        0x00008844:    e12fff1e    ../.    BX       lr
    $d
        0x00008848:    ffff1301    ....    DCD    4294906625
        0x0000884c:    b8007000    .p..    DCD    3087036416
    $a
    i.pwmGetPDR
    pwmGetPDR
        0x00008850:    e3500004    ..P.    CMP      r0,#4
        0x00008854:    3a000001    ...:    BCC      0x8860 ; pwmGetPDR + 16
        0x00008858:    e59f0014    ....    LDR      r0,[pc,#20] ; [0x8874] = 0xffff1301
        0x0000885c:    e12fff1e    ../.    BX       lr
        0x00008860:    e59f1010    ....    LDR      r1,[pc,#16] ; [0x8878] = 0xb8007000
        0x00008864:    e0800080    ....    ADD      r0,r0,r0,LSL #1
        0x00008868:    e0810100    ....    ADD      r0,r1,r0,LSL #2
        0x0000886c:    e5900014    ....    LDR      r0,[r0,#0x14]
        0x00008870:    e12fff1e    ../.    BX       lr
    $d
        0x00008874:    ffff1301    ....    DCD    4294906625
        0x00008878:    b8007000    .p..    DCD    3087036416
    $a
    i.pwmISR
    pwmISR
        0x0000887c:    e92d4030    0@-.    PUSH     {r4,r5,lr}
        0x00008880:    e59f3030    00..    LDR      r3,[pc,#48] ; [0x88b8] = 0xb8007000
        0x00008884:    e593c040    @...    LDR      r12,[r3,#0x40]
        0x00008888:    e3a00000    ....    MOV      r0,#0
        0x0000888c:    e59f4028    (@..    LDR      r4,[pc,#40] ; [0x88bc] = 0xdac1
        0x00008890:    e3a02001    . ..    MOV      r2,#1
        0x00008894:    e1a01012    ....    LSL      r1,r2,r0
        0x00008898:    e111000c    ....    TST      r1,r12
        0x0000889c:    0a000001    ....    BEQ      0x88a8 ; pwmISR + 44
        0x000088a0:    e7c42000    . ..    STRB     r2,[r4,r0]
        0x000088a4:    e5831040    @...    STR      r1,[r3,#0x40]
        0x000088a8:    e2800001    ....    ADD      r0,r0,#1
        0x000088ac:    e3500004    ..P.    CMP      r0,#4
        0x000088b0:    bafffff7    ....    BLT      0x8894 ; pwmISR + 24
        0x000088b4:    e8bd8030    0...    POP      {r4,r5,pc}
    $d
        0x000088b8:    b8007000    .p..    DCD    3087036416
        0x000088bc:    0000dac1    ....    DCD    56001
    $a
    i.pwmInit
    pwmInit
        0x000088c0:    e92d4010    .@-.    PUSH     {r4,lr}
        0x000088c4:    e3a0120b    ....    MOV      r1,#0xb0000000
        0x000088c8:    e591021c    ....    LDR      r0,[r1,#0x21c]
        0x000088cc:    e3800302    ....    ORR      r0,r0,#0x8000000
        0x000088d0:    e581021c    ....    STR      r0,[r1,#0x21c]
        0x000088d4:    e59f2018    . ..    LDR      r2,[pc,#24] ; [0x88f4] = 0x887c
        0x000088d8:    e3a0103c    <...    MOV      r1,#0x3c
        0x000088dc:    e3a00001    ....    MOV      r0,#1
        0x000088e0:    eb0007b5    ....    BL       sysInstallISR ; 0xa7bc
        0x000088e4:    e3a0007f    ....    MOV      r0,#0x7f
        0x000088e8:    eb0007f0    ....    BL       sysSetLocalInterrupt ; 0xa8b0
        0x000088ec:    e3a00000    ....    MOV      r0,#0
        0x000088f0:    e8bd8010    ....    POP      {r4,pc}
    $d
        0x000088f4:    0000887c    |...    DCD    34940
    $a
    i.pwmInitGPIO
    pwmInitGPIO
        0x000088f8:    e3500004    ..P.    CMP      r0,#4
        0x000088fc:    3a000001    ...:    BCC      0x8908 ; pwmInitGPIO + 16
        0x00008900:    e59f01b0    ....    LDR      r0,[pc,#432] ; [0x8ab8] = 0xffff1301
        0x00008904:    e12fff1e    ../.    BX       lr
        0x00008908:    e59f31ac    .1..    LDR      r3,[pc,#428] ; [0x8abc] = 0xffff1310
        0x0000890c:    e3500000    ..P.    CMP      r0,#0
        0x00008910:    e3a0220b    ."..    MOV      r2,#0xb0000000
        0x00008914:    0a00000b    ....    BEQ      0x8948 ; pwmInitGPIO + 80
        0x00008918:    e3500001    ..P.    CMP      r0,#1
        0x0000891c:    0a000027    '...    BEQ      0x89c0 ; pwmInitGPIO + 200
        0x00008920:    e3500002    ..P.    CMP      r0,#2
        0x00008924:    0a00003c    <...    BEQ      0x8a1c ; pwmInitGPIO + 292
        0x00008928:    e351000a    ..Q.    CMP      r1,#0xa
        0x0000892c:    0a000051    Q...    BEQ      0x8a78 ; pwmInitGPIO + 384
        0x00008930:    e351000b    ..Q.    CMP      r1,#0xb
        0x00008934:    0a000054    T...    BEQ      0x8a8c ; pwmInitGPIO + 404
        0x00008938:    e351000c    ..Q.    CMP      r1,#0xc
        0x0000893c:    0a000057    W...    BEQ      0x8aa0 ; pwmInitGPIO + 424
        0x00008940:    e1a00003    ....    MOV      r0,r3
        0x00008944:    e12fff1e    ../.    BX       lr
        0x00008948:    e3510000    ..Q.    CMP      r1,#0
        0x0000894c:    0a000007    ....    BEQ      0x8970 ; pwmInitGPIO + 120
        0x00008950:    e3510001    ..Q.    CMP      r1,#1
        0x00008954:    0a00000a    ....    BEQ      0x8984 ; pwmInitGPIO + 140
        0x00008958:    e3510002    ..Q.    CMP      r1,#2
        0x0000895c:    0a00000d    ....    BEQ      0x8998 ; pwmInitGPIO + 160
        0x00008960:    e3510003    ..Q.    CMP      r1,#3
        0x00008964:    0a000010    ....    BEQ      0x89ac ; pwmInitGPIO + 180
        0x00008968:    e1a00003    ....    MOV      r0,r3
        0x0000896c:    e12fff1e    ../.    BX       lr
        0x00008970:    e5920074    t...    LDR      r0,[r2,#0x74]
        0x00008974:    e3c0080f    ....    BIC      r0,r0,#0xf0000
        0x00008978:    e380080d    ....    ORR      r0,r0,#0xd0000
        0x0000897c:    e5820074    t...    STR      r0,[r2,#0x74]
        0x00008980:    ea00004a    J...    B        0x8ab0 ; pwmInitGPIO + 440
        0x00008984:    e5920078    x...    LDR      r0,[r2,#0x78]
        0x00008988:    e3c00c0f    ....    BIC      r0,r0,#0xf00
        0x0000898c:    e3800c0d    ....    ORR      r0,r0,#0xd00
        0x00008990:    e5820078    x...    STR      r0,[r2,#0x78]
        0x00008994:    ea000045    E...    B        0x8ab0 ; pwmInitGPIO + 440
        0x00008998:    e5920084    ....    LDR      r0,[r2,#0x84]
        0x0000899c:    e3c0040f    ....    BIC      r0,r0,#0xf000000
        0x000089a0:    e380040d    ....    ORR      r0,r0,#0xd000000
        0x000089a4:    e5820084    ....    STR      r0,[r2,#0x84]
        0x000089a8:    ea000040    @...    B        0x8ab0 ; pwmInitGPIO + 440
        0x000089ac:    e592008c    ....    LDR      r0,[r2,#0x8c]
        0x000089b0:    e3c0080f    ....    BIC      r0,r0,#0xf0000
        0x000089b4:    e380080d    ....    ORR      r0,r0,#0xd0000
        0x000089b8:    e582008c    ....    STR      r0,[r2,#0x8c]
        0x000089bc:    ea00003b    ;...    B        0x8ab0 ; pwmInitGPIO + 440
        0x000089c0:    e3510004    ..Q.    CMP      r1,#4
        0x000089c4:    0a000005    ....    BEQ      0x89e0 ; pwmInitGPIO + 232
        0x000089c8:    e3510005    ..Q.    CMP      r1,#5
        0x000089cc:    0a000008    ....    BEQ      0x89f4 ; pwmInitGPIO + 252
        0x000089d0:    e3510006    ..Q.    CMP      r1,#6
        0x000089d4:    0a00000b    ....    BEQ      0x8a08 ; pwmInitGPIO + 272
        0x000089d8:    e1a00003    ....    MOV      r0,r3
        0x000089dc:    e12fff1e    ../.    BX       lr
        0x000089e0:    e5920074    t...    LDR      r0,[r2,#0x74]
        0x000089e4:    e3c0060f    ....    BIC      r0,r0,#0xf00000
        0x000089e8:    e380060d    ....    ORR      r0,r0,#0xd00000
        0x000089ec:    e5820074    t...    STR      r0,[r2,#0x74]
        0x000089f0:    ea00002e    ....    B        0x8ab0 ; pwmInitGPIO + 440
        0x000089f4:    e5920078    x...    LDR      r0,[r2,#0x78]
        0x000089f8:    e3c00a0f    ....    BIC      r0,r0,#0xf000
        0x000089fc:    e3800a0d    ....    ORR      r0,r0,#0xd000
        0x00008a00:    e5820078    x...    STR      r0,[r2,#0x78]
        0x00008a04:    ea000029    )...    B        0x8ab0 ; pwmInitGPIO + 440
        0x00008a08:    e592008c    ....    LDR      r0,[r2,#0x8c]
        0x00008a0c:    e3c0060f    ....    BIC      r0,r0,#0xf00000
        0x00008a10:    e380060d    ....    ORR      r0,r0,#0xd00000
        0x00008a14:    e582008c    ....    STR      r0,[r2,#0x8c]
        0x00008a18:    ea000024    $...    B        0x8ab0 ; pwmInitGPIO + 440
        0x00008a1c:    e3510007    ..Q.    CMP      r1,#7
        0x00008a20:    0a000005    ....    BEQ      0x8a3c ; pwmInitGPIO + 324
        0x00008a24:    e3510008    ..Q.    CMP      r1,#8
        0x00008a28:    0a000008    ....    BEQ      0x8a50 ; pwmInitGPIO + 344
        0x00008a2c:    e3510009    ..Q.    CMP      r1,#9
        0x00008a30:    0a00000b    ....    BEQ      0x8a64 ; pwmInitGPIO + 364
        0x00008a34:    e1a00003    ....    MOV      r0,r3
        0x00008a38:    e12fff1e    ../.    BX       lr
        0x00008a3c:    e5920074    t...    LDR      r0,[r2,#0x74]
        0x00008a40:    e3c0040f    ....    BIC      r0,r0,#0xf000000
        0x00008a44:    e380040d    ....    ORR      r0,r0,#0xd000000
        0x00008a48:    e5820074    t...    STR      r0,[r2,#0x74]
        0x00008a4c:    ea000017    ....    B        0x8ab0 ; pwmInitGPIO + 440
        0x00008a50:    e592008c    ....    LDR      r0,[r2,#0x8c]
        0x00008a54:    e3c0040f    ....    BIC      r0,r0,#0xf000000
        0x00008a58:    e380040d    ....    ORR      r0,r0,#0xd000000
        0x00008a5c:    e582008c    ....    STR      r0,[r2,#0x8c]
        0x00008a60:    ea000012    ....    B        0x8ab0 ; pwmInitGPIO + 440
        0x00008a64:    e59200a8    ....    LDR      r0,[r2,#0xa8]
        0x00008a68:    e3c00c0f    ....    BIC      r0,r0,#0xf00
        0x00008a6c:    e3800c0d    ....    ORR      r0,r0,#0xd00
        0x00008a70:    e58200a8    ....    STR      r0,[r2,#0xa8]
        0x00008a74:    ea00000d    ....    B        0x8ab0 ; pwmInitGPIO + 440
        0x00008a78:    e5920074    t...    LDR      r0,[r2,#0x74]
        0x00008a7c:    e3c0020f    ....    BIC      r0,r0,#0xf0000000
        0x00008a80:    e380020d    ....    ORR      r0,r0,#0xd0000000
        0x00008a84:    e5820074    t...    STR      r0,[r2,#0x74]
        0x00008a88:    ea000008    ....    B        0x8ab0 ; pwmInitGPIO + 440
        0x00008a8c:    e592008c    ....    LDR      r0,[r2,#0x8c]
        0x00008a90:    e3c0020f    ....    BIC      r0,r0,#0xf0000000
        0x00008a94:    e380020d    ....    ORR      r0,r0,#0xd0000000
        0x00008a98:    e582008c    ....    STR      r0,[r2,#0x8c]
        0x00008a9c:    ea000003    ....    B        0x8ab0 ; pwmInitGPIO + 440
        0x00008aa0:    e59200a8    ....    LDR      r0,[r2,#0xa8]
        0x00008aa4:    e3c00a0f    ....    BIC      r0,r0,#0xf000
        0x00008aa8:    e3800a0d    ....    ORR      r0,r0,#0xd000
        0x00008aac:    e58200a8    ....    STR      r0,[r2,#0xa8]
        0x00008ab0:    e3a00000    ....    MOV      r0,#0
        0x00008ab4:    e12fff1e    ../.    BX       lr
    $d
        0x00008ab8:    ffff1301    ....    DCD    4294906625
        0x00008abc:    ffff1310    ....    DCD    4294906640
    $a
    i.pwmInitTimer
    pwmInitTimer
        0x00008ac0:    e92d4038    8@-.    PUSH     {r3-r5,lr}
        0x00008ac4:    e1a04000    .@..    MOV      r4,r0
        0x00008ac8:    e3540004    ..T.    CMP      r4,#4
        0x00008acc:    3a000001    ...:    BCC      0x8ad8 ; pwmInitTimer + 24
        0x00008ad0:    e59f00f0    ....    LDR      r0,[pc,#240] ; [0x8bc8] = 0xffff1301
        0x00008ad4:    e8bd8038    8...    POP      {r3-r5,pc}
        0x00008ad8:    e3a01003    ....    MOV      r1,#3
        0x00008adc:    e1a00004    ....    MOV      r0,r4
        0x00008ae0:    eb0000d9    ....    BL       pwmSetCSR ; 0x8e4c
        0x00008ae4:    e3500000    ..P.    CMP      r0,#0
        0x00008ae8:    1afffff9    ....    BNE      0x8ad4 ; pwmInitTimer + 20
        0x00008aec:    e59f00d8    ....    LDR      r0,[pc,#216] ; [0x8bcc] = 0xb8007000
        0x00008af0:    e5901000    ....    LDR      r1,[r0,#0]
        0x00008af4:    e58d1000    ....    STR      r1,[sp,#0]
        0x00008af8:    e3540000    ..T.    CMP      r4,#0
        0x00008afc:    0a000006    ....    BEQ      0x8b1c ; pwmInitTimer + 92
        0x00008b00:    e3540001    ..T.    CMP      r4,#1
        0x00008b04:    0a00000a    ....    BEQ      0x8b34 ; pwmInitTimer + 116
        0x00008b08:    e3540002    ..T.    CMP      r4,#2
        0x00008b0c:    0a00000e    ....    BEQ      0x8b4c ; pwmInitTimer + 140
        0x00008b10:    e3540003    ..T.    CMP      r4,#3
        0x00008b14:    1a000017    ....    BNE      0x8b78 ; pwmInitTimer + 184
        0x00008b18:    ea000011    ....    B        0x8b64 ; pwmInitTimer + 164
        0x00008b1c:    e31100ff    ....    TST      r1,#0xff
        0x00008b20:    1a000014    ....    BNE      0x8b78 ; pwmInitTimer + 184
        0x00008b24:    e3a010ff    ....    MOV      r1,#0xff
        0x00008b28:    e1a00004    ....    MOV      r0,r4
        0x00008b2c:    eb0000a3    ....    BL       pwmSetCP ; 0x8dc0
        0x00008b30:    ea000010    ....    B        0x8b78 ; pwmInitTimer + 184
        0x00008b34:    e31100ff    ....    TST      r1,#0xff
        0x00008b38:    1a00000e    ....    BNE      0x8b78 ; pwmInitTimer + 184
        0x00008b3c:    e3a010ff    ....    MOV      r1,#0xff
        0x00008b40:    e1a00004    ....    MOV      r0,r4
        0x00008b44:    eb00009d    ....    BL       pwmSetCP ; 0x8dc0
        0x00008b48:    ea00000a    ....    B        0x8b78 ; pwmInitTimer + 184
        0x00008b4c:    e3110cff    ....    TST      r1,#0xff00
        0x00008b50:    1a000008    ....    BNE      0x8b78 ; pwmInitTimer + 184
        0x00008b54:    e3a010ff    ....    MOV      r1,#0xff
        0x00008b58:    e1a00004    ....    MOV      r0,r4
        0x00008b5c:    eb000097    ....    BL       pwmSetCP ; 0x8dc0
        0x00008b60:    ea000004    ....    B        0x8b78 ; pwmInitTimer + 184
        0x00008b64:    e3110cff    ....    TST      r1,#0xff00
        0x00008b68:    1a000002    ....    BNE      0x8b78 ; pwmInitTimer + 184
        0x00008b6c:    e3a010ff    ....    MOV      r1,#0xff
        0x00008b70:    e1a00004    ....    MOV      r0,r4
        0x00008b74:    eb000091    ....    BL       pwmSetCP ; 0x8dc0
        0x00008b78:    e3a01001    ....    MOV      r1,#1
        0x00008b7c:    e1a00004    ....    MOV      r0,r4
        0x00008b80:    eb00016c    l...    BL       pwmSetMode ; 0x9138
        0x00008b84:    e3500000    ..P.    CMP      r0,#0
        0x00008b88:    1affffd1    ....    BNE      0x8ad4 ; pwmInitTimer + 20
        0x00008b8c:    e59f103c    <...    LDR      r1,[pc,#60] ; [0x8bd0] = 0xdabd
        0x00008b90:    e3a00001    ....    MOV      r0,#1
        0x00008b94:    e7c10004    ....    STRB     r0,[r1,r4]
        0x00008b98:    e59f1034    4...    LDR      r1,[pc,#52] ; [0x8bd4] = 0x1312
        0x00008b9c:    e1a00004    ....    MOV      r0,r4
        0x00008ba0:    eb00005e    ^...    BL       pwmSetCMR ; 0x8d20
        0x00008ba4:    e3500000    ..P.    CMP      r0,#0
        0x00008ba8:    1affffc9    ....    BNE      0x8ad4 ; pwmInitTimer + 20
        0x00008bac:    e59f1024    $...    LDR      r1,[pc,#36] ; [0x8bd8] = 0x4c4b
        0x00008bb0:    e1a00004    ....    MOV      r0,r4
        0x00008bb4:    eb00006d    m...    BL       pwmSetCNR ; 0x8d70
        0x00008bb8:    e3500000    ..P.    CMP      r0,#0
        0x00008bbc:    1affffc4    ....    BNE      0x8ad4 ; pwmInitTimer + 20
        0x00008bc0:    e3a00000    ....    MOV      r0,#0
        0x00008bc4:    e8bd8038    8...    POP      {r3-r5,pc}
    $d
        0x00008bc8:    ffff1301    ....    DCD    4294906625
        0x00008bcc:    b8007000    .p..    DCD    3087036416
        0x00008bd0:    0000dabd    ....    DCD    55997
        0x00008bd4:    00001312    ....    DCD    4882
        0x00008bd8:    00004c4b    KL..    DCD    19531
    $a
    i.pwmIoctl
    pwmIoctl
        0x00008bdc:    e1a02001    . ..    MOV      r2,r1
        0x00008be0:    e1a01003    ....    MOV      r1,r3
        0x00008be4:    e3500004    ..P.    CMP      r0,#4
        0x00008be8:    3a000001    ...:    BCC      0x8bf4 ; pwmIoctl + 24
        0x00008bec:    e59f0088    ....    LDR      r0,[pc,#136] ; [0x8c7c] = 0xffff1301
        0x00008bf0:    e12fff1e    ../.    BX       lr
        0x00008bf4:    e59f3084    .0..    LDR      r3,[pc,#132] ; [0x8c80] = 0xdab5
        0x00008bf8:    e7d33000    .0..    LDRB     r3,[r3,r0]
        0x00008bfc:    e3530000    ..S.    CMP      r3,#0
        0x00008c00:    0a00000c    ....    BEQ      0x8c38 ; pwmIoctl + 92
        0x00008c04:    e352000a    ..R.    CMP      r2,#0xa
        0x00008c08:    308ff102    ...0    ADDCC    pc,pc,r2,LSL #2
        0x00008c0c:    ea000018    ....    B        0x8c74 ; pwmIoctl + 152
        0x00008c10:    ea00000a    ....    B        0x8c40 ; pwmIoctl + 100
        0x00008c14:    ea00000a    ....    B        0x8c44 ; pwmIoctl + 104
        0x00008c18:    ea00000b    ....    B        0x8c4c ; pwmIoctl + 112
        0x00008c1c:    ea00000b    ....    B        0x8c50 ; pwmIoctl + 116
        0x00008c20:    ea00000b    ....    B        0x8c54 ; pwmIoctl + 120
        0x00008c24:    ea00000b    ....    B        0x8c58 ; pwmIoctl + 124
        0x00008c28:    ea00000b    ....    B        0x8c5c ; pwmIoctl + 128
        0x00008c2c:    ea00000b    ....    B        0x8c60 ; pwmIoctl + 132
        0x00008c30:    ea00000c    ....    B        0x8c68 ; pwmIoctl + 140
        0x00008c34:    ea00000d    ....    B        0x8c70 ; pwmIoctl + 148
        0x00008c38:    e59f0044    D...    LDR      r0,[pc,#68] ; [0x8c84] = 0xffff130e
        0x00008c3c:    e12fff1e    ../.    BX       lr
        0x00008c40:    ea0001b9    ....    B        pwmStartTimer ; 0x932c
        0x00008c44:    e3a01002    ....    MOV      r1,#2
        0x00008c48:    ea0001cc    ....    B        pwmStopTimer ; 0x9380
        0x00008c4c:    ea00007e    ~...    B        pwmSetCSR ; 0x8e4c
        0x00008c50:    ea00005a    Z...    B        pwmSetCP ; 0x8dc0
        0x00008c54:    ea0000df    ....    B        pwmSetDZI ; 0x8fd8
        0x00008c58:    ea000101    ....    B        pwmSetInverter ; 0x9064
        0x00008c5c:    ea000135    5...    B        pwmSetMode ; 0x9138
        0x00008c60:    e3a01001    ....    MOV      r1,#1
        0x00008c64:    ea0000aa    ....    B        pwmSetDZGenerator ; 0x8f14
        0x00008c68:    e3a01000    ....    MOV      r1,#0
        0x00008c6c:    ea0000a8    ....    B        pwmSetDZGenerator ; 0x8f14
        0x00008c70:    eaffff20     ...    B        pwmInitGPIO ; 0x88f8
        0x00008c74:    e59f000c    ....    LDR      r0,[pc,#12] ; [0x8c88] = 0xffff1303
        0x00008c78:    e12fff1e    ../.    BX       lr
    $d
        0x00008c7c:    ffff1301    ....    DCD    4294906625
        0x00008c80:    0000dab5    ....    DCD    55989
        0x00008c84:    ffff130e    ....    DCD    4294906638
        0x00008c88:    ffff1303    ....    DCD    4294906627
    $a
    i.pwmOpen
    pwmOpen
        0x00008c8c:    e92d41f0    .A-.    PUSH     {r4-r8,lr}
        0x00008c90:    e1a04000    .@..    MOV      r4,r0
        0x00008c94:    e3540004    ..T.    CMP      r4,#4
        0x00008c98:    3a000001    ...:    BCC      0x8ca4 ; pwmOpen + 24
        0x00008c9c:    e59f006c    l...    LDR      r0,[pc,#108] ; [0x8d10] = 0xffff1301
        0x00008ca0:    e8bd81f0    ....    POP      {r4-r8,pc}
        0x00008ca4:    e59f5068    hP..    LDR      r5,[pc,#104] ; [0x8d14] = 0xdab5
        0x00008ca8:    e7d50004    ....    LDRB     r0,[r5,r4]
        0x00008cac:    e3500001    ..P.    CMP      r0,#1
        0x00008cb0:    0a000005    ....    BEQ      0x8ccc ; pwmOpen + 64
        0x00008cb4:    e2456001    .`E.    SUB      r6,r5,#1
        0x00008cb8:    e5d60000    ....    LDRB     r0,[r6,#0]
        0x00008cbc:    e3a07001    .p..    MOV      r7,#1
        0x00008cc0:    e3500000    ..P.    CMP      r0,#0
        0x00008cc4:    0a000002    ....    BEQ      0x8cd4 ; pwmOpen + 72
        0x00008cc8:    ea000004    ....    B        0x8ce0 ; pwmOpen + 84
        0x00008ccc:    e59f0044    D...    LDR      r0,[pc,#68] ; [0x8d18] = 0xffff130f
        0x00008cd0:    e8bd81f0    ....    POP      {r4-r8,pc}
        0x00008cd4:    e3a0003c    <...    MOV      r0,#0x3c
        0x00008cd8:    eb000470    p...    BL       sysEnableInterrupt ; 0x9ea0
        0x00008cdc:    e5c67000    .p..    STRB     r7,[r6,#0]
        0x00008ce0:    e7c57004    .p..    STRB     r7,[r5,r4]
        0x00008ce4:    e1a00004    ....    MOV      r0,r4
        0x00008ce8:    ebffff74    t...    BL       pwmInitTimer ; 0x8ac0
        0x00008cec:    e3a01001    ....    MOV      r1,#1
        0x00008cf0:    e1a00004    ....    MOV      r0,r4
        0x00008cf4:    eb000147    G...    BL       pwmSetPIER ; 0x9218
        0x00008cf8:    e1a00004    ....    MOV      r0,r4
        0x00008cfc:    ebfffec6    ....    BL       pwmCleanPIIR ; 0x881c
        0x00008d00:    e59f1014    ....    LDR      r1,[pc,#20] ; [0x8d1c] = 0xdab9
        0x00008d04:    e3a00000    ....    MOV      r0,#0
        0x00008d08:    e7c10004    ....    STRB     r0,[r1,r4]
        0x00008d0c:    e8bd81f0    ....    POP      {r4-r8,pc}
    $d
        0x00008d10:    ffff1301    ....    DCD    4294906625
        0x00008d14:    0000dab5    ....    DCD    55989
        0x00008d18:    ffff130f    ....    DCD    4294906639
        0x00008d1c:    0000dab9    ....    DCD    55993
    $a
    i.pwmSetCMR
    pwmSetCMR
        0x00008d20:    e92d4008    .@-.    PUSH     {r3,lr}
        0x00008d24:    e3500004    ..P.    CMP      r0,#4
        0x00008d28:    3a000001    ...:    BCC      0x8d34 ; pwmSetCMR + 20
        0x00008d2c:    e59f0030    0...    LDR      r0,[pc,#48] ; [0x8d64] = 0xffff1301
        0x00008d30:    e8bd8008    ....    POP      {r3,pc}
        0x00008d34:    e3510801    ..Q.    CMP      r1,#0x10000
        0x00008d38:    3a000001    ...:    BCC      0x8d44 ; pwmSetCMR + 36
        0x00008d3c:    e59f0024    $...    LDR      r0,[pc,#36] ; [0x8d68] = 0xffff130d
        0x00008d40:    e8bd8008    ....    POP      {r3,pc}
        0x00008d44:    e1cd10b0    ....    STRH     r1,[sp,#0]
        0x00008d48:    e59f201c    . ..    LDR      r2,[pc,#28] ; [0x8d6c] = 0xb8007000
        0x00008d4c:    e59d1000    ....    LDR      r1,[sp,#0]
        0x00008d50:    e0800080    ....    ADD      r0,r0,r0,LSL #1
        0x00008d54:    e0820100    ....    ADD      r0,r2,r0,LSL #2
        0x00008d58:    e5801010    ....    STR      r1,[r0,#0x10]
        0x00008d5c:    e3a00000    ....    MOV      r0,#0
        0x00008d60:    e8bd8008    ....    POP      {r3,pc}
    $d
        0x00008d64:    ffff1301    ....    DCD    4294906625
        0x00008d68:    ffff130d    ....    DCD    4294906637
        0x00008d6c:    b8007000    .p..    DCD    3087036416
    $a
    i.pwmSetCNR
    pwmSetCNR
        0x00008d70:    e92d4008    .@-.    PUSH     {r3,lr}
        0x00008d74:    e3500004    ..P.    CMP      r0,#4
        0x00008d78:    3a000001    ...:    BCC      0x8d84 ; pwmSetCNR + 20
        0x00008d7c:    e59f0030    0...    LDR      r0,[pc,#48] ; [0x8db4] = 0xffff1301
        0x00008d80:    e8bd8008    ....    POP      {r3,pc}
        0x00008d84:    e3510801    ..Q.    CMP      r1,#0x10000
        0x00008d88:    3a000001    ...:    BCC      0x8d94 ; pwmSetCNR + 36
        0x00008d8c:    e59f0024    $...    LDR      r0,[pc,#36] ; [0x8db8] = 0xffff130c
        0x00008d90:    e8bd8008    ....    POP      {r3,pc}
        0x00008d94:    e1cd10b0    ....    STRH     r1,[sp,#0]
        0x00008d98:    e59f201c    . ..    LDR      r2,[pc,#28] ; [0x8dbc] = 0xb8007000
        0x00008d9c:    e59d1000    ....    LDR      r1,[sp,#0]
        0x00008da0:    e0800080    ....    ADD      r0,r0,r0,LSL #1
        0x00008da4:    e0820100    ....    ADD      r0,r2,r0,LSL #2
        0x00008da8:    e580100c    ....    STR      r1,[r0,#0xc]
        0x00008dac:    e3a00000    ....    MOV      r0,#0
        0x00008db0:    e8bd8008    ....    POP      {r3,pc}
    $d
        0x00008db4:    ffff1301    ....    DCD    4294906625
        0x00008db8:    ffff130c    ....    DCD    4294906636
        0x00008dbc:    b8007000    .p..    DCD    3087036416
    $a
    i.pwmSetCP
    pwmSetCP
        0x00008dc0:    e92d4008    .@-.    PUSH     {r3,lr}
        0x00008dc4:    e3500004    ..P.    CMP      r0,#4
        0x00008dc8:    3a000001    ...:    BCC      0x8dd4 ; pwmSetCP + 20
        0x00008dcc:    e59f006c    l...    LDR      r0,[pc,#108] ; [0x8e40] = 0xffff1301
        0x00008dd0:    e8bd8008    ....    POP      {r3,pc}
        0x00008dd4:    e3510c01    ..Q.    CMP      r1,#0x100
        0x00008dd8:    3a000001    ...:    BCC      0x8de4 ; pwmSetCP + 36
        0x00008ddc:    e59f0060    `...    LDR      r0,[pc,#96] ; [0x8e44] = 0xffff1305
        0x00008de0:    e8bd8008    ....    POP      {r3,pc}
        0x00008de4:    e59f205c    \ ..    LDR      r2,[pc,#92] ; [0x8e48] = 0xb8007000
        0x00008de8:    e5923000    .0..    LDR      r3,[r2,#0]
        0x00008dec:    e58d3000    .0..    STR      r3,[sp,#0]
        0x00008df0:    e3500000    ..P.    CMP      r0,#0
        0x00008df4:    0a000006    ....    BEQ      0x8e14 ; pwmSetCP + 84
        0x00008df8:    e3500001    ..P.    CMP      r0,#1
        0x00008dfc:    0a000006    ....    BEQ      0x8e1c ; pwmSetCP + 92
        0x00008e00:    e3500002    ..P.    CMP      r0,#2
        0x00008e04:    0a000006    ....    BEQ      0x8e24 ; pwmSetCP + 100
        0x00008e08:    e3500003    ..P.    CMP      r0,#3
        0x00008e0c:    1a000007    ....    BNE      0x8e30 ; pwmSetCP + 112
        0x00008e10:    ea000005    ....    B        0x8e2c ; pwmSetCP + 108
        0x00008e14:    e5cd1000    ....    STRB     r1,[sp,#0]
        0x00008e18:    ea000004    ....    B        0x8e30 ; pwmSetCP + 112
        0x00008e1c:    e5cd1000    ....    STRB     r1,[sp,#0]
        0x00008e20:    ea000002    ....    B        0x8e30 ; pwmSetCP + 112
        0x00008e24:    e5cd1001    ....    STRB     r1,[sp,#1]
        0x00008e28:    ea000000    ....    B        0x8e30 ; pwmSetCP + 112
        0x00008e2c:    e5cd1001    ....    STRB     r1,[sp,#1]
        0x00008e30:    e59d0000    ....    LDR      r0,[sp,#0]
        0x00008e34:    e5820000    ....    STR      r0,[r2,#0]
        0x00008e38:    e3a00000    ....    MOV      r0,#0
        0x00008e3c:    e8bd8008    ....    POP      {r3,pc}
    $d
        0x00008e40:    ffff1301    ....    DCD    4294906625
        0x00008e44:    ffff1305    ....    DCD    4294906629
        0x00008e48:    b8007000    .p..    DCD    3087036416
    $a
    i.pwmSetCSR
    pwmSetCSR
        0x00008e4c:    e92d4008    .@-.    PUSH     {r3,lr}
        0x00008e50:    e3500004    ..P.    CMP      r0,#4
        0x00008e54:    3a000001    ...:    BCC      0x8e60 ; pwmSetCSR + 20
        0x00008e58:    e59f00a8    ....    LDR      r0,[pc,#168] ; [0x8f08] = 0xffff1301
        0x00008e5c:    e8bd8008    ....    POP      {r3,pc}
        0x00008e60:    e3510005    ..Q.    CMP      r1,#5
        0x00008e64:    3a000001    ...:    BCC      0x8e70 ; pwmSetCSR + 36
        0x00008e68:    e59f009c    ....    LDR      r0,[pc,#156] ; [0x8f0c] = 0xffff1307
        0x00008e6c:    e8bd8008    ....    POP      {r3,pc}
        0x00008e70:    e59f3098    .0..    LDR      r3,[pc,#152] ; [0x8f10] = 0xb8007000
        0x00008e74:    e5932004    . ..    LDR      r2,[r3,#4]
        0x00008e78:    e58d2000    . ..    STR      r2,[sp,#0]
        0x00008e7c:    e3500000    ..P.    CMP      r0,#0
        0x00008e80:    0a000006    ....    BEQ      0x8ea0 ; pwmSetCSR + 84
        0x00008e84:    e3500001    ..P.    CMP      r0,#1
        0x00008e88:    0a000009    ....    BEQ      0x8eb4 ; pwmSetCSR + 104
        0x00008e8c:    e3500002    ..P.    CMP      r0,#2
        0x00008e90:    0a00000d    ....    BEQ      0x8ecc ; pwmSetCSR + 128
        0x00008e94:    e3500003    ..P.    CMP      r0,#3
        0x00008e98:    1a000016    ....    BNE      0x8ef8 ; pwmSetCSR + 172
        0x00008e9c:    ea000010    ....    B        0x8ee4 ; pwmSetCSR + 152
        0x00008ea0:    e3c20007    ....    BIC      r0,r2,#7
        0x00008ea4:    e2011007    ....    AND      r1,r1,#7
        0x00008ea8:    e1800001    ....    ORR      r0,r0,r1
        0x00008eac:    e58d0000    ....    STR      r0,[sp,#0]
        0x00008eb0:    ea000010    ....    B        0x8ef8 ; pwmSetCSR + 172
        0x00008eb4:    e3c20070    p...    BIC      r0,r2,#0x70
        0x00008eb8:    e3a02070    p ..    MOV      r2,#0x70
        0x00008ebc:    e0021201    ....    AND      r1,r2,r1,LSL #4
        0x00008ec0:    e1800001    ....    ORR      r0,r0,r1
        0x00008ec4:    e58d0000    ....    STR      r0,[sp,#0]
        0x00008ec8:    ea00000a    ....    B        0x8ef8 ; pwmSetCSR + 172
        0x00008ecc:    e3c20c07    ....    BIC      r0,r2,#0x700
        0x00008ed0:    e3a02c07    .,..    MOV      r2,#0x700
        0x00008ed4:    e0021401    ....    AND      r1,r2,r1,LSL #8
        0x00008ed8:    e1800001    ....    ORR      r0,r0,r1
        0x00008edc:    e58d0000    ....    STR      r0,[sp,#0]
        0x00008ee0:    ea000004    ....    B        0x8ef8 ; pwmSetCSR + 172
        0x00008ee4:    e3c20a07    ....    BIC      r0,r2,#0x7000
        0x00008ee8:    e3a02a07    .*..    MOV      r2,#0x7000
        0x00008eec:    e0021601    ....    AND      r1,r2,r1,LSL #12
        0x00008ef0:    e1800001    ....    ORR      r0,r0,r1
        0x00008ef4:    e58d0000    ....    STR      r0,[sp,#0]
        0x00008ef8:    e59d0000    ....    LDR      r0,[sp,#0]
        0x00008efc:    e5830004    ....    STR      r0,[r3,#4]
        0x00008f00:    e3a00000    ....    MOV      r0,#0
        0x00008f04:    e8bd8008    ....    POP      {r3,pc}
    $d
        0x00008f08:    ffff1301    ....    DCD    4294906625
        0x00008f0c:    ffff1307    ....    DCD    4294906631
        0x00008f10:    b8007000    .p..    DCD    3087036416
    $a
    i.pwmSetDZGenerator
    pwmSetDZGenerator
        0x00008f14:    e92d4008    .@-.    PUSH     {r3,lr}
        0x00008f18:    e3500004    ..P.    CMP      r0,#4
        0x00008f1c:    3a000001    ...:    BCC      0x8f28 ; pwmSetDZGenerator + 20
        0x00008f20:    e59f00a4    ....    LDR      r0,[pc,#164] ; [0x8fcc] = 0xffff1301
        0x00008f24:    e8bd8008    ....    POP      {r3,pc}
        0x00008f28:    e3510001    ..Q.    CMP      r1,#1
        0x00008f2c:    0a000003    ....    BEQ      0x8f40 ; pwmSetDZGenerator + 44
        0x00008f30:    e3510000    ..Q.    CMP      r1,#0
        0x00008f34:    0a000001    ....    BEQ      0x8f40 ; pwmSetDZGenerator + 44
        0x00008f38:    e59f0090    ....    LDR      r0,[pc,#144] ; [0x8fd0] = 0xffff1308
        0x00008f3c:    e8bd8008    ....    POP      {r3,pc}
        0x00008f40:    e59fc08c    ....    LDR      r12,[pc,#140] ; [0x8fd4] = 0xb8007000
        0x00008f44:    e59c2008    . ..    LDR      r2,[r12,#8]
        0x00008f48:    e58d2000    . ..    STR      r2,[sp,#0]
        0x00008f4c:    e3a03010    .0..    MOV      r3,#0x10
        0x00008f50:    e3500000    ..P.    CMP      r0,#0
        0x00008f54:    e0033201    .2..    AND      r3,r3,r1,LSL #4
        0x00008f58:    0a000008    ....    BEQ      0x8f80 ; pwmSetDZGenerator + 108
        0x00008f5c:    e3500001    ..P.    CMP      r0,#1
        0x00008f60:    0a00000a    ....    BEQ      0x8f90 ; pwmSetDZGenerator + 124
        0x00008f64:    e3a03020     0..    MOV      r3,#0x20
        0x00008f68:    e3500002    ..P.    CMP      r0,#2
        0x00008f6c:    e0031281    ....    AND      r1,r3,r1,LSL #5
        0x00008f70:    0a00000a    ....    BEQ      0x8fa0 ; pwmSetDZGenerator + 140
        0x00008f74:    e3500003    ..P.    CMP      r0,#3
        0x00008f78:    1a00000f    ....    BNE      0x8fbc ; pwmSetDZGenerator + 168
        0x00008f7c:    ea00000b    ....    B        0x8fb0 ; pwmSetDZGenerator + 156
        0x00008f80:    e3c20010    ....    BIC      r0,r2,#0x10
        0x00008f84:    e1800003    ....    ORR      r0,r0,r3
        0x00008f88:    e58d0000    ....    STR      r0,[sp,#0]
        0x00008f8c:    ea00000a    ....    B        0x8fbc ; pwmSetDZGenerator + 168
        0x00008f90:    e3c20010    ....    BIC      r0,r2,#0x10
        0x00008f94:    e1800003    ....    ORR      r0,r0,r3
        0x00008f98:    e58d0000    ....    STR      r0,[sp,#0]
        0x00008f9c:    ea000006    ....    B        0x8fbc ; pwmSetDZGenerator + 168
        0x00008fa0:    e3c20020     ...    BIC      r0,r2,#0x20
        0x00008fa4:    e1800001    ....    ORR      r0,r0,r1
        0x00008fa8:    e58d0000    ....    STR      r0,[sp,#0]
        0x00008fac:    ea000002    ....    B        0x8fbc ; pwmSetDZGenerator + 168
        0x00008fb0:    e3c20020     ...    BIC      r0,r2,#0x20
        0x00008fb4:    e1800001    ....    ORR      r0,r0,r1
        0x00008fb8:    e58d0000    ....    STR      r0,[sp,#0]
        0x00008fbc:    e59d0000    ....    LDR      r0,[sp,#0]
        0x00008fc0:    e58c0008    ....    STR      r0,[r12,#8]
        0x00008fc4:    e3a00000    ....    MOV      r0,#0
        0x00008fc8:    e8bd8008    ....    POP      {r3,pc}
    $d
        0x00008fcc:    ffff1301    ....    DCD    4294906625
        0x00008fd0:    ffff1308    ....    DCD    4294906632
        0x00008fd4:    b8007000    .p..    DCD    3087036416
    $a
    i.pwmSetDZI
    pwmSetDZI
        0x00008fd8:    e92d4008    .@-.    PUSH     {r3,lr}
        0x00008fdc:    e3500004    ..P.    CMP      r0,#4
        0x00008fe0:    3a000001    ...:    BCC      0x8fec ; pwmSetDZI + 20
        0x00008fe4:    e59f006c    l...    LDR      r0,[pc,#108] ; [0x9058] = 0xffff1301
        0x00008fe8:    e8bd8008    ....    POP      {r3,pc}
        0x00008fec:    e3510c01    ..Q.    CMP      r1,#0x100
        0x00008ff0:    3a000001    ...:    BCC      0x8ffc ; pwmSetDZI + 36
        0x00008ff4:    e59f0060    `...    LDR      r0,[pc,#96] ; [0x905c] = 0xffff1306
        0x00008ff8:    e8bd8008    ....    POP      {r3,pc}
        0x00008ffc:    e59f205c    \ ..    LDR      r2,[pc,#92] ; [0x9060] = 0xb8007000
        0x00009000:    e5923000    .0..    LDR      r3,[r2,#0]
        0x00009004:    e58d3000    .0..    STR      r3,[sp,#0]
        0x00009008:    e3500000    ..P.    CMP      r0,#0
        0x0000900c:    0a000006    ....    BEQ      0x902c ; pwmSetDZI + 84
        0x00009010:    e3500001    ..P.    CMP      r0,#1
        0x00009014:    0a000006    ....    BEQ      0x9034 ; pwmSetDZI + 92
        0x00009018:    e3500002    ..P.    CMP      r0,#2
        0x0000901c:    0a000006    ....    BEQ      0x903c ; pwmSetDZI + 100
        0x00009020:    e3500003    ..P.    CMP      r0,#3
        0x00009024:    1a000007    ....    BNE      0x9048 ; pwmSetDZI + 112
        0x00009028:    ea000005    ....    B        0x9044 ; pwmSetDZI + 108
        0x0000902c:    e5cd1002    ....    STRB     r1,[sp,#2]
        0x00009030:    ea000004    ....    B        0x9048 ; pwmSetDZI + 112
        0x00009034:    e5cd1002    ....    STRB     r1,[sp,#2]
        0x00009038:    ea000002    ....    B        0x9048 ; pwmSetDZI + 112
        0x0000903c:    e5cd1003    ....    STRB     r1,[sp,#3]
        0x00009040:    ea000000    ....    B        0x9048 ; pwmSetDZI + 112
        0x00009044:    e5cd1003    ....    STRB     r1,[sp,#3]
        0x00009048:    e59d0000    ....    LDR      r0,[sp,#0]
        0x0000904c:    e5820000    ....    STR      r0,[r2,#0]
        0x00009050:    e3a00000    ....    MOV      r0,#0
        0x00009054:    e8bd8008    ....    POP      {r3,pc}
    $d
        0x00009058:    ffff1301    ....    DCD    4294906625
        0x0000905c:    ffff1306    ....    DCD    4294906630
        0x00009060:    b8007000    .p..    DCD    3087036416
    $a
    i.pwmSetInverter
    pwmSetInverter
        0x00009064:    e92d4008    .@-.    PUSH     {r3,lr}
        0x00009068:    e3500004    ..P.    CMP      r0,#4
        0x0000906c:    3a000001    ...:    BCC      0x9078 ; pwmSetInverter + 20
        0x00009070:    e59f00b4    ....    LDR      r0,[pc,#180] ; [0x912c] = 0xffff1301
        0x00009074:    e8bd8008    ....    POP      {r3,pc}
        0x00009078:    e3510001    ..Q.    CMP      r1,#1
        0x0000907c:    0a000003    ....    BEQ      0x9090 ; pwmSetInverter + 44
        0x00009080:    e3510000    ..Q.    CMP      r1,#0
        0x00009084:    0a000001    ....    BEQ      0x9090 ; pwmSetInverter + 44
        0x00009088:    e59f00a0    ....    LDR      r0,[pc,#160] ; [0x9130] = 0xffff130a
        0x0000908c:    e8bd8008    ....    POP      {r3,pc}
        0x00009090:    e59f309c    .0..    LDR      r3,[pc,#156] ; [0x9134] = 0xb8007000
        0x00009094:    e5932008    . ..    LDR      r2,[r3,#8]
        0x00009098:    e58d2000    . ..    STR      r2,[sp,#0]
        0x0000909c:    e3500000    ..P.    CMP      r0,#0
        0x000090a0:    0a000006    ....    BEQ      0x90c0 ; pwmSetInverter + 92
        0x000090a4:    e3500001    ..P.    CMP      r0,#1
        0x000090a8:    0a00000a    ....    BEQ      0x90d8 ; pwmSetInverter + 116
        0x000090ac:    e3500002    ..P.    CMP      r0,#2
        0x000090b0:    0a00000e    ....    BEQ      0x90f0 ; pwmSetInverter + 140
        0x000090b4:    e3500003    ..P.    CMP      r0,#3
        0x000090b8:    1a000017    ....    BNE      0x911c ; pwmSetInverter + 184
        0x000090bc:    ea000011    ....    B        0x9108 ; pwmSetInverter + 164
        0x000090c0:    e3c20004    ....    BIC      r0,r2,#4
        0x000090c4:    e3a02004    . ..    MOV      r2,#4
        0x000090c8:    e0021101    ....    AND      r1,r2,r1,LSL #2
        0x000090cc:    e1800001    ....    ORR      r0,r0,r1
        0x000090d0:    e58d0000    ....    STR      r0,[sp,#0]
        0x000090d4:    ea000010    ....    B        0x911c ; pwmSetInverter + 184
        0x000090d8:    e3c20b01    ....    BIC      r0,r2,#0x400
        0x000090dc:    e3a02b01    .+..    MOV      r2,#0x400
        0x000090e0:    e0021501    ....    AND      r1,r2,r1,LSL #10
        0x000090e4:    e1800001    ....    ORR      r0,r0,r1
        0x000090e8:    e58d0000    ....    STR      r0,[sp,#0]
        0x000090ec:    ea00000a    ....    B        0x911c ; pwmSetInverter + 184
        0x000090f0:    e3c20901    ....    BIC      r0,r2,#0x4000
        0x000090f4:    e3a02901    .)..    MOV      r2,#0x4000
        0x000090f8:    e0021701    ....    AND      r1,r2,r1,LSL #14
        0x000090fc:    e1800001    ....    ORR      r0,r0,r1
        0x00009100:    e58d0000    ....    STR      r0,[sp,#0]
        0x00009104:    ea000004    ....    B        0x911c ; pwmSetInverter + 184
        0x00009108:    e3c20701    ....    BIC      r0,r2,#0x40000
        0x0000910c:    e3a02701    .'..    MOV      r2,#0x40000
        0x00009110:    e0021901    ....    AND      r1,r2,r1,LSL #18
        0x00009114:    e1800001    ....    ORR      r0,r0,r1
        0x00009118:    e58d0000    ....    STR      r0,[sp,#0]
        0x0000911c:    e59d0000    ....    LDR      r0,[sp,#0]
        0x00009120:    e5830008    ....    STR      r0,[r3,#8]
        0x00009124:    e3a00000    ....    MOV      r0,#0
        0x00009128:    e8bd8008    ....    POP      {r3,pc}
    $d
        0x0000912c:    ffff1301    ....    DCD    4294906625
        0x00009130:    ffff130a    ....    DCD    4294906634
        0x00009134:    b8007000    .p..    DCD    3087036416
    $a
    i.pwmSetMode
    pwmSetMode
        0x00009138:    e92d4008    .@-.    PUSH     {r3,lr}
        0x0000913c:    e3500004    ..P.    CMP      r0,#4
        0x00009140:    3a000001    ...:    BCC      0x914c ; pwmSetMode + 20
        0x00009144:    e59f00bc    ....    LDR      r0,[pc,#188] ; [0x9208] = 0xffff1301
        0x00009148:    e8bd8008    ....    POP      {r3,pc}
        0x0000914c:    e3510001    ..Q.    CMP      r1,#1
        0x00009150:    0a000003    ....    BEQ      0x9164 ; pwmSetMode + 44
        0x00009154:    e3510000    ..Q.    CMP      r1,#0
        0x00009158:    0a000001    ....    BEQ      0x9164 ; pwmSetMode + 44
        0x0000915c:    e59f00a8    ....    LDR      r0,[pc,#168] ; [0x920c] = 0xffff130b
        0x00009160:    e8bd8008    ....    POP      {r3,pc}
        0x00009164:    e59f30a4    .0..    LDR      r3,[pc,#164] ; [0x9210] = 0xb8007000
        0x00009168:    e5932008    . ..    LDR      r2,[r3,#8]
        0x0000916c:    e58d2000    . ..    STR      r2,[sp,#0]
        0x00009170:    e3500000    ..P.    CMP      r0,#0
        0x00009174:    0a000006    ....    BEQ      0x9194 ; pwmSetMode + 92
        0x00009178:    e3500001    ..P.    CMP      r0,#1
        0x0000917c:    0a00000a    ....    BEQ      0x91ac ; pwmSetMode + 116
        0x00009180:    e3500002    ..P.    CMP      r0,#2
        0x00009184:    0a00000e    ....    BEQ      0x91c4 ; pwmSetMode + 140
        0x00009188:    e3500003    ..P.    CMP      r0,#3
        0x0000918c:    1a000017    ....    BNE      0x91f0 ; pwmSetMode + 184
        0x00009190:    ea000011    ....    B        0x91dc ; pwmSetMode + 164
        0x00009194:    e3a0c008    ....    MOV      r12,#8
        0x00009198:    e3c22008    . ..    BIC      r2,r2,#8
        0x0000919c:    e00cc181    ....    AND      r12,r12,r1,LSL #3
        0x000091a0:    e182200c    . ..    ORR      r2,r2,r12
        0x000091a4:    e58d2000    . ..    STR      r2,[sp,#0]
        0x000091a8:    ea000010    ....    B        0x91f0 ; pwmSetMode + 184
        0x000091ac:    e3a0cb02    ....    MOV      r12,#0x800
        0x000091b0:    e3c22b02    .+..    BIC      r2,r2,#0x800
        0x000091b4:    e00cc581    ....    AND      r12,r12,r1,LSL #11
        0x000091b8:    e182200c    . ..    ORR      r2,r2,r12
        0x000091bc:    e58d2000    . ..    STR      r2,[sp,#0]
        0x000091c0:    ea00000a    ....    B        0x91f0 ; pwmSetMode + 184
        0x000091c4:    e3a0c902    ....    MOV      r12,#0x8000
        0x000091c8:    e3c22902    .)..    BIC      r2,r2,#0x8000
        0x000091cc:    e00cc781    ....    AND      r12,r12,r1,LSL #15
        0x000091d0:    e182200c    . ..    ORR      r2,r2,r12
        0x000091d4:    e58d2000    . ..    STR      r2,[sp,#0]
        0x000091d8:    ea000004    ....    B        0x91f0 ; pwmSetMode + 184
        0x000091dc:    e3a0c702    ....    MOV      r12,#0x80000
        0x000091e0:    e3c22702    .'..    BIC      r2,r2,#0x80000
        0x000091e4:    e00cc981    ....    AND      r12,r12,r1,LSL #19
        0x000091e8:    e182200c    . ..    ORR      r2,r2,r12
        0x000091ec:    e58d2000    . ..    STR      r2,[sp,#0]
        0x000091f0:    e59d2000    . ..    LDR      r2,[sp,#0]
        0x000091f4:    e5832008    . ..    STR      r2,[r3,#8]
        0x000091f8:    e59f2014    . ..    LDR      r2,[pc,#20] ; [0x9214] = 0xdabd
        0x000091fc:    e7c21000    ....    STRB     r1,[r2,r0]
        0x00009200:    e3a00000    ....    MOV      r0,#0
        0x00009204:    e8bd8008    ....    POP      {r3,pc}
    $d
        0x00009208:    ffff1301    ....    DCD    4294906625
        0x0000920c:    ffff130b    ....    DCD    4294906635
        0x00009210:    b8007000    .p..    DCD    3087036416
        0x00009214:    0000dabd    ....    DCD    55997
    $a
    i.pwmSetPIER
    pwmSetPIER
        0x00009218:    e3500004    ..P.    CMP      r0,#4
        0x0000921c:    3a000001    ...:    BCC      0x9228 ; pwmSetPIER + 16
        0x00009220:    e59f002c    ,...    LDR      r0,[pc,#44] ; [0x9254] = 0xffff1301
        0x00009224:    e12fff1e    ../.    BX       lr
        0x00009228:    e59f3028    (0..    LDR      r3,[pc,#40] ; [0x9258] = 0xb8007000
        0x0000922c:    e593203c    < ..    LDR      r2,[r3,#0x3c]
        0x00009230:    e3510001    ..Q.    CMP      r1,#1
        0x00009234:    0a000003    ....    BEQ      0x9248 ; pwmSetPIER + 48
        0x00009238:    e3a00000    ....    MOV      r0,#0
        0x0000923c:    e583003c    <...    STR      r0,[r3,#0x3c]
        0x00009240:    e3a00000    ....    MOV      r0,#0
        0x00009244:    e12fff1e    ../.    BX       lr
        0x00009248:    e3a01001    ....    MOV      r1,#1
        0x0000924c:    e1820011    ....    ORR      r0,r2,r1,LSL r0
        0x00009250:    eafffff9    ....    B        0x923c ; pwmSetPIER + 36
    $d
        0x00009254:    ffff1301    ....    DCD    4294906625
        0x00009258:    b8007000    .p..    DCD    3087036416
    $a
    i.pwmSetTimerState
    pwmSetTimerState
        0x0000925c:    e92d4008    .@-.    PUSH     {r3,lr}
        0x00009260:    e3500004    ..P.    CMP      r0,#4
        0x00009264:    3a000001    ...:    BCC      0x9270 ; pwmSetTimerState + 20
        0x00009268:    e59f00b0    ....    LDR      r0,[pc,#176] ; [0x9320] = 0xffff1301
        0x0000926c:    e8bd8008    ....    POP      {r3,pc}
        0x00009270:    e3510001    ..Q.    CMP      r1,#1
        0x00009274:    0a000003    ....    BEQ      0x9288 ; pwmSetTimerState + 44
        0x00009278:    e3510000    ..Q.    CMP      r1,#0
        0x0000927c:    0a000001    ....    BEQ      0x9288 ; pwmSetTimerState + 44
        0x00009280:    e59f009c    ....    LDR      r0,[pc,#156] ; [0x9324] = 0xffff1309
        0x00009284:    e8bd8008    ....    POP      {r3,pc}
        0x00009288:    e59f3098    .0..    LDR      r3,[pc,#152] ; [0x9328] = 0xb8007000
        0x0000928c:    e5932008    . ..    LDR      r2,[r3,#8]
        0x00009290:    e58d2000    . ..    STR      r2,[sp,#0]
        0x00009294:    e3500000    ..P.    CMP      r0,#0
        0x00009298:    0a000006    ....    BEQ      0x92b8 ; pwmSetTimerState + 92
        0x0000929c:    e3500001    ..P.    CMP      r0,#1
        0x000092a0:    0a000009    ....    BEQ      0x92cc ; pwmSetTimerState + 112
        0x000092a4:    e3500002    ..P.    CMP      r0,#2
        0x000092a8:    0a00000d    ....    BEQ      0x92e4 ; pwmSetTimerState + 136
        0x000092ac:    e3500003    ..P.    CMP      r0,#3
        0x000092b0:    1a000016    ....    BNE      0x9310 ; pwmSetTimerState + 180
        0x000092b4:    ea000010    ....    B        0x92fc ; pwmSetTimerState + 160
        0x000092b8:    e3c20001    ....    BIC      r0,r2,#1
        0x000092bc:    e2011001    ....    AND      r1,r1,#1
        0x000092c0:    e1800001    ....    ORR      r0,r0,r1
        0x000092c4:    e58d0000    ....    STR      r0,[sp,#0]
        0x000092c8:    ea000010    ....    B        0x9310 ; pwmSetTimerState + 180
        0x000092cc:    e3c20c01    ....    BIC      r0,r2,#0x100
        0x000092d0:    e3a02c01    .,..    MOV      r2,#0x100
        0x000092d4:    e0021401    ....    AND      r1,r2,r1,LSL #8
        0x000092d8:    e1800001    ....    ORR      r0,r0,r1
        0x000092dc:    e58d0000    ....    STR      r0,[sp,#0]
        0x000092e0:    ea00000a    ....    B        0x9310 ; pwmSetTimerState + 180
        0x000092e4:    e3c20a01    ....    BIC      r0,r2,#0x1000
        0x000092e8:    e3a02a01    .*..    MOV      r2,#0x1000
        0x000092ec:    e0021601    ....    AND      r1,r2,r1,LSL #12
        0x000092f0:    e1800001    ....    ORR      r0,r0,r1
        0x000092f4:    e58d0000    ....    STR      r0,[sp,#0]
        0x000092f8:    ea000004    ....    B        0x9310 ; pwmSetTimerState + 180
        0x000092fc:    e3c20801    ....    BIC      r0,r2,#0x10000
        0x00009300:    e3a02801    .(..    MOV      r2,#0x10000
        0x00009304:    e0021801    ....    AND      r1,r2,r1,LSL #16
        0x00009308:    e1800001    ....    ORR      r0,r0,r1
        0x0000930c:    e58d0000    ....    STR      r0,[sp,#0]
        0x00009310:    e59d0000    ....    LDR      r0,[sp,#0]
        0x00009314:    e5830008    ....    STR      r0,[r3,#8]
        0x00009318:    e3a00000    ....    MOV      r0,#0
        0x0000931c:    e8bd8008    ....    POP      {r3,pc}
    $d
        0x00009320:    ffff1301    ....    DCD    4294906625
        0x00009324:    ffff1309    ....    DCD    4294906633
        0x00009328:    b8007000    .p..    DCD    3087036416
    $a
    i.pwmStartTimer
    pwmStartTimer
        0x0000932c:    e92d4010    .@-.    PUSH     {r4,lr}
        0x00009330:    e1a04000    .@..    MOV      r4,r0
        0x00009334:    e3540004    ..T.    CMP      r4,#4
        0x00009338:    3a000001    ...:    BCC      0x9344 ; pwmStartTimer + 24
        0x0000933c:    e59f0030    0...    LDR      r0,[pc,#48] ; [0x9374] = 0xffff1301
        0x00009340:    e8bd8010    ....    POP      {r4,pc}
        0x00009344:    e3a01001    ....    MOV      r1,#1
        0x00009348:    e1a00004    ....    MOV      r0,r4
        0x0000934c:    ebffffc2    ....    BL       pwmSetTimerState ; 0x925c
        0x00009350:    e59f0020     ...    LDR      r0,[pc,#32] ; [0x9378] = 0xdabd
        0x00009354:    e7d00004    ....    LDRB     r0,[r0,r4]
        0x00009358:    e3500001    ..P.    CMP      r0,#1
        0x0000935c:    1a000002    ....    BNE      0x936c ; pwmStartTimer + 64
        0x00009360:    e59f1014    ....    LDR      r1,[pc,#20] ; [0x937c] = 0xdab9
        0x00009364:    e3a00001    ....    MOV      r0,#1
        0x00009368:    e7c10004    ....    STRB     r0,[r1,r4]
        0x0000936c:    e3a00000    ....    MOV      r0,#0
        0x00009370:    e8bd8010    ....    POP      {r4,pc}
    $d
        0x00009374:    ffff1301    ....    DCD    4294906625
        0x00009378:    0000dabd    ....    DCD    55997
        0x0000937c:    0000dab9    ....    DCD    55993
    $a
    i.pwmStopTimer
    pwmStopTimer
        0x00009380:    e92d40f8    .@-.    PUSH     {r3-r7,lr}
        0x00009384:    e1a04000    .@..    MOV      r4,r0
        0x00009388:    e3540004    ..T.    CMP      r4,#4
        0x0000938c:    3a000001    ...:    BCC      0x9398 ; pwmStopTimer + 24
        0x00009390:    e59f00d8    ....    LDR      r0,[pc,#216] ; [0x9470] = 0xffff1301
        0x00009394:    e8bd80f8    ....    POP      {r3-r7,pc}
        0x00009398:    e59f00d4    ....    LDR      r0,[pc,#212] ; [0x9474] = 0xdab5
        0x0000939c:    e7d00004    ....    LDRB     r0,[r0,r4]
        0x000093a0:    e3500000    ..P.    CMP      r0,#0
        0x000093a4:    0a000015    ....    BEQ      0x9400 ; pwmStopTimer + 128
        0x000093a8:    e59f00c8    ....    LDR      r0,[pc,#200] ; [0x9478] = 0xdabd
        0x000093ac:    e7d00004    ....    LDRB     r0,[r0,r4]
        0x000093b0:    e3500000    ..P.    CMP      r0,#0
        0x000093b4:    0a000013    ....    BEQ      0x9408 ; pwmStopTimer + 136
        0x000093b8:    e59f70bc    .p..    LDR      r7,[pc,#188] ; [0x947c] = 0xdab9
        0x000093bc:    e7d70004    ....    LDRB     r0,[r7,r4]
        0x000093c0:    e3500000    ..P.    CMP      r0,#0
        0x000093c4:    0a000011    ....    BEQ      0x9410 ; pwmStopTimer + 144
        0x000093c8:    e3a06000    .`..    MOV      r6,#0
        0x000093cc:    e1cd60b0    .`..    STRH     r6,[sp,#0]
        0x000093d0:    e59f30a8    .0..    LDR      r3,[pc,#168] ; [0x9480] = 0xb8007000
        0x000093d4:    e59d0000    ....    LDR      r0,[sp,#0]
        0x000093d8:    e0842084    . ..    ADD      r2,r4,r4,LSL #1
        0x000093dc:    e0832102    .!..    ADD      r2,r3,r2,LSL #2
        0x000093e0:    e582000c    ....    STR      r0,[r2,#0xc]
        0x000093e4:    e3510001    ..Q.    CMP      r1,#1
        0x000093e8:    e2875008    .P..    ADD      r5,r7,#8
        0x000093ec:    0a00000f    ....    BEQ      0x9430 ; pwmStopTimer + 176
        0x000093f0:    e3510002    ..Q.    CMP      r1,#2
        0x000093f4:    0a000019    ....    BEQ      0x9460 ; pwmStopTimer + 224
        0x000093f8:    e59f0084    ....    LDR      r0,[pc,#132] ; [0x9484] = 0xffff1304
        0x000093fc:    e8bd80f8    ....    POP      {r3-r7,pc}
        0x00009400:    e3a00000    ....    MOV      r0,#0
        0x00009404:    e8bd80f8    ....    POP      {r3-r7,pc}
        0x00009408:    e3a00000    ....    MOV      r0,#0
        0x0000940c:    e8bd80f8    ....    POP      {r3-r7,pc}
        0x00009410:    e3a00000    ....    MOV      r0,#0
        0x00009414:    e8bd80f8    ....    POP      {r3-r7,pc}
        0x00009418:    e3a01000    ....    MOV      r1,#0
        0x0000941c:    e1a00004    ....    MOV      r0,r4
        0x00009420:    ebffff8d    ....    BL       pwmSetTimerState ; 0x925c
        0x00009424:    e7c56004    .`..    STRB     r6,[r5,r4]
        0x00009428:    e7c76004    .`..    STRB     r6,[r7,r4]
        0x0000942c:    ea000009    ....    B        0x9458 ; pwmStopTimer + 216
        0x00009430:    e1a00004    ....    MOV      r0,r4
        0x00009434:    ebfffd05    ....    BL       pwmGetPDR ; 0x8850
        0x00009438:    e3500000    ..P.    CMP      r0,#0
        0x0000943c:    1afffffb    ....    BNE      0x9430 ; pwmStopTimer + 176
        0x00009440:    eafffff4    ....    B        0x9418 ; pwmStopTimer + 152
        0x00009444:    e3a01000    ....    MOV      r1,#0
        0x00009448:    e1a00004    ....    MOV      r0,r4
        0x0000944c:    ebffff82    ....    BL       pwmSetTimerState ; 0x925c
        0x00009450:    e7c56004    .`..    STRB     r6,[r5,r4]
        0x00009454:    e7c76004    .`..    STRB     r6,[r7,r4]
        0x00009458:    e3a00000    ....    MOV      r0,#0
        0x0000945c:    e8bd80f8    ....    POP      {r3-r7,pc}
        0x00009460:    e7d50004    ....    LDRB     r0,[r5,r4]
        0x00009464:    e3500001    ..P.    CMP      r0,#1
        0x00009468:    1afffffc    ....    BNE      0x9460 ; pwmStopTimer + 224
        0x0000946c:    eafffff4    ....    B        0x9444 ; pwmStopTimer + 196
    $d
        0x00009470:    ffff1301    ....    DCD    4294906625
        0x00009474:    0000dab5    ....    DCD    55989
        0x00009478:    0000dabd    ....    DCD    55997
        0x0000947c:    0000dab9    ....    DCD    55993
        0x00009480:    b8007000    .p..    DCD    3087036416
        0x00009484:    ffff1304    ....    DCD    4294906628
    $a
    i.pwmWrite
    pwmWrite
        0x00009488:    e92d4038    8@-.    PUSH     {r3-r5,lr}
        0x0000948c:    e1a05000    .P..    MOV      r5,r0
        0x00009490:    e3550004    ..U.    CMP      r5,#4
        0x00009494:    3a000001    ...:    BCC      0x94a0 ; pwmWrite + 24
        0x00009498:    e59f0064    d...    LDR      r0,[pc,#100] ; [0x9504] = 0xffff1301
        0x0000949c:    e8bd8038    8...    POP      {r3-r5,pc}
        0x000094a0:    e59f0060    `...    LDR      r0,[pc,#96] ; [0x9508] = 0xdab5
        0x000094a4:    e7d00005    ....    LDRB     r0,[r0,r5]
        0x000094a8:    e3500000    ..P.    CMP      r0,#0
        0x000094ac:    0a000003    ....    BEQ      0x94c0 ; pwmWrite + 56
        0x000094b0:    e3520004    ..R.    CMP      r2,#4
        0x000094b4:    0a000003    ....    BEQ      0x94c8 ; pwmWrite + 64
        0x000094b8:    e59f004c    L...    LDR      r0,[pc,#76] ; [0x950c] = 0xffff1302
        0x000094bc:    e8bd8038    8...    POP      {r3-r5,pc}
        0x000094c0:    e59f0048    H...    LDR      r0,[pc,#72] ; [0x9510] = 0xffff130e
        0x000094c4:    e8bd8038    8...    POP      {r3-r5,pc}
        0x000094c8:    e5914000    .@..    LDR      r4,[r1,#0]
        0x000094cc:    e58d4000    .@..    STR      r4,[sp,#0]
        0x000094d0:    e1a01804    ....    LSL      r1,r4,#16
        0x000094d4:    e1a01821    !...    LSR      r1,r1,#16
        0x000094d8:    e1a00005    ....    MOV      r0,r5
        0x000094dc:    ebfffe23    #...    BL       pwmSetCNR ; 0x8d70
        0x000094e0:    e3500000    ..P.    CMP      r0,#0
        0x000094e4:    1affffec    ....    BNE      0x949c ; pwmWrite + 20
        0x000094e8:    e1a01824    $...    LSR      r1,r4,#16
        0x000094ec:    e1a00005    ....    MOV      r0,r5
        0x000094f0:    ebfffe0a    ....    BL       pwmSetCMR ; 0x8d20
        0x000094f4:    e3500000    ..P.    CMP      r0,#0
        0x000094f8:    1affffe7    ....    BNE      0x949c ; pwmWrite + 20
        0x000094fc:    e3a00000    ....    MOV      r0,#0
        0x00009500:    e8bd8038    8...    POP      {r3-r5,pc}
    $d
        0x00009504:    ffff1301    ....    DCD    4294906625
        0x00009508:    0000dab5    ....    DCD    55989
        0x0000950c:    ffff1302    ....    DCD    4294906626
        0x00009510:    ffff130e    ....    DCD    4294906638
    $a
    i.rtc_init
    rtc_init
        0x00009514:    e92d4010    .@-.    PUSH     {r4,lr}
        0x00009518:    e3a00001    ....    MOV      r0,#1
        0x0000951c:    ebffec36    6...    BL       RTC_EnableClock ; 0x45fc
        0x00009520:    ebffec84    ....    BL       RTC_Init ; 0x4738
        0x00009524:    e59f1060    `...    LDR      r1,[pc,#96] ; [0x958c] = 0x1051c
        0x00009528:    e3a00000    ....    MOV      r0,#0
        0x0000952c:    ebffedf0    ....    BL       RTC_Read ; 0x4cf4
        0x00009530:    e59f0054    T...    LDR      r0,[pc,#84] ; [0x958c] = 0x1051c
        0x00009534:    e590101c    ....    LDR      r1,[r0,#0x1c]
        0x00009538:    e2412c07    .,A.    SUB      r2,r1,#0x700
        0x0000953c:    e25220d5    . R.    SUBS     r2,r2,#0xd5
        0x00009540:    1a000010    ....    BNE      0x9588 ; rtc_init + 116
        0x00009544:    e5901018    ....    LDR      r1,[r0,#0x18]
        0x00009548:    e3510001    ..Q.    CMP      r1,#1
        0x0000954c:    1a00000d    ....    BNE      0x9588 ; rtc_init + 116
        0x00009550:    e5901014    ....    LDR      r1,[r0,#0x14]
        0x00009554:    e3510001    ..Q.    CMP      r1,#1
        0x00009558:    1a00000a    ....    BNE      0x9588 ; rtc_init + 116
        0x0000955c:    e590100c    ....    LDR      r1,[r0,#0xc]
        0x00009560:    e3510000    ..Q.    CMP      r1,#0
        0x00009564:    1a000007    ....    BNE      0x9588 ; rtc_init + 116
        0x00009568:    e5901008    ....    LDR      r1,[r0,#8]
        0x0000956c:    e3510000    ..Q.    CMP      r1,#0
        0x00009570:    1a000004    ....    BNE      0x9588 ; rtc_init + 116
        0x00009574:    e5900004    ....    LDR      r0,[r0,#4]
        0x00009578:    e3500000    ..P.    CMP      r0,#0
        0x0000957c:    1a000001    ....    BNE      0x9588 ; rtc_init + 116
        0x00009580:    e8bd4010    .@..    POP      {r4,lr}
        0x00009584:    ea000001    ....    B        rtc_time_deinit ; 0x9590
        0x00009588:    e8bd8010    ....    POP      {r4,pc}
    $d
        0x0000958c:    0001051c    ....    DCD    66844
    $a
    i.rtc_time_deinit
    rtc_time_deinit
        0x00009590:    e92d4010    .@-.    PUSH     {r4,lr}
        0x00009594:    e59f003c    <...    LDR      r0,[pc,#60] ; [0x95d8] = 0x1051c
        0x00009598:    e3a01e7d    }...    MOV      r1,#0x7d0
        0x0000959c:    e580101c    ....    STR      r1,[r0,#0x1c]
        0x000095a0:    e3a01001    ....    MOV      r1,#1
        0x000095a4:    e5801018    ....    STR      r1,[r0,#0x18]
        0x000095a8:    e5801014    ....    STR      r1,[r0,#0x14]
        0x000095ac:    e3a01000    ....    MOV      r1,#0
        0x000095b0:    e580100c    ....    STR      r1,[r0,#0xc]
        0x000095b4:    e5801008    ....    STR      r1,[r0,#8]
        0x000095b8:    e5801004    ....    STR      r1,[r0,#4]
        0x000095bc:    e2801000    ....    ADD      r1,r0,#0
        0x000095c0:    e3a00000    ....    MOV      r0,#0
        0x000095c4:    ebffee65    e...    BL       RTC_Write ; 0x4f60
        0x000095c8:    e8bd4010    .@..    POP      {r4,lr}
        0x000095cc:    e59f1004    ....    LDR      r1,[pc,#4] ; [0x95d8] = 0x1051c
        0x000095d0:    e3a00000    ....    MOV      r0,#0
        0x000095d4:    eaffedc6    ....    B        RTC_Read ; 0x4cf4
    $d
        0x000095d8:    0001051c    ....    DCD    66844
    $a
    i.send_tcp_xy_mul
    send_tcp_xy_mul
        0x000095dc:    e92d40f8    .@-.    PUSH     {r3-r7,lr}
        0x000095e0:    e1a04000    .@..    MOV      r4,r0
        0x000095e4:    e1a06001    .`..    MOV      r6,r1
        0x000095e8:    e3560000    ..V.    CMP      r6,#0
        0x000095ec:    0a000039    9...    BEQ      0x96d8 ; send_tcp_xy_mul + 252
        0x000095f0:    e59f00e4    ....    LDR      r0,[pc,#228] ; [0x96dc] = 0x20908
        0x000095f4:    e3a01054    T...    MOV      r1,#0x54
        0x000095f8:    ebffdcda    ....    BL       __aeabi_memclr4 ; 0x968
        0x000095fc:    e59f00d8    ....    LDR      r0,[pc,#216] ; [0x96dc] = 0x20908
        0x00009600:    e1a02186    .!..    LSL      r2,r6,#3
        0x00009604:    e28f10d4    ....    ADR      r1,{pc}+0xdc ; 0x96e0
        0x00009608:    faffdb7b    {...    BLX      __2sprintf ; 0x3fc
        0x0000960c:    e3a05000    .P..    MOV      r5,#0
        0x00009610:    e2467001    .pF.    SUB      r7,r6,#1
        0x00009614:    ea000010    ....    B        0x965c ; send_tcp_xy_mul + 128
        0x00009618:    e1d400f2    ....    LDRSH    r0,[r4,#2]
        0x0000961c:    e28f10c4    ....    ADR      r1,{pc}+0xcc ; 0x96e8
        0x00009620:    e58d0000    ....    STR      r0,[sp,#0]
        0x00009624:    e1d430f0    .0..    LDRSH    r3,[r4,#0]
        0x00009628:    e59f00c4    ....    LDR      r0,[pc,#196] ; [0x96f4] = 0x2095c
        0x0000962c:    e5942004    . ..    LDR      r2,[r4,#4]
        0x00009630:    faffdb71    q...    BLX      __2sprintf ; 0x3fc
        0x00009634:    e59f10b8    ....    LDR      r1,[pc,#184] ; [0x96f4] = 0x2095c
        0x00009638:    e2410054    T.A.    SUB      r0,r1,#0x54
        0x0000963c:    faffdc65    e...    BLX      strcat ; 0x7d8
        0x00009640:    e1550007    ..U.    CMP      r5,r7
        0x00009644:    0a000002    ....    BEQ      0x9654 ; send_tcp_xy_mul + 120
        0x00009648:    e59f008c    ....    LDR      r0,[pc,#140] ; [0x96dc] = 0x20908
        0x0000964c:    e28f10a4    ....    ADR      r1,{pc}+0xac ; 0x96f8
        0x00009650:    faffdc60    `...    BLX      strcat ; 0x7d8
        0x00009654:    e2844008    .@..    ADD      r4,r4,#8
        0x00009658:    e2855001    .P..    ADD      r5,r5,#1
        0x0000965c:    e1550006    ..U.    CMP      r5,r6
        0x00009660:    baffffec    ....    BLT      0x9618 ; send_tcp_xy_mul + 60
        0x00009664:    e59f0070    p...    LDR      r0,[pc,#112] ; [0x96dc] = 0x20908
        0x00009668:    e28f108c    ....    ADR      r1,{pc}+0x94 ; 0x96fc
        0x0000966c:    faffdc59    Y...    BLX      strcat ; 0x7d8
        0x00009670:    e59f1088    ....    LDR      r1,[pc,#136] ; [0x9700] = 0xd3fc
        0x00009674:    e59f2088    . ..    LDR      r2,[pc,#136] ; [0x9704] = 0xd3fe
        0x00009678:    e1d100b0    ....    LDRH     r0,[r1,#0]
        0x0000967c:    e1d220b0    . ..    LDRH     r2,[r2,#0]
        0x00009680:    e1500002    ..P.    CMP      r0,r2
        0x00009684:    1a000012    ....    BNE      0x96d4 ; send_tcp_xy_mul + 248
        0x00009688:    e3a00000    ....    MOV      r0,#0
        0x0000968c:    e59f2074    t ..    LDR      r2,[pc,#116] ; [0x9708] = 0xd41c
        0x00009690:    e59f4044    D@..    LDR      r4,[pc,#68] ; [0x96dc] = 0x20908
        0x00009694:    e5923000    .0..    LDR      r3,[r2,#0]
        0x00009698:    e3a02003    . ..    MOV      r2,#3
        0x0000969c:    e0822186    .!..    ADD      r2,r2,r6,LSL #3
        0x000096a0:    e1a0c802    ....    LSL      r12,r2,#16
        0x000096a4:    e1a0c82c    ,...    LSR      r12,r12,#16
        0x000096a8:    ea000007    ....    B        0x96cc ; send_tcp_xy_mul + 240
        0x000096ac:    e7d42000    . ..    LDRB     r2,[r4,r0]
        0x000096b0:    e1d150b0    .P..    LDRH     r5,[r1,#0]
        0x000096b4:    e7c32005    . ..    STRB     r2,[r3,r5]
        0x000096b8:    e1d120b0    . ..    LDRH     r2,[r1,#0]
        0x000096bc:    e2822001    . ..    ADD      r2,r2,#1
        0x000096c0:    e3c22b3e    >+..    BIC      r2,r2,#0xf800
        0x000096c4:    e1c120b0    . ..    STRH     r2,[r1,#0]
        0x000096c8:    e2800001    ....    ADD      r0,r0,#1
        0x000096cc:    e15c0000    ..\.    CMP      r12,r0
        0x000096d0:    cafffff5    ....    BGT      0x96ac ; send_tcp_xy_mul + 208
        0x000096d4:    ebfff018    ....    BL       SEND_data ; 0x573c
        0x000096d8:    e8bd80f8    ....    POP      {r3-r7,pc}
    $d
        0x000096dc:    00020908    ....    DCD    133384
        0x000096e0:    32302540    @%02    DCD    842016064
        0x000096e4:    00000058    X...    DCD    88
        0x000096e8:    30256325    %c%0    DCD    807756581
        0x000096ec:    30256433    3d%0    DCD    807756851
        0x000096f0:    00006433    3d..    DCD    25651
        0x000096f4:    0002095c    \...    DCD    133468
        0x000096f8:    0000002c    ,...    DCD    44
        0x000096fc:    0000002a    *...    DCD    42
        0x00009700:    0000d3fc    ....    DCD    54268
        0x00009704:    0000d3fe    ....    DCD    54270
        0x00009708:    0000d41c    ....    DCD    54300
    $a
    i.send_wt588h_init
    send_wt588h_init
        0x0000970c:    e92d4010    .@-.    PUSH     {r4,lr}
        0x00009710:    e3a01cff    ....    MOV      r1,#0xff00
        0x00009714:    e0011400    ....    AND      r1,r1,r0,LSL #8
        0x00009718:    e0811420     ...    ADD      r1,r1,r0,LSR #8
        0x0000971c:    e59f0024    $...    LDR      r0,[pc,#36] ; [0x9748] = 0xd534
        0x00009720:    e1c010be    ....    STRH     r1,[r0,#0xe]
        0x00009724:    e3a01000    ....    MOV      r1,#0
        0x00009728:    e5c01008    ....    STRB     r1,[r0,#8]
        0x0000972c:    e5c01009    ....    STRB     r1,[r0,#9]
        0x00009730:    e3a01b02    ....    MOV      r1,#0x800
        0x00009734:    e3a00c02    ....    MOV      r0,#0x200
        0x00009738:    ebffe5a4    ....    BL       GPIO_Clr ; 0x2dd0
        0x0000973c:    e8bd4010    .@..    POP      {r4,lr}
        0x00009740:    e59f0004    ....    LDR      r0,[pc,#4] ; [0x974c] = 0x1388
        0x00009744:    ea0009c5    ....    B        voice_tim_start ; 0xbe60
    $d
        0x00009748:    0000d534    4...    DCD    54580
        0x0000974c:    00001388    ....    DCD    5000
    $a
    i.set_tim1msint
    set_tim1msint
        0x00009750:    e59f1004    ....    LDR      r1,[pc,#4] ; [0x975c] = 0xd4cc
        0x00009754:    e5c10003    ....    STRB     r0,[r1,#3]
        0x00009758:    e12fff1e    ../.    BX       lr
    $d
        0x0000975c:    0000d4cc    ....    DCD    54476
    $a
    i.set_touchint
    set_touchint
        0x00009760:    e59f1004    ....    LDR      r1,[pc,#4] ; [0x976c] = 0xd4b4
        0x00009764:    e5c10004    ....    STRB     r0,[r1,#4]
        0x00009768:    e12fff1e    ../.    BX       lr
    $d
        0x0000976c:    0000d4b4    ....    DCD    54452
    $a
    i.set_wt588h_voice_state
    set_wt588h_voice_state
        0x00009770:    e59f1010    ....    LDR      r1,[pc,#16] ; [0x9788] = 0xd534
        0x00009774:    e5d12001    . ..    LDRB     r2,[r1,#1]
        0x00009778:    e3520000    ..R.    CMP      r2,#0
        0x0000977c:    1a000000    ....    BNE      0x9784 ; set_wt588h_voice_state + 20
        0x00009780:    e5c10007    ....    STRB     r0,[r1,#7]
        0x00009784:    e12fff1e    ../.    BX       lr
    $d
        0x00009788:    0000d534    4...    DCD    54580
    $a
    i.shift_pointer
    shift_pointer
        0x0000978c:    e92d4070    p@-.    PUSH     {r4-r6,lr}
        0x00009790:    e1a05000    .P..    MOV      r5,r0
        0x00009794:    e1a04001    .@..    MOV      r4,r1
        0x00009798:    e1a01004    ....    MOV      r1,r4
        0x0000979c:    e1a00005    ....    MOV      r0,r5
        0x000097a0:    ebffe0ce    ....    BL       __aeabi_uidiv ; 0x1ae0
        0x000097a4:    e3510000    ..Q.    CMP      r1,#0
        0x000097a8:    0a000002    ....    BEQ      0x97b8 ; shift_pointer + 44
        0x000097ac:    e0440001    ..D.    SUB      r0,r4,r1
        0x000097b0:    e0800005    ....    ADD      r0,r0,r5
        0x000097b4:    e8bd8070    p...    POP      {r4-r6,pc}
        0x000097b8:    e1a00005    ....    MOV      r0,r5
        0x000097bc:    e8bd8070    p...    POP      {r4-r6,pc}
    i.spi0ISR
    spi0ISR
        0x000097c0:    e59f001c    ....    LDR      r0,[pc,#28] ; [0x97e4] = 0x682f0
        0x000097c4:    e5901000    ....    LDR      r1,[r0,#0]
        0x000097c8:    e5911000    ....    LDR      r1,[r1,#0]
        0x000097cc:    e59f2014    . ..    LDR      r2,[pc,#20] ; [0x97e8] = 0xb8006000
        0x000097d0:    e3811801    ....    ORR      r1,r1,#0x10000
        0x000097d4:    e5821200    ....    STR      r1,[r2,#0x200]
        0x000097d8:    e3a01001    ....    MOV      r1,#1
        0x000097dc:    e5c01005    ....    STRB     r1,[r0,#5]
        0x000097e0:    e12fff1e    ../.    BX       lr
    $d
        0x000097e4:    000682f0    ....    DCD    426736
        0x000097e8:    b8006000    .`..    DCD    3087032320
    $a
    i.spi1ISR
    spi1ISR
        0x000097ec:    e59f001c    ....    LDR      r0,[pc,#28] ; [0x9810] = 0x682f0
        0x000097f0:    e5901008    ....    LDR      r1,[r0,#8]
        0x000097f4:    e5911000    ....    LDR      r1,[r1,#0]
        0x000097f8:    e59f2014    . ..    LDR      r2,[pc,#20] ; [0x9814] = 0xb8006000
        0x000097fc:    e3811801    ....    ORR      r1,r1,#0x10000
        0x00009800:    e5821300    ....    STR      r1,[r2,#0x300]
        0x00009804:    e3a01001    ....    MOV      r1,#1
        0x00009808:    e5c0100d    ....    STRB     r1,[r0,#0xd]
        0x0000980c:    e12fff1e    ../.    BX       lr
    $d
        0x00009810:    000682f0    ....    DCD    426736
        0x00009814:    b8006000    .`..    DCD    3087032320
    $a
    i.spiGetBusyStatus
    spiGetBusyStatus
        0x00009818:    e59f1038    8...    LDR      r1,[pc,#56] ; [0x9858] = 0x682f0
        0x0000981c:    e0810180    ....    ADD      r0,r1,r0,LSL #3
        0x00009820:    e5901000    ....    LDR      r1,[r0,#0]
        0x00009824:    e5912000    . ..    LDR      r2,[r1,#0]
        0x00009828:    e3120802    ....    TST      r2,#0x20000
        0x0000982c:    0a000006    ....    BEQ      0x984c ; spiGetBusyStatus + 52
        0x00009830:    e5d00005    ....    LDRB     r0,[r0,#5]
        0x00009834:    e3500000    ..P.    CMP      r0,#0
        0x00009838:    0a000001    ....    BEQ      0x9844 ; spiGetBusyStatus + 44
        0x0000983c:    e3a00000    ....    MOV      r0,#0
        0x00009840:    e12fff1e    ../.    BX       lr
        0x00009844:    e3a00001    ....    MOV      r0,#1
        0x00009848:    e12fff1e    ../.    BX       lr
        0x0000984c:    e5910000    ....    LDR      r0,[r1,#0]
        0x00009850:    e2000001    ....    AND      r0,r0,#1
        0x00009854:    e12fff1e    ../.    BX       lr
    $d
        0x00009858:    000682f0    ....    DCD    426736
    $a
    i.spiInit
    spiInit
        0x0000985c:    e92d4070    p@-.    PUSH     {r4-r6,lr}
        0x00009860:    e59f505c    \P..    LDR      r5,[pc,#92] ; [0x98c4] = 0x682f0
        0x00009864:    e3500000    ..P.    CMP      r0,#0
        0x00009868:    e3a04000    .@..    MOV      r4,#0
        0x0000986c:    0a00000b    ....    BEQ      0x98a0 ; spiInit + 68
        0x00009870:    e59f2050    P ..    LDR      r2,[pc,#80] ; [0x98c8] = 0x97ec
        0x00009874:    e3a01034    4...    MOV      r1,#0x34
        0x00009878:    e3a00005    ....    MOV      r0,#5
        0x0000987c:    eb0003ce    ....    BL       sysInstallISR ; 0xa7bc
        0x00009880:    e3a00034    4...    MOV      r0,#0x34
        0x00009884:    eb000185    ....    BL       sysEnableInterrupt ; 0x9ea0
        0x00009888:    e5854008    .@..    STR      r4,[r5,#8]
        0x0000988c:    e585400c    .@..    STR      r4,[r5,#0xc]
        0x00009890:    e3a0007f    ....    MOV      r0,#0x7f
        0x00009894:    eb000405    ....    BL       sysSetLocalInterrupt ; 0xa8b0
        0x00009898:    e3a00000    ....    MOV      r0,#0
        0x0000989c:    e8bd8070    p...    POP      {r4-r6,pc}
        0x000098a0:    e59f2024    $ ..    LDR      r2,[pc,#36] ; [0x98cc] = 0x97c0
        0x000098a4:    e3a01033    3...    MOV      r1,#0x33
        0x000098a8:    e3a00005    ....    MOV      r0,#5
        0x000098ac:    eb0003c2    ....    BL       sysInstallISR ; 0xa7bc
        0x000098b0:    e3a00033    3...    MOV      r0,#0x33
        0x000098b4:    eb000179    y...    BL       sysEnableInterrupt ; 0x9ea0
        0x000098b8:    e5854000    .@..    STR      r4,[r5,#0]
        0x000098bc:    e5854004    .@..    STR      r4,[r5,#4]
        0x000098c0:    eafffff2    ....    B        0x9890 ; spiInit + 52
    $d
        0x000098c4:    000682f0    ....    DCD    426736
        0x000098c8:    000097ec    ....    DCD    38892
        0x000098cc:    000097c0    ....    DCD    38848
    $a
    i.spiIoctl
    spiIoctl
        0x000098d0:    e1a03001    .0..    MOV      r3,r1
        0x000098d4:    e92d4010    .@-.    PUSH     {r4,lr}
        0x000098d8:    e1a01002    ....    MOV      r1,r2
        0x000098dc:    e3500000    ..P.    CMP      r0,#0
        0x000098e0:    0a000003    ....    BEQ      0x98f4 ; spiIoctl + 36
        0x000098e4:    e3500001    ..P.    CMP      r0,#1
        0x000098e8:    0a000001    ....    BEQ      0x98f4 ; spiIoctl + 36
        0x000098ec:    e3e00000    ....    MVN      r0,#0
        0x000098f0:    e8bd8010    ....    POP      {r4,pc}
        0x000098f4:    e59f2358    X#..    LDR      r2,[pc,#856] ; [0x9c54] = 0x682f0
        0x000098f8:    e0820180    ....    ADD      r0,r2,r0,LSL #3
        0x000098fc:    e5d02004    . ..    LDRB     r2,[r0,#4]
        0x00009900:    e3520000    ..R.    CMP      r2,#0
        0x00009904:    0a00000f    ....    BEQ      0x9948 ; spiIoctl + 120
        0x00009908:    e353000d    ..S.    CMP      r3,#0xd
        0x0000990c:    308ff103    ...0    ADDCC    pc,pc,r3,LSL #2
        0x00009910:    ea0000c8    ....    B        0x9c38 ; spiIoctl + 872
        0x00009914:    ea00000d    ....    B        0x9950 ; spiIoctl + 128
        0x00009918:    ea000013    ....    B        0x996c ; spiIoctl + 156
        0x0000991c:    ea00001e    ....    B        0x999c ; spiIoctl + 204
        0x00009920:    ea00001f    ....    B        0x99a4 ; spiIoctl + 212
        0x00009924:    ea000033    3...    B        0x99f8 ; spiIoctl + 296
        0x00009928:    ea00003e    >...    B        0x9a28 ; spiIoctl + 344
        0x0000992c:    ea000049    I...    B        0x9a58 ; spiIoctl + 392
        0x00009930:    ea000052    R...    B        0x9a80 ; spiIoctl + 432
        0x00009934:    ea00005b    [...    B        0x9aa8 ; spiIoctl + 472
        0x00009938:    ea00007c    |...    B        0x9b30 ; spiIoctl + 608
        0x0000993c:    ea000094    ....    B        0x9b94 ; spiIoctl + 708
        0x00009940:    ea0000aa    ....    B        0x9bf0 ; spiIoctl + 800
        0x00009944:    ea0000b5    ....    B        0x9c20 ; spiIoctl + 848
        0x00009948:    e3e00002    ....    MVN      r0,#2
        0x0000994c:    e8bd8010    ....    POP      {r4,pc}
        0x00009950:    e3a01000    ....    MOV      r1,#0
        0x00009954:    e5c01005    ....    STRB     r1,[r0,#5]
        0x00009958:    e5900000    ....    LDR      r0,[r0,#0]
        0x0000995c:    e5901000    ....    LDR      r1,[r0,#0]
        0x00009960:    e3811001    ....    ORR      r1,r1,#1
        0x00009964:    e5801000    ....    STR      r1,[r0,#0]
        0x00009968:    ea0000b2    ....    B        0x9c38 ; spiIoctl + 872
        0x0000996c:    e3510001    ..Q.    CMP      r1,#1
        0x00009970:    0a000004    ....    BEQ      0x9988 ; spiIoctl + 184
        0x00009974:    e5900000    ....    LDR      r0,[r0,#0]
        0x00009978:    e5901000    ....    LDR      r1,[r0,#0]
        0x0000997c:    e3c11802    ....    BIC      r1,r1,#0x20000
        0x00009980:    e5801000    ....    STR      r1,[r0,#0]
        0x00009984:    ea0000ab    ....    B        0x9c38 ; spiIoctl + 872
        0x00009988:    e5900000    ....    LDR      r0,[r0,#0]
        0x0000998c:    e5901000    ....    LDR      r1,[r0,#0]
        0x00009990:    e3811802    ....    ORR      r1,r1,#0x20000
        0x00009994:    e5801000    ....    STR      r1,[r0,#0]
        0x00009998:    ea0000a6    ....    B        0x9c38 ; spiIoctl + 872
        0x0000999c:    eb0000fa    ....    BL       spiSetSpeed ; 0x9d8c
        0x000099a0:    ea0000a4    ....    B        0x9c38 ; spiIoctl + 872
        0x000099a4:    e3510000    ..Q.    CMP      r1,#0
        0x000099a8:    0a000007    ....    BEQ      0x99cc ; spiIoctl + 252
        0x000099ac:    e3510001    ..Q.    CMP      r1,#1
        0x000099b0:    0a00000a    ....    BEQ      0x99e0 ; spiIoctl + 272
        0x000099b4:    e5900000    ....    LDR      r0,[r0,#0]
        0x000099b8:    e5901000    ....    LDR      r1,[r0,#0]
        0x000099bc:    e3c11606    ....    BIC      r1,r1,#0x600000
        0x000099c0:    e3811602    ....    ORR      r1,r1,#0x200000
        0x000099c4:    e5801000    ....    STR      r1,[r0,#0]
        0x000099c8:    ea00009a    ....    B        0x9c38 ; spiIoctl + 872
        0x000099cc:    e5900000    ....    LDR      r0,[r0,#0]
        0x000099d0:    e5901000    ....    LDR      r1,[r0,#0]
        0x000099d4:    e3c11606    ....    BIC      r1,r1,#0x600000
        0x000099d8:    e5801000    ....    STR      r1,[r0,#0]
        0x000099dc:    ea000095    ....    B        0x9c38 ; spiIoctl + 872
        0x000099e0:    e5900000    ....    LDR      r0,[r0,#0]
        0x000099e4:    e5901000    ....    LDR      r1,[r0,#0]
        0x000099e8:    e3c11606    ....    BIC      r1,r1,#0x600000
        0x000099ec:    e3811501    ....    ORR      r1,r1,#0x400000
        0x000099f0:    e5801000    ....    STR      r1,[r0,#0]
        0x000099f4:    ea00008f    ....    B        0x9c38 ; spiIoctl + 872
        0x000099f8:    e3510000    ..Q.    CMP      r1,#0
        0x000099fc:    0a000004    ....    BEQ      0x9a14 ; spiIoctl + 324
        0x00009a00:    e5900000    ....    LDR      r0,[r0,#0]
        0x00009a04:    e5901000    ....    LDR      r1,[r0,#0]
        0x00009a08:    e3811601    ....    ORR      r1,r1,#0x100000
        0x00009a0c:    e5801000    ....    STR      r1,[r0,#0]
        0x00009a10:    ea000088    ....    B        0x9c38 ; spiIoctl + 872
        0x00009a14:    e5900000    ....    LDR      r0,[r0,#0]
        0x00009a18:    e5901000    ....    LDR      r1,[r0,#0]
        0x00009a1c:    e3c11601    ....    BIC      r1,r1,#0x100000
        0x00009a20:    e5801000    ....    STR      r1,[r0,#0]
        0x00009a24:    ea000083    ....    B        0x9c38 ; spiIoctl + 872
        0x00009a28:    e3510000    ..Q.    CMP      r1,#0
        0x00009a2c:    0a000004    ....    BEQ      0x9a44 ; spiIoctl + 372
        0x00009a30:    e5900000    ....    LDR      r0,[r0,#0]
        0x00009a34:    e5901000    ....    LDR      r1,[r0,#0]
        0x00009a38:    e3811b01    ....    ORR      r1,r1,#0x400
        0x00009a3c:    e5801000    ....    STR      r1,[r0,#0]
        0x00009a40:    ea00007c    |...    B        0x9c38 ; spiIoctl + 872
        0x00009a44:    e5900000    ....    LDR      r0,[r0,#0]
        0x00009a48:    e5901000    ....    LDR      r1,[r0,#0]
        0x00009a4c:    e3c11b01    ....    BIC      r1,r1,#0x400
        0x00009a50:    e5801000    ....    STR      r1,[r0,#0]
        0x00009a54:    ea000077    w...    B        0x9c38 ; spiIoctl + 872
        0x00009a58:    e3510004    ..Q.    CMP      r1,#4
        0x00009a5c:    2a000005    ...*    BCS      0x9a78 ; spiIoctl + 424
        0x00009a60:    e5900000    ....    LDR      r0,[r0,#0]
        0x00009a64:    e5902000    . ..    LDR      r2,[r0,#0]
        0x00009a68:    e3c22c03    .,..    BIC      r2,r2,#0x300
        0x00009a6c:    e1821401    ....    ORR      r1,r2,r1,LSL #8
        0x00009a70:    e5801000    ....    STR      r1,[r0,#0]
        0x00009a74:    ea00006f    o...    B        0x9c38 ; spiIoctl + 872
        0x00009a78:    e3e00003    ....    MVN      r0,#3
        0x00009a7c:    e8bd8010    ....    POP      {r4,pc}
        0x00009a80:    e3510020     .Q.    CMP      r1,#0x20
        0x00009a84:    2a000005    ...*    BCS      0x9aa0 ; spiIoctl + 464
        0x00009a88:    e5900000    ....    LDR      r0,[r0,#0]
        0x00009a8c:    e5902000    . ..    LDR      r2,[r0,#0]
        0x00009a90:    e3c220f8    . ..    BIC      r2,r2,#0xf8
        0x00009a94:    e1821181    ....    ORR      r1,r2,r1,LSL #3
        0x00009a98:    e5801000    ....    STR      r1,[r0,#0]
        0x00009a9c:    ea000065    e...    B        0x9c38 ; spiIoctl + 872
        0x00009aa0:    e3e00003    ....    MVN      r0,#3
        0x00009aa4:    e8bd8010    ....    POP      {r4,pc}
        0x00009aa8:    e3510003    ..Q.    CMP      r1,#3
        0x00009aac:    9a000001    ....    BLS      0x9ab8 ; spiIoctl + 488
        0x00009ab0:    e3e00003    ....    MVN      r0,#3
        0x00009ab4:    e8bd8010    ....    POP      {r4,pc}
        0x00009ab8:    e3510000    ..Q.    CMP      r1,#0
        0x00009abc:    0a000009    ....    BEQ      0x9ae8 ; spiIoctl + 536
        0x00009ac0:    e3510001    ..Q.    CMP      r1,#1
        0x00009ac4:    0a00000d    ....    BEQ      0x9b00 ; spiIoctl + 560
        0x00009ac8:    e3510002    ..Q.    CMP      r1,#2
        0x00009acc:    0a000011    ....    BEQ      0x9b18 ; spiIoctl + 584
        0x00009ad0:    e5900000    ....    LDR      r0,[r0,#0]
        0x00009ad4:    e5901000    ....    LDR      r1,[r0,#0]
        0x00009ad8:    e3c1111a    ....    BIC      r1,r1,#0x80000006
        0x00009adc:    e381110a    ....    ORR      r1,r1,#0x80000002
        0x00009ae0:    e5801000    ....    STR      r1,[r0,#0]
        0x00009ae4:    ea000053    S...    B        0x9c38 ; spiIoctl + 872
        0x00009ae8:    e5900000    ....    LDR      r0,[r0,#0]
        0x00009aec:    e5901000    ....    LDR      r1,[r0,#0]
        0x00009af0:    e3c1111a    ....    BIC      r1,r1,#0x80000006
        0x00009af4:    e3811004    ....    ORR      r1,r1,#4
        0x00009af8:    e5801000    ....    STR      r1,[r0,#0]
        0x00009afc:    ea00004d    M...    B        0x9c38 ; spiIoctl + 872
        0x00009b00:    e5900000    ....    LDR      r0,[r0,#0]
        0x00009b04:    e5901000    ....    LDR      r1,[r0,#0]
        0x00009b08:    e3c1111a    ....    BIC      r1,r1,#0x80000006
        0x00009b0c:    e3811002    ....    ORR      r1,r1,#2
        0x00009b10:    e5801000    ....    STR      r1,[r0,#0]
        0x00009b14:    ea000047    G...    B        0x9c38 ; spiIoctl + 872
        0x00009b18:    e5900000    ....    LDR      r0,[r0,#0]
        0x00009b1c:    e5901000    ....    LDR      r1,[r0,#0]
        0x00009b20:    e3c1111a    ....    BIC      r1,r1,#0x80000006
        0x00009b24:    e3811112    ....    ORR      r1,r1,#0x80000004
        0x00009b28:    e5801000    ....    STR      r1,[r0,#0]
        0x00009b2c:    ea000041    A...    B        0x9c38 ; spiIoctl + 872
        0x00009b30:    e3510000    ..Q.    CMP      r1,#0
        0x00009b34:    0a000005    ....    BEQ      0x9b50 ; spiIoctl + 640
        0x00009b38:    e3510001    ..Q.    CMP      r1,#1
        0x00009b3c:    0a000009    ....    BEQ      0x9b68 ; spiIoctl + 664
        0x00009b40:    e3510002    ..Q.    CMP      r1,#2
        0x00009b44:    0a00000d    ....    BEQ      0x9b80 ; spiIoctl + 688
        0x00009b48:    e3e00003    ....    MVN      r0,#3
        0x00009b4c:    e8bd8010    ....    POP      {r4,pc}
        0x00009b50:    e5900000    ....    LDR      r0,[r0,#0]
        0x00009b54:    e5901008    ....    LDR      r1,[r0,#8]
        0x00009b58:    e3c11003    ....    BIC      r1,r1,#3
        0x00009b5c:    e3811001    ....    ORR      r1,r1,#1
        0x00009b60:    e5801008    ....    STR      r1,[r0,#8]
        0x00009b64:    ea000033    3...    B        0x9c38 ; spiIoctl + 872
        0x00009b68:    e5900000    ....    LDR      r0,[r0,#0]
        0x00009b6c:    e5901008    ....    LDR      r1,[r0,#8]
        0x00009b70:    e3c11003    ....    BIC      r1,r1,#3
        0x00009b74:    e3811002    ....    ORR      r1,r1,#2
        0x00009b78:    e5801008    ....    STR      r1,[r0,#8]
        0x00009b7c:    ea00002d    -...    B        0x9c38 ; spiIoctl + 872
        0x00009b80:    e5900000    ....    LDR      r0,[r0,#0]
        0x00009b84:    e5901008    ....    LDR      r1,[r0,#8]
        0x00009b88:    e3811003    ....    ORR      r1,r1,#3
        0x00009b8c:    e5801008    ....    STR      r1,[r0,#8]
        0x00009b90:    ea000028    (...    B        0x9c38 ; spiIoctl + 872
        0x00009b94:    e3510000    ..Q.    CMP      r1,#0
        0x00009b98:    0a000005    ....    BEQ      0x9bb4 ; spiIoctl + 740
        0x00009b9c:    e3510001    ..Q.    CMP      r1,#1
        0x00009ba0:    0a000008    ....    BEQ      0x9bc8 ; spiIoctl + 760
        0x00009ba4:    e3510002    ..Q.    CMP      r1,#2
        0x00009ba8:    0a00000b    ....    BEQ      0x9bdc ; spiIoctl + 780
        0x00009bac:    e3e00003    ....    MVN      r0,#3
        0x00009bb0:    e8bd8010    ....    POP      {r4,pc}
        0x00009bb4:    e5900000    ....    LDR      r0,[r0,#0]
        0x00009bb8:    e5901008    ....    LDR      r1,[r0,#8]
        0x00009bbc:    e3c11001    ....    BIC      r1,r1,#1
        0x00009bc0:    e5801008    ....    STR      r1,[r0,#8]
        0x00009bc4:    ea00001b    ....    B        0x9c38 ; spiIoctl + 872
        0x00009bc8:    e5900000    ....    LDR      r0,[r0,#0]
        0x00009bcc:    e5901008    ....    LDR      r1,[r0,#8]
        0x00009bd0:    e3c11002    ....    BIC      r1,r1,#2
        0x00009bd4:    e5801008    ....    STR      r1,[r0,#8]
        0x00009bd8:    ea000016    ....    B        0x9c38 ; spiIoctl + 872
        0x00009bdc:    e5900000    ....    LDR      r0,[r0,#0]
        0x00009be0:    e5901008    ....    LDR      r1,[r0,#8]
        0x00009be4:    e3c11003    ....    BIC      r1,r1,#3
        0x00009be8:    e5801008    ....    STR      r1,[r0,#8]
        0x00009bec:    ea000011    ....    B        0x9c38 ; spiIoctl + 872
        0x00009bf0:    e3510000    ..Q.    CMP      r1,#0
        0x00009bf4:    0a000004    ....    BEQ      0x9c0c ; spiIoctl + 828
        0x00009bf8:    e5900000    ....    LDR      r0,[r0,#0]
        0x00009bfc:    e5901008    ....    LDR      r1,[r0,#8]
        0x00009c00:    e3811008    ....    ORR      r1,r1,#8
        0x00009c04:    e5801008    ....    STR      r1,[r0,#8]
        0x00009c08:    ea00000a    ....    B        0x9c38 ; spiIoctl + 872
        0x00009c0c:    e5900000    ....    LDR      r0,[r0,#0]
        0x00009c10:    e5901008    ....    LDR      r1,[r0,#8]
        0x00009c14:    e3c11008    ....    BIC      r1,r1,#8
        0x00009c18:    e5801008    ....    STR      r1,[r0,#8]
        0x00009c1c:    ea000005    ....    B        0x9c38 ; spiIoctl + 872
        0x00009c20:    e3510000    ..Q.    CMP      r1,#0
        0x00009c24:    0a000005    ....    BEQ      0x9c40 ; spiIoctl + 880
        0x00009c28:    e5900000    ....    LDR      r0,[r0,#0]
        0x00009c2c:    e5901008    ....    LDR      r1,[r0,#8]
        0x00009c30:    e3811004    ....    ORR      r1,r1,#4
        0x00009c34:    e5801008    ....    STR      r1,[r0,#8]
        0x00009c38:    e3a00000    ....    MOV      r0,#0
        0x00009c3c:    e8bd8010    ....    POP      {r4,pc}
        0x00009c40:    e5900000    ....    LDR      r0,[r0,#0]
        0x00009c44:    e5901008    ....    LDR      r1,[r0,#8]
        0x00009c48:    e3c11004    ....    BIC      r1,r1,#4
        0x00009c4c:    e5801008    ....    STR      r1,[r0,#8]
        0x00009c50:    eafffff8    ....    B        0x9c38 ; spiIoctl + 872
    $d
        0x00009c54:    000682f0    ....    DCD    426736
    $a
    i.spiOpen
    spiOpen
        0x00009c58:    e92d4030    0@-.    PUSH     {r4,r5,lr}
        0x00009c5c:    e3500002    ..P.    CMP      r0,#2
        0x00009c60:    3a000001    ...:    BCC      0x9c6c ; spiOpen + 20
        0x00009c64:    e3e00000    ....    MVN      r0,#0
        0x00009c68:    e8bd8030    0...    POP      {r4,r5,pc}
        0x00009c6c:    e59f10f0    ....    LDR      r1,[pc,#240] ; [0x9d64] = 0x682f0
        0x00009c70:    e0811180    ....    ADD      r1,r1,r0,LSL #3
        0x00009c74:    e5d12004    . ..    LDRB     r2,[r1,#4]
        0x00009c78:    e3520000    ..R.    CMP      r2,#0
        0x00009c7c:    0a000001    ....    BEQ      0x9c88 ; spiOpen + 48
        0x00009c80:    e3e00001    ....    MVN      r0,#1
        0x00009c84:    e8bd8030    0...    POP      {r4,r5,pc}
        0x00009c88:    e3500000    ..P.    CMP      r0,#0
        0x00009c8c:    e3a0220b    ."..    MOV      r2,#0xb0000000
        0x00009c90:    0a00001e    ....    BEQ      0x9d10 ; spiOpen + 184
        0x00009c94:    e592321c    .2..    LDR      r3,[r2,#0x21c]
        0x00009c98:    e3833020     0..    ORR      r3,r3,#0x20
        0x00009c9c:    e582321c    .2..    STR      r3,[r2,#0x21c]
        0x00009ca0:    e3a03059    Y0..    MOV      r3,#0x59
        0x00009ca4:    e3a0c016    ....    MOV      r12,#0x16
        0x00009ca8:    e3a04088    .@..    MOV      r4,#0x88
        0x00009cac:    e58231fc    .1..    STR      r3,[r2,#0x1fc]
        0x00009cb0:    e582c1fc    ....    STR      r12,[r2,#0x1fc]
        0x00009cb4:    e58241fc    .A..    STR      r4,[r2,#0x1fc]
        0x00009cb8:    e59251fc    .Q..    LDR      r5,[r2,#0x1fc]
        0x00009cbc:    e3550001    ..U.    CMP      r5,#1
        0x00009cc0:    1afffff9    ....    BNE      0x9cac ; spiOpen + 84
        0x00009cc4:    e3500000    ..P.    CMP      r0,#0
        0x00009cc8:    0a000014    ....    BEQ      0x9d20 ; spiOpen + 200
        0x00009ccc:    e5923068    h0..    LDR      r3,[r2,#0x68]
        0x00009cd0:    e3833020     0..    ORR      r3,r3,#0x20
        0x00009cd4:    e5823068    h0..    STR      r3,[r2,#0x68]
        0x00009cd8:    e5923068    h0..    LDR      r3,[r2,#0x68]
        0x00009cdc:    e3c33020     0..    BIC      r3,r3,#0x20
        0x00009ce0:    e5823068    h0..    STR      r3,[r2,#0x68]
        0x00009ce4:    e5923068    h0..    LDR      r3,[r2,#0x68]
        0x00009ce8:    e3130020     ...    TST      r3,#0x20
        0x00009cec:    1afffffc    ....    BNE      0x9ce4 ; spiOpen + 140
        0x00009cf0:    e3a03000    .0..    MOV      r3,#0
        0x00009cf4:    e58231fc    .1..    STR      r3,[r2,#0x1fc]
        0x00009cf8:    e5813000    .0..    STR      r3,[r1,#0]
        0x00009cfc:    e5813004    .0..    STR      r3,[r1,#4]
        0x00009d00:    e3500000    ..P.    CMP      r0,#0
        0x00009d04:    0a00000f    ....    BEQ      0x9d48 ; spiOpen + 240
        0x00009d08:    e59f0058    X...    LDR      r0,[pc,#88] ; [0x9d68] = 0xb8006300
        0x00009d0c:    ea00000e    ....    B        0x9d4c ; spiOpen + 244
        0x00009d10:    e592321c    .2..    LDR      r3,[r2,#0x21c]
        0x00009d14:    e3833010    .0..    ORR      r3,r3,#0x10
        0x00009d18:    e582321c    .2..    STR      r3,[r2,#0x21c]
        0x00009d1c:    eaffffdf    ....    B        0x9ca0 ; spiOpen + 72
        0x00009d20:    e5923068    h0..    LDR      r3,[r2,#0x68]
        0x00009d24:    e3833010    .0..    ORR      r3,r3,#0x10
        0x00009d28:    e5823068    h0..    STR      r3,[r2,#0x68]
        0x00009d2c:    e5923068    h0..    LDR      r3,[r2,#0x68]
        0x00009d30:    e3c33010    .0..    BIC      r3,r3,#0x10
        0x00009d34:    e5823068    h0..    STR      r3,[r2,#0x68]
        0x00009d38:    e5923068    h0..    LDR      r3,[r2,#0x68]
        0x00009d3c:    e3130010    ....    TST      r3,#0x10
        0x00009d40:    1afffffc    ....    BNE      0x9d38 ; spiOpen + 224
        0x00009d44:    eaffffe9    ....    B        0x9cf0 ; spiOpen + 152
        0x00009d48:    e59f001c    ....    LDR      r0,[pc,#28] ; [0x9d6c] = 0xb8006200
        0x00009d4c:    e5810000    ....    STR      r0,[r1,#0]
        0x00009d50:    e3a00001    ....    MOV      r0,#1
        0x00009d54:    e5c10004    ....    STRB     r0,[r1,#4]
        0x00009d58:    e5c13005    .0..    STRB     r3,[r1,#5]
        0x00009d5c:    e3a00000    ....    MOV      r0,#0
        0x00009d60:    e8bd8030    0...    POP      {r4,r5,pc}
    $d
        0x00009d64:    000682f0    ....    DCD    426736
        0x00009d68:    b8006300    .c..    DCD    3087033088
        0x00009d6c:    b8006200    .b..    DCD    3087032832
    $a
    i.spiRead
    spiRead
        0x00009d70:    e59f2010    . ..    LDR      r2,[pc,#16] ; [0x9d88] = 0x682f0
        0x00009d74:    e0820180    ....    ADD      r0,r2,r0,LSL #3
        0x00009d78:    e5900000    ....    LDR      r0,[r0,#0]
        0x00009d7c:    e0800101    ....    ADD      r0,r0,r1,LSL #2
        0x00009d80:    e5900010    ....    LDR      r0,[r0,#0x10]
        0x00009d84:    e12fff1e    ../.    BX       lr
    $d
        0x00009d88:    000682f0    ....    DCD    426736
    $a
    i.spiSetSpeed
    spiSetSpeed
        0x00009d8c:    e92d4070    p@-.    PUSH     {r4-r6,lr}
        0x00009d90:    e1a04000    .@..    MOV      r4,r0
        0x00009d94:    e59f5030    0P..    LDR      r5,[pc,#48] ; [0x9dcc] = 0x47868c0
        0x00009d98:    e1a01081    ....    LSL      r1,r1,#1
        0x00009d9c:    e1a00005    ....    MOV      r0,r5
        0x00009da0:    ebffdf4e    N...    BL       __aeabi_uidiv ; 0x1ae0
        0x00009da4:    e2400001    ..@.    SUB      r0,r0,#1
        0x00009da8:    e1a01800    ....    LSL      r1,r0,#16
        0x00009dac:    e1a01821    !...    LSR      r1,r1,#16
        0x00009db0:    e5940000    ....    LDR      r0,[r4,#0]
        0x00009db4:    e5801004    ....    STR      r1,[r0,#4]
        0x00009db8:    e2810001    ....    ADD      r0,r1,#1
        0x00009dbc:    e1a01080    ....    LSL      r1,r0,#1
        0x00009dc0:    e1a00005    ....    MOV      r0,r5
        0x00009dc4:    ebffdf45    E...    BL       __aeabi_uidiv ; 0x1ae0
        0x00009dc8:    e8bd8070    p...    POP      {r4-r6,pc}
    $d
        0x00009dcc:    047868c0    .hx.    DCD    75000000
    $a
    i.spiWrite
    spiWrite
        0x00009dd0:    e59f3010    .0..    LDR      r3,[pc,#16] ; [0x9de8] = 0x682f0
        0x00009dd4:    e0830180    ....    ADD      r0,r3,r0,LSL #3
        0x00009dd8:    e5900000    ....    LDR      r0,[r0,#0]
        0x00009ddc:    e0800101    ....    ADD      r0,r0,r1,LSL #2
        0x00009de0:    e5802010    . ..    STR      r2,[r0,#0x10]
        0x00009de4:    e12fff1e    ../.    BX       lr
    $d
        0x00009de8:    000682f0    ....    DCD    426736
    $a
    i.sysDisableCache
    sysDisableCache
        0x00009dec:    e92d4010    .@-.    PUSH     {r4,lr}
        0x00009df0:    ebffe14b    K...    BL       sys_flush_and_clean_dcache ; 0x2324
        0x00009df4:    e3a00000    ....    MOV      r0,#0
        0x00009df8:    ee070f15    ....    MCR      p15,#0x0,r0,c7,c5,#0
        0x00009dfc:    ee070f16    ....    MCR      p15,#0x0,r0,c7,c6,#0
        0x00009e00:    ee070f9a    ....    MCR      p15,#0x0,r0,c7,c10,#4
        0x00009e04:    ee110f10    ....    MRC      p15,#0x0,r0,c1,c0,#0
        0x00009e08:    e3c00001    ....    BIC      r0,r0,#1
        0x00009e0c:    ee010f10    ....    MCR      p15,#0x0,r0,c1,c0,#0
        0x00009e10:    e59f0010    ....    LDR      r0,[pc,#16] ; [0x9e28] = 0xd8a0
        0x00009e14:    e3a01000    ....    MOV      r1,#0
        0x00009e18:    e5c01000    ....    STRB     r1,[r0,#0]
        0x00009e1c:    e3e01000    ....    MVN      r1,#0
        0x00009e20:    e5801008    ....    STR      r1,[r0,#8]
        0x00009e24:    e8bd8010    ....    POP      {r4,pc}
    $d
        0x00009e28:    0000d8a0    ....    DCD    55456
    $a
    i.sysDisableInterrupt
    sysDisableInterrupt
        0x00009e2c:    e2401001    ..@.    SUB      r1,r0,#1
        0x00009e30:    e351003e    >.Q.    CMP      r1,#0x3e
        0x00009e34:    3a000001    ...:    BCC      0x9e40 ; sysDisableInterrupt + 20
        0x00009e38:    e3a00001    ....    MOV      r0,#1
        0x00009e3c:    e12fff1e    ../.    BX       lr
        0x00009e40:    e59f1028    (...    LDR      r1,[pc,#40] ; [0x9e70] = 0xb8002000
        0x00009e44:    e3500020     .P.    CMP      r0,#0x20
        0x00009e48:    e3a02001    . ..    MOV      r2,#1
        0x00009e4c:    2a000002    ...*    BCS      0x9e5c ; sysDisableInterrupt + 48
        0x00009e50:    e1a00012    ....    LSL      r0,r2,r0
        0x00009e54:    e5810138    8...    STR      r0,[r1,#0x138]
        0x00009e58:    ea000002    ....    B        0x9e68 ; sysDisableInterrupt + 60
        0x00009e5c:    e2400020     .@.    SUB      r0,r0,#0x20
        0x00009e60:    e1a00012    ....    LSL      r0,r2,r0
        0x00009e64:    e581013c    <...    STR      r0,[r1,#0x13c]
        0x00009e68:    e3a00000    ....    MOV      r0,#0
        0x00009e6c:    e12fff1e    ../.    BX       lr
    $d
        0x00009e70:    b8002000    . ..    DCD    3087015936
    $a
    i.sysEnableCache
    sysEnableCache
        0x00009e74:    e92d4010    .@-.    PUSH     {r4,lr}
        0x00009e78:    e1a04000    .@..    MOV      r4,r0
        0x00009e7c:    e1a00004    ....    MOV      r0,r4
        0x00009e80:    eb00014f    O...    BL       sysInitMMUTable ; 0xa3c4
        0x00009e84:    e59f1010    ....    LDR      r1,[pc,#16] ; [0x9e9c] = 0xd8a0
        0x00009e88:    e3a02001    . ..    MOV      r2,#1
        0x00009e8c:    e5c12000    . ..    STRB     r2,[r1,#0]
        0x00009e90:    e5814008    .@..    STR      r4,[r1,#8]
        0x00009e94:    e3a00000    ....    MOV      r0,#0
        0x00009e98:    e8bd8010    ....    POP      {r4,pc}
    $d
        0x00009e9c:    0000d8a0    ....    DCD    55456
    $a
    i.sysEnableInterrupt
    sysEnableInterrupt
        0x00009ea0:    e2401001    ..@.    SUB      r1,r0,#1
        0x00009ea4:    e351003e    >.Q.    CMP      r1,#0x3e
        0x00009ea8:    3a000001    ...:    BCC      0x9eb4 ; sysEnableInterrupt + 20
        0x00009eac:    e3a00001    ....    MOV      r0,#1
        0x00009eb0:    e12fff1e    ../.    BX       lr
        0x00009eb4:    e59f1028    (...    LDR      r1,[pc,#40] ; [0x9ee4] = 0xb8002000
        0x00009eb8:    e3500020     .P.    CMP      r0,#0x20
        0x00009ebc:    e3a02001    . ..    MOV      r2,#1
        0x00009ec0:    2a000002    ...*    BCS      0x9ed0 ; sysEnableInterrupt + 48
        0x00009ec4:    e1a00012    ....    LSL      r0,r2,r0
        0x00009ec8:    e5810130    0...    STR      r0,[r1,#0x130]
        0x00009ecc:    ea000002    ....    B        0x9edc ; sysEnableInterrupt + 60
        0x00009ed0:    e2400020     .@.    SUB      r0,r0,#0x20
        0x00009ed4:    e1a00012    ....    LSL      r0,r2,r0
        0x00009ed8:    e5810134    4...    STR      r0,[r1,#0x134]
        0x00009edc:    e3a00000    ....    MOV      r0,#0
        0x00009ee0:    e12fff1e    ../.    BX       lr
    $d
        0x00009ee4:    b8002000    . ..    DCD    3087015936
    $a
    i.sysFiqHandler
    sysFiqHandler
        0x00009ee8:    e92d501f    .P-.    PUSH     {r0-r4,r12,lr}
        0x00009eec:    e24dd00c    ..M.    SUB      sp,sp,#0xc
        0x00009ef0:    e59f4050    P@..    LDR      r4,[pc,#80] ; [0x9f48] = 0xb8002000
        0x00009ef4:    e5940118    ....    LDR      r0,[r4,#0x118]
        0x00009ef8:    e1a00c00    ....    LSL      r0,r0,#24
        0x00009efc:    e1a00d20     ...    LSR      r0,r0,#26
        0x00009f00:    e58d0008    ....    STR      r0,[sp,#8]
        0x00009f04:    e5940120     ...    LDR      r0,[r4,#0x120]
        0x00009f08:    e58d0004    ....    STR      r0,[sp,#4]
        0x00009f0c:    e59d0008    ....    LDR      r0,[sp,#8]
        0x00009f10:    e3500000    ..P.    CMP      r0,#0
        0x00009f14:    0a000008    ....    BEQ      0x9f3c ; sysFiqHandler + 84
        0x00009f18:    e59d0004    ....    LDR      r0,[sp,#4]
        0x00009f1c:    e3500000    ..P.    CMP      r0,#0
        0x00009f20:    0a000003    ....    BEQ      0x9f34 ; sysFiqHandler + 76
        0x00009f24:    e59f0020     ...    LDR      r0,[pc,#32] ; [0x9f4c] = 0xd744
        0x00009f28:    e59d1008    ....    LDR      r1,[sp,#8]
        0x00009f2c:    e7900101    ....    LDR      r0,[r0,r1,LSL #2]
        0x00009f30:    e12fff30    0./.    BLX      r0
        0x00009f34:    e3a00001    ....    MOV      r0,#1
        0x00009f38:    e5840150    P...    STR      r0,[r4,#0x150]
        0x00009f3c:    e28dd00c    ....    ADD      sp,sp,#0xc
        0x00009f40:    e8bd501f    .P..    POP      {r0-r4,r12,lr}
        0x00009f44:    e25ef004    ..^.    SUBS     pc,lr,#4
    $d
        0x00009f48:    b8002000    . ..    DCD    3087015936
        0x00009f4c:    0000d744    D...    DCD    55108
    $a
    i.sysFlushCache
    sysFlushCache
        0x00009f50:    e92d4010    .@-.    PUSH     {r4,lr}
        0x00009f54:    e3500006    ..P.    CMP      r0,#6
        0x00009f58:    0a000008    ....    BEQ      0x9f80 ; sysFlushCache + 48
        0x00009f5c:    e3500007    ..P.    CMP      r0,#7
        0x00009f60:    0a000009    ....    BEQ      0x9f8c ; sysFlushCache + 60
        0x00009f64:    e3500008    ..P.    CMP      r0,#8
        0x00009f68:    1a000003    ....    BNE      0x9f7c ; sysFlushCache + 44
        0x00009f6c:    ebffe0ec    ....    BL       sys_flush_and_clean_dcache ; 0x2324
        0x00009f70:    e3a00000    ....    MOV      r0,#0
        0x00009f74:    ee070f15    ....    MCR      p15,#0x0,r0,c7,c5,#0
        0x00009f78:    ee070f9a    ....    MCR      p15,#0x0,r0,c7,c10,#4
        0x00009f7c:    e8bd8010    ....    POP      {r4,pc}
        0x00009f80:    e3a00000    ....    MOV      r0,#0
        0x00009f84:    ee070f15    ....    MCR      p15,#0x0,r0,c7,c5,#0
        0x00009f88:    e8bd8010    ....    POP      {r4,pc}
        0x00009f8c:    ebffe0e4    ....    BL       sys_flush_and_clean_dcache ; 0x2324
        0x00009f90:    e3a00000    ....    MOV      r0,#0
        0x00009f94:    ee070f9a    ....    MCR      p15,#0x0,r0,c7,c10,#4
        0x00009f98:    e8bd8010    ....    POP      {r4,pc}
    i.sysGetCacheState
    sysGetCacheState
        0x00009f9c:    e59f0004    ....    LDR      r0,[pc,#4] ; [0x9fa8] = 0xd8a0
        0x00009fa0:    e5d00000    ....    LDRB     r0,[r0,#0]
        0x00009fa4:    e12fff1e    ../.    BX       lr
    $d
        0x00009fa8:    0000d8a0    ....    DCD    55456
    $a
    i.sysGetClock
    sysGetClock
        0x00009fac:    e92d4070    p@-.    PUSH     {r4-r6,lr}
        0x00009fb0:    e1a03000    .0..    MOV      r3,r0
        0x00009fb4:    e59f0258    X...    LDR      r0,[pc,#600] ; [0xa214] = 0xb0000264
        0x00009fb8:    e3530008    ..S.    CMP      r3,#8
        0x00009fbc:    e3a05001    .P..    MOV      r5,#1
        0x00009fc0:    e2402004    . @.    SUB      r2,r0,#4
        0x00009fc4:    e3a0120b    ....    MOV      r1,#0xb0000000
        0x00009fc8:    308ff103    ...0    ADDCC    pc,pc,r3,LSL #2
        0x00009fcc:    ea00008e    ....    B        0xa20c ; sysGetClock + 608
        0x00009fd0:    ea00008d    ....    B        0xa20c ; sysGetClock + 608
        0x00009fd4:    ea000005    ....    B        0x9ff0 ; sysGetClock + 68
        0x00009fd8:    ea000006    ....    B        0x9ff8 ; sysGetClock + 76
        0x00009fdc:    ea000008    ....    B        0xa004 ; sysGetClock + 88
        0x00009fe0:    ea00001e    ....    B        0xa060 ; sysGetClock + 180
        0x00009fe4:    ea000035    5...    B        0xa0c0 ; sysGetClock + 276
        0x00009fe8:    ea000050    P...    B        0xa130 ; sysGetClock + 388
        0x00009fec:    ea00006b    k...    B        0xa1a0 ; sysGetClock + 500
        0x00009ff0:    e8bd4070    p@..    POP      {r4-r6,lr}
        0x00009ff4:    ea000087    ....    B        sysGetPLL ; 0xa218
        0x00009ff8:    e8bd4070    p@..    POP      {r4-r6,lr}
        0x00009ffc:    e1a00002    ....    MOV      r0,r2
        0x0000a000:    ea000084    ....    B        sysGetPLL ; 0xa218
        0x0000a004:    e5914220     B..    LDR      r4,[r1,#0x220]
        0x0000a008:    e2141018    ....    ANDS     r1,r4,#0x18
        0x0000a00c:    0a000005    ....    BEQ      0xa028 ; sysGetClock + 124
        0x0000a010:    e3510010    ..Q.    CMP      r1,#0x10
        0x0000a014:    0a000005    ....    BEQ      0xa030 ; sysGetClock + 132
        0x0000a018:    e3510018    ..Q.    CMP      r1,#0x18
        0x0000a01c:    0a000006    ....    BEQ      0xa03c ; sysGetClock + 144
        0x0000a020:    e3a00000    ....    MOV      r0,#0
        0x0000a024:    e8bd8070    p...    POP      {r4-r6,pc}
        0x0000a028:    e3a0000c    ....    MOV      r0,#0xc
        0x0000a02c:    ea000003    ....    B        0xa040 ; sysGetClock + 148
        0x0000a030:    e1a00002    ....    MOV      r0,r2
        0x0000a034:    eb000077    w...    BL       sysGetPLL ; 0xa218
        0x0000a038:    ea000000    ....    B        0xa040 ; sysGetClock + 148
        0x0000a03c:    eb000075    u...    BL       sysGetPLL ; 0xa218
        0x0000a040:    e2041007    ....    AND      r1,r4,#7
        0x0000a044:    e2811001    ....    ADD      r1,r1,#1
        0x0000a048:    e2042c0f    .,..    AND      r2,r4,#0xf00
        0x0000a04c:    e0854422    "D..    ADD      r4,r5,r2,LSR #8
        0x0000a050:    ebffdea2    ....    BL       __aeabi_uidiv ; 0x1ae0
        0x0000a054:    e1a01004    ....    MOV      r1,r4
        0x0000a058:    ebffdea0    ....    BL       __aeabi_uidiv ; 0x1ae0
        0x0000a05c:    e8bd8070    p...    POP      {r4-r6,pc}
        0x0000a060:    e5914220     B..    LDR      r4,[r1,#0x220]
        0x0000a064:    e2141018    ....    ANDS     r1,r4,#0x18
        0x0000a068:    0a000005    ....    BEQ      0xa084 ; sysGetClock + 216
        0x0000a06c:    e3510010    ..Q.    CMP      r1,#0x10
        0x0000a070:    0a000005    ....    BEQ      0xa08c ; sysGetClock + 224
        0x0000a074:    e3510018    ..Q.    CMP      r1,#0x18
        0x0000a078:    0a000006    ....    BEQ      0xa098 ; sysGetClock + 236
        0x0000a07c:    e3a00000    ....    MOV      r0,#0
        0x0000a080:    e8bd8070    p...    POP      {r4-r6,pc}
        0x0000a084:    e3a0000c    ....    MOV      r0,#0xc
        0x0000a088:    ea000003    ....    B        0xa09c ; sysGetClock + 240
        0x0000a08c:    e1a00002    ....    MOV      r0,r2
        0x0000a090:    eb000060    `...    BL       sysGetPLL ; 0xa218
        0x0000a094:    ea000000    ....    B        0xa09c ; sysGetClock + 240
        0x0000a098:    eb00005e    ^...    BL       sysGetPLL ; 0xa218
        0x0000a09c:    e2041007    ....    AND      r1,r4,#7
        0x0000a0a0:    e2811001    ....    ADD      r1,r1,#1
        0x0000a0a4:    e2042c0f    .,..    AND      r2,r4,#0xf00
        0x0000a0a8:    e0854422    "D..    ADD      r4,r5,r2,LSR #8
        0x0000a0ac:    ebffde8b    ....    BL       __aeabi_uidiv ; 0x1ae0
        0x0000a0b0:    e1a01004    ....    MOV      r1,r4
        0x0000a0b4:    ebffde89    ....    BL       __aeabi_uidiv ; 0x1ae0
        0x0000a0b8:    e1a000a0    ....    LSR      r0,r0,#1
        0x0000a0bc:    e8bd8070    p...    POP      {r4-r6,pc}
        0x0000a0c0:    e5914220     B..    LDR      r4,[r1,#0x220]
        0x0000a0c4:    e2141018    ....    ANDS     r1,r4,#0x18
        0x0000a0c8:    0a000005    ....    BEQ      0xa0e4 ; sysGetClock + 312
        0x0000a0cc:    e3510010    ..Q.    CMP      r1,#0x10
        0x0000a0d0:    0a000005    ....    BEQ      0xa0ec ; sysGetClock + 320
        0x0000a0d4:    e3510018    ..Q.    CMP      r1,#0x18
        0x0000a0d8:    0a000006    ....    BEQ      0xa0f8 ; sysGetClock + 332
        0x0000a0dc:    e3a00000    ....    MOV      r0,#0
        0x0000a0e0:    e8bd8070    p...    POP      {r4-r6,pc}
        0x0000a0e4:    e3a0000c    ....    MOV      r0,#0xc
        0x0000a0e8:    ea000003    ....    B        0xa0fc ; sysGetClock + 336
        0x0000a0ec:    e1a00002    ....    MOV      r0,r2
        0x0000a0f0:    eb000048    H...    BL       sysGetPLL ; 0xa218
        0x0000a0f4:    ea000000    ....    B        0xa0fc ; sysGetClock + 336
        0x0000a0f8:    eb000046    F...    BL       sysGetPLL ; 0xa218
        0x0000a0fc:    e2041007    ....    AND      r1,r4,#7
        0x0000a100:    e2811001    ....    ADD      r1,r1,#1
        0x0000a104:    e2042c0f    .,..    AND      r2,r4,#0xf00
        0x0000a108:    e0856422    "d..    ADD      r6,r5,r2,LSR #8
        0x0000a10c:    e204260f    .&..    AND      r2,r4,#0xf00000
        0x0000a110:    e0854a22    "J..    ADD      r4,r5,r2,LSR #20
        0x0000a114:    ebffde71    q...    BL       __aeabi_uidiv ; 0x1ae0
        0x0000a118:    e1a01006    ....    MOV      r1,r6
        0x0000a11c:    ebffde6f    o...    BL       __aeabi_uidiv ; 0x1ae0
        0x0000a120:    e1a000a0    ....    LSR      r0,r0,#1
        0x0000a124:    e1a01004    ....    MOV      r1,r4
        0x0000a128:    ebffde6c    l...    BL       __aeabi_uidiv ; 0x1ae0
        0x0000a12c:    e8bd8070    p...    POP      {r4-r6,pc}
        0x0000a130:    e5914220     B..    LDR      r4,[r1,#0x220]
        0x0000a134:    e2141018    ....    ANDS     r1,r4,#0x18
        0x0000a138:    0a000005    ....    BEQ      0xa154 ; sysGetClock + 424
        0x0000a13c:    e3510010    ..Q.    CMP      r1,#0x10
        0x0000a140:    0a000005    ....    BEQ      0xa15c ; sysGetClock + 432
        0x0000a144:    e3510018    ..Q.    CMP      r1,#0x18
        0x0000a148:    0a000006    ....    BEQ      0xa168 ; sysGetClock + 444
        0x0000a14c:    e3a00000    ....    MOV      r0,#0
        0x0000a150:    e8bd8070    p...    POP      {r4-r6,pc}
        0x0000a154:    e3a0000c    ....    MOV      r0,#0xc
        0x0000a158:    ea000003    ....    B        0xa16c ; sysGetClock + 448
        0x0000a15c:    e1a00002    ....    MOV      r0,r2
        0x0000a160:    eb00002c    ,...    BL       sysGetPLL ; 0xa218
        0x0000a164:    ea000000    ....    B        0xa16c ; sysGetClock + 448
        0x0000a168:    eb00002a    *...    BL       sysGetPLL ; 0xa218
        0x0000a16c:    e2041007    ....    AND      r1,r4,#7
        0x0000a170:    e2811001    ....    ADD      r1,r1,#1
        0x0000a174:    e2042c0f    .,..    AND      r2,r4,#0xf00
        0x0000a178:    e0856422    "d..    ADD      r6,r5,r2,LSR #8
        0x0000a17c:    e204240f    .$..    AND      r2,r4,#0xf000000
        0x0000a180:    e0854c22    "L..    ADD      r4,r5,r2,LSR #24
        0x0000a184:    ebffde55    U...    BL       __aeabi_uidiv ; 0x1ae0
        0x0000a188:    e1a01006    ....    MOV      r1,r6
        0x0000a18c:    ebffde53    S...    BL       __aeabi_uidiv ; 0x1ae0
        0x0000a190:    e1a000a0    ....    LSR      r0,r0,#1
        0x0000a194:    e1a01004    ....    MOV      r1,r4
        0x0000a198:    ebffde50    P...    BL       __aeabi_uidiv ; 0x1ae0
        0x0000a19c:    e8bd8070    p...    POP      {r4-r6,pc}
        0x0000a1a0:    e5914220     B..    LDR      r4,[r1,#0x220]
        0x0000a1a4:    e2141018    ....    ANDS     r1,r4,#0x18
        0x0000a1a8:    0a000005    ....    BEQ      0xa1c4 ; sysGetClock + 536
        0x0000a1ac:    e3510010    ..Q.    CMP      r1,#0x10
        0x0000a1b0:    0a000005    ....    BEQ      0xa1cc ; sysGetClock + 544
        0x0000a1b4:    e3510018    ..Q.    CMP      r1,#0x18
        0x0000a1b8:    0a000006    ....    BEQ      0xa1d8 ; sysGetClock + 556
        0x0000a1bc:    e3a00000    ....    MOV      r0,#0
        0x0000a1c0:    e8bd8070    p...    POP      {r4-r6,pc}
        0x0000a1c4:    e3a0000c    ....    MOV      r0,#0xc
        0x0000a1c8:    ea000003    ....    B        0xa1dc ; sysGetClock + 560
        0x0000a1cc:    e1a00002    ....    MOV      r0,r2
        0x0000a1d0:    eb000010    ....    BL       sysGetPLL ; 0xa218
        0x0000a1d4:    ea000000    ....    B        0xa1dc ; sysGetClock + 560
        0x0000a1d8:    eb00000e    ....    BL       sysGetPLL ; 0xa218
        0x0000a1dc:    e2041007    ....    AND      r1,r4,#7
        0x0000a1e0:    e2811001    ....    ADD      r1,r1,#1
        0x0000a1e4:    e2042c0f    .,..    AND      r2,r4,#0xf00
        0x0000a1e8:    e0856422    "d..    ADD      r6,r5,r2,LSR #8
        0x0000a1ec:    e204280f    .(..    AND      r2,r4,#0xf0000
        0x0000a1f0:    e0854822    "H..    ADD      r4,r5,r2,LSR #16
        0x0000a1f4:    ebffde39    9...    BL       __aeabi_uidiv ; 0x1ae0
        0x0000a1f8:    e1a01006    ....    MOV      r1,r6
        0x0000a1fc:    ebffde37    7...    BL       __aeabi_uidiv ; 0x1ae0
        0x0000a200:    e1a01004    ....    MOV      r1,r4
        0x0000a204:    ebffde35    5...    BL       __aeabi_uidiv ; 0x1ae0
        0x0000a208:    e8bd8070    p...    POP      {r4-r6,pc}
        0x0000a20c:    e3a00000    ....    MOV      r0,#0
        0x0000a210:    e8bd8070    p...    POP      {r4-r6,pc}
    $d
        0x0000a214:    b0000264    d...    DCD    2952790628
    $a
    i.sysGetPLL
    sysGetPLL
        0x0000a218:    e92d4010    .@-.    PUSH     {r4,lr}
        0x0000a21c:    e5901000    ....    LDR      r1,[r0,#0]
        0x0000a220:    e201107f    ....    AND      r1,r1,#0x7f
        0x0000a224:    e2812001    . ..    ADD      r2,r1,#1
        0x0000a228:    e5901000    ....    LDR      r1,[r0,#0]
        0x0000a22c:    e3a03001    .0..    MOV      r3,#1
        0x0000a230:    e2011d7e    ~...    AND      r1,r1,#0x1f80
        0x0000a234:    e08313a1    ....    ADD      r1,r3,r1,LSR #7
        0x0000a238:    e5900000    ....    LDR      r0,[r0,#0]
        0x0000a23c:    e2000a0e    ....    AND      r0,r0,#0xe000
        0x0000a240:    e08306a0    ....    ADD      r0,r3,r0,LSR #13
        0x0000a244:    e1610081    ..a.    SMULBB   r1,r1,r0
        0x0000a248:    e0820082    ....    ADD      r0,r2,r2,LSL #1
        0x0000a24c:    e1a00100    ....    LSL      r0,r0,#2
        0x0000a250:    ebffde22    "...    BL       __aeabi_uidiv ; 0x1ae0
        0x0000a254:    e8bd8010    ....    POP      {r4,pc}
    i.sysGetSdramSizebyMB
    sysGetSdramSizebyMB
        0x0000a258:    e92d400c    .@-.    PUSH     {r2,r3,lr}
        0x0000a25c:    e3a00000    ....    MOV      r0,#0
        0x0000a260:    e58d0000    ....    STR      r0,[sp,#0]
        0x0000a264:    e59f0150    P...    LDR      r0,[pc,#336] ; [0xa3bc] = 0xb0001810
        0x0000a268:    e5900000    ....    LDR      r0,[r0,#0]
        0x0000a26c:    e2000007    ....    AND      r0,r0,#7
        0x0000a270:    e58d0004    ....    STR      r0,[sp,#4]
        0x0000a274:    e59d0004    ....    LDR      r0,[sp,#4]
        0x0000a278:    e3500008    ..P.    CMP      r0,#8
        0x0000a27c:    308ff100    ...0    ADDCC    pc,pc,r0,LSL #2
        0x0000a280:    ea00001b    ....    B        0xa2f4 ; sysGetSdramSizebyMB + 156
        0x0000a284:    ea00001a    ....    B        0xa2f4 ; sysGetSdramSizebyMB + 156
        0x0000a288:    ea000005    ....    B        0xa2a4 ; sysGetSdramSizebyMB + 76
        0x0000a28c:    ea000007    ....    B        0xa2b0 ; sysGetSdramSizebyMB + 88
        0x0000a290:    ea000009    ....    B        0xa2bc ; sysGetSdramSizebyMB + 100
        0x0000a294:    ea00000b    ....    B        0xa2c8 ; sysGetSdramSizebyMB + 112
        0x0000a298:    ea00000d    ....    B        0xa2d4 ; sysGetSdramSizebyMB + 124
        0x0000a29c:    ea00000f    ....    B        0xa2e0 ; sysGetSdramSizebyMB + 136
        0x0000a2a0:    ea000011    ....    B        0xa2ec ; sysGetSdramSizebyMB + 148
        0x0000a2a4:    e3a00002    ....    MOV      r0,#2
        0x0000a2a8:    e58d0000    ....    STR      r0,[sp,#0]
        0x0000a2ac:    ea000010    ....    B        0xa2f4 ; sysGetSdramSizebyMB + 156
        0x0000a2b0:    e3a00004    ....    MOV      r0,#4
        0x0000a2b4:    e58d0000    ....    STR      r0,[sp,#0]
        0x0000a2b8:    ea00000d    ....    B        0xa2f4 ; sysGetSdramSizebyMB + 156
        0x0000a2bc:    e3a00008    ....    MOV      r0,#8
        0x0000a2c0:    e58d0000    ....    STR      r0,[sp,#0]
        0x0000a2c4:    ea00000a    ....    B        0xa2f4 ; sysGetSdramSizebyMB + 156
        0x0000a2c8:    e3a00010    ....    MOV      r0,#0x10
        0x0000a2cc:    e58d0000    ....    STR      r0,[sp,#0]
        0x0000a2d0:    ea000007    ....    B        0xa2f4 ; sysGetSdramSizebyMB + 156
        0x0000a2d4:    e3a00020     ...    MOV      r0,#0x20
        0x0000a2d8:    e58d0000    ....    STR      r0,[sp,#0]
        0x0000a2dc:    ea000004    ....    B        0xa2f4 ; sysGetSdramSizebyMB + 156
        0x0000a2e0:    e3a00040    @...    MOV      r0,#0x40
        0x0000a2e4:    e58d0000    ....    STR      r0,[sp,#0]
        0x0000a2e8:    ea000001    ....    B        0xa2f4 ; sysGetSdramSizebyMB + 156
        0x0000a2ec:    e3a00080    ....    MOV      r0,#0x80
        0x0000a2f0:    e58d0000    ....    STR      r0,[sp,#0]
        0x0000a2f4:    e59f00c4    ....    LDR      r0,[pc,#196] ; [0xa3c0] = 0xb0001814
        0x0000a2f8:    e5900000    ....    LDR      r0,[r0,#0]
        0x0000a2fc:    e2000007    ....    AND      r0,r0,#7
        0x0000a300:    e58d0004    ....    STR      r0,[sp,#4]
        0x0000a304:    e59d0004    ....    LDR      r0,[sp,#4]
        0x0000a308:    e3500008    ..P.    CMP      r0,#8
        0x0000a30c:    308ff100    ...0    ADDCC    pc,pc,r0,LSL #2
        0x0000a310:    ea000022    "...    B        0xa3a0 ; sysGetSdramSizebyMB + 328
        0x0000a314:    ea000021    !...    B        0xa3a0 ; sysGetSdramSizebyMB + 328
        0x0000a318:    ea000005    ....    B        0xa334 ; sysGetSdramSizebyMB + 220
        0x0000a31c:    ea000008    ....    B        0xa344 ; sysGetSdramSizebyMB + 236
        0x0000a320:    ea00000b    ....    B        0xa354 ; sysGetSdramSizebyMB + 252
        0x0000a324:    ea00000e    ....    B        0xa364 ; sysGetSdramSizebyMB + 268
        0x0000a328:    ea000011    ....    B        0xa374 ; sysGetSdramSizebyMB + 284
        0x0000a32c:    ea000014    ....    B        0xa384 ; sysGetSdramSizebyMB + 300
        0x0000a330:    ea000017    ....    B        0xa394 ; sysGetSdramSizebyMB + 316
        0x0000a334:    e59d0000    ....    LDR      r0,[sp,#0]
        0x0000a338:    e2800002    ....    ADD      r0,r0,#2
        0x0000a33c:    e58d0000    ....    STR      r0,[sp,#0]
        0x0000a340:    ea000016    ....    B        0xa3a0 ; sysGetSdramSizebyMB + 328
        0x0000a344:    e59d0000    ....    LDR      r0,[sp,#0]
        0x0000a348:    e2800004    ....    ADD      r0,r0,#4
        0x0000a34c:    e58d0000    ....    STR      r0,[sp,#0]
        0x0000a350:    ea000012    ....    B        0xa3a0 ; sysGetSdramSizebyMB + 328
        0x0000a354:    e59d0000    ....    LDR      r0,[sp,#0]
        0x0000a358:    e2800008    ....    ADD      r0,r0,#8
        0x0000a35c:    e58d0000    ....    STR      r0,[sp,#0]
        0x0000a360:    ea00000e    ....    B        0xa3a0 ; sysGetSdramSizebyMB + 328
        0x0000a364:    e59d0000    ....    LDR      r0,[sp,#0]
        0x0000a368:    e2800010    ....    ADD      r0,r0,#0x10
        0x0000a36c:    e58d0000    ....    STR      r0,[sp,#0]
        0x0000a370:    ea00000a    ....    B        0xa3a0 ; sysGetSdramSizebyMB + 328
        0x0000a374:    e59d0000    ....    LDR      r0,[sp,#0]
        0x0000a378:    e2800020     ...    ADD      r0,r0,#0x20
        0x0000a37c:    e58d0000    ....    STR      r0,[sp,#0]
        0x0000a380:    ea000006    ....    B        0xa3a0 ; sysGetSdramSizebyMB + 328
        0x0000a384:    e59d0000    ....    LDR      r0,[sp,#0]
        0x0000a388:    e2800040    @...    ADD      r0,r0,#0x40
        0x0000a38c:    e58d0000    ....    STR      r0,[sp,#0]
        0x0000a390:    ea000002    ....    B        0xa3a0 ; sysGetSdramSizebyMB + 328
        0x0000a394:    e59d0000    ....    LDR      r0,[sp,#0]
        0x0000a398:    e2800080    ....    ADD      r0,r0,#0x80
        0x0000a39c:    e58d0000    ....    STR      r0,[sp,#0]
        0x0000a3a0:    e59d0000    ....    LDR      r0,[sp,#0]
        0x0000a3a4:    e3500000    ..P.    CMP      r0,#0
        0x0000a3a8:    0a000001    ....    BEQ      0xa3b4 ; sysGetSdramSizebyMB + 348
        0x0000a3ac:    e59d0000    ....    LDR      r0,[sp,#0]
        0x0000a3b0:    e8bd800c    ....    POP      {r2,r3,pc}
        0x0000a3b4:    e3a00001    ....    MOV      r0,#1
        0x0000a3b8:    e8bd800c    ....    POP      {r2,r3,pc}
    $d
        0x0000a3bc:    b0001810    ....    DCD    2952796176
        0x0000a3c0:    b0001814    ....    DCD    2952796180
    $a
    i.sysInitMMUTable
    sysInitMMUTable
        0x0000a3c4:    e92d4ff1    .O-.    PUSH     {r0,r4-r11,lr}
        0x0000a3c8:    e24dd008    ..M.    SUB      sp,sp,#8
        0x0000a3cc:    e59f9218    ....    LDR      r9,[pc,#536] ; [0xa5ec] = 0xd8a0
        0x0000a3d0:    e5d90001    ....    LDRB     r0,[r9,#1]
        0x0000a3d4:    e3500000    ..P.    CMP      r0,#0
        0x0000a3d8:    1a000078    x...    BNE      0xa5c0 ; sysInitMMUTable + 508
        0x0000a3dc:    ebffff9d    ....    BL       sysGetSdramSizebyMB ; 0xa258
        0x0000a3e0:    e59f1208    ....    LDR      r1,[pc,#520] ; [0xa5f0] = 0xdf2
        0x0000a3e4:    e58d1004    ....    STR      r1,[sp,#4]
        0x0000a3e8:    e3a01000    ....    MOV      r1,#0
        0x0000a3ec:    e59f6200    .b..    LDR      r6,[pc,#512] ; [0xa5f4] = 0x24000
        0x0000a3f0:    e59d2004    . ..    LDR      r2,[sp,#4]
        0x0000a3f4:    e1822a01    .*..    ORR      r2,r2,r1,LSL #20
        0x0000a3f8:    e7862101    .!..    STR      r2,[r6,r1,LSL #2]
        0x0000a3fc:    e2811001    ....    ADD      r1,r1,#1
        0x0000a400:    e3510a01    ..Q.    CMP      r1,#0x1000
        0x0000a404:    bafffff9    ....    BLT      0xa3f0 ; sysInitMMUTable + 44
        0x0000a408:    e3500080    ..P.    CMP      r0,#0x80
        0x0000a40c:    da000001    ....    BLE      0xa418 ; sysInitMMUTable + 84
        0x0000a410:    e3a05080    .P..    MOV      r5,#0x80
        0x0000a414:    ea000000    ....    B        0xa41c ; sysInitMMUTable + 88
        0x0000a418:    e1a05000    .P..    MOV      r5,r0
        0x0000a41c:    e3a07000    .p..    MOV      r7,#0
        0x0000a420:    e59d3008    .0..    LDR      r3,[sp,#8]
        0x0000a424:    e3a02601    .&..    MOV      r2,#0x100000
        0x0000a428:    e1a01007    ....    MOV      r1,r7
        0x0000a42c:    e1a00007    ....    MOV      r0,r7
        0x0000a430:    e58d7000    .p..    STR      r7,[sp,#0]
        0x0000a434:    eb000070    p...    BL       sysInitPageTable ; 0xa5fc
        0x0000a438:    e59fb1b8    ....    LDR      r11,[pc,#440] ; [0xa5f8] = 0x28000
        0x0000a43c:    e58db004    ....    STR      r11,[sp,#4]
        0x0000a440:    e59d0004    ....    LDR      r0,[sp,#4]
        0x0000a444:    e3800e1e    ....    ORR      r0,r0,#0x1e0
        0x0000a448:    e58d0004    ....    STR      r0,[sp,#4]
        0x0000a44c:    e59d0004    ....    LDR      r0,[sp,#4]
        0x0000a450:    e3800010    ....    ORR      r0,r0,#0x10
        0x0000a454:    e58d0004    ....    STR      r0,[sp,#4]
        0x0000a458:    e59d0004    ....    LDR      r0,[sp,#4]
        0x0000a45c:    e3800001    ....    ORR      r0,r0,#1
        0x0000a460:    e58d0004    ....    STR      r0,[sp,#4]
        0x0000a464:    e59d0004    ....    LDR      r0,[sp,#4]
        0x0000a468:    e5860000    ....    STR      r0,[r6,#0]
        0x0000a46c:    e3e03000    .0..    MVN      r3,#0
        0x0000a470:    e3a02601    .&..    MOV      r2,#0x100000
        0x0000a474:    e3a01000    ....    MOV      r1,#0
        0x0000a478:    e3a00102    ....    MOV      r0,#0x80000000
        0x0000a47c:    e58d7000    .p..    STR      r7,[sp,#0]
        0x0000a480:    eb00005d    ]...    BL       sysInitPageTable ; 0xa5fc
        0x0000a484:    e28ba802    ....    ADD      r10,r11,#0x20000
        0x0000a488:    e58da004    ....    STR      r10,[sp,#4]
        0x0000a48c:    e59d0004    ....    LDR      r0,[sp,#4]
        0x0000a490:    e3800e1e    ....    ORR      r0,r0,#0x1e0
        0x0000a494:    e58d0004    ....    STR      r0,[sp,#4]
        0x0000a498:    e59d0004    ....    LDR      r0,[sp,#4]
        0x0000a49c:    e3800010    ....    ORR      r0,r0,#0x10
        0x0000a4a0:    e58d0004    ....    STR      r0,[sp,#4]
        0x0000a4a4:    e59d0004    ....    LDR      r0,[sp,#4]
        0x0000a4a8:    e3800001    ....    ORR      r0,r0,#1
        0x0000a4ac:    e58d0004    ....    STR      r0,[sp,#4]
        0x0000a4b0:    e59d0004    ....    LDR      r0,[sp,#4]
        0x0000a4b4:    e24b1a02    ..K.    SUB      r1,r11,#0x2000
        0x0000a4b8:    e5810000    ....    STR      r0,[r1,#0]
        0x0000a4bc:    e3a04001    .@..    MOV      r4,#1
        0x0000a4c0:    e3a08001    ....    MOV      r8,#1
        0x0000a4c4:    ea000016    ....    B        0xa524 ; sysInitMMUTable + 352
        0x0000a4c8:    e08b0504    ....    ADD      r0,r11,r4,LSL #10
        0x0000a4cc:    e58d0004    ....    STR      r0,[sp,#4]
        0x0000a4d0:    e59d0004    ....    LDR      r0,[sp,#4]
        0x0000a4d4:    e3800e1e    ....    ORR      r0,r0,#0x1e0
        0x0000a4d8:    e58d0004    ....    STR      r0,[sp,#4]
        0x0000a4dc:    e59d0004    ....    LDR      r0,[sp,#4]
        0x0000a4e0:    e3800010    ....    ORR      r0,r0,#0x10
        0x0000a4e4:    e58d0004    ....    STR      r0,[sp,#4]
        0x0000a4e8:    e59d0004    ....    LDR      r0,[sp,#4]
        0x0000a4ec:    e3800001    ....    ORR      r0,r0,#1
        0x0000a4f0:    e58d0004    ....    STR      r0,[sp,#4]
        0x0000a4f4:    e5990004    ....    LDR      r0,[r9,#4]
        0x0000a4f8:    e3500000    ..P.    CMP      r0,#0
        0x0000a4fc:    0a00000d    ....    BEQ      0xa538 ; sysInitMMUTable + 372
        0x0000a500:    e1a00a04    ....    LSL      r0,r4,#20
        0x0000a504:    e59d3008    .0..    LDR      r3,[sp,#8]
        0x0000a508:    e3a02601    .&..    MOV      r2,#0x100000
        0x0000a50c:    e1a01000    ....    MOV      r1,r0
        0x0000a510:    e58d8000    ....    STR      r8,[sp,#0]
        0x0000a514:    eb000038    8...    BL       sysInitPageTable ; 0xa5fc
        0x0000a518:    e59d0004    ....    LDR      r0,[sp,#4]
        0x0000a51c:    e7860104    ....    STR      r0,[r6,r4,LSL #2]
        0x0000a520:    e2844001    .@..    ADD      r4,r4,#1
        0x0000a524:    e1540005    ..T.    CMP      r4,r5
        0x0000a528:    baffffe6    ....    BLT      0xa4c8 ; sysInitMMUTable + 260
        0x0000a52c:    e3a04001    .@..    MOV      r4,#1
        0x0000a530:    e3a0b102    ....    MOV      r11,#0x80000000
        0x0000a534:    ea00001e    ....    B        0xa5b4 ; sysInitMMUTable + 496
        0x0000a538:    e1a00a04    ....    LSL      r0,r4,#20
        0x0000a53c:    e59d3008    .0..    LDR      r3,[sp,#8]
        0x0000a540:    e3a02601    .&..    MOV      r2,#0x100000
        0x0000a544:    e1a01000    ....    MOV      r1,r0
        0x0000a548:    e58d7000    .p..    STR      r7,[sp,#0]
        0x0000a54c:    eb00002a    *...    BL       sysInitPageTable ; 0xa5fc
        0x0000a550:    eafffff0    ....    B        0xa518 ; sysInitMMUTable + 340
        0x0000a554:    e08a0504    ....    ADD      r0,r10,r4,LSL #10
        0x0000a558:    e58d0004    ....    STR      r0,[sp,#4]
        0x0000a55c:    e59d0004    ....    LDR      r0,[sp,#4]
        0x0000a560:    e3800e1e    ....    ORR      r0,r0,#0x1e0
        0x0000a564:    e58d0004    ....    STR      r0,[sp,#4]
        0x0000a568:    e59d0004    ....    LDR      r0,[sp,#4]
        0x0000a56c:    e3800010    ....    ORR      r0,r0,#0x10
        0x0000a570:    e58d0004    ....    STR      r0,[sp,#4]
        0x0000a574:    e59d0004    ....    LDR      r0,[sp,#4]
        0x0000a578:    e3800001    ....    ORR      r0,r0,#1
        0x0000a57c:    e58d0004    ....    STR      r0,[sp,#4]
        0x0000a580:    e5990004    ....    LDR      r0,[r9,#4]
        0x0000a584:    e3500000    ..P.    CMP      r0,#0
        0x0000a588:    0a000010    ....    BEQ      0xa5d0 ; sysInitMMUTable + 524
        0x0000a58c:    e1a01a04    ....    LSL      r1,r4,#20
        0x0000a590:    e18b0a04    ....    ORR      r0,r11,r4,LSL #20
        0x0000a594:    e3e03000    .0..    MVN      r3,#0
        0x0000a598:    e3a02601    .&..    MOV      r2,#0x100000
        0x0000a59c:    e58d8000    ....    STR      r8,[sp,#0]
        0x0000a5a0:    eb000015    ....    BL       sysInitPageTable ; 0xa5fc
        0x0000a5a4:    e59d0004    ....    LDR      r0,[sp,#4]
        0x0000a5a8:    e2841b02    ....    ADD      r1,r4,#0x800
        0x0000a5ac:    e7860101    ....    STR      r0,[r6,r1,LSL #2]
        0x0000a5b0:    e2844001    .@..    ADD      r4,r4,#1
        0x0000a5b4:    e1540005    ..T.    CMP      r4,r5
        0x0000a5b8:    baffffe5    ....    BLT      0xa554 ; sysInitMMUTable + 400
        0x0000a5bc:    e5c98001    ....    STRB     r8,[r9,#1]
        0x0000a5c0:    e59f002c    ,...    LDR      r0,[pc,#44] ; [0xa5f4] = 0x24000
        0x0000a5c4:    ebffdf4d    M...    BL       sysSetupCP15 ; 0x2300
        0x0000a5c8:    e3a00000    ....    MOV      r0,#0
        0x0000a5cc:    e8bd8ffe    ....    POP      {r1-r11,pc}
        0x0000a5d0:    e1a01a04    ....    LSL      r1,r4,#20
        0x0000a5d4:    e18b0a04    ....    ORR      r0,r11,r4,LSL #20
        0x0000a5d8:    e3e03000    .0..    MVN      r3,#0
        0x0000a5dc:    e3a02601    .&..    MOV      r2,#0x100000
        0x0000a5e0:    e58d7000    .p..    STR      r7,[sp,#0]
        0x0000a5e4:    eb000004    ....    BL       sysInitPageTable ; 0xa5fc
        0x0000a5e8:    eaffffed    ....    B        0xa5a4 ; sysInitMMUTable + 480
    $d
        0x0000a5ec:    0000d8a0    ....    DCD    55456
        0x0000a5f0:    00000df2    ....    DCD    3570
        0x0000a5f4:    00024000    .@..    DCD    147456
        0x0000a5f8:    00028000    ....    DCD    163840
    $a
    i.sysInitPageTable
    sysInitPageTable
        0x0000a5fc:    e92d41fe    .A-.    PUSH     {r1-r8,lr}
        0x0000a600:    e59d6024    $`..    LDR      r6,[sp,#0x24]
        0x0000a604:    e1a05000    .P..    MOV      r5,r0
        0x0000a608:    e3150102    ....    TST      r5,#0x80000000
        0x0000a60c:    0a000001    ....    BEQ      0xa618 ; sysInitPageTable + 28
        0x0000a610:    e59f4138    8A..    LDR      r4,[pc,#312] ; [0xa750] = 0x48000
        0x0000a614:    ea000000    ....    B        0xa61c ; sysInitPageTable + 32
        0x0000a618:    e59f4134    4A..    LDR      r4,[pc,#308] ; [0xa754] = 0x28000
        0x0000a61c:    ebfffe5e    ^...    BL       sysGetCacheState ; 0x9f9c
        0x0000a620:    e3500001    ..P.    CMP      r0,#1
        0x0000a624:    1a000000    ....    BNE      0xa62c ; sysInitPageTable + 48
        0x0000a628:    e3844102    .A..    ORR      r4,r4,#0x80000000
        0x0000a62c:    e3c5c102    ....    BIC      r12,r5,#0x80000000
        0x0000a630:    e08c0002    ....    ADD      r0,r12,r2
        0x0000a634:    e3500302    ..P.    CMP      r0,#0x8000000
        0x0000a638:    9a000001    ....    BLS      0xa644 ; sysInitPageTable + 72
        0x0000a63c:    e3e00000    ....    MVN      r0,#0
        0x0000a640:    e8bd81fe    ....    POP      {r1-r8,pc}
        0x0000a644:    e1b0060c    ....    LSLS     r0,r12,#12
        0x0000a648:    0a000001    ....    BEQ      0xa654 ; sysInitPageTable + 88
        0x0000a64c:    e3e00000    ....    MVN      r0,#0
        0x0000a650:    e8bd81fe    ....    POP      {r1-r8,pc}
        0x0000a654:    e1b00a02    ....    LSLS     r0,r2,#20
        0x0000a658:    0a000001    ....    BEQ      0xa664 ; sysInitPageTable + 104
        0x0000a65c:    e3e00000    ....    MVN      r0,#0
        0x0000a660:    e8bd81fe    ....    POP      {r1-r8,pc}
        0x0000a664:    e1a00fc2    ....    ASR      r0,r2,#31
        0x0000a668:    e0820a20     ...    ADD      r0,r2,r0,LSR #20
        0x0000a66c:    e1a07640    @v..    ASR      r7,r0,#12
        0x0000a670:    e3530000    ..S.    CMP      r3,#0
        0x0000a674:    0a00000a    ....    BEQ      0xa6a4 ; sysInitPageTable + 168
        0x0000a678:    e3530001    ..S.    CMP      r3,#1
        0x0000a67c:    0a00000a    ....    BEQ      0xa6ac ; sysInitPageTable + 176
        0x0000a680:    e3a03000    .0..    MOV      r3,#0
        0x0000a684:    e3560000    ..V.    CMP      r6,#0
        0x0000a688:    0a000009    ....    BEQ      0xa6b4 ; sysInitPageTable + 184
        0x0000a68c:    e0810002    ....    ADD      r0,r1,r2
        0x0000a690:    e2400a01    ..@.    SUB      r0,r0,#0x1000
        0x0000a694:    e58d0008    ....    STR      r0,[sp,#8]
        0x0000a698:    e3a01a01    ....    MOV      r1,#0x1000
        0x0000a69c:    e3a00000    ....    MOV      r0,#0
        0x0000a6a0:    ea000022    "...    B        0xa730 ; sysInitPageTable + 308
        0x0000a6a4:    e3a0300c    .0..    MOV      r3,#0xc
        0x0000a6a8:    eafffff5    ....    B        0xa684 ; sysInitPageTable + 136
        0x0000a6ac:    e3a03008    .0..    MOV      r3,#8
        0x0000a6b0:    eafffff3    ....    B        0xa684 ; sysInitPageTable + 136
        0x0000a6b4:    e58d1008    ....    STR      r1,[sp,#8]
        0x0000a6b8:    eafffff6    ....    B        0xa698 ; sysInitPageTable + 156
        0x0000a6bc:    e08c2600    .&..    ADD      r2,r12,r0,LSL #12
        0x0000a6c0:    e58d2004    . ..    STR      r2,[sp,#4]
        0x0000a6c4:    e59d2004    . ..    LDR      r2,[sp,#4]
        0x0000a6c8:    e1a02a22    "*..    LSR      r2,r2,#20
        0x0000a6cc:    e59d5004    .P..    LDR      r5,[sp,#4]
        0x0000a6d0:    e2055aff    .Z..    AND      r5,r5,#0xff000
        0x0000a6d4:    e1a05625    %V..    LSR      r5,r5,#12
        0x0000a6d8:    e59d8008    ....    LDR      r8,[sp,#8]
        0x0000a6dc:    e1a08628    (...    LSR      r8,r8,#12
        0x0000a6e0:    e1a08608    ....    LSL      r8,r8,#12
        0x0000a6e4:    e58d8000    ....    STR      r8,[sp,#0]
        0x0000a6e8:    e59d8000    ....    LDR      r8,[sp,#0]
        0x0000a6ec:    e3888eff    ....    ORR      r8,r8,#0xff0
        0x0000a6f0:    e58d8000    ....    STR      r8,[sp,#0]
        0x0000a6f4:    e59d8000    ....    LDR      r8,[sp,#0]
        0x0000a6f8:    e1888003    ....    ORR      r8,r8,r3
        0x0000a6fc:    e58d8000    ....    STR      r8,[sp,#0]
        0x0000a700:    e59d8000    ....    LDR      r8,[sp,#0]
        0x0000a704:    e3888002    ....    ORR      r8,r8,#2
        0x0000a708:    e58d8000    ....    STR      r8,[sp,#0]
        0x0000a70c:    e59d8000    ....    LDR      r8,[sp,#0]
        0x0000a710:    e0842502    .%..    ADD      r2,r4,r2,LSL #10
        0x0000a714:    e7828105    ....    STR      r8,[r2,r5,LSL #2]
        0x0000a718:    e3560000    ..V.    CMP      r6,#0
        0x0000a71c:    0a000007    ....    BEQ      0xa740 ; sysInitPageTable + 324
        0x0000a720:    e59d2008    . ..    LDR      r2,[sp,#8]
        0x0000a724:    e0422001    . B.    SUB      r2,r2,r1
        0x0000a728:    e58d2008    . ..    STR      r2,[sp,#8]
        0x0000a72c:    e2800001    ....    ADD      r0,r0,#1
        0x0000a730:    e1500007    ..P.    CMP      r0,r7
        0x0000a734:    baffffe0    ....    BLT      0xa6bc ; sysInitPageTable + 192
        0x0000a738:    e3a00000    ....    MOV      r0,#0
        0x0000a73c:    e8bd81fe    ....    POP      {r1-r8,pc}
        0x0000a740:    e59d2008    . ..    LDR      r2,[sp,#8]
        0x0000a744:    e0822001    . ..    ADD      r2,r2,r1
        0x0000a748:    e58d2008    . ..    STR      r2,[sp,#8]
        0x0000a74c:    eafffff6    ....    B        0xa72c ; sysInitPageTable + 304
    $d
        0x0000a750:    00048000    ....    DCD    294912
        0x0000a754:    00028000    ....    DCD    163840
    $a
    i.sysInitializeAIC
    sysInitializeAIC
        0x0000a758:    e59f1010    ....    LDR      r1,[pc,#16] ; [0xa770] = 0xa848
        0x0000a75c:    e3a00000    ....    MOV      r0,#0
        0x0000a760:    e5801038    8...    STR      r1,[r0,#0x38]
        0x0000a764:    e59f1008    ....    LDR      r1,[pc,#8] ; [0xa774] = 0x9ee8
        0x0000a768:    e580103c    <...    STR      r1,[r0,#0x3c]
        0x0000a76c:    e12fff1e    ../.    BX       lr
    $d
        0x0000a770:    0000a848    H...    DCD    43080
        0x0000a774:    00009ee8    ....    DCD    40680
    $a
    i.sysInitializeUART
    sysInitializeUART
        0x0000a778:    e3a0020b    ....    MOV      r0,#0xb0000000
        0x0000a77c:    e5901218    ....    LDR      r1,[r0,#0x218]
        0x0000a780:    e3811801    ....    ORR      r1,r1,#0x10000
        0x0000a784:    e5801218    ....    STR      r1,[r0,#0x218]
        0x0000a788:    e5901090    ....    LDR      r1,[r0,#0x90]
        0x0000a78c:    e3c110ff    ....    BIC      r1,r1,#0xff
        0x0000a790:    e3811099    ....    ORR      r1,r1,#0x99
        0x0000a794:    e5801090    ....    STR      r1,[r0,#0x90]
        0x0000a798:    e3a0032e    ....    MOV      r0,#0xb8000000
        0x0000a79c:    e590100c    ....    LDR      r1,[r0,#0xc]
        0x0000a7a0:    e3811007    ....    ORR      r1,r1,#7
        0x0000a7a4:    e580100c    ....    STR      r1,[r0,#0xc]
        0x0000a7a8:    e59f1008    ....    LDR      r1,[pc,#8] ; [0xa7b8] = 0x30000066
        0x0000a7ac:    e5801024    $...    STR      r1,[r0,#0x24]
        0x0000a7b0:    e3a00000    ....    MOV      r0,#0
        0x0000a7b4:    e12fff1e    ../.    BX       lr
    $d
        0x0000a7b8:    30000066    f..0    DCD    805306470
    $a
    i.sysInstallISR
    sysInstallISR
        0x0000a7bc:    e92d4030    0@-.    PUSH     {r4,r5,lr}
        0x0000a7c0:    e1a04000    .@..    MOV      r4,r0
        0x0000a7c4:    e1a03001    .0..    MOV      r3,r1
        0x0000a7c8:    e59f5068    hP..    LDR      r5,[pc,#104] ; [0xa838] = 0xd648
        0x0000a7cc:    e5d50000    ....    LDRB     r0,[r5,#0]
        0x0000a7d0:    e3500000    ..P.    CMP      r0,#0
        0x0000a7d4:    1a000002    ....    BNE      0xa7e4 ; sysInstallISR + 40
        0x0000a7d8:    ebffffde    ....    BL       sysInitializeAIC ; 0xa758
        0x0000a7dc:    e3a00001    ....    MOV      r0,#1
        0x0000a7e0:    e5c50000    ....    STRB     r0,[r5,#0]
        0x0000a7e4:    e59f1050    P...    LDR      r1,[pc,#80] ; [0xa83c] = 0xb8002000
        0x0000a7e8:    e3c30003    ....    BIC      r0,r3,#3
        0x0000a7ec:    e0811000    ....    ADD      r1,r1,r0
        0x0000a7f0:    e1a00f03    ....    LSL      r0,r3,#30
        0x0000a7f4:    e1a0cda0    ....    LSR      r12,r0,#27
        0x0000a7f8:    e20400ff    ....    AND      r0,r4,#0xff
        0x0000a7fc:    e5914000    .@..    LDR      r4,[r1,#0]
        0x0000a800:    e3a05007    .P..    MOV      r5,#7
        0x0000a804:    e1c44c15    .L..    BIC      r4,r4,r5,LSL r12
        0x0000a808:    e184cc10    ....    ORR      r12,r4,r0,LSL r12
        0x0000a80c:    e581c000    ....    STR      r12,[r1,#0]
        0x0000a810:    e3100007    ....    TST      r0,#7
        0x0000a814:    0a000003    ....    BEQ      0xa828 ; sysInstallISR + 108
        0x0000a818:    e59f1020     ...    LDR      r1,[pc,#32] ; [0xa840] = 0xd64c
        0x0000a81c:    e7910103    ....    LDR      r0,[r1,r3,LSL #2]
        0x0000a820:    e7812103    .!..    STR      r2,[r1,r3,LSL #2]
        0x0000a824:    e8bd8030    0...    POP      {r4,r5,pc}
        0x0000a828:    e59f1014    ....    LDR      r1,[pc,#20] ; [0xa844] = 0xd744
        0x0000a82c:    e7910103    ....    LDR      r0,[r1,r3,LSL #2]
        0x0000a830:    e7812103    .!..    STR      r2,[r1,r3,LSL #2]
        0x0000a834:    e8bd8030    0...    POP      {r4,r5,pc}
    $d
        0x0000a838:    0000d648    H...    DCD    54856
        0x0000a83c:    b8002000    . ..    DCD    3087015936
        0x0000a840:    0000d64c    L...    DCD    54860
        0x0000a844:    0000d744    D...    DCD    55108
    $a
    i.sysIrqHandler
    sysIrqHandler
        0x0000a848:    e92d501f    .P-.    PUSH     {r0-r4,r12,lr}
        0x0000a84c:    e24dd00c    ..M.    SUB      sp,sp,#0xc
        0x0000a850:    e59f4050    P@..    LDR      r4,[pc,#80] ; [0xa8a8] = 0xb8002000
        0x0000a854:    e5940118    ....    LDR      r0,[r4,#0x118]
        0x0000a858:    e1a00c00    ....    LSL      r0,r0,#24
        0x0000a85c:    e1a00d20     ...    LSR      r0,r0,#26
        0x0000a860:    e58d0008    ....    STR      r0,[sp,#8]
        0x0000a864:    e5940120     ...    LDR      r0,[r4,#0x120]
        0x0000a868:    e58d0004    ....    STR      r0,[sp,#4]
        0x0000a86c:    e59d0008    ....    LDR      r0,[sp,#8]
        0x0000a870:    e3500000    ..P.    CMP      r0,#0
        0x0000a874:    0a000008    ....    BEQ      0xa89c ; sysIrqHandler + 84
        0x0000a878:    e59d0004    ....    LDR      r0,[sp,#4]
        0x0000a87c:    e3500000    ..P.    CMP      r0,#0
        0x0000a880:    0a000003    ....    BEQ      0xa894 ; sysIrqHandler + 76
        0x0000a884:    e59f0020     ...    LDR      r0,[pc,#32] ; [0xa8ac] = 0xd64c
        0x0000a888:    e59d1008    ....    LDR      r1,[sp,#8]
        0x0000a88c:    e7900101    ....    LDR      r0,[r0,r1,LSL #2]
        0x0000a890:    e12fff30    0./.    BLX      r0
        0x0000a894:    e3a00001    ....    MOV      r0,#1
        0x0000a898:    e5840150    P...    STR      r0,[r4,#0x150]
        0x0000a89c:    e28dd00c    ....    ADD      sp,sp,#0xc
        0x0000a8a0:    e8bd501f    .P..    POP      {r0-r4,r12,lr}
        0x0000a8a4:    e25ef004    ..^.    SUBS     pc,lr,#4
    $d
        0x0000a8a8:    b8002000    . ..    DCD    3087015936
        0x0000a8ac:    0000d64c    L...    DCD    54860
    $a
    i.sysSetLocalInterrupt
    sysSetLocalInterrupt
        0x0000a8b0:    e3500080    ..P.    CMP      r0,#0x80
        0x0000a8b4:    0a000010    ....    BEQ      0xa8fc ; sysSetLocalInterrupt + 76
        0x0000a8b8:    ca000006    ....    BGT      0xa8d8 ; sysSetLocalInterrupt + 40
        0x0000a8bc:    e350003f    ?.P.    CMP      r0,#0x3f
        0x0000a8c0:    0a000009    ....    BEQ      0xa8ec ; sysSetLocalInterrupt + 60
        0x0000a8c4:    e3500040    @.P.    CMP      r0,#0x40
        0x0000a8c8:    0a00000b    ....    BEQ      0xa8fc ; sysSetLocalInterrupt + 76
        0x0000a8cc:    e350007f    ..P.    CMP      r0,#0x7f
        0x0000a8d0:    1a00000c    ....    BNE      0xa908 ; sysSetLocalInterrupt + 88
        0x0000a8d4:    ea000004    ....    B        0xa8ec ; sysSetLocalInterrupt + 60
        0x0000a8d8:    e35000bf    ..P.    CMP      r0,#0xbf
        0x0000a8dc:    0a000002    ....    BEQ      0xa8ec ; sysSetLocalInterrupt + 60
        0x0000a8e0:    e35000c0    ..P.    CMP      r0,#0xc0
        0x0000a8e4:    1a000007    ....    BNE      0xa908 ; sysSetLocalInterrupt + 88
        0x0000a8e8:    ea000003    ....    B        0xa8fc ; sysSetLocalInterrupt + 76
        0x0000a8ec:    e10f1000    ....    MRS      r1,APSR ; formerly CPSR
        0x0000a8f0:    e0010000    ....    AND      r0,r1,r0
        0x0000a8f4:    e121f000    ..!.    MSR      CPSR_c,r0
        0x0000a8f8:    ea000002    ....    B        0xa908 ; sysSetLocalInterrupt + 88
        0x0000a8fc:    e10f1000    ....    MRS      r1,APSR ; formerly CPSR
        0x0000a900:    e1810000    ....    ORR      r0,r1,r0
        0x0000a904:    e121f000    ..!.    MSR      CPSR_c,r0
        0x0000a908:    e3a00000    ....    MOV      r0,#0
        0x0000a90c:    e12fff1e    ../.    BX       lr
    i.sysSetTimerReferenceClock
    sysSetTimerReferenceClock
        0x0000a910:    e59f2024    $ ..    LDR      r2,[pc,#36] ; [0xa93c] = 0xd83c
        0x0000a914:    e3500000    ..P.    CMP      r0,#0
        0x0000a918:    0a000002    ....    BEQ      0xa928 ; sysSetTimerReferenceClock + 24
        0x0000a91c:    e3500001    ..P.    CMP      r0,#1
        0x0000a920:    1a000003    ....    BNE      0xa934 ; sysSetTimerReferenceClock + 36
        0x0000a924:    ea000001    ....    B        0xa930 ; sysSetTimerReferenceClock + 32
        0x0000a928:    e5821004    ....    STR      r1,[r2,#4]
        0x0000a92c:    ea000000    ....    B        0xa934 ; sysSetTimerReferenceClock + 36
        0x0000a930:    e5821008    ....    STR      r1,[r2,#8]
        0x0000a934:    e3a00000    ....    MOV      r0,#0
        0x0000a938:    e12fff1e    ../.    BX       lr
    $d
        0x0000a93c:    0000d83c    <...    DCD    55356
    $a
    i.sysStartTimer
    sysStartTimer
        0x0000a940:    e92d43f8    .C-.    PUSH     {r3-r9,lr}
        0x0000a944:    e1a06001    .`..    MOV      r6,r1
        0x0000a948:    e3a01206    ....    MOV      r1,#0x60000000
        0x0000a94c:    e1815d82    .]..    ORR      r5,r1,r2,LSL #27
        0x0000a950:    e59f8128    (...    LDR      r8,[pc,#296] ; [0xaa80] = 0xd83c
        0x0000a954:    e59f7128    (q..    LDR      r7,[pc,#296] ; [0xaa84] = 0xb8001000
        0x0000a958:    e3500000    ..P.    CMP      r0,#0
        0x0000a95c:    e3a0120b    ....    MOV      r1,#0xb0000000
        0x0000a960:    e3a04000    .@..    MOV      r4,#0
        0x0000a964:    0a000002    ....    BEQ      0xa974 ; sysStartTimer + 52
        0x0000a968:    e3500001    ..P.    CMP      r0,#1
        0x0000a96c:    1a00003f    ?...    BNE      0xaa70 ; sysStartTimer + 304
        0x0000a970:    ea000020     ...    B        0xa9f8 ; sysStartTimer + 184
        0x0000a974:    e5910218    ....    LDR      r0,[r1,#0x218]
        0x0000a978:    e3800c01    ....    ORR      r0,r0,#0x100
        0x0000a97c:    e5810218    ....    STR      r0,[r1,#0x218]
        0x0000a980:    e3a00001    ....    MOV      r0,#1
        0x0000a984:    e5c80002    ....    STRB     r0,[r8,#2]
        0x0000a988:    e588602c    ,`..    STR      r6,[r8,#0x2c]
        0x0000a98c:    e5874000    .@..    STR      r4,[r7,#0]
        0x0000a990:    e5870060    `...    STR      r0,[r7,#0x60]
        0x0000a994:    e58d4000    .@..    STR      r4,[sp,#0]
        0x0000a998:    e59f00e8    ....    LDR      r0,[pc,#232] ; [0xaa88] = 0x21e58
        0x0000a99c:    ea000004    ....    B        0xa9b4 ; sysStartTimer + 116
        0x0000a9a0:    e59d1000    ....    LDR      r1,[sp,#0]
        0x0000a9a4:    e7804201    .B..    STR      r4,[r0,r1,LSL #4]
        0x0000a9a8:    e59d1000    ....    LDR      r1,[sp,#0]
        0x0000a9ac:    e2811001    ....    ADD      r1,r1,#1
        0x0000a9b0:    e58d1000    ....    STR      r1,[sp,#0]
        0x0000a9b4:    e59d1000    ....    LDR      r1,[sp,#0]
        0x0000a9b8:    e351000a    ..Q.    CMP      r1,#0xa
        0x0000a9bc:    bafffff7    ....    BLT      0xa9a0 ; sysStartTimer + 96
        0x0000a9c0:    e59f20c4    . ..    LDR      r2,[pc,#196] ; [0xaa8c] = 0xaa98
        0x0000a9c4:    e3a01010    ....    MOV      r1,#0x10
        0x0000a9c8:    e3a00044    D...    MOV      r0,#0x44
        0x0000a9cc:    ebffff7a    z...    BL       sysInstallISR ; 0xa7bc
        0x0000a9d0:    e5880020     ...    STR      r0,[r8,#0x20]
        0x0000a9d4:    e3a00010    ....    MOV      r0,#0x10
        0x0000a9d8:    ebfffd30    0...    BL       sysEnableInterrupt ; 0x9ea0
        0x0000a9dc:    e588400c    .@..    STR      r4,[r8,#0xc]
        0x0000a9e0:    e5980004    ....    LDR      r0,[r8,#4]
        0x0000a9e4:    e1a01006    ....    MOV      r1,r6
        0x0000a9e8:    ebffdc3c    <...    BL       __aeabi_uidiv ; 0x1ae0
        0x0000a9ec:    e5870004    ....    STR      r0,[r7,#4]
        0x0000a9f0:    e5875000    .P..    STR      r5,[r7,#0]
        0x0000a9f4:    ea00001d    ....    B        0xaa70 ; sysStartTimer + 304
        0x0000a9f8:    e5910218    ....    LDR      r0,[r1,#0x218]
        0x0000a9fc:    e3800c02    ....    ORR      r0,r0,#0x200
        0x0000aa00:    e5810218    ....    STR      r0,[r1,#0x218]
        0x0000aa04:    e5874010    .@..    STR      r4,[r7,#0x10]
        0x0000aa08:    e3a00002    ....    MOV      r0,#2
        0x0000aa0c:    e5870060    `...    STR      r0,[r7,#0x60]
        0x0000aa10:    e58d4000    .@..    STR      r4,[sp,#0]
        0x0000aa14:    e59f0074    t...    LDR      r0,[pc,#116] ; [0xaa90] = 0x21ef8
        0x0000aa18:    ea000004    ....    B        0xaa30 ; sysStartTimer + 240
        0x0000aa1c:    e59d1000    ....    LDR      r1,[sp,#0]
        0x0000aa20:    e7804201    .B..    STR      r4,[r0,r1,LSL #4]
        0x0000aa24:    e59d1000    ....    LDR      r1,[sp,#0]
        0x0000aa28:    e2811001    ....    ADD      r1,r1,#1
        0x0000aa2c:    e58d1000    ....    STR      r1,[sp,#0]
        0x0000aa30:    e59d1000    ....    LDR      r1,[sp,#0]
        0x0000aa34:    e351000a    ..Q.    CMP      r1,#0xa
        0x0000aa38:    bafffff7    ....    BLT      0xaa1c ; sysStartTimer + 220
        0x0000aa3c:    e59f2050    P ..    LDR      r2,[pc,#80] ; [0xaa94] = 0xab84
        0x0000aa40:    e3a01011    ....    MOV      r1,#0x11
        0x0000aa44:    e3a00041    A...    MOV      r0,#0x41
        0x0000aa48:    ebffff5b    [...    BL       sysInstallISR ; 0xa7bc
        0x0000aa4c:    e5880024    $...    STR      r0,[r8,#0x24]
        0x0000aa50:    e3a00011    ....    MOV      r0,#0x11
        0x0000aa54:    ebfffd11    ....    BL       sysEnableInterrupt ; 0x9ea0
        0x0000aa58:    e5884010    .@..    STR      r4,[r8,#0x10]
        0x0000aa5c:    e5980008    ....    LDR      r0,[r8,#8]
        0x0000aa60:    e1a01006    ....    MOV      r1,r6
        0x0000aa64:    ebffdc1d    ....    BL       __aeabi_uidiv ; 0x1ae0
        0x0000aa68:    e5870014    ....    STR      r0,[r7,#0x14]
        0x0000aa6c:    e5875010    .P..    STR      r5,[r7,#0x10]
        0x0000aa70:    e3a0007f    ....    MOV      r0,#0x7f
        0x0000aa74:    ebffff8d    ....    BL       sysSetLocalInterrupt ; 0xa8b0
        0x0000aa78:    e3a00000    ....    MOV      r0,#0
        0x0000aa7c:    e8bd83f8    ....    POP      {r3-r9,pc}
    $d
        0x0000aa80:    0000d83c    <...    DCD    55356
        0x0000aa84:    b8001000    ....    DCD    3087011840
        0x0000aa88:    00021e58    X...    DCD    138840
        0x0000aa8c:    0000aa98    ....    DCD    43672
        0x0000aa90:    00021ef8    ....    DCD    139000
        0x0000aa94:    0000ab84    ....    DCD    43908
    $a
    i.sysTimer0ISR
    sysTimer0ISR
        0x0000aa98:    e92d4038    8@-.    PUSH     {r3-r5,lr}
        0x0000aa9c:    e59f00cc    ....    LDR      r0,[pc,#204] ; [0xab70] = 0xd4cf
        0x0000aaa0:    e5d00000    ....    LDRB     r0,[r0,#0]
        0x0000aaa4:    e3500001    ..P.    CMP      r0,#1
        0x0000aaa8:    0a000015    ....    BEQ      0xab04 ; sysTimer0ISR + 108
        0x0000aaac:    e59f50c0    .P..    LDR      r5,[pc,#192] ; [0xab74] = 0xb8001000
        0x0000aab0:    e5950060    `...    LDR      r0,[r5,#0x60]
        0x0000aab4:    e3100001    ....    TST      r0,#1
        0x0000aab8:    0a000013    ....    BEQ      0xab0c ; sysTimer0ISR + 116
        0x0000aabc:    e59f40b4    .@..    LDR      r4,[pc,#180] ; [0xab78] = 0xd83c
        0x0000aac0:    e5940028    (...    LDR      r0,[r4,#0x28]
        0x0000aac4:    e2800001    ....    ADD      r0,r0,#1
        0x0000aac8:    e5840028    (...    STR      r0,[r4,#0x28]
        0x0000aacc:    e59f00a8    ....    LDR      r0,[pc,#168] ; [0xab7c] = 0xd434
        0x0000aad0:    e5901000    ....    LDR      r1,[r0,#0]
        0x0000aad4:    e2811001    ....    ADD      r1,r1,#1
        0x0000aad8:    e5801000    ....    STR      r1,[r0,#0]
        0x0000aadc:    ebfff6ca    ....    BL       protocol_D8_D9_command_time_dealwith ; 0x860c
        0x0000aae0:    e3a00001    ....    MOV      r0,#1
        0x0000aae4:    e5850060    `...    STR      r0,[r5,#0x60]
        0x0000aae8:    e5d40000    ....    LDRB     r0,[r4,#0]
        0x0000aaec:    e3500000    ..P.    CMP      r0,#0
        0x0000aaf0:    0a000005    ....    BEQ      0xab0c ; sysTimer0ISR + 116
        0x0000aaf4:    e3a00000    ....    MOV      r0,#0
        0x0000aaf8:    e58d0000    ....    STR      r0,[sp,#0]
        0x0000aafc:    e59f407c    |@..    LDR      r4,[pc,#124] ; [0xab80] = 0x21e58
        0x0000ab00:    ea000016    ....    B        0xab60 ; sysTimer0ISR + 200
        0x0000ab04:    e3a00002    ....    MOV      r0,#2
        0x0000ab08:    ebfffb10    ....    BL       set_tim1msint ; 0x9750
        0x0000ab0c:    e8bd8038    8...    POP      {r3-r5,pc}
        0x0000ab10:    e59d0000    ....    LDR      r0,[sp,#0]
        0x0000ab14:    e7940200    ....    LDR      r0,[r4,r0,LSL #4]
        0x0000ab18:    e3500000    ..P.    CMP      r0,#0
        0x0000ab1c:    0a00000c    ....    BEQ      0xab54 ; sysTimer0ISR + 188
        0x0000ab20:    e59d0000    ....    LDR      r0,[sp,#0]
        0x0000ab24:    e0842200    ."..    ADD      r2,r4,r0,LSL #4
        0x0000ab28:    e5921008    ....    LDR      r1,[r2,#8]
        0x0000ab2c:    e2411001    ..A.    SUB      r1,r1,#1
        0x0000ab30:    e5821008    ....    STR      r1,[r2,#8]
        0x0000ab34:    e3510000    ..Q.    CMP      r1,#0
        0x0000ab38:    1a000005    ....    BNE      0xab54 ; sysTimer0ISR + 188
        0x0000ab3c:    e592000c    ....    LDR      r0,[r2,#0xc]
        0x0000ab40:    e12fff30    0./.    BLX      r0
        0x0000ab44:    e59d0000    ....    LDR      r0,[sp,#0]
        0x0000ab48:    e0840200    ....    ADD      r0,r4,r0,LSL #4
        0x0000ab4c:    e5901004    ....    LDR      r1,[r0,#4]
        0x0000ab50:    e5801008    ....    STR      r1,[r0,#8]
        0x0000ab54:    e59d0000    ....    LDR      r0,[sp,#0]
        0x0000ab58:    e2800001    ....    ADD      r0,r0,#1
        0x0000ab5c:    e58d0000    ....    STR      r0,[sp,#0]
        0x0000ab60:    e59d0000    ....    LDR      r0,[sp,#0]
        0x0000ab64:    e350000a    ..P.    CMP      r0,#0xa
        0x0000ab68:    baffffe8    ....    BLT      0xab10 ; sysTimer0ISR + 120
        0x0000ab6c:    e8bd8038    8...    POP      {r3-r5,pc}
    $d
        0x0000ab70:    0000d4cf    ....    DCD    54479
        0x0000ab74:    b8001000    ....    DCD    3087011840
        0x0000ab78:    0000d83c    <...    DCD    55356
        0x0000ab7c:    0000d434    4...    DCD    54324
        0x0000ab80:    00021e58    X...    DCD    138840
    $a
    i.sysTimer1ISR
    sysTimer1ISR
        0x0000ab84:    e92d4038    8@-.    PUSH     {r3-r5,lr}
        0x0000ab88:    e59f10ac    ....    LDR      r1,[pc,#172] ; [0xac3c] = 0xb8001000
        0x0000ab8c:    e5910060    `...    LDR      r0,[r1,#0x60]
        0x0000ab90:    e3100002    ....    TST      r0,#2
        0x0000ab94:    0a000027    '...    BEQ      0xac38 ; sysTimer1ISR + 180
        0x0000ab98:    e59f00a0    ....    LDR      r0,[pc,#160] ; [0xac40] = 0xd83c
        0x0000ab9c:    e5902010    . ..    LDR      r2,[r0,#0x10]
        0x0000aba0:    e2822001    . ..    ADD      r2,r2,#1
        0x0000aba4:    e5802010    . ..    STR      r2,[r0,#0x10]
        0x0000aba8:    e3a02002    . ..    MOV      r2,#2
        0x0000abac:    e5812060    ` ..    STR      r2,[r1,#0x60]
        0x0000abb0:    e5902010    . ..    LDR      r2,[r0,#0x10]
        0x0000abb4:    e3a01000    ....    MOV      r1,#0
        0x0000abb8:    e372021f    ..r.    CMN      r2,#0xf0000001
        0x0000abbc:    3a000000    ...:    BCC      0xabc4 ; sysTimer1ISR + 64
        0x0000abc0:    e5801010    ....    STR      r1,[r0,#0x10]
        0x0000abc4:    e5d00001    ....    LDRB     r0,[r0,#1]
        0x0000abc8:    e3500000    ..P.    CMP      r0,#0
        0x0000abcc:    0a000019    ....    BEQ      0xac38 ; sysTimer1ISR + 180
        0x0000abd0:    e58d1000    ....    STR      r1,[sp,#0]
        0x0000abd4:    e59f4068    h@..    LDR      r4,[pc,#104] ; [0xac44] = 0x21ef8
        0x0000abd8:    ea000013    ....    B        0xac2c ; sysTimer1ISR + 168
        0x0000abdc:    e59d0000    ....    LDR      r0,[sp,#0]
        0x0000abe0:    e7940200    ....    LDR      r0,[r4,r0,LSL #4]
        0x0000abe4:    e3500000    ..P.    CMP      r0,#0
        0x0000abe8:    0a00000c    ....    BEQ      0xac20 ; sysTimer1ISR + 156
        0x0000abec:    e59d0000    ....    LDR      r0,[sp,#0]
        0x0000abf0:    e0842200    ."..    ADD      r2,r4,r0,LSL #4
        0x0000abf4:    e5921008    ....    LDR      r1,[r2,#8]
        0x0000abf8:    e2411001    ..A.    SUB      r1,r1,#1
        0x0000abfc:    e5821008    ....    STR      r1,[r2,#8]
        0x0000ac00:    e3510000    ..Q.    CMP      r1,#0
        0x0000ac04:    1a000005    ....    BNE      0xac20 ; sysTimer1ISR + 156
        0x0000ac08:    e592000c    ....    LDR      r0,[r2,#0xc]
        0x0000ac0c:    e12fff30    0./.    BLX      r0
        0x0000ac10:    e59d0000    ....    LDR      r0,[sp,#0]
        0x0000ac14:    e0840200    ....    ADD      r0,r4,r0,LSL #4
        0x0000ac18:    e5901004    ....    LDR      r1,[r0,#4]
        0x0000ac1c:    e5801008    ....    STR      r1,[r0,#8]
        0x0000ac20:    e59d0000    ....    LDR      r0,[sp,#0]
        0x0000ac24:    e2800001    ....    ADD      r0,r0,#1
        0x0000ac28:    e58d0000    ....    STR      r0,[sp,#0]
        0x0000ac2c:    e59d0000    ....    LDR      r0,[sp,#0]
        0x0000ac30:    e350000a    ..P.    CMP      r0,#0xa
        0x0000ac34:    baffffe8    ....    BLT      0xabdc ; sysTimer1ISR + 88
        0x0000ac38:    e8bd8038    8...    POP      {r3-r5,pc}
    $d
        0x0000ac3c:    b8001000    ....    DCD    3087011840
        0x0000ac40:    0000d83c    <...    DCD    55356
        0x0000ac44:    00021ef8    ....    DCD    139000
    $a
    i.sysprintf
    sysprintf
        0x0000ac48:    e12fff1e    ../.    BX       lr
    i.tim1ms_int_enable
    tim1ms_int_enable
        0x0000ac4c:    e92d4010    .@-.    PUSH     {r4,lr}
        0x0000ac50:    e59f0020     ...    LDR      r0,[pc,#32] ; [0xac78] = 0xd4cc
        0x0000ac54:    e5d00003    ....    LDRB     r0,[r0,#3]
        0x0000ac58:    e3500002    ..P.    CMP      r0,#2
        0x0000ac5c:    1a000002    ....    BNE      0xac6c ; tim1ms_int_enable + 32
        0x0000ac60:    e3a00000    ....    MOV      r0,#0
        0x0000ac64:    ebfffab9    ....    BL       set_tim1msint ; 0x9750
        0x0000ac68:    ebffff8a    ....    BL       sysTimer0ISR ; 0xaa98
        0x0000ac6c:    e8bd4010    .@..    POP      {r4,lr}
        0x0000ac70:    e3a00000    ....    MOV      r0,#0
        0x0000ac74:    eafffab5    ....    B        set_tim1msint ; 0x9750
    $d
        0x0000ac78:    0000d4cc    ....    DCD    54476
    $a
    i.uart0ISR
    uart0ISR
        0x0000ac7c:    e92d401c    .@-.    PUSH     {r2-r4,lr}
        0x0000ac80:    e3a0432e    .C..    MOV      r4,#0xb8000000
        0x0000ac84:    e594001c    ....    LDR      r0,[r4,#0x1c]
        0x0000ac88:    e20000ff    ....    AND      r0,r0,#0xff
        0x0000ac8c:    e58d0004    ....    STR      r0,[sp,#4]
        0x0000ac90:    e59d0004    ....    LDR      r0,[sp,#4]
        0x0000ac94:    e3100002    ....    TST      r0,#2
        0x0000ac98:    0a000001    ....    BEQ      0xaca4 ; uart0ISR + 40
        0x0000ac9c:    e3a00000    ....    MOV      r0,#0
        0x0000aca0:    ebfff123    #...    BL       _uartTransmitChars ; 0x7134
        0x0000aca4:    e59d0004    ....    LDR      r0,[sp,#4]
        0x0000aca8:    e3100011    ....    TST      r0,#0x11
        0x0000acac:    0a000001    ....    BEQ      0xacb8 ; uart0ISR + 60
        0x0000acb0:    e3a00000    ....    MOV      r0,#0
        0x0000acb4:    ebfff066    f...    BL       _uartReceiveChars ; 0x6e54
        0x0000acb8:    e59d0004    ....    LDR      r0,[sp,#4]
        0x0000acbc:    e3100004    ....    TST      r0,#4
        0x0000acc0:    0a000007    ....    BEQ      0xace4 ; uart0ISR + 104
        0x0000acc4:    e5940018    ....    LDR      r0,[r4,#0x18]
        0x0000acc8:    e58d0000    ....    STR      r0,[sp,#0]
        0x0000accc:    e59d0000    ....    LDR      r0,[sp,#0]
        0x0000acd0:    e3100040    @...    TST      r0,#0x40
        0x0000acd4:    0a000002    ....    BEQ      0xace4 ; uart0ISR + 104
        0x0000acd8:    e59f1008    ....    LDR      r1,[pc,#8] ; [0xace8] = 0xd9ec
        0x0000acdc:    e3a00001    ....    MOV      r0,#1
        0x0000ace0:    e5c10000    ....    STRB     r0,[r1,#0]
        0x0000ace4:    e8bd801c    ....    POP      {r2-r4,pc}
    $d
        0x0000ace8:    0000d9ec    ....    DCD    55788
    $a
    i.uart10ISR
    uart10ISR
        0x0000acec:    e92d407f    .@-.    PUSH     {r0-r6,lr}
        0x0000acf0:    e59f00e0    ....    LDR      r0,[pc,#224] ; [0xadd8] = 0xb8000a1c
        0x0000acf4:    e5900000    ....    LDR      r0,[r0,#0]
        0x0000acf8:    e20000ff    ....    AND      r0,r0,#0xff
        0x0000acfc:    e58d000c    ....    STR      r0,[sp,#0xc]
        0x0000ad00:    e59f00d4    ....    LDR      r0,[pc,#212] ; [0xaddc] = 0xb8000a30
        0x0000ad04:    e5900000    ....    LDR      r0,[r0,#0]
        0x0000ad08:    e58d0000    ....    STR      r0,[sp,#0]
        0x0000ad0c:    e59d000c    ....    LDR      r0,[sp,#0xc]
        0x0000ad10:    e3100002    ....    TST      r0,#2
        0x0000ad14:    0a000001    ....    BEQ      0xad20 ; uart10ISR + 52
        0x0000ad18:    e3a0000a    ....    MOV      r0,#0xa
        0x0000ad1c:    ebfff104    ....    BL       _uartTransmitChars ; 0x7134
        0x0000ad20:    e59d0000    ....    LDR      r0,[sp,#0]
        0x0000ad24:    e3500003    ..P.    CMP      r0,#3
        0x0000ad28:    0a00001c    ....    BEQ      0xada0 ; uart10ISR + 180
        0x0000ad2c:    e59d0000    ....    LDR      r0,[sp,#0]
        0x0000ad30:    e3500001    ..P.    CMP      r0,#1
        0x0000ad34:    0a00001c    ....    BEQ      0xadac ; uart10ISR + 192
        0x0000ad38:    e59d000c    ....    LDR      r0,[sp,#0xc]
        0x0000ad3c:    e3100011    ....    TST      r0,#0x11
        0x0000ad40:    0a000001    ....    BEQ      0xad4c ; uart10ISR + 96
        0x0000ad44:    e3a0000a    ....    MOV      r0,#0xa
        0x0000ad48:    ebfff041    A...    BL       _uartReceiveChars ; 0x6e54
        0x0000ad4c:    e59d000c    ....    LDR      r0,[sp,#0xc]
        0x0000ad50:    e59f4088    .@..    LDR      r4,[pc,#136] ; [0xade0] = 0xd9ec
        0x0000ad54:    e3100008    ....    TST      r0,#8
        0x0000ad58:    e3a05001    .P..    MOV      r5,#1
        0x0000ad5c:    0a000004    ....    BEQ      0xad74 ; uart10ISR + 136
        0x0000ad60:    e5d40015    ....    LDRB     r0,[r4,#0x15]
        0x0000ad64:    e3500000    ..P.    CMP      r0,#0
        0x0000ad68:    0a000012    ....    BEQ      0xadb8 ; uart10ISR + 204
        0x0000ad6c:    e3a0000a    ....    MOV      r0,#0xa
        0x0000ad70:    ebffee5c    \...    BL       _uartCheckModemStatus ; 0x66e8
        0x0000ad74:    e59d000c    ....    LDR      r0,[sp,#0xc]
        0x0000ad78:    e3100004    ....    TST      r0,#4
        0x0000ad7c:    0a000006    ....    BEQ      0xad9c ; uart10ISR + 176
        0x0000ad80:    e59f005c    \...    LDR      r0,[pc,#92] ; [0xade4] = 0xb8000a18
        0x0000ad84:    e5900000    ....    LDR      r0,[r0,#0]
        0x0000ad88:    e58d0008    ....    STR      r0,[sp,#8]
        0x0000ad8c:    e59d0008    ....    LDR      r0,[sp,#8]
        0x0000ad90:    e3100040    @...    TST      r0,#0x40
        0x0000ad94:    0a000000    ....    BEQ      0xad9c ; uart10ISR + 176
        0x0000ad98:    e5c4500a    .P..    STRB     r5,[r4,#0xa]
        0x0000ad9c:    e8bd807f    ....    POP      {r0-r6,pc}
        0x0000ada0:    e3a0000a    ....    MOV      r0,#0xa
        0x0000ada4:    ebffe5bd    ....    BL       RS485_HANDLE ; 0x44a0
        0x0000ada8:    e8bd807f    ....    POP      {r0-r6,pc}
        0x0000adac:    e3a0000a    ....    MOV      r0,#0xa
        0x0000adb0:    ebffe113    ....    BL       LIN_HANDLE ; 0x3204
        0x0000adb4:    e8bd807f    ....    POP      {r0-r6,pc}
        0x0000adb8:    e59f0028    (...    LDR      r0,[pc,#40] ; [0xade8] = 0xb8000a14
        0x0000adbc:    e5900000    ....    LDR      r0,[r0,#0]
        0x0000adc0:    e58d0004    ....    STR      r0,[sp,#4]
        0x0000adc4:    e59d0004    ....    LDR      r0,[sp,#4]
        0x0000adc8:    e3100001    ....    TST      r0,#1
        0x0000adcc:    0affffe8    ....    BEQ      0xad74 ; uart10ISR + 136
        0x0000add0:    e5c45014    .P..    STRB     r5,[r4,#0x14]
        0x0000add4:    eaffffe6    ....    B        0xad74 ; uart10ISR + 136
    $d
        0x0000add8:    b8000a1c    ....    DCD    3087010332
        0x0000addc:    b8000a30    0...    DCD    3087010352
        0x0000ade0:    0000d9ec    ....    DCD    55788
        0x0000ade4:    b8000a18    ....    DCD    3087010328
        0x0000ade8:    b8000a14    ....    DCD    3087010324
    $a
    i.uart1ISR
    uart1ISR
        0x0000adec:    e92d407f    .@-.    PUSH     {r0-r6,lr}
        0x0000adf0:    e3a0432e    .C..    MOV      r4,#0xb8000000
        0x0000adf4:    e594011c    ....    LDR      r0,[r4,#0x11c]
        0x0000adf8:    e20000ff    ....    AND      r0,r0,#0xff
        0x0000adfc:    e58d000c    ....    STR      r0,[sp,#0xc]
        0x0000ae00:    e5940130    0...    LDR      r0,[r4,#0x130]
        0x0000ae04:    e58d0000    ....    STR      r0,[sp,#0]
        0x0000ae08:    e59d000c    ....    LDR      r0,[sp,#0xc]
        0x0000ae0c:    e3100002    ....    TST      r0,#2
        0x0000ae10:    0a000001    ....    BEQ      0xae1c ; uart1ISR + 48
        0x0000ae14:    e3a00001    ....    MOV      r0,#1
        0x0000ae18:    ebfff0c5    ....    BL       _uartTransmitChars ; 0x7134
        0x0000ae1c:    e59d0000    ....    LDR      r0,[sp,#0]
        0x0000ae20:    e3500003    ..P.    CMP      r0,#3
        0x0000ae24:    0a00001b    ....    BEQ      0xae98 ; uart1ISR + 172
        0x0000ae28:    e59d0000    ....    LDR      r0,[sp,#0]
        0x0000ae2c:    e3500001    ..P.    CMP      r0,#1
        0x0000ae30:    0a00001b    ....    BEQ      0xaea4 ; uart1ISR + 184
        0x0000ae34:    e59d000c    ....    LDR      r0,[sp,#0xc]
        0x0000ae38:    e3100011    ....    TST      r0,#0x11
        0x0000ae3c:    0a000001    ....    BEQ      0xae48 ; uart1ISR + 92
        0x0000ae40:    e3a00001    ....    MOV      r0,#1
        0x0000ae44:    ebfff002    ....    BL       _uartReceiveChars ; 0x6e54
        0x0000ae48:    e59d000c    ....    LDR      r0,[sp,#0xc]
        0x0000ae4c:    e59f5078    xP..    LDR      r5,[pc,#120] ; [0xaecc] = 0xd9ec
        0x0000ae50:    e3100008    ....    TST      r0,#8
        0x0000ae54:    e3a06001    .`..    MOV      r6,#1
        0x0000ae58:    0a000004    ....    BEQ      0xae70 ; uart1ISR + 132
        0x0000ae5c:    e5d50015    ....    LDRB     r0,[r5,#0x15]
        0x0000ae60:    e3500000    ..P.    CMP      r0,#0
        0x0000ae64:    0a000011    ....    BEQ      0xaeb0 ; uart1ISR + 196
        0x0000ae68:    e3a00001    ....    MOV      r0,#1
        0x0000ae6c:    ebffee1d    ....    BL       _uartCheckModemStatus ; 0x66e8
        0x0000ae70:    e59d000c    ....    LDR      r0,[sp,#0xc]
        0x0000ae74:    e3100004    ....    TST      r0,#4
        0x0000ae78:    0a000005    ....    BEQ      0xae94 ; uart1ISR + 168
        0x0000ae7c:    e5940118    ....    LDR      r0,[r4,#0x118]
        0x0000ae80:    e58d0008    ....    STR      r0,[sp,#8]
        0x0000ae84:    e59d0008    ....    LDR      r0,[sp,#8]
        0x0000ae88:    e3100040    @...    TST      r0,#0x40
        0x0000ae8c:    0a000000    ....    BEQ      0xae94 ; uart1ISR + 168
        0x0000ae90:    e5c56001    .`..    STRB     r6,[r5,#1]
        0x0000ae94:    e8bd807f    ....    POP      {r0-r6,pc}
        0x0000ae98:    e3a00001    ....    MOV      r0,#1
        0x0000ae9c:    ebffe57f    ....    BL       RS485_HANDLE ; 0x44a0
        0x0000aea0:    e8bd807f    ....    POP      {r0-r6,pc}
        0x0000aea4:    e3a00001    ....    MOV      r0,#1
        0x0000aea8:    ebffe0d5    ....    BL       LIN_HANDLE ; 0x3204
        0x0000aeac:    e8bd807f    ....    POP      {r0-r6,pc}
        0x0000aeb0:    e5940114    ....    LDR      r0,[r4,#0x114]
        0x0000aeb4:    e58d0004    ....    STR      r0,[sp,#4]
        0x0000aeb8:    e59d0004    ....    LDR      r0,[sp,#4]
        0x0000aebc:    e3100001    ....    TST      r0,#1
        0x0000aec0:    0affffea    ....    BEQ      0xae70 ; uart1ISR + 132
        0x0000aec4:    e5c5600b    .`..    STRB     r6,[r5,#0xb]
        0x0000aec8:    eaffffe8    ....    B        0xae70 ; uart1ISR + 132
    $d
        0x0000aecc:    0000d9ec    ....    DCD    55788
    $a
    i.uart2ISR
    uart2ISR
        0x0000aed0:    e92d407f    .@-.    PUSH     {r0-r6,lr}
        0x0000aed4:    e3a0432e    .C..    MOV      r4,#0xb8000000
        0x0000aed8:    e594021c    ....    LDR      r0,[r4,#0x21c]
        0x0000aedc:    e20000ff    ....    AND      r0,r0,#0xff
        0x0000aee0:    e58d000c    ....    STR      r0,[sp,#0xc]
        0x0000aee4:    e5940230    0...    LDR      r0,[r4,#0x230]
        0x0000aee8:    e58d0000    ....    STR      r0,[sp,#0]
        0x0000aeec:    e59d000c    ....    LDR      r0,[sp,#0xc]
        0x0000aef0:    e3100002    ....    TST      r0,#2
        0x0000aef4:    0a000001    ....    BEQ      0xaf00 ; uart2ISR + 48
        0x0000aef8:    e3a00002    ....    MOV      r0,#2
        0x0000aefc:    ebfff08c    ....    BL       _uartTransmitChars ; 0x7134
        0x0000af00:    e59d0000    ....    LDR      r0,[sp,#0]
        0x0000af04:    e3500003    ..P.    CMP      r0,#3
        0x0000af08:    0a000024    $...    BEQ      0xafa0 ; uart2ISR + 208
        0x0000af0c:    e59d0000    ....    LDR      r0,[sp,#0]
        0x0000af10:    e3500001    ..P.    CMP      r0,#1
        0x0000af14:    0a000024    $...    BEQ      0xafac ; uart2ISR + 220
        0x0000af18:    e59d000c    ....    LDR      r0,[sp,#0xc]
        0x0000af1c:    e3100011    ....    TST      r0,#0x11
        0x0000af20:    0a000001    ....    BEQ      0xaf2c ; uart2ISR + 92
        0x0000af24:    e3a00002    ....    MOV      r0,#2
        0x0000af28:    ebffefc9    ....    BL       _uartReceiveChars ; 0x6e54
        0x0000af2c:    e59d000c    ....    LDR      r0,[sp,#0xc]
        0x0000af30:    e59f509c    .P..    LDR      r5,[pc,#156] ; [0xafd4] = 0xd9ec
        0x0000af34:    e3100004    ....    TST      r0,#4
        0x0000af38:    e3a06001    .`..    MOV      r6,#1
        0x0000af3c:    0a000005    ....    BEQ      0xaf58 ; uart2ISR + 136
        0x0000af40:    e5940218    ....    LDR      r0,[r4,#0x218]
        0x0000af44:    e58d0008    ....    STR      r0,[sp,#8]
        0x0000af48:    e59d0008    ....    LDR      r0,[sp,#8]
        0x0000af4c:    e3100040    @...    TST      r0,#0x40
        0x0000af50:    0a000000    ....    BEQ      0xaf58 ; uart2ISR + 136
        0x0000af54:    e5c56002    .`..    STRB     r6,[r5,#2]
        0x0000af58:    e59d000c    ....    LDR      r0,[sp,#0xc]
        0x0000af5c:    e3100008    ....    TST      r0,#8
        0x0000af60:    0a000004    ....    BEQ      0xaf78 ; uart2ISR + 168
        0x0000af64:    e5d50015    ....    LDRB     r0,[r5,#0x15]
        0x0000af68:    e3500000    ..P.    CMP      r0,#0
        0x0000af6c:    0a000011    ....    BEQ      0xafb8 ; uart2ISR + 232
        0x0000af70:    e3a00002    ....    MOV      r0,#2
        0x0000af74:    ebffeddb    ....    BL       _uartCheckModemStatus ; 0x66e8
        0x0000af78:    e59d000c    ....    LDR      r0,[sp,#0xc]
        0x0000af7c:    e3100004    ....    TST      r0,#4
        0x0000af80:    0a000005    ....    BEQ      0xaf9c ; uart2ISR + 204
        0x0000af84:    e5940218    ....    LDR      r0,[r4,#0x218]
        0x0000af88:    e58d0008    ....    STR      r0,[sp,#8]
        0x0000af8c:    e59d0008    ....    LDR      r0,[sp,#8]
        0x0000af90:    e3100040    @...    TST      r0,#0x40
        0x0000af94:    0a000000    ....    BEQ      0xaf9c ; uart2ISR + 204
        0x0000af98:    e5c56002    .`..    STRB     r6,[r5,#2]
        0x0000af9c:    e8bd807f    ....    POP      {r0-r6,pc}
        0x0000afa0:    e3a00002    ....    MOV      r0,#2
        0x0000afa4:    ebffe53d    =...    BL       RS485_HANDLE ; 0x44a0
        0x0000afa8:    e8bd807f    ....    POP      {r0-r6,pc}
        0x0000afac:    e3a00002    ....    MOV      r0,#2
        0x0000afb0:    ebffe093    ....    BL       LIN_HANDLE ; 0x3204
        0x0000afb4:    e8bd807f    ....    POP      {r0-r6,pc}
        0x0000afb8:    e5940214    ....    LDR      r0,[r4,#0x214]
        0x0000afbc:    e58d0004    ....    STR      r0,[sp,#4]
        0x0000afc0:    e59d0004    ....    LDR      r0,[sp,#4]
        0x0000afc4:    e3100001    ....    TST      r0,#1
        0x0000afc8:    0affffea    ....    BEQ      0xaf78 ; uart2ISR + 168
        0x0000afcc:    e5c5600c    .`..    STRB     r6,[r5,#0xc]
        0x0000afd0:    eaffffe8    ....    B        0xaf78 ; uart2ISR + 168
    $d
        0x0000afd4:    0000d9ec    ....    DCD    55788
    $a
    i.uart3ISR
    uart3ISR
        0x0000afd8:    e92d407f    .@-.    PUSH     {r0-r6,lr}
        0x0000afdc:    e3a0432e    .C..    MOV      r4,#0xb8000000
        0x0000afe0:    e594031c    ....    LDR      r0,[r4,#0x31c]
        0x0000afe4:    e20000ff    ....    AND      r0,r0,#0xff
        0x0000afe8:    e58d000c    ....    STR      r0,[sp,#0xc]
        0x0000afec:    e5940330    0...    LDR      r0,[r4,#0x330]
        0x0000aff0:    e58d0000    ....    STR      r0,[sp,#0]
        0x0000aff4:    e59d000c    ....    LDR      r0,[sp,#0xc]
        0x0000aff8:    e3100002    ....    TST      r0,#2
        0x0000affc:    0a000001    ....    BEQ      0xb008 ; uart3ISR + 48
        0x0000b000:    e3a00003    ....    MOV      r0,#3
        0x0000b004:    ebfff04a    J...    BL       _uartTransmitChars ; 0x7134
        0x0000b008:    e59d0000    ....    LDR      r0,[sp,#0]
        0x0000b00c:    e3500003    ..P.    CMP      r0,#3
        0x0000b010:    0a00001b    ....    BEQ      0xb084 ; uart3ISR + 172
        0x0000b014:    e59d0000    ....    LDR      r0,[sp,#0]
        0x0000b018:    e3500001    ..P.    CMP      r0,#1
        0x0000b01c:    0a00001b    ....    BEQ      0xb090 ; uart3ISR + 184
        0x0000b020:    e59d000c    ....    LDR      r0,[sp,#0xc]
        0x0000b024:    e3100011    ....    TST      r0,#0x11
        0x0000b028:    0a000001    ....    BEQ      0xb034 ; uart3ISR + 92
        0x0000b02c:    e3a00003    ....    MOV      r0,#3
        0x0000b030:    ebffef87    ....    BL       _uartReceiveChars ; 0x6e54
        0x0000b034:    e59d000c    ....    LDR      r0,[sp,#0xc]
        0x0000b038:    e59f5078    xP..    LDR      r5,[pc,#120] ; [0xb0b8] = 0xd9ec
        0x0000b03c:    e3100008    ....    TST      r0,#8
        0x0000b040:    e3a06001    .`..    MOV      r6,#1
        0x0000b044:    0a000004    ....    BEQ      0xb05c ; uart3ISR + 132
        0x0000b048:    e5d50015    ....    LDRB     r0,[r5,#0x15]
        0x0000b04c:    e3500000    ..P.    CMP      r0,#0
        0x0000b050:    0a000011    ....    BEQ      0xb09c ; uart3ISR + 196
        0x0000b054:    e3a00003    ....    MOV      r0,#3
        0x0000b058:    ebffeda2    ....    BL       _uartCheckModemStatus ; 0x66e8
        0x0000b05c:    e59d000c    ....    LDR      r0,[sp,#0xc]
        0x0000b060:    e3100004    ....    TST      r0,#4
        0x0000b064:    0a000005    ....    BEQ      0xb080 ; uart3ISR + 168
        0x0000b068:    e5940318    ....    LDR      r0,[r4,#0x318]
        0x0000b06c:    e58d0008    ....    STR      r0,[sp,#8]
        0x0000b070:    e59d0008    ....    LDR      r0,[sp,#8]
        0x0000b074:    e3100040    @...    TST      r0,#0x40
        0x0000b078:    0a000000    ....    BEQ      0xb080 ; uart3ISR + 168
        0x0000b07c:    e5c56003    .`..    STRB     r6,[r5,#3]
        0x0000b080:    e8bd807f    ....    POP      {r0-r6,pc}
        0x0000b084:    e3a00003    ....    MOV      r0,#3
        0x0000b088:    ebffe504    ....    BL       RS485_HANDLE ; 0x44a0
        0x0000b08c:    e8bd807f    ....    POP      {r0-r6,pc}
        0x0000b090:    e3a00003    ....    MOV      r0,#3
        0x0000b094:    ebffe05a    Z...    BL       LIN_HANDLE ; 0x3204
        0x0000b098:    e8bd807f    ....    POP      {r0-r6,pc}
        0x0000b09c:    e5940314    ....    LDR      r0,[r4,#0x314]
        0x0000b0a0:    e58d0004    ....    STR      r0,[sp,#4]
        0x0000b0a4:    e59d0004    ....    LDR      r0,[sp,#4]
        0x0000b0a8:    e3100001    ....    TST      r0,#1
        0x0000b0ac:    0affffea    ....    BEQ      0xb05c ; uart3ISR + 132
        0x0000b0b0:    e5c5600d    .`..    STRB     r6,[r5,#0xd]
        0x0000b0b4:    eaffffe8    ....    B        0xb05c ; uart3ISR + 132
    $d
        0x0000b0b8:    0000d9ec    ....    DCD    55788
    $a
    i.uart4ISR
    uart4ISR
        0x0000b0bc:    e92d407f    .@-.    PUSH     {r0-r6,lr}
        0x0000b0c0:    e59f00e0    ....    LDR      r0,[pc,#224] ; [0xb1a8] = 0xb800041c
        0x0000b0c4:    e5900000    ....    LDR      r0,[r0,#0]
        0x0000b0c8:    e20000ff    ....    AND      r0,r0,#0xff
        0x0000b0cc:    e58d000c    ....    STR      r0,[sp,#0xc]
        0x0000b0d0:    e59f00d4    ....    LDR      r0,[pc,#212] ; [0xb1ac] = 0xb8000430
        0x0000b0d4:    e5900000    ....    LDR      r0,[r0,#0]
        0x0000b0d8:    e58d0000    ....    STR      r0,[sp,#0]
        0x0000b0dc:    e59d000c    ....    LDR      r0,[sp,#0xc]
        0x0000b0e0:    e3100002    ....    TST      r0,#2
        0x0000b0e4:    0a000001    ....    BEQ      0xb0f0 ; uart4ISR + 52
        0x0000b0e8:    e3a00004    ....    MOV      r0,#4
        0x0000b0ec:    ebfff010    ....    BL       _uartTransmitChars ; 0x7134
        0x0000b0f0:    e59d0000    ....    LDR      r0,[sp,#0]
        0x0000b0f4:    e3500003    ..P.    CMP      r0,#3
        0x0000b0f8:    0a00001c    ....    BEQ      0xb170 ; uart4ISR + 180
        0x0000b0fc:    e59d0000    ....    LDR      r0,[sp,#0]
        0x0000b100:    e3500001    ..P.    CMP      r0,#1
        0x0000b104:    0a00001c    ....    BEQ      0xb17c ; uart4ISR + 192
        0x0000b108:    e59d000c    ....    LDR      r0,[sp,#0xc]
        0x0000b10c:    e3100011    ....    TST      r0,#0x11
        0x0000b110:    0a000001    ....    BEQ      0xb11c ; uart4ISR + 96
        0x0000b114:    e3a00004    ....    MOV      r0,#4
        0x0000b118:    ebffef4d    M...    BL       _uartReceiveChars ; 0x6e54
        0x0000b11c:    e59d000c    ....    LDR      r0,[sp,#0xc]
        0x0000b120:    e59f4088    .@..    LDR      r4,[pc,#136] ; [0xb1b0] = 0xd9ec
        0x0000b124:    e3100008    ....    TST      r0,#8
        0x0000b128:    e3a05001    .P..    MOV      r5,#1
        0x0000b12c:    0a000004    ....    BEQ      0xb144 ; uart4ISR + 136
        0x0000b130:    e5d40015    ....    LDRB     r0,[r4,#0x15]
        0x0000b134:    e3500000    ..P.    CMP      r0,#0
        0x0000b138:    0a000012    ....    BEQ      0xb188 ; uart4ISR + 204
        0x0000b13c:    e3a00004    ....    MOV      r0,#4
        0x0000b140:    ebffed68    h...    BL       _uartCheckModemStatus ; 0x66e8
        0x0000b144:    e59d000c    ....    LDR      r0,[sp,#0xc]
        0x0000b148:    e3100004    ....    TST      r0,#4
        0x0000b14c:    0a000006    ....    BEQ      0xb16c ; uart4ISR + 176
        0x0000b150:    e59f005c    \...    LDR      r0,[pc,#92] ; [0xb1b4] = 0xb8000418
        0x0000b154:    e5900000    ....    LDR      r0,[r0,#0]
        0x0000b158:    e58d0008    ....    STR      r0,[sp,#8]
        0x0000b15c:    e59d0008    ....    LDR      r0,[sp,#8]
        0x0000b160:    e3100040    @...    TST      r0,#0x40
        0x0000b164:    0a000000    ....    BEQ      0xb16c ; uart4ISR + 176
        0x0000b168:    e5c45004    .P..    STRB     r5,[r4,#4]
        0x0000b16c:    e8bd807f    ....    POP      {r0-r6,pc}
        0x0000b170:    e3a00004    ....    MOV      r0,#4
        0x0000b174:    ebffe4c9    ....    BL       RS485_HANDLE ; 0x44a0
        0x0000b178:    e8bd807f    ....    POP      {r0-r6,pc}
        0x0000b17c:    e3a00004    ....    MOV      r0,#4
        0x0000b180:    ebffe01f    ....    BL       LIN_HANDLE ; 0x3204
        0x0000b184:    e8bd807f    ....    POP      {r0-r6,pc}
        0x0000b188:    e59f0028    (...    LDR      r0,[pc,#40] ; [0xb1b8] = 0xb8000414
        0x0000b18c:    e5900000    ....    LDR      r0,[r0,#0]
        0x0000b190:    e58d0004    ....    STR      r0,[sp,#4]
        0x0000b194:    e59d0004    ....    LDR      r0,[sp,#4]
        0x0000b198:    e3100001    ....    TST      r0,#1
        0x0000b19c:    0affffe8    ....    BEQ      0xb144 ; uart4ISR + 136
        0x0000b1a0:    e5c4500e    .P..    STRB     r5,[r4,#0xe]
        0x0000b1a4:    eaffffe6    ....    B        0xb144 ; uart4ISR + 136
    $d
        0x0000b1a8:    b800041c    ....    DCD    3087008796
        0x0000b1ac:    b8000430    0...    DCD    3087008816
        0x0000b1b0:    0000d9ec    ....    DCD    55788
        0x0000b1b4:    b8000418    ....    DCD    3087008792
        0x0000b1b8:    b8000414    ....    DCD    3087008788
    $a
    i.uart5ISR
    uart5ISR
        0x0000b1bc:    e92d407f    .@-.    PUSH     {r0-r6,lr}
        0x0000b1c0:    e59f00e0    ....    LDR      r0,[pc,#224] ; [0xb2a8] = 0xb800051c
        0x0000b1c4:    e5900000    ....    LDR      r0,[r0,#0]
        0x0000b1c8:    e20000ff    ....    AND      r0,r0,#0xff
        0x0000b1cc:    e58d000c    ....    STR      r0,[sp,#0xc]
        0x0000b1d0:    e59f00d4    ....    LDR      r0,[pc,#212] ; [0xb2ac] = 0xb8000530
        0x0000b1d4:    e5900000    ....    LDR      r0,[r0,#0]
        0x0000b1d8:    e58d0000    ....    STR      r0,[sp,#0]
        0x0000b1dc:    e59d000c    ....    LDR      r0,[sp,#0xc]
        0x0000b1e0:    e3100002    ....    TST      r0,#2
        0x0000b1e4:    0a000001    ....    BEQ      0xb1f0 ; uart5ISR + 52
        0x0000b1e8:    e3a00005    ....    MOV      r0,#5
        0x0000b1ec:    ebffefd0    ....    BL       _uartTransmitChars ; 0x7134
        0x0000b1f0:    e59d0000    ....    LDR      r0,[sp,#0]
        0x0000b1f4:    e3500003    ..P.    CMP      r0,#3
        0x0000b1f8:    0a00001c    ....    BEQ      0xb270 ; uart5ISR + 180
        0x0000b1fc:    e59d0000    ....    LDR      r0,[sp,#0]
        0x0000b200:    e3500001    ..P.    CMP      r0,#1
        0x0000b204:    0a00001c    ....    BEQ      0xb27c ; uart5ISR + 192
        0x0000b208:    e59d000c    ....    LDR      r0,[sp,#0xc]
        0x0000b20c:    e3100011    ....    TST      r0,#0x11
        0x0000b210:    0a000001    ....    BEQ      0xb21c ; uart5ISR + 96
        0x0000b214:    e3a00005    ....    MOV      r0,#5
        0x0000b218:    ebffef0d    ....    BL       _uartReceiveChars ; 0x6e54
        0x0000b21c:    e59d000c    ....    LDR      r0,[sp,#0xc]
        0x0000b220:    e59f4088    .@..    LDR      r4,[pc,#136] ; [0xb2b0] = 0xd9ec
        0x0000b224:    e3100008    ....    TST      r0,#8
        0x0000b228:    e3a05001    .P..    MOV      r5,#1
        0x0000b22c:    0a000004    ....    BEQ      0xb244 ; uart5ISR + 136
        0x0000b230:    e5d40015    ....    LDRB     r0,[r4,#0x15]
        0x0000b234:    e3500000    ..P.    CMP      r0,#0
        0x0000b238:    0a000012    ....    BEQ      0xb288 ; uart5ISR + 204
        0x0000b23c:    e3a00005    ....    MOV      r0,#5
        0x0000b240:    ebffed28    (...    BL       _uartCheckModemStatus ; 0x66e8
        0x0000b244:    e59d000c    ....    LDR      r0,[sp,#0xc]
        0x0000b248:    e3100004    ....    TST      r0,#4
        0x0000b24c:    0a000006    ....    BEQ      0xb26c ; uart5ISR + 176
        0x0000b250:    e59f005c    \...    LDR      r0,[pc,#92] ; [0xb2b4] = 0xb8000518
        0x0000b254:    e5900000    ....    LDR      r0,[r0,#0]
        0x0000b258:    e58d0008    ....    STR      r0,[sp,#8]
        0x0000b25c:    e59d0008    ....    LDR      r0,[sp,#8]
        0x0000b260:    e3100040    @...    TST      r0,#0x40
        0x0000b264:    0a000000    ....    BEQ      0xb26c ; uart5ISR + 176
        0x0000b268:    e5c45005    .P..    STRB     r5,[r4,#5]
        0x0000b26c:    e8bd807f    ....    POP      {r0-r6,pc}
        0x0000b270:    e3a00005    ....    MOV      r0,#5
        0x0000b274:    ebffe489    ....    BL       RS485_HANDLE ; 0x44a0
        0x0000b278:    e8bd807f    ....    POP      {r0-r6,pc}
        0x0000b27c:    e3a00005    ....    MOV      r0,#5
        0x0000b280:    ebffdfdf    ....    BL       LIN_HANDLE ; 0x3204
        0x0000b284:    e8bd807f    ....    POP      {r0-r6,pc}
        0x0000b288:    e59f0028    (...    LDR      r0,[pc,#40] ; [0xb2b8] = 0xb8000514
        0x0000b28c:    e5900000    ....    LDR      r0,[r0,#0]
        0x0000b290:    e58d0004    ....    STR      r0,[sp,#4]
        0x0000b294:    e59d0004    ....    LDR      r0,[sp,#4]
        0x0000b298:    e3100001    ....    TST      r0,#1
        0x0000b29c:    0affffe8    ....    BEQ      0xb244 ; uart5ISR + 136
        0x0000b2a0:    e5c4500f    .P..    STRB     r5,[r4,#0xf]
        0x0000b2a4:    eaffffe6    ....    B        0xb244 ; uart5ISR + 136
    $d
        0x0000b2a8:    b800051c    ....    DCD    3087009052
        0x0000b2ac:    b8000530    0...    DCD    3087009072
        0x0000b2b0:    0000d9ec    ....    DCD    55788
        0x0000b2b4:    b8000518    ....    DCD    3087009048
        0x0000b2b8:    b8000514    ....    DCD    3087009044
    $a
    i.uart6ISR
    uart6ISR
        0x0000b2bc:    e92d407f    .@-.    PUSH     {r0-r6,lr}
        0x0000b2c0:    e59f00e0    ....    LDR      r0,[pc,#224] ; [0xb3a8] = 0xb800061c
        0x0000b2c4:    e5900000    ....    LDR      r0,[r0,#0]
        0x0000b2c8:    e20000ff    ....    AND      r0,r0,#0xff
        0x0000b2cc:    e58d000c    ....    STR      r0,[sp,#0xc]
        0x0000b2d0:    e59f00d4    ....    LDR      r0,[pc,#212] ; [0xb3ac] = 0xb8000630
        0x0000b2d4:    e5900000    ....    LDR      r0,[r0,#0]
        0x0000b2d8:    e58d0000    ....    STR      r0,[sp,#0]
        0x0000b2dc:    e59d000c    ....    LDR      r0,[sp,#0xc]
        0x0000b2e0:    e3100002    ....    TST      r0,#2
        0x0000b2e4:    0a000001    ....    BEQ      0xb2f0 ; uart6ISR + 52
        0x0000b2e8:    e3a00006    ....    MOV      r0,#6
        0x0000b2ec:    ebffef90    ....    BL       _uartTransmitChars ; 0x7134
        0x0000b2f0:    e59d0000    ....    LDR      r0,[sp,#0]
        0x0000b2f4:    e3500003    ..P.    CMP      r0,#3
        0x0000b2f8:    0a00001c    ....    BEQ      0xb370 ; uart6ISR + 180
        0x0000b2fc:    e59d0000    ....    LDR      r0,[sp,#0]
        0x0000b300:    e3500001    ..P.    CMP      r0,#1
        0x0000b304:    0a00001c    ....    BEQ      0xb37c ; uart6ISR + 192
        0x0000b308:    e59d000c    ....    LDR      r0,[sp,#0xc]
        0x0000b30c:    e3100011    ....    TST      r0,#0x11
        0x0000b310:    0a000001    ....    BEQ      0xb31c ; uart6ISR + 96
        0x0000b314:    e3a00006    ....    MOV      r0,#6
        0x0000b318:    ebffeecd    ....    BL       _uartReceiveChars ; 0x6e54
        0x0000b31c:    e59d000c    ....    LDR      r0,[sp,#0xc]
        0x0000b320:    e59f4088    .@..    LDR      r4,[pc,#136] ; [0xb3b0] = 0xd9ec
        0x0000b324:    e3100008    ....    TST      r0,#8
        0x0000b328:    e3a05001    .P..    MOV      r5,#1
        0x0000b32c:    0a000004    ....    BEQ      0xb344 ; uart6ISR + 136
        0x0000b330:    e5d40015    ....    LDRB     r0,[r4,#0x15]
        0x0000b334:    e3500000    ..P.    CMP      r0,#0
        0x0000b338:    0a000012    ....    BEQ      0xb388 ; uart6ISR + 204
        0x0000b33c:    e3a00006    ....    MOV      r0,#6
        0x0000b340:    ebffece8    ....    BL       _uartCheckModemStatus ; 0x66e8
        0x0000b344:    e59d000c    ....    LDR      r0,[sp,#0xc]
        0x0000b348:    e3100004    ....    TST      r0,#4
        0x0000b34c:    0a000006    ....    BEQ      0xb36c ; uart6ISR + 176
        0x0000b350:    e59f005c    \...    LDR      r0,[pc,#92] ; [0xb3b4] = 0xb8000618
        0x0000b354:    e5900000    ....    LDR      r0,[r0,#0]
        0x0000b358:    e58d0008    ....    STR      r0,[sp,#8]
        0x0000b35c:    e59d0008    ....    LDR      r0,[sp,#8]
        0x0000b360:    e3100040    @...    TST      r0,#0x40
        0x0000b364:    0a000000    ....    BEQ      0xb36c ; uart6ISR + 176
        0x0000b368:    e5c45006    .P..    STRB     r5,[r4,#6]
        0x0000b36c:    e8bd807f    ....    POP      {r0-r6,pc}
        0x0000b370:    e3a00006    ....    MOV      r0,#6
        0x0000b374:    ebffe449    I...    BL       RS485_HANDLE ; 0x44a0
        0x0000b378:    e8bd807f    ....    POP      {r0-r6,pc}
        0x0000b37c:    e3a00006    ....    MOV      r0,#6
        0x0000b380:    ebffdf9f    ....    BL       LIN_HANDLE ; 0x3204
        0x0000b384:    e8bd807f    ....    POP      {r0-r6,pc}
        0x0000b388:    e59f0028    (...    LDR      r0,[pc,#40] ; [0xb3b8] = 0xb8000614
        0x0000b38c:    e5900000    ....    LDR      r0,[r0,#0]
        0x0000b390:    e58d0004    ....    STR      r0,[sp,#4]
        0x0000b394:    e59d0004    ....    LDR      r0,[sp,#4]
        0x0000b398:    e3100001    ....    TST      r0,#1
        0x0000b39c:    0affffe8    ....    BEQ      0xb344 ; uart6ISR + 136
        0x0000b3a0:    e5c45010    .P..    STRB     r5,[r4,#0x10]
        0x0000b3a4:    eaffffe6    ....    B        0xb344 ; uart6ISR + 136
    $d
        0x0000b3a8:    b800061c    ....    DCD    3087009308
        0x0000b3ac:    b8000630    0...    DCD    3087009328
        0x0000b3b0:    0000d9ec    ....    DCD    55788
        0x0000b3b4:    b8000618    ....    DCD    3087009304
        0x0000b3b8:    b8000614    ....    DCD    3087009300
    $a
    i.uart7ISR
    uart7ISR
        0x0000b3bc:    e92d407f    .@-.    PUSH     {r0-r6,lr}
        0x0000b3c0:    e59f00e0    ....    LDR      r0,[pc,#224] ; [0xb4a8] = 0xb800071c
        0x0000b3c4:    e5900000    ....    LDR      r0,[r0,#0]
        0x0000b3c8:    e20000ff    ....    AND      r0,r0,#0xff
        0x0000b3cc:    e58d000c    ....    STR      r0,[sp,#0xc]
        0x0000b3d0:    e59f00d4    ....    LDR      r0,[pc,#212] ; [0xb4ac] = 0xb8000730
        0x0000b3d4:    e5900000    ....    LDR      r0,[r0,#0]
        0x0000b3d8:    e58d0000    ....    STR      r0,[sp,#0]
        0x0000b3dc:    e59d000c    ....    LDR      r0,[sp,#0xc]
        0x0000b3e0:    e3100002    ....    TST      r0,#2
        0x0000b3e4:    0a000001    ....    BEQ      0xb3f0 ; uart7ISR + 52
        0x0000b3e8:    e3a00007    ....    MOV      r0,#7
        0x0000b3ec:    ebffef50    P...    BL       _uartTransmitChars ; 0x7134
        0x0000b3f0:    e59d0000    ....    LDR      r0,[sp,#0]
        0x0000b3f4:    e3500003    ..P.    CMP      r0,#3
        0x0000b3f8:    0a00001c    ....    BEQ      0xb470 ; uart7ISR + 180
        0x0000b3fc:    e59d0000    ....    LDR      r0,[sp,#0]
        0x0000b400:    e3500001    ..P.    CMP      r0,#1
        0x0000b404:    0a00001c    ....    BEQ      0xb47c ; uart7ISR + 192
        0x0000b408:    e59d000c    ....    LDR      r0,[sp,#0xc]
        0x0000b40c:    e3100011    ....    TST      r0,#0x11
        0x0000b410:    0a000001    ....    BEQ      0xb41c ; uart7ISR + 96
        0x0000b414:    e3a00007    ....    MOV      r0,#7
        0x0000b418:    ebffee8d    ....    BL       _uartReceiveChars ; 0x6e54
        0x0000b41c:    e59d000c    ....    LDR      r0,[sp,#0xc]
        0x0000b420:    e59f4088    .@..    LDR      r4,[pc,#136] ; [0xb4b0] = 0xd9ec
        0x0000b424:    e3100008    ....    TST      r0,#8
        0x0000b428:    e3a05001    .P..    MOV      r5,#1
        0x0000b42c:    0a000004    ....    BEQ      0xb444 ; uart7ISR + 136
        0x0000b430:    e5d40015    ....    LDRB     r0,[r4,#0x15]
        0x0000b434:    e3500000    ..P.    CMP      r0,#0
        0x0000b438:    0a000012    ....    BEQ      0xb488 ; uart7ISR + 204
        0x0000b43c:    e3a00007    ....    MOV      r0,#7
        0x0000b440:    ebffeca8    ....    BL       _uartCheckModemStatus ; 0x66e8
        0x0000b444:    e59d000c    ....    LDR      r0,[sp,#0xc]
        0x0000b448:    e3100004    ....    TST      r0,#4
        0x0000b44c:    0a000006    ....    BEQ      0xb46c ; uart7ISR + 176
        0x0000b450:    e59f005c    \...    LDR      r0,[pc,#92] ; [0xb4b4] = 0xb8000718
        0x0000b454:    e5900000    ....    LDR      r0,[r0,#0]
        0x0000b458:    e58d0008    ....    STR      r0,[sp,#8]
        0x0000b45c:    e59d0008    ....    LDR      r0,[sp,#8]
        0x0000b460:    e3100040    @...    TST      r0,#0x40
        0x0000b464:    0a000000    ....    BEQ      0xb46c ; uart7ISR + 176
        0x0000b468:    e5c45007    .P..    STRB     r5,[r4,#7]
        0x0000b46c:    e8bd807f    ....    POP      {r0-r6,pc}
        0x0000b470:    e3a00007    ....    MOV      r0,#7
        0x0000b474:    ebffe409    ....    BL       RS485_HANDLE ; 0x44a0
        0x0000b478:    e8bd807f    ....    POP      {r0-r6,pc}
        0x0000b47c:    e3a00007    ....    MOV      r0,#7
        0x0000b480:    ebffdf5f    _...    BL       LIN_HANDLE ; 0x3204
        0x0000b484:    e8bd807f    ....    POP      {r0-r6,pc}
        0x0000b488:    e59f0028    (...    LDR      r0,[pc,#40] ; [0xb4b8] = 0xb8000714
        0x0000b48c:    e5900000    ....    LDR      r0,[r0,#0]
        0x0000b490:    e58d0004    ....    STR      r0,[sp,#4]
        0x0000b494:    e59d0004    ....    LDR      r0,[sp,#4]
        0x0000b498:    e3100001    ....    TST      r0,#1
        0x0000b49c:    0affffe8    ....    BEQ      0xb444 ; uart7ISR + 136
        0x0000b4a0:    e5c45011    .P..    STRB     r5,[r4,#0x11]
        0x0000b4a4:    eaffffe6    ....    B        0xb444 ; uart7ISR + 136
    $d
        0x0000b4a8:    b800071c    ....    DCD    3087009564
        0x0000b4ac:    b8000730    0...    DCD    3087009584
        0x0000b4b0:    0000d9ec    ....    DCD    55788
        0x0000b4b4:    b8000718    ....    DCD    3087009560
        0x0000b4b8:    b8000714    ....    DCD    3087009556
    $a
    i.uart8ISR
    uart8ISR
        0x0000b4bc:    e92d407f    .@-.    PUSH     {r0-r6,lr}
        0x0000b4c0:    e59f00e0    ....    LDR      r0,[pc,#224] ; [0xb5a8] = 0xb800081c
        0x0000b4c4:    e5900000    ....    LDR      r0,[r0,#0]
        0x0000b4c8:    e20000ff    ....    AND      r0,r0,#0xff
        0x0000b4cc:    e58d000c    ....    STR      r0,[sp,#0xc]
        0x0000b4d0:    e59f00d4    ....    LDR      r0,[pc,#212] ; [0xb5ac] = 0xb8000830
        0x0000b4d4:    e5900000    ....    LDR      r0,[r0,#0]
        0x0000b4d8:    e58d0000    ....    STR      r0,[sp,#0]
        0x0000b4dc:    e59d000c    ....    LDR      r0,[sp,#0xc]
        0x0000b4e0:    e3100002    ....    TST      r0,#2
        0x0000b4e4:    0a000001    ....    BEQ      0xb4f0 ; uart8ISR + 52
        0x0000b4e8:    e3a00008    ....    MOV      r0,#8
        0x0000b4ec:    ebffef10    ....    BL       _uartTransmitChars ; 0x7134
        0x0000b4f0:    e59d0000    ....    LDR      r0,[sp,#0]
        0x0000b4f4:    e3500003    ..P.    CMP      r0,#3
        0x0000b4f8:    0a00001c    ....    BEQ      0xb570 ; uart8ISR + 180
        0x0000b4fc:    e59d0000    ....    LDR      r0,[sp,#0]
        0x0000b500:    e3500001    ..P.    CMP      r0,#1
        0x0000b504:    0a00001c    ....    BEQ      0xb57c ; uart8ISR + 192
        0x0000b508:    e59d000c    ....    LDR      r0,[sp,#0xc]
        0x0000b50c:    e3100011    ....    TST      r0,#0x11
        0x0000b510:    0a000001    ....    BEQ      0xb51c ; uart8ISR + 96
        0x0000b514:    e3a00008    ....    MOV      r0,#8
        0x0000b518:    ebffee4d    M...    BL       _uartReceiveChars ; 0x6e54
        0x0000b51c:    e59d000c    ....    LDR      r0,[sp,#0xc]
        0x0000b520:    e59f4088    .@..    LDR      r4,[pc,#136] ; [0xb5b0] = 0xd9ec
        0x0000b524:    e3100008    ....    TST      r0,#8
        0x0000b528:    e3a05001    .P..    MOV      r5,#1
        0x0000b52c:    0a000004    ....    BEQ      0xb544 ; uart8ISR + 136
        0x0000b530:    e5d40015    ....    LDRB     r0,[r4,#0x15]
        0x0000b534:    e3500000    ..P.    CMP      r0,#0
        0x0000b538:    0a000012    ....    BEQ      0xb588 ; uart8ISR + 204
        0x0000b53c:    e3a00008    ....    MOV      r0,#8
        0x0000b540:    ebffec68    h...    BL       _uartCheckModemStatus ; 0x66e8
        0x0000b544:    e59d000c    ....    LDR      r0,[sp,#0xc]
        0x0000b548:    e3100004    ....    TST      r0,#4
        0x0000b54c:    0a000006    ....    BEQ      0xb56c ; uart8ISR + 176
        0x0000b550:    e59f005c    \...    LDR      r0,[pc,#92] ; [0xb5b4] = 0xb8000818
        0x0000b554:    e5900000    ....    LDR      r0,[r0,#0]
        0x0000b558:    e58d0008    ....    STR      r0,[sp,#8]
        0x0000b55c:    e59d0008    ....    LDR      r0,[sp,#8]
        0x0000b560:    e3100040    @...    TST      r0,#0x40
        0x0000b564:    0a000000    ....    BEQ      0xb56c ; uart8ISR + 176
        0x0000b568:    e5c45008    .P..    STRB     r5,[r4,#8]
        0x0000b56c:    e8bd807f    ....    POP      {r0-r6,pc}
        0x0000b570:    e3a00008    ....    MOV      r0,#8
        0x0000b574:    ebffe3c9    ....    BL       RS485_HANDLE ; 0x44a0
        0x0000b578:    e8bd807f    ....    POP      {r0-r6,pc}
        0x0000b57c:    e3a00008    ....    MOV      r0,#8
        0x0000b580:    ebffdf1f    ....    BL       LIN_HANDLE ; 0x3204
        0x0000b584:    e8bd807f    ....    POP      {r0-r6,pc}
        0x0000b588:    e59f0028    (...    LDR      r0,[pc,#40] ; [0xb5b8] = 0xb8000814
        0x0000b58c:    e5900000    ....    LDR      r0,[r0,#0]
        0x0000b590:    e58d0004    ....    STR      r0,[sp,#4]
        0x0000b594:    e59d0004    ....    LDR      r0,[sp,#4]
        0x0000b598:    e3100001    ....    TST      r0,#1
        0x0000b59c:    0affffe8    ....    BEQ      0xb544 ; uart8ISR + 136
        0x0000b5a0:    e5c45012    .P..    STRB     r5,[r4,#0x12]
        0x0000b5a4:    eaffffe6    ....    B        0xb544 ; uart8ISR + 136
    $d
        0x0000b5a8:    b800081c    ....    DCD    3087009820
        0x0000b5ac:    b8000830    0...    DCD    3087009840
        0x0000b5b0:    0000d9ec    ....    DCD    55788
        0x0000b5b4:    b8000818    ....    DCD    3087009816
        0x0000b5b8:    b8000814    ....    DCD    3087009812
    $a
    i.uart9ISR
    uart9ISR
        0x0000b5bc:    e92d407f    .@-.    PUSH     {r0-r6,lr}
        0x0000b5c0:    e59f00e0    ....    LDR      r0,[pc,#224] ; [0xb6a8] = 0xb800091c
        0x0000b5c4:    e5900000    ....    LDR      r0,[r0,#0]
        0x0000b5c8:    e20000ff    ....    AND      r0,r0,#0xff
        0x0000b5cc:    e58d000c    ....    STR      r0,[sp,#0xc]
        0x0000b5d0:    e59f00d4    ....    LDR      r0,[pc,#212] ; [0xb6ac] = 0xb8000930
        0x0000b5d4:    e5900000    ....    LDR      r0,[r0,#0]
        0x0000b5d8:    e58d0000    ....    STR      r0,[sp,#0]
        0x0000b5dc:    e59d000c    ....    LDR      r0,[sp,#0xc]
        0x0000b5e0:    e3100002    ....    TST      r0,#2
        0x0000b5e4:    0a000001    ....    BEQ      0xb5f0 ; uart9ISR + 52
        0x0000b5e8:    e3a00009    ....    MOV      r0,#9
        0x0000b5ec:    ebffeed0    ....    BL       _uartTransmitChars ; 0x7134
        0x0000b5f0:    e59d0000    ....    LDR      r0,[sp,#0]
        0x0000b5f4:    e3500003    ..P.    CMP      r0,#3
        0x0000b5f8:    0a00001c    ....    BEQ      0xb670 ; uart9ISR + 180
        0x0000b5fc:    e59d0000    ....    LDR      r0,[sp,#0]
        0x0000b600:    e3500001    ..P.    CMP      r0,#1
        0x0000b604:    0a00001c    ....    BEQ      0xb67c ; uart9ISR + 192
        0x0000b608:    e59d000c    ....    LDR      r0,[sp,#0xc]
        0x0000b60c:    e3100011    ....    TST      r0,#0x11
        0x0000b610:    0a000001    ....    BEQ      0xb61c ; uart9ISR + 96
        0x0000b614:    e3a00009    ....    MOV      r0,#9
        0x0000b618:    ebffee0d    ....    BL       _uartReceiveChars ; 0x6e54
        0x0000b61c:    e59d000c    ....    LDR      r0,[sp,#0xc]
        0x0000b620:    e59f4088    .@..    LDR      r4,[pc,#136] ; [0xb6b0] = 0xd9ec
        0x0000b624:    e3100008    ....    TST      r0,#8
        0x0000b628:    e3a05001    .P..    MOV      r5,#1
        0x0000b62c:    0a000004    ....    BEQ      0xb644 ; uart9ISR + 136
        0x0000b630:    e5d40015    ....    LDRB     r0,[r4,#0x15]
        0x0000b634:    e3500000    ..P.    CMP      r0,#0
        0x0000b638:    0a000012    ....    BEQ      0xb688 ; uart9ISR + 204
        0x0000b63c:    e3a00009    ....    MOV      r0,#9
        0x0000b640:    ebffec28    (...    BL       _uartCheckModemStatus ; 0x66e8
        0x0000b644:    e59d000c    ....    LDR      r0,[sp,#0xc]
        0x0000b648:    e3100004    ....    TST      r0,#4
        0x0000b64c:    0a000006    ....    BEQ      0xb66c ; uart9ISR + 176
        0x0000b650:    e59f005c    \...    LDR      r0,[pc,#92] ; [0xb6b4] = 0xb8000918
        0x0000b654:    e5900000    ....    LDR      r0,[r0,#0]
        0x0000b658:    e58d0008    ....    STR      r0,[sp,#8]
        0x0000b65c:    e59d0008    ....    LDR      r0,[sp,#8]
        0x0000b660:    e3100040    @...    TST      r0,#0x40
        0x0000b664:    0a000000    ....    BEQ      0xb66c ; uart9ISR + 176
        0x0000b668:    e5c45009    .P..    STRB     r5,[r4,#9]
        0x0000b66c:    e8bd807f    ....    POP      {r0-r6,pc}
        0x0000b670:    e3a00009    ....    MOV      r0,#9
        0x0000b674:    ebffe389    ....    BL       RS485_HANDLE ; 0x44a0
        0x0000b678:    e8bd807f    ....    POP      {r0-r6,pc}
        0x0000b67c:    e3a00009    ....    MOV      r0,#9
        0x0000b680:    ebffdedf    ....    BL       LIN_HANDLE ; 0x3204
        0x0000b684:    e8bd807f    ....    POP      {r0-r6,pc}
        0x0000b688:    e59f0028    (...    LDR      r0,[pc,#40] ; [0xb6b8] = 0xb8000914
        0x0000b68c:    e5900000    ....    LDR      r0,[r0,#0]
        0x0000b690:    e58d0004    ....    STR      r0,[sp,#4]
        0x0000b694:    e59d0004    ....    LDR      r0,[sp,#4]
        0x0000b698:    e3100001    ....    TST      r0,#1
        0x0000b69c:    0affffe8    ....    BEQ      0xb644 ; uart9ISR + 136
        0x0000b6a0:    e5c45013    .P..    STRB     r5,[r4,#0x13]
        0x0000b6a4:    eaffffe6    ....    B        0xb644 ; uart9ISR + 136
    $d
        0x0000b6a8:    b800091c    ....    DCD    3087010076
        0x0000b6ac:    b8000930    0...    DCD    3087010096
        0x0000b6b0:    0000d9ec    ....    DCD    55788
        0x0000b6b4:    b8000918    ....    DCD    3087010072
        0x0000b6b8:    b8000914    ....    DCD    3087010068
    $a
    i.uartIoctl
    uartIoctl
        0x0000b6bc:    e92d47f0    .G-.    PUSH     {r4-r10,lr}
        0x0000b6c0:    e1a0c000    ....    MOV      r12,r0
        0x0000b6c4:    e1a09001    ....    MOV      r9,r1
        0x0000b6c8:    e1a00002    ....    MOV      r0,r2
        0x0000b6cc:    e1a01003    ....    MOV      r1,r3
        0x0000b6d0:    e1a0340c    .4..    LSL      r3,r12,#8
        0x0000b6d4:    e35c000b    ..\.    CMP      r12,#0xb
        0x0000b6d8:    3a000001    ...:    BCC      0xb6e4 ; uartIoctl + 40
        0x0000b6dc:    e59f0578    x...    LDR      r0,[pc,#1400] ; [0xbc5c] = 0xffff1702
        0x0000b6e0:    e8bd87f0    ....    POP      {r4-r10,pc}
        0x0000b6e4:    e08c208c    . ..    ADD      r2,r12,r12,LSL #1
        0x0000b6e8:    e082418c    .A..    ADD      r4,r2,r12,LSL #3
        0x0000b6ec:    e59f256c    l%..    LDR      r2,[pc,#1388] ; [0xbc60] = 0x6810c
        0x0000b6f0:    e0824104    .A..    ADD      r4,r2,r4,LSL #2
        0x0000b6f4:    e5d4201e    . ..    LDRB     r2,[r4,#0x1e]
        0x0000b6f8:    e59f8564    d...    LDR      r8,[pc,#1380] ; [0xbc64] = 0xffff1703
        0x0000b6fc:    e3520000    ..R.    CMP      r2,#0
        0x0000b700:    1a000005    ....    BNE      0xb71c ; uartIoctl + 96
        0x0000b704:    e3590008    ..Y.    CMP      r9,#8
        0x0000b708:    0a000003    ....    BEQ      0xb71c ; uartIoctl + 96
        0x0000b70c:    e3590007    ..Y.    CMP      r9,#7
        0x0000b710:    0a000001    ....    BEQ      0xb71c ; uartIoctl + 96
        0x0000b714:    e1a00008    ....    MOV      r0,r8
        0x0000b718:    e8bd87f0    ....    POP      {r4-r10,pc}
        0x0000b71c:    e59f5544    DU..    LDR      r5,[pc,#1348] ; [0xbc68] = 0xd9ec
        0x0000b720:    e1a0640c    .d..    LSL      r6,r12,#8
        0x0000b724:    e3590020     .Y.    CMP      r9,#0x20
        0x0000b728:    e3a07000    .p..    MOV      r7,#0
        0x0000b72c:    e3a02001    . ..    MOV      r2,#1
        0x0000b730:    e3e0a00b    ....    MVN      r10,#0xb
        0x0000b734:    e286632e    .c..    ADD      r6,r6,#0xb8000000
        0x0000b738:    308ff109    ...0    ADDCC    pc,pc,r9,LSL #2
        0x0000b73c:    ea000144    D...    B        0xbc54 ; uartIoctl + 1432
        0x0000b740:    ea000143    C...    B        0xbc54 ; uartIoctl + 1432
        0x0000b744:    ea00001d    ....    B        0xb7c0 ; uartIoctl + 260
        0x0000b748:    ea000027    '...    B        0xb7ec ; uartIoctl + 304
        0x0000b74c:    ea000037    7...    B        0xb830 ; uartIoctl + 372
        0x0000b750:    ea00003a    :...    B        0xb840 ; uartIoctl + 388
        0x0000b754:    ea00013e    >...    B        0xbc54 ; uartIoctl + 1432
        0x0000b758:    ea00003e    >...    B        0xb858 ; uartIoctl + 412
        0x0000b75c:    ea000046    F...    B        0xb87c ; uartIoctl + 448
        0x0000b760:    ea000049    I...    B        0xb88c ; uartIoctl + 464
        0x0000b764:    ea00013a    :...    B        0xbc54 ; uartIoctl + 1432
        0x0000b768:    ea000139    9...    B        0xbc54 ; uartIoctl + 1432
        0x0000b76c:    ea000138    8...    B        0xbc54 ; uartIoctl + 1432
        0x0000b770:    ea0000a5    ....    B        0xba0c ; uartIoctl + 848
        0x0000b774:    ea0000b0    ....    B        0xba3c ; uartIoctl + 896
        0x0000b778:    ea0000bc    ....    B        0xba70 ; uartIoctl + 948
        0x0000b77c:    ea000053    S...    B        0xb8d0 ; uartIoctl + 532
        0x0000b780:    ea000093    ....    B        0xb9d4 ; uartIoctl + 792
        0x0000b784:    ea000043    C...    B        0xb898 ; uartIoctl + 476
        0x0000b788:    ea0000e7    ....    B        0xbb2c ; uartIoctl + 1136
        0x0000b78c:    ea0000f9    ....    B        0xbb78 ; uartIoctl + 1212
        0x0000b790:    ea00012f    /...    B        0xbc54 ; uartIoctl + 1432
        0x0000b794:    ea00012e    ....    B        0xbc54 ; uartIoctl + 1432
        0x0000b798:    ea00012d    -...    B        0xbc54 ; uartIoctl + 1432
        0x0000b79c:    ea00012c    ,...    B        0xbc54 ; uartIoctl + 1432
        0x0000b7a0:    ea0000fb    ....    B        0xbb94 ; uartIoctl + 1240
        0x0000b7a4:    ea0000fd    ....    B        0xbba0 ; uartIoctl + 1252
        0x0000b7a8:    ea0000ff    ....    B        0xbbac ; uartIoctl + 1264
        0x0000b7ac:    ea000106    ....    B        0xbbcc ; uartIoctl + 1296
        0x0000b7b0:    ea000112    ....    B        0xbc00 ; uartIoctl + 1348
        0x0000b7b4:    ea000119    ....    B        0xbc20 ; uartIoctl + 1380
        0x0000b7b8:    ea00011a    ....    B        0xbc28 ; uartIoctl + 1388
        0x0000b7bc:    ea00011c    ....    B        0xbc34 ; uartIoctl + 1400
        0x0000b7c0:    e3500001    ..P.    CMP      r0,#1
        0x0000b7c4:    0a000004    ....    BEQ      0xb7dc ; uartIoctl + 288
        0x0000b7c8:    e3500000    ..P.    CMP      r0,#0
        0x0000b7cc:    0a000004    ....    BEQ      0xb7e4 ; uartIoctl + 296
        0x0000b7d0:    e584a028    (...    STR      r10,[r4,#0x28]
        0x0000b7d4:    e1a00008    ....    MOV      r0,r8
        0x0000b7d8:    e8bd87f0    ....    POP      {r4-r10,pc}
        0x0000b7dc:    e5c4201c    . ..    STRB     r2,[r4,#0x1c]
        0x0000b7e0:    ea000119    ....    B        0xbc4c ; uartIoctl + 1424
        0x0000b7e4:    e5c4701c    .p..    STRB     r7,[r4,#0x1c]
        0x0000b7e8:    ea000117    ....    B        0xbc4c ; uartIoctl + 1424
        0x0000b7ec:    e3500001    ..P.    CMP      r0,#1
        0x0000b7f0:    0a000004    ....    BEQ      0xb808 ; uartIoctl + 332
        0x0000b7f4:    e3500000    ..P.    CMP      r0,#0
        0x0000b7f8:    0a000007    ....    BEQ      0xb81c ; uartIoctl + 352
        0x0000b7fc:    e584a028    (...    STR      r10,[r4,#0x28]
        0x0000b800:    e1a00008    ....    MOV      r0,r8
        0x0000b804:    e8bd87f0    ....    POP      {r4-r10,pc}
        0x0000b808:    e5c4201d    . ..    STRB     r2,[r4,#0x1d]
        0x0000b80c:    e3a01001    ....    MOV      r1,#1
        0x0000b810:    e1a0000c    ....    MOV      r0,r12
        0x0000b814:    ebffec92    ....    BL       _uartEnableInterrupt ; 0x6a64
        0x0000b818:    ea00010b    ....    B        0xbc4c ; uartIoctl + 1424
        0x0000b81c:    e5c4701d    .p..    STRB     r7,[r4,#0x1d]
        0x0000b820:    e3a01001    ....    MOV      r1,#1
        0x0000b824:    e1a0000c    ....    MOV      r0,r12
        0x0000b828:    ebffec82    ....    BL       _uartDisableInterrupt ; 0x6a38
        0x0000b82c:    ea000106    ....    B        0xbc4c ; uartIoctl + 1424
        0x0000b830:    e3a0202c    , ..    MOV      r2,#0x2c
        0x0000b834:    e1a01004    ....    MOV      r1,r4
        0x0000b838:    ebffd3ec    ....    BL       __aeabi_memcpy ; 0x7f0
        0x0000b83c:    ea000102    ....    B        0xbc4c ; uartIoctl + 1424
        0x0000b840:    ebffebf1    ....    BL       _uartConfigureUART ; 0x680c
        0x0000b844:    e3500000    ..P.    CMP      r0,#0
        0x0000b848:    aa0000ff    ....    BGE      0xbc4c ; uartIoctl + 1424
        0x0000b84c:    e5840028    (...    STR      r0,[r4,#0x28]
        0x0000b850:    e1a00008    ....    MOV      r0,r8
        0x0000b854:    e8bd87f0    ....    POP      {r4-r10,pc}
        0x0000b858:    e1a02001    . ..    MOV      r2,r1
        0x0000b85c:    e1a01000    ....    MOV      r1,r0
        0x0000b860:    e1a0000c    ....    MOV      r0,r12
        0x0000b864:    ebffed59    Y...    BL       _uartPerformIrDA ; 0x6dd0
        0x0000b868:    e3500000    ..P.    CMP      r0,#0
        0x0000b86c:    aa0000f6    ....    BGE      0xbc4c ; uartIoctl + 1424
        0x0000b870:    e5840028    (...    STR      r0,[r4,#0x28]
        0x0000b874:    e1a00008    ....    MOV      r0,r8
        0x0000b878:    e8bd87f0    ....    POP      {r4-r10,pc}
        0x0000b87c:    e8bd47f0    .G..    POP      {r4-r10,lr}
        0x0000b880:    e1a01000    ....    MOV      r1,r0
        0x0000b884:    e1a0000c    ....    MOV      r0,r12
        0x0000b888:    eaffec7b    {...    B        _uartGetRegisterValue ; 0x6a7c
        0x0000b88c:    e5941028    (...    LDR      r1,[r4,#0x28]
        0x0000b890:    e5801000    ....    STR      r1,[r0,#0]
        0x0000b894:    ea0000ec    ....    B        0xbc4c ; uartIoctl + 1424
        0x0000b898:    e3500000    ..P.    CMP      r0,#0
        0x0000b89c:    0a000003    ....    BEQ      0xb8b0 ; uartIoctl + 500
        0x0000b8a0:    e3500001    ..P.    CMP      r0,#1
        0x0000b8a4:    0a000005    ....    BEQ      0xb8c0 ; uartIoctl + 516
        0x0000b8a8:    e1a00008    ....    MOV      r0,r8
        0x0000b8ac:    e8bd87f0    ....    POP      {r4-r10,pc}
        0x0000b8b0:    e3a01008    ....    MOV      r1,#8
        0x0000b8b4:    e1a0000c    ....    MOV      r0,r12
        0x0000b8b8:    ebffec69    i...    BL       _uartEnableInterrupt ; 0x6a64
        0x0000b8bc:    ea0000e2    ....    B        0xbc4c ; uartIoctl + 1424
        0x0000b8c0:    e3a01008    ....    MOV      r1,#8
        0x0000b8c4:    e1a0000c    ....    MOV      r0,r12
        0x0000b8c8:    ebffec5a    Z...    BL       _uartDisableInterrupt ; 0x6a38
        0x0000b8cc:    ea0000de    ....    B        0xbc4c ; uartIoctl + 1424
        0x0000b8d0:    e35c0001    ..\.    CMP      r12,#1
        0x0000b8d4:    0a000012    ....    BEQ      0xb924 ; uartIoctl + 616
        0x0000b8d8:    e35c0002    ..\.    CMP      r12,#2
        0x0000b8dc:    0a000014    ....    BEQ      0xb934 ; uartIoctl + 632
        0x0000b8e0:    e35c0003    ..\.    CMP      r12,#3
        0x0000b8e4:    0a000016    ....    BEQ      0xb944 ; uartIoctl + 648
        0x0000b8e8:    e35c0004    ..\.    CMP      r12,#4
        0x0000b8ec:    0a000018    ....    BEQ      0xb954 ; uartIoctl + 664
        0x0000b8f0:    e35c0005    ..\.    CMP      r12,#5
        0x0000b8f4:    0a00001a    ....    BEQ      0xb964 ; uartIoctl + 680
        0x0000b8f8:    e35c0006    ..\.    CMP      r12,#6
        0x0000b8fc:    0a00001c    ....    BEQ      0xb974 ; uartIoctl + 696
        0x0000b900:    e35c0007    ..\.    CMP      r12,#7
        0x0000b904:    0a00001e    ....    BEQ      0xb984 ; uartIoctl + 712
        0x0000b908:    e35c0008    ..\.    CMP      r12,#8
        0x0000b90c:    0a000020     ...    BEQ      0xb994 ; uartIoctl + 728
        0x0000b910:    e35c0009    ..\.    CMP      r12,#9
        0x0000b914:    0a000022    "...    BEQ      0xb9a4 ; uartIoctl + 744
        0x0000b918:    e35c000a    ..\.    CMP      r12,#0xa
        0x0000b91c:    0a000024    $...    BEQ      0xb9b4 ; uartIoctl + 760
        0x0000b920:    ea000026    &...    B        0xb9c0 ; uartIoctl + 772
        0x0000b924:    e5d5200b    . ..    LDRB     r2,[r5,#0xb]
        0x0000b928:    e5802000    . ..    STR      r2,[r0,#0]
        0x0000b92c:    e5c5700b    .p..    STRB     r7,[r5,#0xb]
        0x0000b930:    ea000022    "...    B        0xb9c0 ; uartIoctl + 772
        0x0000b934:    e5d5200c    . ..    LDRB     r2,[r5,#0xc]
        0x0000b938:    e5802000    . ..    STR      r2,[r0,#0]
        0x0000b93c:    e5c5700c    .p..    STRB     r7,[r5,#0xc]
        0x0000b940:    ea00001e    ....    B        0xb9c0 ; uartIoctl + 772
        0x0000b944:    e5d5200d    . ..    LDRB     r2,[r5,#0xd]
        0x0000b948:    e5802000    . ..    STR      r2,[r0,#0]
        0x0000b94c:    e5c5700d    .p..    STRB     r7,[r5,#0xd]
        0x0000b950:    ea00001a    ....    B        0xb9c0 ; uartIoctl + 772
        0x0000b954:    e5d5200e    . ..    LDRB     r2,[r5,#0xe]
        0x0000b958:    e5802000    . ..    STR      r2,[r0,#0]
        0x0000b95c:    e5c5700e    .p..    STRB     r7,[r5,#0xe]
        0x0000b960:    ea000016    ....    B        0xb9c0 ; uartIoctl + 772
        0x0000b964:    e5d5200f    . ..    LDRB     r2,[r5,#0xf]
        0x0000b968:    e5802000    . ..    STR      r2,[r0,#0]
        0x0000b96c:    e5c5700f    .p..    STRB     r7,[r5,#0xf]
        0x0000b970:    ea000012    ....    B        0xb9c0 ; uartIoctl + 772
        0x0000b974:    e5d52010    . ..    LDRB     r2,[r5,#0x10]
        0x0000b978:    e5802000    . ..    STR      r2,[r0,#0]
        0x0000b97c:    e5c57010    .p..    STRB     r7,[r5,#0x10]
        0x0000b980:    ea00000e    ....    B        0xb9c0 ; uartIoctl + 772
        0x0000b984:    e5d52011    . ..    LDRB     r2,[r5,#0x11]
        0x0000b988:    e5802000    . ..    STR      r2,[r0,#0]
        0x0000b98c:    e5c57011    .p..    STRB     r7,[r5,#0x11]
        0x0000b990:    ea00000a    ....    B        0xb9c0 ; uartIoctl + 772
        0x0000b994:    e5d52012    . ..    LDRB     r2,[r5,#0x12]
        0x0000b998:    e5802000    . ..    STR      r2,[r0,#0]
        0x0000b99c:    e5c57012    .p..    STRB     r7,[r5,#0x12]
        0x0000b9a0:    ea000006    ....    B        0xb9c0 ; uartIoctl + 772
        0x0000b9a4:    e5d52013    . ..    LDRB     r2,[r5,#0x13]
        0x0000b9a8:    e5802000    . ..    STR      r2,[r0,#0]
        0x0000b9ac:    e5c57013    .p..    STRB     r7,[r5,#0x13]
        0x0000b9b0:    ea000002    ....    B        0xb9c0 ; uartIoctl + 772
        0x0000b9b4:    e5d52014    . ..    LDRB     r2,[r5,#0x14]
        0x0000b9b8:    e5802000    . ..    STR      r2,[r0,#0]
        0x0000b9bc:    e5c57014    .p..    STRB     r7,[r5,#0x14]
        0x0000b9c0:    e5960014    ....    LDR      r0,[r6,#0x14]
        0x0000b9c4:    e2000010    ....    AND      r0,r0,#0x10
        0x0000b9c8:    e1a00220     ...    LSR      r0,r0,#4
        0x0000b9cc:    e5810000    ....    STR      r0,[r1,#0]
        0x0000b9d0:    ea00009d    ....    B        0xbc4c ; uartIoctl + 1424
        0x0000b9d4:    e3500001    ..P.    CMP      r0,#1
        0x0000b9d8:    0a000003    ....    BEQ      0xb9ec ; uartIoctl + 816
        0x0000b9dc:    e3500000    ..P.    CMP      r0,#0
        0x0000b9e0:    0a000005    ....    BEQ      0xb9fc ; uartIoctl + 832
        0x0000b9e4:    e1a00008    ....    MOV      r0,r8
        0x0000b9e8:    e8bd87f0    ....    POP      {r4-r10,pc}
        0x0000b9ec:    e5960010    ....    LDR      r0,[r6,#0x10]
        0x0000b9f0:    e3c00002    ....    BIC      r0,r0,#2
        0x0000b9f4:    e5860010    ....    STR      r0,[r6,#0x10]
        0x0000b9f8:    ea000093    ....    B        0xbc4c ; uartIoctl + 1424
        0x0000b9fc:    e5960010    ....    LDR      r0,[r6,#0x10]
        0x0000ba00:    e3800002    ....    ORR      r0,r0,#2
        0x0000ba04:    e5860010    ....    STR      r0,[r6,#0x10]
        0x0000ba08:    ea00008f    ....    B        0xbc4c ; uartIoctl + 1424
        0x0000ba0c:    e3500001    ..P.    CMP      r0,#1
        0x0000ba10:    0a000003    ....    BEQ      0xba24 ; uartIoctl + 872
        0x0000ba14:    e3500000    ..P.    CMP      r0,#0
        0x0000ba18:    0a000004    ....    BEQ      0xba30 ; uartIoctl + 884
        0x0000ba1c:    e1a00008    ....    MOV      r0,r8
        0x0000ba20:    e8bd87f0    ....    POP      {r4-r10,pc}
        0x0000ba24:    e1a0000c    ....    MOV      r0,r12
        0x0000ba28:    ebffec0d    ....    BL       _uartEnableInterrupt ; 0x6a64
        0x0000ba2c:    ea000086    ....    B        0xbc4c ; uartIoctl + 1424
        0x0000ba30:    e1a0000c    ....    MOV      r0,r12
        0x0000ba34:    ebffebff    ....    BL       _uartDisableInterrupt ; 0x6a38
        0x0000ba38:    ea000083    ....    B        0xbc4c ; uartIoctl + 1424
        0x0000ba3c:    e596100c    ....    LDR      r1,[r6,#0xc]
        0x0000ba40:    e3500001    ..P.    CMP      r0,#1
        0x0000ba44:    0a000003    ....    BEQ      0xba58 ; uartIoctl + 924
        0x0000ba48:    e3500000    ..P.    CMP      r0,#0
        0x0000ba4c:    0a000004    ....    BEQ      0xba64 ; uartIoctl + 936
        0x0000ba50:    e1a00008    ....    MOV      r0,r8
        0x0000ba54:    e8bd87f0    ....    POP      {r4-r10,pc}
        0x0000ba58:    e3810040    @...    ORR      r0,r1,#0x40
        0x0000ba5c:    e586000c    ....    STR      r0,[r6,#0xc]
        0x0000ba60:    ea000079    y...    B        0xbc4c ; uartIoctl + 1424
        0x0000ba64:    e3c10040    @...    BIC      r0,r1,#0x40
        0x0000ba68:    e586000c    ....    STR      r0,[r6,#0xc]
        0x0000ba6c:    ea000076    v...    B        0xbc4c ; uartIoctl + 1424
        0x0000ba70:    e35c000b    ..\.    CMP      r12,#0xb
        0x0000ba74:    308ff10c    ...0    ADDCC    pc,pc,r12,LSL #2
        0x0000ba78:    ea000073    s...    B        0xbc4c ; uartIoctl + 1424
        0x0000ba7c:    ea000009    ....    B        0xbaa8 ; uartIoctl + 1004
        0x0000ba80:    ea00000b    ....    B        0xbab4 ; uartIoctl + 1016
        0x0000ba84:    ea00000d    ....    B        0xbac0 ; uartIoctl + 1028
        0x0000ba88:    ea00000f    ....    B        0xbacc ; uartIoctl + 1040
        0x0000ba8c:    ea000011    ....    B        0xbad8 ; uartIoctl + 1052
        0x0000ba90:    ea000013    ....    B        0xbae4 ; uartIoctl + 1064
        0x0000ba94:    ea000015    ....    B        0xbaf0 ; uartIoctl + 1076
        0x0000ba98:    ea000017    ....    B        0xbafc ; uartIoctl + 1088
        0x0000ba9c:    ea000019    ....    B        0xbb08 ; uartIoctl + 1100
        0x0000baa0:    ea00001b    ....    B        0xbb14 ; uartIoctl + 1112
        0x0000baa4:    ea00001d    ....    B        0xbb20 ; uartIoctl + 1124
        0x0000baa8:    e5d51000    ....    LDRB     r1,[r5,#0]
        0x0000baac:    e5801000    ....    STR      r1,[r0,#0]
        0x0000bab0:    ea000065    e...    B        0xbc4c ; uartIoctl + 1424
        0x0000bab4:    e5d51001    ....    LDRB     r1,[r5,#1]
        0x0000bab8:    e5801000    ....    STR      r1,[r0,#0]
        0x0000babc:    ea000062    b...    B        0xbc4c ; uartIoctl + 1424
        0x0000bac0:    e5d51002    ....    LDRB     r1,[r5,#2]
        0x0000bac4:    e5801000    ....    STR      r1,[r0,#0]
        0x0000bac8:    ea00005f    _...    B        0xbc4c ; uartIoctl + 1424
        0x0000bacc:    e5d51003    ....    LDRB     r1,[r5,#3]
        0x0000bad0:    e5801000    ....    STR      r1,[r0,#0]
        0x0000bad4:    ea00005c    \...    B        0xbc4c ; uartIoctl + 1424
        0x0000bad8:    e5d51004    ....    LDRB     r1,[r5,#4]
        0x0000badc:    e5801000    ....    STR      r1,[r0,#0]
        0x0000bae0:    ea000059    Y...    B        0xbc4c ; uartIoctl + 1424
        0x0000bae4:    e5d51005    ....    LDRB     r1,[r5,#5]
        0x0000bae8:    e5801000    ....    STR      r1,[r0,#0]
        0x0000baec:    ea000056    V...    B        0xbc4c ; uartIoctl + 1424
        0x0000baf0:    e5d51006    ....    LDRB     r1,[r5,#6]
        0x0000baf4:    e5801000    ....    STR      r1,[r0,#0]
        0x0000baf8:    ea000053    S...    B        0xbc4c ; uartIoctl + 1424
        0x0000bafc:    e5d51007    ....    LDRB     r1,[r5,#7]
        0x0000bb00:    e5801000    ....    STR      r1,[r0,#0]
        0x0000bb04:    ea000050    P...    B        0xbc4c ; uartIoctl + 1424
        0x0000bb08:    e5d51008    ....    LDRB     r1,[r5,#8]
        0x0000bb0c:    e5801000    ....    STR      r1,[r0,#0]
        0x0000bb10:    ea00004d    M...    B        0xbc4c ; uartIoctl + 1424
        0x0000bb14:    e5d51009    ....    LDRB     r1,[r5,#9]
        0x0000bb18:    e5801000    ....    STR      r1,[r0,#0]
        0x0000bb1c:    ea00004a    J...    B        0xbc4c ; uartIoctl + 1424
        0x0000bb20:    e5d5100a    ....    LDRB     r1,[r5,#0xa]
        0x0000bb24:    e5801000    ....    STR      r1,[r0,#0]
        0x0000bb28:    ea000047    G...    B        0xbc4c ; uartIoctl + 1424
        0x0000bb2c:    e5d50015    ....    LDRB     r0,[r5,#0x15]
        0x0000bb30:    e3500002    ..P.    CMP      r0,#2
        0x0000bb34:    0a00000d    ....    BEQ      0xbb70 ; uartIoctl + 1204
        0x0000bb38:    e5c52015    . ..    STRB     r2,[r5,#0x15]
        0x0000bb3c:    e3a01001    ....    MOV      r1,#1
        0x0000bb40:    e1a0000c    ....    MOV      r0,r12
        0x0000bb44:    ebffebc6    ....    BL       _uartEnableInterrupt ; 0x6a64
        0x0000bb48:    e5960010    ....    LDR      r0,[r6,#0x10]
        0x0000bb4c:    e3800c02    ....    ORR      r0,r0,#0x200
        0x0000bb50:    e5860010    ....    STR      r0,[r6,#0x10]
        0x0000bb54:    e5960014    ....    LDR      r0,[r6,#0x14]
        0x0000bb58:    e3800c01    ....    ORR      r0,r0,#0x100
        0x0000bb5c:    e5860014    ....    STR      r0,[r6,#0x14]
        0x0000bb60:    e5960004    ....    LDR      r0,[r6,#4]
        0x0000bb64:    e3800a03    ....    ORR      r0,r0,#0x3000
        0x0000bb68:    e5860004    ....    STR      r0,[r6,#4]
        0x0000bb6c:    ea000036    6...    B        0xbc4c ; uartIoctl + 1424
        0x0000bb70:    e1a00008    ....    MOV      r0,r8
        0x0000bb74:    e8bd87f0    ....    POP      {r4-r10,pc}
        0x0000bb78:    e3a01008    ....    MOV      r1,#8
        0x0000bb7c:    e1a0000c    ....    MOV      r0,r12
        0x0000bb80:    ebffebac    ....    BL       _uartDisableInterrupt ; 0x6a38
        0x0000bb84:    e5c57015    .p..    STRB     r7,[r5,#0x15]
        0x0000bb88:    e5c57016    .p..    STRB     r7,[r5,#0x16]
        0x0000bb8c:    e5c57017    .p..    STRB     r7,[r5,#0x17]
        0x0000bb90:    ea00002d    -...    B        0xbc4c ; uartIoctl + 1424
        0x0000bb94:    e5847004    .p..    STR      r7,[r4,#4]
        0x0000bb98:    e5847000    .p..    STR      r7,[r4,#0]
        0x0000bb9c:    ea00002a    *...    B        0xbc4c ; uartIoctl + 1424
        0x0000bba0:    e584700c    .p..    STR      r7,[r4,#0xc]
        0x0000bba4:    e5847008    .p..    STR      r7,[r4,#8]
        0x0000bba8:    ea000027    '...    B        0xbc4c ; uartIoctl + 1424
        0x0000bbac:    e3a02003    . ..    MOV      r2,#3
        0x0000bbb0:    e5862030    0 ..    STR      r2,[r6,#0x30]
        0x0000bbb4:    e5867010    .p..    STR      r7,[r6,#0x10]
        0x0000bbb8:    e3a0203b    ; ..    MOV      r2,#0x3b
        0x0000bbbc:    e586200c    . ..    STR      r2,[r6,#0xc]
        0x0000bbc0:    e1800c01    ....    ORR      r0,r0,r1,LSL #24
        0x0000bbc4:    e586002c    ,...    STR      r0,[r6,#0x2c]
        0x0000bbc8:    ea00001f    ....    B        0xbc4c ; uartIoctl + 1424
        0x0000bbcc:    e283132e    ....    ADD      r1,r3,#0xb8000000
        0x0000bbd0:    e5912018    . ..    LDR      r2,[r1,#0x18]
        0x0000bbd4:    e3120201    ....    TST      r2,#0x10000000
        0x0000bbd8:    0afffffc    ....    BEQ      0xbbd0 ; uartIoctl + 1300
        0x0000bbdc:    e591200c    . ..    LDR      r2,[r1,#0xc]
        0x0000bbe0:    e3a0302b    +0..    MOV      r3,#0x2b
        0x0000bbe4:    e581300c    .0..    STR      r3,[r1,#0xc]
        0x0000bbe8:    e5810000    ....    STR      r0,[r1,#0]
        0x0000bbec:    e5910018    ....    LDR      r0,[r1,#0x18]
        0x0000bbf0:    e3100201    ....    TST      r0,#0x10000000
        0x0000bbf4:    0afffffc    ....    BEQ      0xbbec ; uartIoctl + 1328
        0x0000bbf8:    e581200c    . ..    STR      r2,[r1,#0xc]
        0x0000bbfc:    ea000012    ....    B        0xbc4c ; uartIoctl + 1424
        0x0000bc00:    e5961008    ....    LDR      r1,[r6,#8]
        0x0000bc04:    e3500001    ..P.    CMP      r0,#1
        0x0000bc08:    0a000002    ....    BEQ      0xbc18 ; uartIoctl + 1372
        0x0000bc0c:    e3c10c01    ....    BIC      r0,r1,#0x100
        0x0000bc10:    e5860008    ....    STR      r0,[r6,#8]
        0x0000bc14:    ea00000c    ....    B        0xbc4c ; uartIoctl + 1424
        0x0000bc18:    e3810c01    ....    ORR      r0,r1,#0x100
        0x0000bc1c:    eafffffb    ....    B        0xbc10 ; uartIoctl + 1364
        0x0000bc20:    e586002c    ,...    STR      r0,[r6,#0x2c]
        0x0000bc24:    ea000008    ....    B        0xbc4c ; uartIoctl + 1424
        0x0000bc28:    e596102c    ,...    LDR      r1,[r6,#0x2c]
        0x0000bc2c:    e5801000    ....    STR      r1,[r0,#0]
        0x0000bc30:    ea000005    ....    B        0xbc4c ; uartIoctl + 1424
        0x0000bc34:    e5862030    0 ..    STR      r2,[r6,#0x30]
        0x0000bc38:    e596202c    , ..    LDR      r2,[r6,#0x2c]
        0x0000bc3c:    e3c220cf    . ..    BIC      r2,r2,#0xcf
        0x0000bc40:    e1800001    ....    ORR      r0,r0,r1
        0x0000bc44:    e1800002    ....    ORR      r0,r0,r2
        0x0000bc48:    e586002c    ,...    STR      r0,[r6,#0x2c]
        0x0000bc4c:    e3a00000    ....    MOV      r0,#0
        0x0000bc50:    e8bd87f0    ....    POP      {r4-r10,pc}
        0x0000bc54:    e59f0010    ....    LDR      r0,[pc,#16] ; [0xbc6c] = 0xffff1701
        0x0000bc58:    e8bd87f0    ....    POP      {r4-r10,pc}
    $d
        0x0000bc5c:    ffff1702    ....    DCD    4294907650
        0x0000bc60:    0006810c    ....    DCD    426252
        0x0000bc64:    ffff1703    ....    DCD    4294907651
        0x0000bc68:    0000d9ec    ....    DCD    55788
        0x0000bc6c:    ffff1701    ....    DCD    4294907649
    $a
    i.uartOpen
    uartOpen
        0x0000bc70:    e92d4010    .@-.    PUSH     {r4,lr}
        0x0000bc74:    e1a04000    .@..    MOV      r4,r0
        0x0000bc78:    ebffeae3    ....    BL       _uartConfigureUART ; 0x680c
        0x0000bc7c:    e59f2048    H ..    LDR      r2,[pc,#72] ; [0xbccc] = 0x6810c
        0x0000bc80:    e2501000    ..P.    SUBS     r1,r0,#0
        0x0000bc84:    aa000008    ....    BGE      0xbcac ; uartOpen + 60
        0x0000bc88:    e3710005    ..q.    CMN      r1,#5
        0x0000bc8c:    0a000004    ....    BEQ      0xbca4 ; uartOpen + 52
        0x0000bc90:    e5d40008    ....    LDRB     r0,[r4,#8]
        0x0000bc94:    e0803080    .0..    ADD      r3,r0,r0,LSL #1
        0x0000bc98:    e0830180    ....    ADD      r0,r3,r0,LSL #3
        0x0000bc9c:    e0820100    ....    ADD      r0,r2,r0,LSL #2
        0x0000bca0:    e5801028    (...    STR      r1,[r0,#0x28]
        0x0000bca4:    e59f0024    $...    LDR      r0,[pc,#36] ; [0xbcd0] = 0xffff1703
        0x0000bca8:    e8bd8010    ....    POP      {r4,pc}
        0x0000bcac:    e5d40008    ....    LDRB     r0,[r4,#8]
        0x0000bcb0:    e3a01000    ....    MOV      r1,#0
        0x0000bcb4:    e0803080    .0..    ADD      r3,r0,r0,LSL #1
        0x0000bcb8:    e0830180    ....    ADD      r0,r3,r0,LSL #3
        0x0000bcbc:    e0820100    ....    ADD      r0,r2,r0,LSL #2
        0x0000bcc0:    e5801028    (...    STR      r1,[r0,#0x28]
        0x0000bcc4:    e3a00000    ....    MOV      r0,#0
        0x0000bcc8:    e8bd8010    ....    POP      {r4,pc}
    $d
        0x0000bccc:    0006810c    ....    DCD    426252
        0x0000bcd0:    ffff1703    ....    DCD    4294907651
    $a
    i.uartWrite
    uartWrite
        0x0000bcd4:    e92d41f0    .A-.    PUSH     {r4-r8,lr}
        0x0000bcd8:    e1a05000    .P..    MOV      r5,r0
        0x0000bcdc:    e1a08001    ....    MOV      r8,r1
        0x0000bce0:    e1a06002    .`..    MOV      r6,r2
        0x0000bce4:    e59f1094    ....    LDR      r1,[pc,#148] ; [0xbd80] = 0x6810c
        0x0000bce8:    e0850085    ....    ADD      r0,r5,r5,LSL #1
        0x0000bcec:    e0800185    ....    ADD      r0,r0,r5,LSL #3
        0x0000bcf0:    e0814100    .A..    ADD      r4,r1,r0,LSL #2
        0x0000bcf4:    e3a00000    ....    MOV      r0,#0
        0x0000bcf8:    e5840028    (...    STR      r0,[r4,#0x28]
        0x0000bcfc:    e5d4001e    ....    LDRB     r0,[r4,#0x1e]
        0x0000bd00:    e59f707c    |p..    LDR      r7,[pc,#124] ; [0xbd84] = 0xffff1703
        0x0000bd04:    e3500000    ..P.    CMP      r0,#0
        0x0000bd08:    0a000007    ....    BEQ      0xbd2c ; uartWrite + 88
        0x0000bd0c:    e3560078    x.V.    CMP      r6,#0x78
        0x0000bd10:    8a000007    ....    BHI      0xbd34 ; uartWrite + 96
        0x0000bd14:    e3560000    ..V.    CMP      r6,#0
        0x0000bd18:    0a000005    ....    BEQ      0xbd34 ; uartWrite + 96
        0x0000bd1c:    e5d4001c    ....    LDRB     r0,[r4,#0x1c]
        0x0000bd20:    e3500001    ..P.    CMP      r0,#1
        0x0000bd24:    0a000004    ....    BEQ      0xbd3c ; uartWrite + 104
        0x0000bd28:    ea00000a    ....    B        0xbd58 ; uartWrite + 132
        0x0000bd2c:    e1a00007    ....    MOV      r0,r7
        0x0000bd30:    e8bd81f0    ....    POP      {r4-r8,pc}
        0x0000bd34:    e1a00007    ....    MOV      r0,r7
        0x0000bd38:    e8bd81f0    ....    POP      {r4-r8,pc}
        0x0000bd3c:    e5942004    . ..    LDR      r2,[r4,#4]
        0x0000bd40:    e5941000    ....    LDR      r1,[r4,#0]
        0x0000bd44:    e1a03006    .0..    MOV      r3,r6
        0x0000bd48:    e1a00005    ....    MOV      r0,r5
        0x0000bd4c:    ebffea8a    ....    BL       _uartCheckTxBufSpace ; 0x677c
        0x0000bd50:    e3500000    ..P.    CMP      r0,#0
        0x0000bd54:    0a000005    ....    BEQ      0xbd70 ; uartWrite + 156
        0x0000bd58:    e1a02006    . ..    MOV      r2,r6
        0x0000bd5c:    e1a01008    ....    MOV      r1,r8
        0x0000bd60:    e1a00005    ....    MOV      r0,r5
        0x0000bd64:    ebffed28    (...    BL       _uartWriteTxBuf ; 0x720c
        0x0000bd68:    e1a00006    ....    MOV      r0,r6
        0x0000bd6c:    e8bd81f0    ....    POP      {r4-r8,pc}
        0x0000bd70:    e3e0000a    ....    MVN      r0,#0xa
        0x0000bd74:    e5840028    (...    STR      r0,[r4,#0x28]
        0x0000bd78:    e1a00007    ....    MOV      r0,r7
        0x0000bd7c:    e8bd81f0    ....    POP      {r4-r8,pc}
    $d
        0x0000bd80:    0006810c    ....    DCD    426252
        0x0000bd84:    ffff1703    ....    DCD    4294907651
    $a
    i.unit_ram_to_sdram
    unit_ram_to_sdram
        0x0000bd88:    e92d4070    p@-.    PUSH     {r4-r6,lr}
        0x0000bd8c:    e59f6038    8`..    LDR      r6,[pc,#56] ; [0xbdcc] = 0xd613
        0x0000bd90:    e59f4030    0@..    LDR      r4,[pc,#48] ; [0xbdc8] = 0xddcc
        0x0000bd94:    e5d60000    ....    LDRB     r0,[r6,#0]
        0x0000bd98:    e59f5030    0P..    LDR      r5,[pc,#48] ; [0xbdd0] = 0x3e9
        0x0000bd9c:    e7941100    ....    LDR      r1,[r4,r0,LSL #2]
        0x0000bda0:    e3e00ffa    ....    MVN      r0,#0x3e8
        0x0000bda4:    e0410000    ..A.    SUB      r0,r1,r0
        0x0000bda8:    e1a02005    . ..    MOV      r2,r5
        0x0000bdac:    ebffd28f    ....    BL       __aeabi_memcpy ; 0x7f0
        0x0000bdb0:    e5d60000    ....    LDRB     r0,[r6,#0]
        0x0000bdb4:    e1a02005    . ..    MOV      r2,r5
        0x0000bdb8:    e7941100    ....    LDR      r1,[r4,r0,LSL #2]
        0x0000bdbc:    e0810085    ....    ADD      r0,r1,r5,LSL #1
        0x0000bdc0:    e8bd4070    p@..    POP      {r4-r6,lr}
        0x0000bdc4:    eaffd289    ....    B        __aeabi_memcpy ; 0x7f0
    $d
        0x0000bdc8:    0000ddcc    ....    DCD    56780
        0x0000bdcc:    0000d613    ....    DCD    54803
        0x0000bdd0:    000003e9    ....    DCD    1001
    $a
    i.usb_deinit
    usb_deinit
        0x0000bdd4:    e3a0020b    ....    MOV      r0,#0xb0000000
        0x0000bdd8:    e5901094    ....    LDR      r1,[r0,#0x94]
        0x0000bddc:    e3c114ff    ....    BIC      r1,r1,#0xff000000
        0x0000bde0:    e5801094    ....    STR      r1,[r0,#0x94]
        0x0000bde4:    e59f1008    ....    LDR      r1,[pc,#8] ; [0xbdf4] = 0xd46c
        0x0000bde8:    e3a00000    ....    MOV      r0,#0
        0x0000bdec:    e5c10000    ....    STRB     r0,[r1,#0]
        0x0000bdf0:    e12fff1e    ../.    BX       lr
    $d
        0x0000bdf4:    0000d46c    l...    DCD    54380
    $a
    i.voice_tim_init
    voice_tim_init
        0x0000bdf8:    e92d4010    .@-.    PUSH     {r4,lr}
        0x0000bdfc:    e59f0050    P...    LDR      r0,[pc,#80] ; [0xbe54] = 0xb0000218
        0x0000be00:    e3a02001    . ..    MOV      r2,#1
        0x0000be04:    e3a01080    ....    MOV      r1,#0x80
        0x0000be08:    ebffe19a    ....    BL       REG_OPERATE ; 0x4478
        0x0000be0c:    e3a0200f    . ..    MOV      r2,#0xf
        0x0000be10:    e3a01000    ....    MOV      r1,#0
        0x0000be14:    e3a00003    ....    MOV      r0,#3
        0x0000be18:    ebffda96    ....    BL       ETIMER_Open ; 0x2878
        0x0000be1c:    e3a00003    ....    MOV      r0,#3
        0x0000be20:    ebffda5d    ]...    BL       ETIMER_EnableInt ; 0x279c
        0x0000be24:    e59f202c    , ..    LDR      r2,[pc,#44] ; [0xbe58] = 0x2aa4
        0x0000be28:    e3a01032    2...    MOV      r1,#0x32
        0x0000be2c:    e3a00000    ....    MOV      r0,#0
        0x0000be30:    ebfffa61    a...    BL       sysInstallISR ; 0xa7bc
        0x0000be34:    e3a0003f    ?...    MOV      r0,#0x3f
        0x0000be38:    ebfffa9c    ....    BL       sysSetLocalInterrupt ; 0xa8b0
        0x0000be3c:    e3a00032    2...    MOV      r0,#0x32
        0x0000be40:    ebfff816    ....    BL       sysEnableInterrupt ; 0x9ea0
        0x0000be44:    e59f1010    ....    LDR      r1,[pc,#16] ; [0xbe5c] = 0xb8001710
        0x0000be48:    e3a00001    ....    MOV      r0,#1
        0x0000be4c:    e5810000    ....    STR      r0,[r1,#0]
        0x0000be50:    e8bd8010    ....    POP      {r4,pc}
    $d
        0x0000be54:    b0000218    ....    DCD    2952790552
        0x0000be58:    00002aa4    .*..    DCD    10916
        0x0000be5c:    b8001710    ....    DCD    3087013648
    $a
    i.voice_tim_start
    voice_tim_start
        0x0000be60:    e92d4010    .@-.    PUSH     {r4,lr}
        0x0000be64:    e1a04000    .@..    MOV      r4,r0
        0x0000be68:    e3a00003    ....    MOV      r0,#3
        0x0000be6c:    ebffdae7    ....    BL       ETIMER_Stop ; 0x2a10
        0x0000be70:    e3a0200f    . ..    MOV      r2,#0xf
        0x0000be74:    e3a01000    ....    MOV      r1,#0
        0x0000be78:    e3a00003    ....    MOV      r0,#3
        0x0000be7c:    ebffda7d    }...    BL       ETIMER_Open ; 0x2878
        0x0000be80:    e59f1014    ....    LDR      r1,[pc,#20] ; [0xbe9c] = 0xb8001708
        0x0000be84:    e0840084    ....    ADD      r0,r4,r4,LSL #1
        0x0000be88:    e1a00100    ....    LSL      r0,r0,#2
        0x0000be8c:    e5810000    ....    STR      r0,[r1,#0]
        0x0000be90:    e8bd4010    .@..    POP      {r4,lr}
        0x0000be94:    e3a00003    ....    MOV      r0,#3
        0x0000be98:    eaffdabe    ....    B        ETIMER_Start ; 0x2998
    $d
        0x0000be9c:    b8001708    ....    DCD    3087013640
    $a
    i.voice_tim_stop
    voice_tim_stop
        0x0000bea0:    e3a00003    ....    MOV      r0,#3
        0x0000bea4:    eaffdad9    ....    B        ETIMER_Stop ; 0x2a10
    i.vpostGetFrameBuffer
    vpostGetFrameBuffer
        0x0000bea8:    e92d4010    .@-.    PUSH     {r4,lr}
        0x0000beac:    e59f00a0    ....    LDR      r0,[pc,#160] ; [0xbf54] = 0x680d4
        0x0000beb0:    e5901000    ....    LDR      r1,[r0,#0]
        0x0000beb4:    e3510000    ..Q.    CMP      r1,#0
        0x0000beb8:    0a00000c    ....    BEQ      0xbef0 ; vpostGetFrameBuffer + 72
        0x0000bebc:    e5902004    . ..    LDR      r2,[r0,#4]
        0x0000bec0:    e3520000    ..R.    CMP      r2,#0
        0x0000bec4:    0a000009    ....    BEQ      0xbef0 ; vpostGetFrameBuffer + 72
        0x0000bec8:    e2400014    ..@.    SUB      r0,r0,#0x14
        0x0000becc:    e5900000    ....    LDR      r0,[r0,#0]
        0x0000bed0:    e3500c02    ..P.    CMP      r0,#0x200
        0x0000bed4:    0a00001c    ....    BEQ      0xbf4c ; vpostGetFrameBuffer + 164
        0x0000bed8:    ca000006    ....    BGT      0xbef8 ; vpostGetFrameBuffer + 80
        0x0000bedc:    e3500000    ..P.    CMP      r0,#0
        0x0000bee0:    0a000017    ....    BEQ      0xbf44 ; vpostGetFrameBuffer + 156
        0x0000bee4:    e3500c01    ..P.    CMP      r0,#0x100
        0x0000bee8:    1a000006    ....    BNE      0xbf08 ; vpostGetFrameBuffer + 96
        0x0000beec:    ea000014    ....    B        0xbf44 ; vpostGetFrameBuffer + 156
        0x0000bef0:    e3a00000    ....    MOV      r0,#0
        0x0000bef4:    e8bd8010    ....    POP      {r4,pc}
        0x0000bef8:    e3500c03    ..P.    CMP      r0,#0x300
        0x0000befc:    0a000012    ....    BEQ      0xbf4c ; vpostGetFrameBuffer + 164
        0x0000bf00:    e3500b01    ..P.    CMP      r0,#0x400
        0x0000bf04:    0a00000e    ....    BEQ      0xbf44 ; vpostGetFrameBuffer + 156
        0x0000bf08:    e3a00002    ....    MOV      r0,#2
        0x0000bf0c:    e0010192    ....    MUL      r1,r2,r1
        0x0000bf10:    e0000091    ....    MUL      r0,r1,r0
        0x0000bf14:    e2800040    @...    ADD      r0,r0,#0x40
        0x0000bf18:    faffd100    ....    BLX      _maybe_terminate_alloc ; 0x320
        0x0000bf1c:    e3a01020     ...    MOV      r1,#0x20
        0x0000bf20:    ebfff619    ....    BL       shift_pointer ; 0x978c
        0x0000bf24:    e2800020     ...    ADD      r0,r0,#0x20
        0x0000bf28:    e59f1028    (...    LDR      r1,[pc,#40] ; [0xbf58] = 0xb0008000
        0x0000bf2c:    e3800102    ....    ORR      r0,r0,#0x80000000
        0x0000bf30:    e5810024    $...    STR      r0,[r1,#0x24]
        0x0000bf34:    e591202c    , ..    LDR      r2,[r1,#0x2c]
        0x0000bf38:    e3c22103    .!..    BIC      r2,r2,#0xc0000000
        0x0000bf3c:    e581202c    , ..    STR      r2,[r1,#0x2c]
        0x0000bf40:    e8bd8010    ....    POP      {r4,pc}
        0x0000bf44:    e3a00002    ....    MOV      r0,#2
        0x0000bf48:    eaffffef    ....    B        0xbf0c ; vpostGetFrameBuffer + 100
        0x0000bf4c:    e3a00004    ....    MOV      r0,#4
        0x0000bf50:    eaffffed    ....    B        0xbf0c ; vpostGetFrameBuffer + 100
    $d
        0x0000bf54:    000680d4    ....    DCD    426196
        0x0000bf58:    b0008000    ....    DCD    2952822784
    $a
    i.vpostLCMInit
    vpostLCMInit
        0x0000bf5c:    e92d4010    .@-.    PUSH     {r4,lr}
        0x0000bf60:    e1a04000    .@..    MOV      r4,r0
        0x0000bf64:    e3a0120b    ....    MOV      r1,#0xb0000000
        0x0000bf68:    e5912210    ."..    LDR      r2,[r1,#0x210]
        0x0000bf6c:    e3822402    .$..    ORR      r2,r2,#0x2000000
        0x0000bf70:    e5812210    ."..    STR      r2,[r1,#0x210]
        0x0000bf74:    e59f0084    ....    LDR      r0,[pc,#132] ; [0xc000] = 0x680d4
        0x0000bf78:    e3a01038    8...    MOV      r1,#0x38
        0x0000bf7c:    ebffd279    y...    BL       __aeabi_memclr4 ; 0x968
        0x0000bf80:    e59f107c    |...    LDR      r1,[pc,#124] ; [0xc004] = 0xd98c
        0x0000bf84:    e59f0074    t...    LDR      r0,[pc,#116] ; [0xc000] = 0x680d4
        0x0000bf88:    e7911104    ....    LDR      r1,[r1,r4,LSL #2]
        0x0000bf8c:    e3a02038    8 ..    MOV      r2,#0x38
        0x0000bf90:    ebffd24b    K...    BL       __aeabi_memcpy4 ; 0x8c4
        0x0000bf94:    e59f0064    d...    LDR      r0,[pc,#100] ; [0xc000] = 0x680d4
        0x0000bf98:    e5901008    ....    LDR      r1,[r0,#8]
        0x0000bf9c:    e590200c    . ..    LDR      r2,[r0,#0xc]
        0x0000bfa0:    e1811002    ....    ORR      r1,r1,r2
        0x0000bfa4:    e5902010    . ..    LDR      r2,[r0,#0x10]
        0x0000bfa8:    e1811002    ....    ORR      r1,r1,r2
        0x0000bfac:    e5902014    . ..    LDR      r2,[r0,#0x14]
        0x0000bfb0:    e1811002    ....    ORR      r1,r1,r2
        0x0000bfb4:    e5902018    . ..    LDR      r2,[r0,#0x18]
        0x0000bfb8:    e1811002    ....    ORR      r1,r1,r2
        0x0000bfbc:    e590201c    . ..    LDR      r2,[r0,#0x1c]
        0x0000bfc0:    e1811002    ....    ORR      r1,r1,r2
        0x0000bfc4:    e5902020      ..    LDR      r2,[r0,#0x20]
        0x0000bfc8:    e1822001    . ..    ORR      r2,r2,r1
        0x0000bfcc:    e59f1034    4...    LDR      r1,[pc,#52] ; [0xc008] = 0xb0008000
        0x0000bfd0:    e5812004    . ..    STR      r2,[r1,#4]
        0x0000bfd4:    e5902024    $ ..    LDR      r2,[r0,#0x24]
        0x0000bfd8:    e5812010    . ..    STR      r2,[r1,#0x10]
        0x0000bfdc:    e5902028    ( ..    LDR      r2,[r0,#0x28]
        0x0000bfe0:    e5812014    . ..    STR      r2,[r1,#0x14]
        0x0000bfe4:    e590202c    , ..    LDR      r2,[r0,#0x2c]
        0x0000bfe8:    e5812018    . ..    STR      r2,[r1,#0x18]
        0x0000bfec:    e5902030    0 ..    LDR      r2,[r0,#0x30]
        0x0000bff0:    e581201c    . ..    STR      r2,[r1,#0x1c]
        0x0000bff4:    e5900034    4...    LDR      r0,[r0,#0x34]
        0x0000bff8:    e5810020     ...    STR      r0,[r1,#0x20]
        0x0000bffc:    e8bd8010    ....    POP      {r4,pc}
    $d
        0x0000c000:    000680d4    ....    DCD    426196
        0x0000c004:    0000d98c    ....    DCD    55692
        0x0000c008:    b0008000    ....    DCD    2952822784
    $a
    i.vpostSetVASrc
    vpostSetVASrc
        0x0000c00c:    e92d4010    .@-.    PUSH     {r4,lr}
        0x0000c010:    e59f10e4    ....    LDR      r1,[pc,#228] ; [0xc0fc] = 0x680c0
        0x0000c014:    e5810000    ....    STR      r0,[r1,#0]
        0x0000c018:    e59f20e0    . ..    LDR      r2,[pc,#224] ; [0xc100] = 0xb0008000
        0x0000c01c:    e5921000    ....    LDR      r1,[r2,#0]
        0x0000c020:    e3c11c07    ....    BIC      r1,r1,#0x700
        0x0000c024:    e5821000    ....    STR      r1,[r2,#0]
        0x0000c028:    e3500000    ..P.    CMP      r0,#0
        0x0000c02c:    0a000003    ....    BEQ      0xc040 ; vpostSetVASrc + 52
        0x0000c030:    e5921000    ....    LDR      r1,[r2,#0]
        0x0000c034:    e1811000    ....    ORR      r1,r1,r0
        0x0000c038:    e5821000    ....    STR      r1,[r2,#0]
        0x0000c03c:    ea000002    ....    B        0xc04c ; vpostSetVASrc + 64
        0x0000c040:    e5921000    ....    LDR      r1,[r2,#0]
        0x0000c044:    e3c11c07    ....    BIC      r1,r1,#0x700
        0x0000c048:    e5821000    ....    STR      r1,[r2,#0]
        0x0000c04c:    e59f10b4    ....    LDR      r1,[pc,#180] ; [0xc108] = 0x680d4
        0x0000c050:    e59f30ac    .0..    LDR      r3,[pc,#172] ; [0xc104] = 0xf800f800
        0x0000c054:    e5911000    ....    LDR      r1,[r1,#0]
        0x0000c058:    e3500c02    ..P.    CMP      r0,#0x200
        0x0000c05c:    0a00000f    ....    BEQ      0xc0a0 ; vpostSetVASrc + 148
        0x0000c060:    e3500c03    ..P.    CMP      r0,#0x300
        0x0000c064:    0a00000d    ....    BEQ      0xc0a0 ; vpostSetVASrc + 148
        0x0000c068:    e592c02c    ,...    LDR      r12,[r2,#0x2c]
        0x0000c06c:    e1a040a1    .@..    LSR      r4,r1,#1
        0x0000c070:    e00cc003    ....    AND      r12,r12,r3
        0x0000c074:    e18cc804    ....    ORR      r12,r12,r4,LSL #16
        0x0000c078:    e18cc0a1    ....    ORR      r12,r12,r1,LSR #1
        0x0000c07c:    e582c02c    ,...    STR      r12,[r2,#0x2c]
        0x0000c080:    e3500c02    ..P.    CMP      r0,#0x200
        0x0000c084:    0a00001a    ....    BEQ      0xc0f4 ; vpostSetVASrc + 232
        0x0000c088:    ca00000a    ....    BGT      0xc0b8 ; vpostSetVASrc + 172
        0x0000c08c:    e3500000    ..P.    CMP      r0,#0
        0x0000c090:    0a000015    ....    BEQ      0xc0ec ; vpostSetVASrc + 224
        0x0000c094:    e3500c01    ..P.    CMP      r0,#0x100
        0x0000c098:    1a00000a    ....    BNE      0xc0c8 ; vpostSetVASrc + 188
        0x0000c09c:    ea000012    ....    B        0xc0ec ; vpostSetVASrc + 224
        0x0000c0a0:    e592c02c    ,...    LDR      r12,[r2,#0x2c]
        0x0000c0a4:    e00cc003    ....    AND      r12,r12,r3
        0x0000c0a8:    e18cc801    ....    ORR      r12,r12,r1,LSL #16
        0x0000c0ac:    e18cc001    ....    ORR      r12,r12,r1
        0x0000c0b0:    e582c02c    ,...    STR      r12,[r2,#0x2c]
        0x0000c0b4:    eafffff1    ....    B        0xc080 ; vpostSetVASrc + 116
        0x0000c0b8:    e3500c03    ..P.    CMP      r0,#0x300
        0x0000c0bc:    0a00000c    ....    BEQ      0xc0f4 ; vpostSetVASrc + 232
        0x0000c0c0:    e3500b01    ..P.    CMP      r0,#0x400
        0x0000c0c4:    0a000008    ....    BEQ      0xc0ec ; vpostSetVASrc + 224
        0x0000c0c8:    e3a00002    ....    MOV      r0,#2
        0x0000c0cc:    e0000091    ....    MUL      r0,r1,r0
        0x0000c0d0:    e1a00120     ...    LSR      r0,r0,#2
        0x0000c0d4:    e592102c    ,...    LDR      r1,[r2,#0x2c]
        0x0000c0d8:    e0011003    ....    AND      r1,r1,r3
        0x0000c0dc:    e1811800    ....    ORR      r1,r1,r0,LSL #16
        0x0000c0e0:    e1800001    ....    ORR      r0,r0,r1
        0x0000c0e4:    e582002c    ,...    STR      r0,[r2,#0x2c]
        0x0000c0e8:    e8bd8010    ....    POP      {r4,pc}
        0x0000c0ec:    e3a00002    ....    MOV      r0,#2
        0x0000c0f0:    eafffff5    ....    B        0xc0cc ; vpostSetVASrc + 192
        0x0000c0f4:    e3a00004    ....    MOV      r0,#4
        0x0000c0f8:    eafffff3    ....    B        0xc0cc ; vpostSetVASrc + 192
    $d
        0x0000c0fc:    000680c0    ....    DCD    426176
        0x0000c100:    b0008000    ....    DCD    2952822784
        0x0000c104:    f800f800    ....    DCD    4160813056
        0x0000c108:    000680d4    ....    DCD    426196
    $a
    i.vpostVAScalingCtrl
    vpostVAScalingCtrl
        0x0000c10c:    e92d4010    .@-.    PUSH     {r4,lr}
        0x0000c110:    e59dc008    ....    LDR      r12,[sp,#8]
        0x0000c114:    e3a04067    g@..    MOV      r4,#0x67
        0x0000c118:    e0010194    ....    MUL      r1,r4,r1
        0x0000c11c:    e0810500    ....    ADD      r0,r1,r0,LSL #10
        0x0000c120:    e0010493    ....    MUL      r1,r3,r4
        0x0000c124:    e0811502    ....    ADD      r1,r1,r2,LSL #10
        0x0000c128:    e1800801    ....    ORR      r0,r0,r1,LSL #16
        0x0000c12c:    e59f1008    ....    LDR      r1,[pc,#8] ; [0xc13c] = 0xb0008000
        0x0000c130:    e180000c    ....    ORR      r0,r0,r12
        0x0000c134:    e5810030    0...    STR      r0,[r1,#0x30]
        0x0000c138:    e8bd8010    ....    POP      {r4,pc}
    $d
        0x0000c13c:    b0008000    ....    DCD    2952822784
    $a
    i.vpostVAStartTrigger
    vpostVAStartTrigger
        0x0000c140:    e59f0030    0...    LDR      r0,[pc,#48] ; [0xc178] = 0xb0008000
        0x0000c144:    e5901000    ....    LDR      r1,[r0,#0]
        0x0000c148:    e3110080    ....    TST      r1,#0x80
        0x0000c14c:    0a000002    ....    BEQ      0xc15c ; vpostVAStartTrigger + 28
        0x0000c150:    e5901000    ....    LDR      r1,[r0,#0]
        0x0000c154:    e3110002    ....    TST      r1,#2
        0x0000c158:    1afffffc    ....    BNE      0xc150 ; vpostVAStartTrigger + 16
        0x0000c15c:    e5901000    ....    LDR      r1,[r0,#0]
        0x0000c160:    e3811008    ....    ORR      r1,r1,#8
        0x0000c164:    e5801000    ....    STR      r1,[r0,#0]
        0x0000c168:    e5901000    ....    LDR      r1,[r0,#0]
        0x0000c16c:    e3811002    ....    ORR      r1,r1,#2
        0x0000c170:    e5801000    ....    STR      r1,[r0,#0]
        0x0000c174:    e12fff1e    ../.    BX       lr
    $d
        0x0000c178:    b0008000    ....    DCD    2952822784
    $a
    i.write_para_to_sdram
    write_para_to_sdram
        0x0000c17c:    e92d4070    p@-.    PUSH     {r4-r6,lr}
        0x0000c180:    e59f50e0    .P..    LDR      r5,[pc,#224] ; [0xc268] = 0xd510
        0x0000c184:    e59f40d0    .@..    LDR      r4,[pc,#208] ; [0xc25c] = 0x10504
        0x0000c188:    e5950000    ....    LDR      r0,[r5,#0]
        0x0000c18c:    e5d42000    . ..    LDRB     r2,[r4,#0]
        0x0000c190:    e2800c03    ....    ADD      r0,r0,#0x300
        0x0000c194:    e28f10c4    ....    ADR      r1,{pc}+0xcc ; 0xc260
        0x0000c198:    e280007b    {...    ADD      r0,r0,#0x7b
        0x0000c19c:    faffd096    ....    BLX      __2sprintf ; 0x3fc
        0x0000c1a0:    e5950000    ....    LDR      r0,[r5,#0]
        0x0000c1a4:    e1d420b8    . ..    LDRH     r2,[r4,#8]
        0x0000c1a8:    e2800c03    ....    ADD      r0,r0,#0x300
        0x0000c1ac:    e28f10ac    ....    ADR      r1,{pc}+0xb4 ; 0xc260
        0x0000c1b0:    e2800072    r...    ADD      r0,r0,#0x72
        0x0000c1b4:    faffd090    ....    BLX      __2sprintf ; 0x3fc
        0x0000c1b8:    e5d40006    ....    LDRB     r0,[r4,#6]
        0x0000c1bc:    e28f109c    ....    ADR      r1,{pc}+0xa4 ; 0xc260
        0x0000c1c0:    e2002001    . ..    AND      r2,r0,#1
        0x0000c1c4:    e5950000    ....    LDR      r0,[r5,#0]
        0x0000c1c8:    e2800c03    ....    ADD      r0,r0,#0x300
        0x0000c1cc:    e280009f    ....    ADD      r0,r0,#0x9f
        0x0000c1d0:    faffd089    ....    BLX      __2sprintf ; 0x3fc
        0x0000c1d4:    e5950000    ....    LDR      r0,[r5,#0]
        0x0000c1d8:    e5d42001    . ..    LDRB     r2,[r4,#1]
        0x0000c1dc:    e2800c03    ....    ADD      r0,r0,#0x300
        0x0000c1e0:    e28f1078    x...    ADR      r1,{pc}+0x80 ; 0xc260
        0x0000c1e4:    e2800096    ....    ADD      r0,r0,#0x96
        0x0000c1e8:    faffd083    ....    BLX      __2sprintf ; 0x3fc
        0x0000c1ec:    e5950000    ....    LDR      r0,[r5,#0]
        0x0000c1f0:    e5d42002    . ..    LDRB     r2,[r4,#2]
        0x0000c1f4:    e2800c05    ....    ADD      r0,r0,#0x500
        0x0000c1f8:    e28f1060    `...    ADR      r1,{pc}+0x68 ; 0xc260
        0x0000c1fc:    e28000a9    ....    ADD      r0,r0,#0xa9
        0x0000c200:    faffd07d    }...    BLX      __2sprintf ; 0x3fc
        0x0000c204:    e5950000    ....    LDR      r0,[r5,#0]
        0x0000c208:    e3e03fda    .?..    MVN      r3,#0x368
        0x0000c20c:    e5d42003    . ..    LDRB     r2,[r4,#3]
        0x0000c210:    e28f1048    H...    ADR      r1,{pc}+0x50 ; 0xc260
        0x0000c214:    e0400003    ..@.    SUB      r0,r0,r3
        0x0000c218:    faffd077    w...    BLX      __2sprintf ; 0x3fc
        0x0000c21c:    e5950000    ....    LDR      r0,[r5,#0]
        0x0000c220:    e5d42004    . ..    LDRB     r2,[r4,#4]
        0x0000c224:    e28f1034    4...    ADR      r1,{pc}+0x3c ; 0xc260
        0x0000c228:    e2800e36    6...    ADD      r0,r0,#0x360
        0x0000c22c:    faffd072    r...    BLX      __2sprintf ; 0x3fc
        0x0000c230:    e5950000    ....    LDR      r0,[r5,#0]
        0x0000c234:    e5d42005    . ..    LDRB     r2,[r4,#5]
        0x0000c238:    e28f1020     ...    ADR      r1,{pc}+0x28 ; 0xc260
        0x0000c23c:    e2800fe1    ....    ADD      r0,r0,#0x384
        0x0000c240:    faffd06d    m...    BLX      __2sprintf ; 0x3fc
        0x0000c244:    e5950000    ....    LDR      r0,[r5,#0]
        0x0000c248:    e5d4200a    . ..    LDRB     r2,[r4,#0xa]
        0x0000c24c:    e8bd4070    p@..    POP      {r4-r6,lr}
        0x0000c250:    e28f1008    ....    ADR      r1,{pc}+0x10 ; 0xc260
        0x0000c254:    e2800fea    ....    ADD      r0,r0,#0x3a8
        0x0000c258:    eaffd065    e...    B        $Ven$AT$I$$__2sprintf ; 0x3f4
    $d
        0x0000c25c:    00010504    ....    DCD    66820
        0x0000c260:    58383025    %08X    DCD    1480077349
        0x0000c264:    00000000    ....    DCD    0
        0x0000c268:    0000d510    ....    DCD    54544
    $a
    locale$$code
    _get_lc_numeric
        0x0000c26c:    e92d4010    .@-.    PUSH     {r4,lr}
        0x0000c270:    e3510000    ..Q.    CMP      r1,#0
        0x0000c274:    0a000009    ....    BEQ      0xc2a0 ; _get_lc_numeric + 52
        0x0000c278:    e5d10000    ....    LDRB     r0,[r1,#0]
        0x0000c27c:    e3500000    ..P.    CMP      r0,#0
        0x0000c280:    0a000006    ....    BEQ      0xc2a0 ; _get_lc_numeric + 52
        0x0000c284:    e59f0020     ...    LDR      r0,[pc,#32] ; [0xc2ac] = 0x1020
        0x0000c288:    e08f0000    ....    ADD      r0,pc,r0
        0x0000c28c:    ebffd1ca    ....    BL       strcmp ; 0x9bc
        0x0000c290:    e3500000    ..P.    CMP      r0,#0
        0x0000c294:    0a000001    ....    BEQ      0xc2a0 ; _get_lc_numeric + 52
        0x0000c298:    e3b00000    ....    MOVS     r0,#0
        0x0000c29c:    e8bd8010    ....    POP      {r4,pc}
        0x0000c2a0:    e59f0008    ....    LDR      r0,[pc,#8] ; [0xc2b0] = 0x100c
        0x0000c2a4:    e08f0000    ....    ADD      r0,pc,r0
        0x0000c2a8:    e8bd8010    ....    POP      {r4,pc}
    $d
        0x0000c2ac:    00001020     ...    DCD    4128
        0x0000c2b0:    0000100c    ....    DCD    4108
    $a
    locale$$code
    _get_lc_ctype
        0x0000c2b4:    e92d4010    .@-.    PUSH     {r4,lr}
        0x0000c2b8:    e3510000    ..Q.    CMP      r1,#0
        0x0000c2bc:    0a000009    ....    BEQ      0xc2e8 ; _get_lc_ctype + 52
        0x0000c2c0:    e5d10000    ....    LDRB     r0,[r1,#0]
        0x0000c2c4:    e3500000    ..P.    CMP      r0,#0
        0x0000c2c8:    0a000006    ....    BEQ      0xc2e8 ; _get_lc_ctype + 52
        0x0000c2cc:    e59f0020     ...    LDR      r0,[pc,#32] ; [0xc2f4] = 0xff4
        0x0000c2d0:    e08f0000    ....    ADD      r0,pc,r0
        0x0000c2d4:    ebffd1b8    ....    BL       strcmp ; 0x9bc
        0x0000c2d8:    e3500000    ..P.    CMP      r0,#0
        0x0000c2dc:    0a000001    ....    BEQ      0xc2e8 ; _get_lc_ctype + 52
        0x0000c2e0:    e3b00000    ....    MOVS     r0,#0
        0x0000c2e4:    e8bd8010    ....    POP      {r4,pc}
        0x0000c2e8:    e59f0008    ....    LDR      r0,[pc,#8] ; [0xc2f8] = 0xfe0
        0x0000c2ec:    e08f0000    ....    ADD      r0,pc,r0
        0x0000c2f0:    e8bd8010    ....    POP      {r4,pc}
    $d
        0x0000c2f4:    00000ff4    ....    DCD    4084
        0x0000c2f8:    00000fe0    ....    DCD    4064
    $a
    x$fpl$d2f
    __aeabi_d2f
    _d2f
        0x0000c2fc:    e3c12102    .!..    BIC      r2,r1,#0x80000000
        0x0000c300:    e242230e    .#B.    SUB      r2,r2,#0x38000000
        0x0000c304:    e3520601    ..R.    CMP      r2,#0x100000
        0x0000c308:    2272c6ff    ..r"    RSBSCS   r12,r2,#0xff00000
        0x0000c30c:    e2013102    .1..    AND      r3,r1,#0x80000000
        0x0000c310:    9a000005    ....    BLS      0xc32c ; __aeabi_d2f + 48
        0x0000c314:    e1b0c200    ....    LSLS     r12,r0,#4
        0x0000c318:    e1832182    .!..    ORR      r2,r3,r2,LSL #3
        0x0000c31c:    e0a20ea0    ....    ADC      r0,r2,r0,LSR #29
        0x0000c320:    112fff1e    ../.    BXNE     lr
        0x0000c324:    23c00001    ...#    BICCS    r0,r0,#1
        0x0000c328:    e12fff1e    ../.    BX       lr
        0x0000c32c:    e3520601    ..R.    CMP      r2,#0x100000
        0x0000c330:    b1a00003    ....    MOVLT    r0,r3
        0x0000c334:    b12fff1e    ../.    BXLT     lr
        0x0000c338:    e1a0c081    ....    LSL      r12,r1,#1
        0x0000c33c:    e37c0602    ..|.    CMN      r12,#0x200000
        0x0000c340:    2a000001    ...*    BCS      0xc34c ; __aeabi_d2f + 80
        0x0000c344:    e1a00001    ....    MOV      r0,r1
        0x0000c348:    ea0001f2    ....    B        __fpl_fretinf ; 0xcb18
        0x0000c34c:    e92d4070    p@-.    PUSH     {r4-r6,lr}
        0x0000c350:    eb00013d    =...    BL       __fpl_dnaninf ; 0xc84c
    $d
        0x0000c354:    89000000    ....    DCD    2298478592
    $a
        0x0000c358:    eafffff9    ....    B        0xc344 ; __aeabi_d2f + 72
        0x0000c35c:    e3a00102    ....    MOV      r0,#0x80000000
        0x0000c360:    e2400501    ..@.    SUB      r0,r0,#0x400000
        0x0000c364:    e12fff1e    ../.    BX       lr
    x$fpl$ddiv
    __aeabi_ddiv
    _ddiv
        0x0000c368:    e92d41c0    .A-.    PUSH     {r6-r8,lr}
        0x0000c36c:    e92d0030    0.-.    PUSH     {r4,r5}
    ddiv_entry
        0x0000c370:    e59fc2b8    ....    LDR      r12,[pc,#696] ; [0xc630] = 0x7ff0000
        0x0000c374:    e1dc4221    !B..    BICS     r4,r12,r1,LSR #4
        0x0000c378:    11dc4223    #B..    BICSNE   r4,r12,r3,LSR #4
        0x0000c37c:    0a00007a    z...    BEQ      0xc56c ; ddiv_entry + 508
        0x0000c380:    e0215003    .P!.    EOR      r5,r1,r3
        0x0000c384:    e01c4221    !B..    ANDS     r4,r12,r1,LSR #4
        0x0000c388:    e1844fa5    .O..    ORR      r4,r4,r5,LSR #31
        0x0000c38c:    101c5223    #R..    ANDSNE   r5,r12,r3,LSR #4
        0x0000c390:    0a000066    f...    BEQ      0xc530 ; ddiv_entry + 448
        0x0000c394:    e0444005    .@D.    SUB      r4,r4,r5
        0x0000c398:    e3a05102    .Q..    MOV      r5,#0x80000000
        0x0000c39c:    e1851581    ....    ORR      r1,r5,r1,LSL #11
        0x0000c3a0:    e1853583    .5..    ORR      r3,r5,r3,LSL #11
        0x0000c3a4:    e1811aa0    ....    ORR      r1,r1,r0,LSR #21
        0x0000c3a8:    e1833aa2    .:..    ORR      r3,r3,r2,LSR #21
        0x0000c3ac:    e1510003    ..Q.    CMP      r1,r3
        0x0000c3b0:    e28447ff    .G..    ADD      r4,r4,#0x3fc0000
        0x0000c3b4:    e1a00580    ....    LSL      r0,r0,#11
        0x0000c3b8:    e1a02582    .%..    LSL      r2,r2,#11
        0x0000c3bc:    01500002    ..P.    CMPEQ    r0,r2
        0x0000c3c0:    e2844802    .H..    ADD      r4,r4,#0x20000
        0x0000c3c4:    0a00004f    O...    BEQ      0xc508 ; ddiv_entry + 408
        0x0000c3c8:    e1a05c23    #\..    LSR      r5,r3,#24
        0x0000c3cc:    e28f6f57    Wo..    ADR      r6,{pc}+0x164 ; 0xc530
        0x0000c3d0:    e7d66005    .`..    LDRB     r6,[r6,r5]
        0x0000c3d4:    e1a05823    #X..    LSR      r5,r3,#16
        0x0000c3d8:    e0070596    ....    MUL      r7,r6,r5
        0x0000c3dc:    e2677401    .tg.    RSB      r7,r7,#0x1000000
        0x0000c3e0:    e0070796    ....    MUL      r7,r6,r7
        0x0000c3e4:    e1a077a7    .w..    LSR      r7,r7,#15
        0x0000c3e8:    e0886397    .c..    UMULL    r6,r8,r7,r3
        0x0000c3ec:    e2766000    .`v.    RSBS     r6,r6,#0
        0x0000c3f0:    e2e88801    ....    RSC      r8,r8,#0x10000
        0x0000c3f4:    e08ec697    ....    UMULL    r12,lr,r7,r6
        0x0000c3f8:    e026e897    ..&.    MLA      r6,r7,r8,lr
        0x0000c3fc:    e3a0e000    ....    MOV      lr,#0
        0x0000c400:    e3a07000    .p..    MOV      r7,#0
        0x0000c404:    e08c8296    ....    UMULL    r8,r12,r6,r2
        0x0000c408:    e0aec396    ....    UMLAL    r12,lr,r6,r3
        0x0000c40c:    e27cc000    ..|.    RSBS     r12,r12,#0
        0x0000c410:    e2eee102    ....    RSC      lr,lr,#0x80000000
        0x0000c414:    e0885c96    .\..    UMULL    r5,r8,r6,r12
        0x0000c418:    e3a05000    .P..    MOV      r5,#0
        0x0000c41c:    e0a78e96    ....    UMLAL    r8,r7,r6,lr
        0x0000c420:    e086c891    ....    UMULL    r12,r6,r1,r8
        0x0000c424:    e08ec790    ....    UMULL    r12,lr,r0,r7
        0x0000c428:    e096600e    .`..    ADDS     r6,r6,lr
        0x0000c42c:    e2a55000    .P..    ADC      r5,r5,#0
        0x0000c430:    e0a56791    .g..    UMLAL    r6,r5,r1,r7
        0x0000c434:    e295e207    ....    ADDS     lr,r5,#0x70000000
        0x0000c438:    71b06086    .`.q    LSLSVC   r6,r6,#1
        0x0000c43c:    72444801    .HDr    SUBVC    r4,r4,#0x10000
        0x0000c440:    70a55005    .P.p    ADCVC    r5,r5,r5
        0x0000c444:    e2967080    .p..    ADDS     r7,r6,#0x80
        0x0000c448:    e2a55000    .P..    ADC      r5,r5,#0
        0x0000c44c:    e1a07427    't..    LSR      r7,r7,#8
        0x0000c450:    e1a06c06    .l..    LSL      r6,r6,#24
        0x0000c454:    e1877c05    .|..    ORR      r7,r7,r5,LSL #24
        0x0000c458:    e246646f    odF.    SUB      r6,r6,#0x6f000000
        0x0000c45c:    e3560201    ..V.    CMP      r6,#0x10000000
        0x0000c460:    e1a05425    %T..    LSR      r5,r5,#8
        0x0000c464:    9a000011    ....    BLS      0xc4b0 ; ddiv_entry + 320
        0x0000c468:    e1a00007    ....    MOV      r0,r7
        0x0000c46c:    e3c4c001    ....    BIC      r12,r4,#1
        0x0000c470:    e35c067f    ..\.    CMP      r12,#0x7f00000
        0x0000c474:    e0851f84    ....    ADD      r1,r5,r4,LSL #31
        0x0000c478:    98bd00f0    ....    POPLS    {r4-r7}
        0x0000c47c:    e081120c    ....    ADD      r1,r1,r12,LSL #4
        0x0000c480:    98bd8100    ....    POPLS    {r8,pc}
        0x0000c484:    e1140004    ....    TST      r4,r4
        0x0000c488:    5281e601    ...R    ADDPL    lr,r1,#0x100000
        0x0000c48c:    513e0f84    ..>Q    TEQPL    lr,r4,LSL #31
        0x0000c490:    58bd00f0    ...X    POPPL    {r4-r7}
        0x0000c494:    58bd8100    ...X    POPPL    {r8,pc}
        0x0000c498:    e1140004    ....    TST      r4,r4
        0x0000c49c:    4a00001e    ...J    BMI      0xc51c ; ddiv_entry + 428
        0x0000c4a0:    e8bd00f0    ....    POP      {r4-r7}
        0x0000c4a4:    e2411206    ..A.    SUB      r1,r1,#0x60000000
        0x0000c4a8:    e8bd4100    .A..    POP      {r8,lr}
        0x0000c4ac:    ea000114    ....    B        __fpl_dretinf ; 0xc904
        0x0000c4b0:    e1a025a2    .%..    LSR      r2,r2,#11
        0x0000c4b4:    e1822a83    .*..    ORR      r2,r2,r3,LSL #21
        0x0000c4b8:    e1a035a3    .5..    LSR      r3,r3,#11
        0x0000c4bc:    e0868297    ....    UMULL    r8,r6,r7,r2
        0x0000c4c0:    e11e000e    ....    TST      lr,lr
        0x0000c4c4:    e1a005a0    ....    LSR      r0,r0,#11
        0x0000c4c8:    e0266397    .c&.    MLA      r6,r7,r3,r6
        0x0000c4cc:    e1800a81    ....    ORR      r0,r0,r1,LSL #21
        0x0000c4d0:    e1a0e0a2    ....    LSR      lr,r2,#1
        0x0000c4d4:    e0266295    .b&.    MLA      r6,r5,r2,r6
        0x0000c4d8:    e18eef83    ....    ORR      lr,lr,r3,LSL #31
        0x0000c4dc:    e1a015a1    ....    LSR      r1,r1,#11
        0x0000c4e0:    50466a00    .jFP    SUBPL    r6,r6,r0,LSL #20
        0x0000c4e4:    e0566a00    .jV.    SUBS     r6,r6,r0,LSL #20
        0x0000c4e8:    e098e00e    ....    ADDS     lr,r8,lr
        0x0000c4ec:    e0b6e0a3    ....    ADCS     lr,r6,r3,LSR #1
        0x0000c4f0:    5affffdc    ...Z    BPL      0xc468 ; ddiv_entry + 248
        0x0000c4f4:    e0988002    ....    ADDS     r8,r8,r2
        0x0000c4f8:    e0b66003    .`..    ADCS     r6,r6,r3
        0x0000c4fc:    e2977001    .p..    ADDS     r7,r7,#1
        0x0000c500:    e2b55000    .P..    ADCS     r5,r5,#0
        0x0000c504:    eaffffd7    ....    B        0xc468 ; ddiv_entry + 248
        0x0000c508:    e3a05601    .V..    MOV      r5,#0x100000
        0x0000c50c:    e3a07000    .p..    MOV      r7,#0
        0x0000c510:    e3a06000    .`..    MOV      r6,#0
        0x0000c514:    e3a08000    ....    MOV      r8,#0
        0x0000c518:    eaffffd2    ....    B        0xc468 ; ddiv_entry + 248
        0x0000c51c:    e8bd00f0    ....    POP      {r4-r7}
        0x0000c520:    e3a00000    ....    MOV      r0,#0
        0x0000c524:    e2811206    ....    ADD      r1,r1,#0x60000000
        0x0000c528:    e2011102    ....    AND      r1,r1,#0x80000000
        0x0000c52c:    e8bd8100    ....    POP      {r8,pc}
        0x0000c530:    e111020c    ....    TST      r1,r12,LSL #4
        0x0000c534:    e00c5223    #R..    AND      r5,r12,r3,LSR #4
        0x0000c538:    0a000000    ....    BEQ      0xc540 ; ddiv_entry + 464
        0x0000c53c:    ea000006    ....    B        0xc55c ; ddiv_entry + 492
        0x0000c540:    e113020c    ....    TST      r3,r12,LSL #4
        0x0000c544:    0a000014    ....    BEQ      0xc59c ; ddiv_entry + 556
        0x0000c548:    e3a00000    ....    MOV      r0,#0
        0x0000c54c:    e8bd00f0    ....    POP      {r4-r7}
        0x0000c550:    e0211003    ..!.    EOR      r1,r1,r3
        0x0000c554:    e2011102    ....    AND      r1,r1,#0x80000000
        0x0000c558:    e8bd8100    ....    POP      {r8,pc}
        0x0000c55c:    e8bd00f0    ....    POP      {r4-r7}
        0x0000c560:    e0211003    ..!.    EOR      r1,r1,r3
        0x0000c564:    e8bd4100    .A..    POP      {r8,lr}
        0x0000c568:    ea0000e5    ....    B        __fpl_dretinf ; 0xc904
        0x0000c56c:    e8bd00f0    ....    POP      {r4-r7}
        0x0000c570:    e8bd4100    .A..    POP      {r8,lr}
        0x0000c574:    e92d4070    p@-.    PUSH     {r4-r6,lr}
        0x0000c578:    eb0000b3    ....    BL       __fpl_dnaninf ; 0xc84c
    $d
        0x0000c57c:    3efc7e09    .~.>    DCD    1056734729
    $a
        0x0000c580:    ea000003    ....    B        0xc594 ; ddiv_entry + 548
        0x0000c584:    e0211003    ..!.    EOR      r1,r1,r3
        0x0000c588:    e3a00000    ....    MOV      r0,#0
        0x0000c58c:    e2011102    ....    AND      r1,r1,#0x80000000
        0x0000c590:    e12fff1e    ../.    BX       lr
        0x0000c594:    e0211003    ..!.    EOR      r1,r1,r3
        0x0000c598:    ea0000d9    ....    B        __fpl_dretinf ; 0xc904
        0x0000c59c:    e8bd00f0    ....    POP      {r4-r7}
        0x0000c5a0:    e3a00000    ....    MOV      r0,#0
        0x0000c5a4:    e59f1088    ....    LDR      r1,[pc,#136] ; [0xc634] = 0x7ff80000
        0x0000c5a8:    e8bd4100    .A..    POP      {r8,lr}
        0x0000c5ac:    e12fff1e    ../.    BX       lr
    $d
        0x0000c5b0:    f9fbfdff    ....    DCD    4194041343
        0x0000c5b4:    f2f4f5f7    ....    DCD    4076140023
        0x0000c5b8:    ebedeef0    ....    DCD    3958238960
        0x0000c5bc:    e4e6e8e9    ....    DCD    3840338153
        0x0000c5c0:    dee0e1e3    ....    DCD    3739279843
        0x0000c5c4:    d8dadbdd    ....    DCD    3638221789
        0x0000c5c8:    d3d4d5d7    ....    DCD    3553940951
        0x0000c5cc:    cdcfd0d1    ....    DCD    3452948689
        0x0000c5d0:    c8cacbcc    ....    DCD    3368733644
        0x0000c5d4:    c4c5c6c7    ....    DCD    3301295815
        0x0000c5d8:    bfc0c1c2    ....    DCD    3217080770
        0x0000c5dc:    bbbcbdbe    ....    DCD    3149708734
        0x0000c5e0:    b7b8b9ba    ....    DCD    3082336698
        0x0000c5e4:    b3b4b5b6    ....    DCD    3014964662
        0x0000c5e8:    afb0b1b2    ....    DCD    2947592626
        0x0000c5ec:    abacadae    ....    DCD    2880220590
        0x0000c5f0:    a8a8a9aa    ....    DCD    2829625770
        0x0000c5f4:    a4a5a6a7    ....    DCD    2762319527
        0x0000c5f8:    a1a2a3a3    ....    DCD    2711790499
        0x0000c5fc:    9e9f9fa0    ....    DCD    2661261216
        0x0000c600:    9b9c9c9d    ....    DCD    2610732189
        0x0000c604:    9899999a    ....    DCD    2560203162
        0x0000c608:    95969797    ....    DCD    2509674391
        0x0000c60c:    93939495    ....    DCD    2475922581
        0x0000c610:    90919192    ....    DCD    2425459090
        0x0000c614:    8e8e8f8f    ....    DCD    2391707535
        0x0000c618:    8b8c8c8d    ....    DCD    2341244045
        0x0000c61c:    89898a8b    ....    DCD    2307492491
        0x0000c620:    87878888    ....    DCD    2273806472
        0x0000c624:    84858586    ....    DCD    2223342982
        0x0000c628:    82838384    ....    DCD    2189656964
        0x0000c62c:    80818182    ....    DCD    2155970946
        0x0000c630:    07ff0000    ....    DCD    134152192
        0x0000c634:    7ff80000    ....    DCD    2146959360
    $a
    x$fpl$dfixu
    __aeabi_d2uiz
    _dfixu
        0x0000c638:    e1a03a21    !:..    LSR      r3,r1,#20
        0x0000c63c:    e2433b01    .;C.    SUB      r3,r3,#0x400
        0x0000c640:    e273301e    .0s.    RSBS     r3,r3,#0x1e
        0x0000c644:    a273c020     .s.    RSBSGE   r12,r3,#0x20
        0x0000c648:    ba000004    ....    BLT      0xc660 ; __aeabi_d2uiz + 40
        0x0000c64c:    e3a02102    .!..    MOV      r2,#0x80000000
        0x0000c650:    e1822581    .%..    ORR      r2,r2,r1,LSL #11
        0x0000c654:    e1922aa0    .*..    ORRS     r2,r2,r0,LSR #21
        0x0000c658:    e1b00332    2...    LSRS     r0,r2,r3
        0x0000c65c:    e12fff1e    ../.    BX       lr
        0x0000c660:    e1110001    ....    TST      r1,r1
        0x0000c664:    4a000007    ...J    BMI      0xc688 ; __aeabi_d2uiz + 80
        0x0000c668:    e3530010    ..S.    CMP      r3,#0x10
        0x0000c66c:    c3a00000    ....    MOVGT    r0,#0
        0x0000c670:    c12fff1e    ../.    BXGT     lr
        0x0000c674:    e283ce3e    >...    ADD      r12,r3,#0x3e0
        0x0000c678:    e37c0001    ..|.    CMN      r12,#1
        0x0000c67c:    0a000003    ....    BEQ      0xc690 ; __aeabi_d2uiz + 88
        0x0000c680:    e3e00000    ....    MVN      r0,#0
        0x0000c684:    e12fff1e    ../.    BX       lr
        0x0000c688:    e3a00000    ....    MOV      r0,#0
        0x0000c68c:    e12fff1e    ../.    BX       lr
        0x0000c690:    e92d4070    p@-.    PUSH     {r4-r6,lr}
        0x0000c694:    eb00006c    l...    BL       __fpl_dnaninf ; 0xc84c
    $d
        0x0000c698:    80492492    .$I.    DCD    2152277138
    $a
        0x0000c69c:    e3a00000    ....    MOV      r0,#0
        0x0000c6a0:    e12fff1e    ../.    BX       lr
        0x0000c6a4:    eafffff5    ....    B        0xc680 ; __aeabi_d2uiz + 72
    x$fpl$dfltu
    __aeabi_ui2d
    _dfltu
        0x0000c6a8:    e16f3f10    .?o.    CLZ      r3,r0
        0x0000c6ac:    e1b01310    ....    LSLS     r1,r0,r3
        0x0000c6b0:    0a000005    ....    BEQ      0xc6cc ; __aeabi_ui2d + 36
        0x0000c6b4:    e263301d    .0c.    RSB      r3,r3,#0x1d
        0x0000c6b8:    e2833b01    .;..    ADD      r3,r3,#0x400
        0x0000c6bc:    e1a00a81    ....    LSL      r0,r1,#21
        0x0000c6c0:    e1a02a03    .*..    LSL      r2,r3,#20
        0x0000c6c4:    e08215a1    ....    ADD      r1,r2,r1,LSR #11
        0x0000c6c8:    e12fff1e    ../.    BX       lr
        0x0000c6cc:    e3a00000    ....    MOV      r0,#0
        0x0000c6d0:    e12fff1e    ../.    BX       lr
    x$fpl$dmul
    __aeabi_dmul
    _dmul
        0x0000c6d4:    e59fc164    d...    LDR      r12,[pc,#356] ; [0xc840] = 0x7ff0000
        0x0000c6d8:    e92d4070    p@-.    PUSH     {r4-r6,lr}
        0x0000c6dc:    e01ce221    !...    ANDS     lr,r12,r1,LSR #4
        0x0000c6e0:    101c5223    #R..    ANDSNE   r5,r12,r3,LSR #4
        0x0000c6e4:    113e000c    ..>.    TEQNE    lr,r12
        0x0000c6e8:    1135000c    ..5.    TEQNE    r5,r12
        0x0000c6ec:    0a00003c    <...    BEQ      0xc7e4 ; __aeabi_dmul + 272
        0x0000c6f0:    e0214003    .@!.    EOR      r4,r1,r3
        0x0000c6f4:    e1c3328c    .2..    BIC      r3,r3,r12,LSL #5
        0x0000c6f8:    e18eefa4    ....    ORR      lr,lr,r4,LSR #31
        0x0000c6fc:    e1c1128c    ....    BIC      r1,r1,r12,LSL #5
        0x0000c700:    e3811601    ....    ORR      r1,r1,#0x100000
        0x0000c704:    e3833601    .6..    ORR      r3,r3,#0x100000
        0x0000c708:    e08ee005    ....    ADD      lr,lr,r5
        0x0000c70c:    e08c4291    .B..    UMULL    r4,r12,r1,r2
        0x0000c710:    e0856390    .c..    UMULL    r6,r5,r0,r3
        0x0000c714:    e24ee7ff    ..N.    SUB      lr,lr,#0x3fc0000
        0x0000c718:    e0966004    .`..    ADDS     r6,r6,r4
        0x0000c71c:    e0b5500c    .P..    ADCS     r5,r5,r12
        0x0000c720:    e08c4391    .C..    UMULL    r4,r12,r1,r3
        0x0000c724:    e2ac3000    .0..    ADC      r3,r12,#0
        0x0000c728:    e08c1290    ....    UMULL    r1,r12,r0,r2
        0x0000c72c:    e096600c    .`..    ADDS     r6,r6,r12
        0x0000c730:    e0b55004    .P..    ADCS     r5,r5,r4
        0x0000c734:    e2b33000    .0..    ADCS     r3,r3,#0
        0x0000c738:    e1110001    ....    TST      r1,r1
        0x0000c73c:    13866001    .`..    ORRNE    r6,r6,#1
        0x0000c740:    e3130c02    ....    TST      r3,#0x200
        0x0000c744:    1a000006    ....    BNE      0xc764 ; __aeabi_dmul + 144
        0x0000c748:    e1a01603    ....    LSL      r1,r3,#12
        0x0000c74c:    e1a00605    ....    LSL      r0,r5,#12
        0x0000c750:    e1b04606    .F..    LSLS     r4,r6,#12
        0x0000c754:    e1811a25    %...    ORR      r1,r1,r5,LSR #20
        0x0000c758:    e1800a26    &...    ORR      r0,r0,r6,LSR #20
        0x0000c75c:    e3e02003    . ..    MVN      r2,#3
        0x0000c760:    ea000005    ....    B        0xc77c ; __aeabi_dmul + 168
        0x0000c764:    e1a01583    ....    LSL      r1,r3,#11
        0x0000c768:    e1a00585    ....    LSL      r0,r5,#11
        0x0000c76c:    e1b04586    .E..    LSLS     r4,r6,#11
        0x0000c770:    e1811aa5    ....    ORR      r1,r1,r5,LSR #21
        0x0000c774:    e1800aa6    ....    ORR      r0,r0,r6,LSR #21
        0x0000c778:    e3e02002    . ..    MVN      r2,#2
        0x0000c77c:    e082284e    N(..    ADD      r2,r2,lr,ASR #16
        0x0000c780:    e0815a02    .Z..    ADD      r5,r1,r2,LSL #20
        0x0000c784:    e0251f8e    ..%.    EOR      r1,r5,lr,LSL #31
        0x0000c788:    0a000004    ....    BEQ      0xc7a0 ; __aeabi_dmul + 204
        0x0000c78c:    e1b0c084    ....    LSLS     r12,r4,#1
        0x0000c790:    13c44102    .A..    BICNE    r4,r4,#0x80000000
        0x0000c794:    e2b00000    ....    ADCS     r0,r0,#0
        0x0000c798:    e2a11000    ....    ADC      r1,r1,#0
        0x0000c79c:    e1c00fa4    ....    BIC      r0,r0,r4,LSR #31
        0x0000c7a0:    e59fc09c    ....    LDR      r12,[pc,#156] ; [0xc844] = 0x7fe
        0x0000c7a4:    e152000c    ..R.    CMP      r2,r12
        0x0000c7a8:    2a000000    ...*    BCS      0xc7b0 ; __aeabi_dmul + 220
        0x0000c7ac:    e8bd8070    p...    POP      {r4-r6,pc}
        0x0000c7b0:    e1500005    ..P.    CMP      r0,r5
        0x0000c7b4:    13a04101    .A..    MOVNE    r4,#0x40000000
        0x0000c7b8:    03a04103    .A..    MOVEQ    r4,#0xc0000000
        0x0000c7bc:    e3560000    ..V.    CMP      r6,#0
        0x0000c7c0:    03a04000    .@..    MOVEQ    r4,#0
        0x0000c7c4:    e35e0301    ..^.    CMP      lr,#0x4000000
        0x0000c7c8:    e8bd4070    p@..    POP      {r4-r6,lr}
        0x0000c7cc:    a2411206    ..A.    SUBGE    r1,r1,#0x60000000
        0x0000c7d0:    aa00004b    K...    BGE      __fpl_dretinf ; 0xc904
        0x0000c7d4:    e3a00000    ....    MOV      r0,#0
        0x0000c7d8:    e2811206    ....    ADD      r1,r1,#0x60000000
        0x0000c7dc:    e2011102    ....    AND      r1,r1,#0x80000000
        0x0000c7e0:    e12fff1e    ../.    BX       lr
        0x0000c7e4:    e13e000c    ..>.    TEQ      lr,r12
        0x0000c7e8:    e00c5223    #R..    AND      r5,r12,r3,LSR #4
        0x0000c7ec:    1135000c    ..5.    TEQNE    r5,r12
        0x0000c7f0:    0a000003    ....    BEQ      0xc804 ; __aeabi_dmul + 304
        0x0000c7f4:    e3a00000    ....    MOV      r0,#0
        0x0000c7f8:    e021e003    ..!.    EOR      lr,r1,r3
        0x0000c7fc:    e20e1102    ....    AND      r1,lr,#0x80000000
        0x0000c800:    e8bd8070    p...    POP      {r4-r6,pc}
        0x0000c804:    eb000010    ....    BL       __fpl_dnaninf ; 0xc84c
    $d
        0x0000c808:    3e010089    ...>    DCD    1040253065
    $a
        0x0000c80c:    ea000003    ....    B        0xc820 ; __aeabi_dmul + 332
        0x0000c810:    ea000004    ....    B        0xc828 ; __aeabi_dmul + 340
        0x0000c814:    e1a0c083    ....    LSL      r12,r3,#1
        0x0000c818:    e1b0caac    ....    LSRS     r12,r12,#21
        0x0000c81c:    0a000004    ....    BEQ      0xc834 ; __aeabi_dmul + 352
        0x0000c820:    e0211003    ..!.    EOR      r1,r1,r3
        0x0000c824:    ea000036    6...    B        __fpl_dretinf ; 0xc904
        0x0000c828:    e1a0c081    ....    LSL      r12,r1,#1
        0x0000c82c:    e1b0caac    ....    LSRS     r12,r12,#21
        0x0000c830:    1afffffa    ....    BNE      0xc820 ; __aeabi_dmul + 332
        0x0000c834:    e3a00000    ....    MOV      r0,#0
        0x0000c838:    e59f1008    ....    LDR      r1,[pc,#8] ; [0xc848] = 0x7ff80000
        0x0000c83c:    e12fff1e    ../.    BX       lr
    $d
        0x0000c840:    07ff0000    ....    DCD    134152192
        0x0000c844:    000007fe    ....    DCD    2046
        0x0000c848:    7ff80000    ....    DCD    2146959360
    $a
    x$fpl$dnaninf
    __fpl_dnaninf
        0x0000c84c:    e49e6004    .`..    LDR      r6,[lr],#4
        0x0000c850:    e1160006    ....    TST      r6,r6
        0x0000c854:    4a000003    ...J    BMI      0xc868 ; __fpl_dnaninf + 28
        0x0000c858:    e3520001    ..R.    CMP      r2,#1
        0x0000c85c:    e0a35003    .P..    ADC      r5,r3,r3
        0x0000c860:    e3750602    ..u.    CMN      r5,#0x200000
        0x0000c864:    8a00000a    ....    BHI      0xc894 ; __fpl_dnaninf + 72
        0x0000c868:    e3500001    ..P.    CMP      r0,#1
        0x0000c86c:    e0a1c001    ....    ADC      r12,r1,r1
        0x0000c870:    e37c0602    ..|.    CMN      r12,#0x200000
        0x0000c874:    8a000006    ....    BHI      0xc894 ; __fpl_dnaninf + 72
        0x0000c878:    1a000007    ....    BNE      0xc89c ; __fpl_dnaninf + 80
        0x0000c87c:    e1a0cfa1    ....    LSR      r12,r1,#31
        0x0000c880:    e3750602    ..u.    CMN      r5,#0x200000
        0x0000c884:    e08cc08c    ....    ADD      r12,r12,r12,LSL #1
        0x0000c888:    e28cc002    ....    ADD      r12,r12,#2
        0x0000c88c:    00accfa3    ....    ADCEQ    r12,r12,r3,LSR #31
        0x0000c890:    ea000002    ....    B        0xc8a0 ; __fpl_dnaninf + 84
        0x0000c894:    e3a0c008    ....    MOV      r12,#8
        0x0000c898:    ea000000    ....    B        0xc8a0 ; __fpl_dnaninf + 84
        0x0000c89c:    e1a0cfa3    ....    LSR      r12,r3,#31
        0x0000c8a0:    e08c508c    .P..    ADD      r5,r12,r12,LSL #1
        0x0000c8a4:    e1a06536    6e..    LSR      r6,r6,r5
        0x0000c8a8:    e2066007    .`..    AND      r6,r6,#7
        0x0000c8ac:    e256c004    ..V.    SUBS     r12,r6,#4
        0x0000c8b0:    2a000002    ...*    BCS      0xc8c0 ; __fpl_dnaninf + 116
        0x0000c8b4:    e08ec106    ....    ADD      r12,lr,r6,LSL #2
        0x0000c8b8:    e8bd4070    p@..    POP      {r4-r6,lr}
        0x0000c8bc:    e12fff1c    ../.    BX       r12
        0x0000c8c0:    e08ff10c    ....    ADD      pc,pc,r12,LSL #2
        0x0000c8c4:    e1a00000    ....    MOV      r0,r0
        0x0000c8c8:    ea000005    ....    B        0xc8e4 ; __fpl_dnaninf + 152
        0x0000c8cc:    ea000006    ....    B        0xc8ec ; __fpl_dnaninf + 160
        0x0000c8d0:    eaffffff    ....    B        0xc8d4 ; __fpl_dnaninf + 136
        0x0000c8d4:    e3a01102    ....    MOV      r1,#0x80000000
        0x0000c8d8:    e3a00000    ....    MOV      r0,#0
        0x0000c8dc:    e2411702    ..A.    SUB      r1,r1,#0x80000
        0x0000c8e0:    e8bd8070    p...    POP      {r4-r6,pc}
        0x0000c8e4:    e1a01003    ....    MOV      r1,r3
        0x0000c8e8:    e1a00002    ....    MOV      r0,r2
        0x0000c8ec:    e3500001    ..P.    CMP      r0,#1
        0x0000c8f0:    e0b14001    .@..    ADCS     r4,r1,r1
        0x0000c8f4:    12744602    .Ft.    RSBSNE   r4,r4,#0x200000
        0x0000c8f8:    83a00000    ....    MOVHI    r0,#0
        0x0000c8fc:    82011102    ....    ANDHI    r1,r1,#0x80000000
        0x0000c900:    e8bd8070    p...    POP      {r4-r6,pc}
    x$fpl$dretinf
    __fpl_dretinf
        0x0000c904:    e1b00021    !...    LSRS     r0,r1,#32
        0x0000c908:    e2401602    ..@.    SUB      r1,r0,#0x200000
        0x0000c90c:    e1a01061    a...    RRX      r1,r1
        0x0000c910:    e12fff1e    ../.    BX       lr
    x$fpl$f2d
    __aeabi_f2d
    _f2d
        0x0000c914:    e1b03080    .0..    LSLS     r3,r0,#1
        0x0000c918:    e1a0c1a3    ....    LSR      r12,r3,#3
        0x0000c91c:    e1a0c06c    l...    RRX      r12,r12
        0x0000c920:    e0333000    .03.    EORS     r3,r3,r0
        0x0000c924:    11a00e80    ....    LSLNE    r0,r0,#29
        0x0000c928:    128c130e    ....    ADDNE    r1,r12,#0x38000000
        0x0000c92c:    1313047f    ....    TSTNE    r3,#0x7f000000
        0x0000c930:    112fff1e    ../.    BXNE     lr
        0x0000c934:    e31c0302    ....    TST      r12,#0x8000000
        0x0000c938:    1a000002    ....    BNE      0xc948 ; __aeabi_f2d + 52
        0x0000c93c:    e3b00000    ....    MOVS     r0,#0
        0x0000c940:    e20c1102    ....    AND      r1,r12,#0x80000000
        0x0000c944:    e12fff1e    ../.    BX       lr
        0x0000c948:    e20c3102    .1..    AND      r3,r12,#0x80000000
        0x0000c94c:    e1830ea0    ....    ORR      r0,r3,r0,LSR #29
        0x0000c950:    e92d4010    .@-.    PUSH     {r4,lr}
        0x0000c954:    e180018c    ....    ORR      r0,r0,r12,LSL #3
        0x0000c958:    eb000046    F...    BL       __fpl_fnaninf ; 0xca78
    $d
        0x0000c95c:    92000000    ....    DCD    2449473536
    $a
        0x0000c960:    e1a01000    ....    MOV      r1,r0
        0x0000c964:    eaffffe6    ....    B        __fpl_dretinf ; 0xc904
        0x0000c968:    e3a01102    ....    MOV      r1,#0x80000000
        0x0000c96c:    e3a00000    ....    MOV      r0,#0
        0x0000c970:    e2411702    ..A.    SUB      r1,r1,#0x80000
        0x0000c974:    e12fff1e    ../.    BX       lr
    x$fpl$fmul
    __aeabi_fmul
    _fmul
        0x0000c978:    e3a0c8ff    ....    MOV      r12,#0xff0000
        0x0000c97c:    e01c23a0    .#..    ANDS     r2,r12,r0,LSR #7
        0x0000c980:    101c33a1    .3..    ANDSNE   r3,r12,r1,LSR #7
        0x0000c984:    1132000c    ..2.    TEQNE    r2,r12
        0x0000c988:    1133000c    ..3.    TEQNE    r3,r12
        0x0000c98c:    0a000020     ...    BEQ      0xca14 ; __aeabi_fmul + 156
        0x0000c990:    e1300001    ..0.    TEQ      r0,r1
        0x0000c994:    e3a0c102    ....    MOV      r12,#0x80000000
        0x0000c998:    43822c01    .,.C    ORRMI    r2,r2,#0x100
        0x0000c99c:    e18c0400    ....    ORR      r0,r12,r0,LSL #8
        0x0000c9a0:    e18c1401    ....    ORR      r1,r12,r1,LSL #8
        0x0000c9a4:    e0822003    . ..    ADD      r2,r2,r3
        0x0000c9a8:    e0831190    ....    UMULL    r1,r3,r0,r1
        0x0000c9ac:    e2422502    .%B.    SUB      r2,r2,#0x800000
        0x0000c9b0:    e3510000    ..Q.    CMP      r1,#0
        0x0000c9b4:    13833001    .0..    ORRNE    r3,r3,#1
        0x0000c9b8:    e1b03083    .0..    LSLS     r3,r3,#1
        0x0000c9bc:    e0a22842    B(..    ADC      r2,r2,r2,ASR #16
        0x0000c9c0:    21a03063    c0.!    RRXCS    r3,r3
        0x0000c9c4:    e1b0c423    #...    LSRS     r12,r3,#8
        0x0000c9c8:    2313007f    ...#    TSTCS    r3,#0x7f
        0x0000c9cc:    e0ac0b82    ....    ADC      r0,r12,r2,LSL #23
        0x0000c9d0:    1352073f    ?.R.    CMPNE    r2,#0xfc0000
        0x0000c9d4:    312fff1e    ../1    BXCC     lr
        0x0000c9d8:    03c00001    ....    BICEQ    r0,r0,#1
        0x0000c9dc:    e352073f    ?.R.    CMP      r2,#0xfc0000
        0x0000c9e0:    312fff1e    ../1    BXCC     lr
        0x0000c9e4:    5a000005    ...Z    BPL      0xca00 ; __aeabi_fmul + 136
        0x0000c9e8:    e22220ff    . ".    EOR      r2,r2,#0xff
        0x0000c9ec:    e3720801    ..r.    CMN      r2,#0x10000
        0x0000c9f0:    c12fff1e    ../.    BXGT     lr
        0x0000c9f4:    e2800206    ....    ADD      r0,r0,#0x60000000
        0x0000c9f8:    d2000102    ....    ANDLE    r0,r0,#0x80000000
        0x0000c9fc:    e12fff1e    ../.    BX       lr
        0x0000ca00:    e280c502    ....    ADD      r12,r0,#0x800000
        0x0000ca04:    e1b0c08c    ....    LSLS     r12,r12,#1
        0x0000ca08:    412fff1e    ../A    BXMI     lr
        0x0000ca0c:    e2500206    ..P.    SUBS     r0,r0,#0x60000000
        0x0000ca10:    ea000040    @...    B        __fpl_fretinf ; 0xcb18
        0x0000ca14:    e1300001    ..0.    TEQ      r0,r1
        0x0000ca18:    43822c01    .,.C    ORRMI    r2,r2,#0x100
        0x0000ca1c:    e152000c    ..R.    CMP      r2,r12
        0x0000ca20:    e00c33a1    .3..    AND      r3,r12,r1,LSR #7
        0x0000ca24:    3153000c    ..S1    CMPCC    r3,r12
        0x0000ca28:    2a000002    ...*    BCS      0xca38 ; __aeabi_fmul + 192
        0x0000ca2c:    e0200001    .. .    EOR      r0,r0,r1
        0x0000ca30:    e2000102    ....    AND      r0,r0,#0x80000000
        0x0000ca34:    e12fff1e    ../.    BX       lr
        0x0000ca38:    e92d4010    .@-.    PUSH     {r4,lr}
        0x0000ca3c:    eb00000d    ....    BL       __fpl_fnaninf ; 0xca78
    $d
        0x0000ca40:    3e010089    ...>    DCD    1040253065
    $a
        0x0000ca44:    ea000003    ....    B        0xca58 ; __aeabi_fmul + 224
        0x0000ca48:    ea000004    ....    B        0xca60 ; __aeabi_fmul + 232
        0x0000ca4c:    e1b0c081    ....    LSLS     r12,r1,#1
        0x0000ca50:    e1b0cc2c    ,...    LSRS     r12,r12,#24
        0x0000ca54:    0a000004    ....    BEQ      0xca6c ; __aeabi_fmul + 244
        0x0000ca58:    e0200001    .. .    EOR      r0,r0,r1
        0x0000ca5c:    ea00002d    -...    B        __fpl_fretinf ; 0xcb18
        0x0000ca60:    e1b0c080    ....    LSLS     r12,r0,#1
        0x0000ca64:    e1b0cc2c    ,...    LSRS     r12,r12,#24
        0x0000ca68:    1afffffa    ....    BNE      0xca58 ; __aeabi_fmul + 224
        0x0000ca6c:    e3a00102    ....    MOV      r0,#0x80000000
        0x0000ca70:    e2400501    ..@.    SUB      r0,r0,#0x400000
        0x0000ca74:    e12fff1e    ../.    BX       lr
    x$fpl$fnaninf
    __fpl_fnaninf
        0x0000ca78:    e49e4004    .@..    LDR      r4,[lr],#4
        0x0000ca7c:    e1140004    ....    TST      r4,r4
        0x0000ca80:    4a000002    ...J    BMI      0xca90 ; __fpl_fnaninf + 24
        0x0000ca84:    e1a02081    . ..    LSL      r2,r1,#1
        0x0000ca88:    e35204ff    ..R.    CMP      r2,#0xff000000
        0x0000ca8c:    8a000009    ....    BHI      0xcab8 ; __fpl_fnaninf + 64
        0x0000ca90:    e1a03080    .0..    LSL      r3,r0,#1
        0x0000ca94:    e35304ff    ..S.    CMP      r3,#0xff000000
        0x0000ca98:    8a000006    ....    BHI      0xcab8 ; __fpl_fnaninf + 64
        0x0000ca9c:    1a000007    ....    BNE      0xcac0 ; __fpl_fnaninf + 72
        0x0000caa0:    e1a0cfa0    ....    LSR      r12,r0,#31
        0x0000caa4:    e35204ff    ..R.    CMP      r2,#0xff000000
        0x0000caa8:    e08cc08c    ....    ADD      r12,r12,r12,LSL #1
        0x0000caac:    e28cc002    ....    ADD      r12,r12,#2
        0x0000cab0:    00accfa1    ....    ADCEQ    r12,r12,r1,LSR #31
        0x0000cab4:    ea000002    ....    B        0xcac4 ; __fpl_fnaninf + 76
        0x0000cab8:    e3a0c008    ....    MOV      r12,#8
        0x0000cabc:    ea000000    ....    B        0xcac4 ; __fpl_fnaninf + 76
        0x0000cac0:    e1a0cfa1    ....    LSR      r12,r1,#31
        0x0000cac4:    e08c308c    .0..    ADD      r3,r12,r12,LSL #1
        0x0000cac8:    e1a04334    4C..    LSR      r4,r4,r3
        0x0000cacc:    e2044007    .@..    AND      r4,r4,#7
        0x0000cad0:    e254c004    ..T.    SUBS     r12,r4,#4
        0x0000cad4:    2a000002    ...*    BCS      0xcae4 ; __fpl_fnaninf + 108
        0x0000cad8:    e08ec104    ....    ADD      r12,lr,r4,LSL #2
        0x0000cadc:    e8bd4010    .@..    POP      {r4,lr}
        0x0000cae0:    e12fff1c    ../.    BX       r12
        0x0000cae4:    e08ff10c    ....    ADD      pc,pc,r12,LSL #2
        0x0000cae8:    e1a00000    ....    MOV      r0,r0
        0x0000caec:    ea000004    ....    B        0xcb04 ; __fpl_fnaninf + 140
        0x0000caf0:    ea000004    ....    B        0xcb08 ; __fpl_fnaninf + 144
        0x0000caf4:    eaffffff    ....    B        0xcaf8 ; __fpl_fnaninf + 128
        0x0000caf8:    e3a00102    ....    MOV      r0,#0x80000000
        0x0000cafc:    e2400501    ..@.    SUB      r0,r0,#0x400000
        0x0000cb00:    e8bd8010    ....    POP      {r4,pc}
        0x0000cb04:    e1a00001    ....    MOV      r0,r1
        0x0000cb08:    e1b02080    . ..    LSLS     r2,r0,#1
        0x0000cb0c:    12722401    .$r.    RSBSNE   r2,r2,#0x1000000
        0x0000cb10:    82000102    ....    ANDHI    r0,r0,#0x80000000
        0x0000cb14:    e8bd8010    ....    POP      {r4,pc}
    x$fpl$fretinf
    __fpl_fretinf
        0x0000cb18:    e3b010ff    ....    MOVS     r1,#0xff
        0x0000cb1c:    e1810ba0    ....    ORR      r0,r1,r0,LSR #23
        0x0000cb20:    e1b00b80    ....    LSLS     r0,r0,#23
        0x0000cb24:    e12fff1e    ../.    BX       lr
    x$fpl$ieeestatus
    __ieee_status
        0x0000cb28:    e3a00000    ....    MOV      r0,#0
        0x0000cb2c:    e12fff1e    ../.    BX       lr
    x$fpl$printf1
    _printf_fp_dec
        0x0000cb30:    eaffd608    ....    B        $Ven$AT$L$$_printf_fp_dec_real ; 0x2358
    x$fpl$printf2
    _printf_fp_hex
        0x0000cb34:    eaffd274    t...    B        $Ven$AT$I$$_printf_fp_hex_real ; 0x150c
    $d.realdata
    .constdata
    x$fpl$usenofp
    Table0816
    __I$use$fp
        0x0000cb38:    00000000    ....    DCD    0
        0x0000cb3c:    00000000    ....    DCD    0
        0x0000cb40:    00000000    ....    DCD    0
        0x0000cb44:    00000000    ....    DCD    0
        0x0000cb48:    10000000    ....    DCD    268435456
        0x0000cb4c:    10101010    ....    DCD    269488144
        0x0000cb50:    00001010    ....    DCD    4112
        0x0000cb54:    00001818    ....    DCD    6168
        0x0000cb58:    24361200    ..6$    DCD    607523328
        0x0000cb5c:    00000048    H...    DCD    72
        0x0000cb60:    00000000    ....    DCD    0
        0x0000cb64:    00000000    ....    DCD    0
        0x0000cb68:    24000000    ...$    DCD    603979776
        0x0000cb6c:    48fe2424    $$.H    DCD    1224614948
        0x0000cb70:    48fe4848    HH.H    DCD    1224624200
        0x0000cb74:    00004848    HH..    DCD    18504
        0x0000cb78:    38100000    ...8    DCD    940572672
        0x0000cb7c:    30505454    TTP0    DCD    810570836
        0x0000cb80:    54141418    ...T    DCD    1410602008
        0x0000cb84:    10103854    T8..    DCD    269498452
        0x0000cb88:    44000000    ...D    DCD    1140850688
        0x0000cb8c:    a8a8a8a4    ....    DCD    2829625508
        0x0000cb90:    2a2a1a54    T.**    DCD    707402324
        0x0000cb94:    0000442a    *D..    DCD    17450
        0x0000cb98:    30000000    ...0    DCD    805306368
        0x0000cb9c:    50484848    HHHP    DCD    1346914376
        0x0000cba0:    8894a46e    n...    DCD    2291442798
        0x0000cba4:    00007689    .v..    DCD    30345
        0x0000cba8:    20606000    .``     DCD    543186944
        0x0000cbac:    000000c0    ....    DCD    192
        0x0000cbb0:    00000000    ....    DCD    0
        0x0000cbb4:    00000000    ....    DCD    0
        0x0000cbb8:    08040200    ....    DCD    134480384
        0x0000cbbc:    10101008    ....    DCD    269488136
        0x0000cbc0:    08101010    ....    DCD    135270416
        0x0000cbc4:    00020408    ....    DCD    132104
        0x0000cbc8:    10204000    .@ .    DCD    270548992
        0x0000cbcc:    08080810    ....    DCD    134744080
        0x0000cbd0:    10080808    ....    DCD    268961800
        0x0000cbd4:    00402010    . @.    DCD    4202512
        0x0000cbd8:    00000000    ....    DCD    0
        0x0000cbdc:    38d61010    ...8    DCD    953552912
        0x0000cbe0:    1010d638    8...    DCD    269538872
        0x0000cbe4:    00000000    ....    DCD    0
        0x0000cbe8:    00000000    ....    DCD    0
        0x0000cbec:    10101010    ....    DCD    269488144
        0x0000cbf0:    101010fe    ....    DCD    269488382
        0x0000cbf4:    00000010    ....    DCD    16
        0x0000cbf8:    00000000    ....    DCD    0
        0x0000cbfc:    00000000    ....    DCD    0
        0x0000cc00:    00000000    ....    DCD    0
        0x0000cc04:    c0206060    `` .    DCD    3223347296
        0x0000cc08:    00000000    ....    DCD    0
        0x0000cc0c:    00000000    ....    DCD    0
        0x0000cc10:    0000007f    ....    DCD    127
        0x0000cc14:    00000000    ....    DCD    0
        0x0000cc18:    00000000    ....    DCD    0
        0x0000cc1c:    00000000    ....    DCD    0
        0x0000cc20:    00000000    ....    DCD    0
        0x0000cc24:    00006060    ``..    DCD    24672
        0x0000cc28:    02010000    ....    DCD    33619968
        0x0000cc2c:    08040402    ....    DCD    134480898
        0x0000cc30:    20101008    ...     DCD    537923592
        0x0000cc34:    00404020     @@.    DCD    4210720
        0x0000cc38:    18000000    ....    DCD    402653184
        0x0000cc3c:    42424224    $BBB    DCD    1111638564
        0x0000cc40:    42424242    BBBB    DCD    1111638594
        0x0000cc44:    00001824    $...    DCD    6180
        0x0000cc48:    10000000    ....    DCD    268435456
        0x0000cc4c:    10101070    p...    DCD    269488240
        0x0000cc50:    10101010    ....    DCD    269488144
        0x0000cc54:    00007c10    .|..    DCD    31760
        0x0000cc58:    3c000000    ...<    DCD    1006632960
        0x0000cc5c:    04424242    BBB.    DCD    71451202
        0x0000cc60:    20100804    ...     DCD    537921540
        0x0000cc64:    00007e42    B~..    DCD    32322
        0x0000cc68:    3c000000    ...<    DCD    1006632960
        0x0000cc6c:    18044242    BB..    DCD    402932290
        0x0000cc70:    42020204    ...B    DCD    1107427844
        0x0000cc74:    00003844    D8..    DCD    14404
        0x0000cc78:    04000000    ....    DCD    67108864
        0x0000cc7c:    2424140c    ..$$    DCD    606344204
        0x0000cc80:    047e4444    DD~.    DCD    75383876
        0x0000cc84:    00001e04    ....    DCD    7684
        0x0000cc88:    7e000000    ...~    DCD    2113929216
        0x0000cc8c:    58404040    @@@X    DCD    1480605760
        0x0000cc90:    42020264    d..B    DCD    1107427940
        0x0000cc94:    00003844    D8..    DCD    14404
        0x0000cc98:    1c000000    ....    DCD    469762048
        0x0000cc9c:    58404024    $@@X    DCD    1480605732
        0x0000cca0:    42424264    dBBB    DCD    1111638628
        0x0000cca4:    00001824    $...    DCD    6180
        0x0000cca8:    7e000000    ...~    DCD    2113929216
        0x0000ccac:    08084444    DD..    DCD    134759492
        0x0000ccb0:    10101010    ....    DCD    269488144
        0x0000ccb4:    00001010    ....    DCD    4112
        0x0000ccb8:    3c000000    ...<    DCD    1006632960
        0x0000ccbc:    24424242    BBB$    DCD    608322114
        0x0000ccc0:    42422418    .$BB    DCD    1111630872
        0x0000ccc4:    00003c42    B<..    DCD    15426
        0x0000ccc8:    18000000    ....    DCD    402653184
        0x0000cccc:    42424224    $BBB    DCD    1111638564
        0x0000ccd0:    02021a26    &...    DCD    33692198
        0x0000ccd4:    00003824    $8..    DCD    14372
        0x0000ccd8:    00000000    ....    DCD    0
        0x0000ccdc:    18180000    ....    DCD    404226048
        0x0000cce0:    00000000    ....    DCD    0
        0x0000cce4:    00001818    ....    DCD    6168
        0x0000cce8:    00000000    ....    DCD    0
        0x0000ccec:    10000000    ....    DCD    268435456
        0x0000ccf0:    00000000    ....    DCD    0
        0x0000ccf4:    20101000    ...     DCD    537923584
        0x0000ccf8:    02000000    ....    DCD    33554432
        0x0000ccfc:    20100804    ...     DCD    537921540
        0x0000cd00:    08102040    @ ..    DCD    135274560
        0x0000cd04:    00000204    ....    DCD    516
        0x0000cd08:    00000000    ....    DCD    0
        0x0000cd0c:    00fe0000    ....    DCD    16646144
        0x0000cd10:    00fe0000    ....    DCD    16646144
        0x0000cd14:    00000000    ....    DCD    0
        0x0000cd18:    40000000    ...@    DCD    1073741824
        0x0000cd1c:    04081020     ...    DCD    67637280
        0x0000cd20:    10080402    ....    DCD    268960770
        0x0000cd24:    00004020     @..    DCD    16416
        0x0000cd28:    3c000000    ...<    DCD    1006632960
        0x0000cd2c:    02624242    BBb.    DCD    39993922
        0x0000cd30:    00080804    ....    DCD    526340
        0x0000cd34:    00001818    ....    DCD    6168
        0x0000cd38:    38000000    ...8    DCD    939524096
        0x0000cd3c:    aaaa5a44    DZ..    DCD    2863290948
        0x0000cd40:    42b4aaaa    ...B    DCD    1119136426
        0x0000cd44:    00003844    D8..    DCD    14404
        0x0000cd48:    10000000    ....    DCD    268435456
        0x0000cd4c:    28281810    ..((    DCD    673716240
        0x0000cd50:    42443c24    $<DB    DCD    1111768100
        0x0000cd54:    0000e742    B...    DCD    59202
        0x0000cd58:    f8000000    ....    DCD    4160749568
        0x0000cd5c:    78444444    DDDx    DCD    2017739844
        0x0000cd60:    42424244    DBBB    DCD    1111638596
        0x0000cd64:    0000f844    D...    DCD    63556
        0x0000cd68:    3e000000    ...>    DCD    1040187392
        0x0000cd6c:    80804242    BB..    DCD    2155889218
        0x0000cd70:    42808080    ...B    DCD    1115717760
        0x0000cd74:    00003844    D8..    DCD    14404
        0x0000cd78:    f8000000    ....    DCD    4160749568
        0x0000cd7c:    42424244    DBBB    DCD    1111638596
        0x0000cd80:    42424242    BBBB    DCD    1111638594
        0x0000cd84:    0000f844    D...    DCD    63556
        0x0000cd88:    fc000000    ....    DCD    4227858432
        0x0000cd8c:    78484842    BHHx    DCD    2018003010
        0x0000cd90:    42404848    HH@B    DCD    1111509064
        0x0000cd94:    0000fc42    B...    DCD    64578
        0x0000cd98:    fc000000    ....    DCD    4227858432
        0x0000cd9c:    78484842    BHHx    DCD    2018003010
        0x0000cda0:    40404848    HH@@    DCD    1077954632
        0x0000cda4:    0000e040    @...    DCD    57408
        0x0000cda8:    3c000000    ...<    DCD    1006632960
        0x0000cdac:    80804444    DD..    DCD    2155889732
        0x0000cdb0:    44848e80    ...D    DCD    1149537920
        0x0000cdb4:    00003844    D8..    DCD    14404
        0x0000cdb8:    e7000000    ....    DCD    3875536896
        0x0000cdbc:    42424242    BBBB    DCD    1111638594
        0x0000cdc0:    4242427e    ~BBB    DCD    1111638654
        0x0000cdc4:    0000e742    B...    DCD    59202
        0x0000cdc8:    7c000000    ...|    DCD    2080374784
        0x0000cdcc:    10101010    ....    DCD    269488144
        0x0000cdd0:    10101010    ....    DCD    269488144
        0x0000cdd4:    00007c10    .|..    DCD    31760
        0x0000cdd8:    3e000000    ...>    DCD    1040187392
        0x0000cddc:    08080808    ....    DCD    134744072
        0x0000cde0:    08080808    ....    DCD    134744072
        0x0000cde4:    f0880808    ....    DCD    4035446792
        0x0000cde8:    ee000000    ....    DCD    3992977408
        0x0000cdec:    70504844    DHPp    DCD    1884309572
        0x0000cdf0:    44484850    PHHD    DCD    1145587792
        0x0000cdf4:    0000ee44    D...    DCD    60996
        0x0000cdf8:    e0000000    ....    DCD    3758096384
        0x0000cdfc:    40404040    @@@@    DCD    1077952576
        0x0000ce00:    40404040    @@@@    DCD    1077952576
        0x0000ce04:    0000fe42    B...    DCD    65090
        0x0000ce08:    ee000000    ....    DCD    3992977408
        0x0000ce0c:    6c6c6c6c    llll    DCD    1819044972
        0x0000ce10:    54545454    TTTT    DCD    1414812756
        0x0000ce14:    0000d654    T...    DCD    54868
        0x0000ce18:    c7000000    ....    DCD    3338665984
        0x0000ce1c:    52526262    bbRR    DCD    1381130850
        0x0000ce20:    464a4a4a    JJJF    DCD    1179273802
        0x0000ce24:    0000e246    F...    DCD    57926
        0x0000ce28:    38000000    ...8    DCD    939524096
        0x0000ce2c:    82828244    D...    DCD    2189591108
        0x0000ce30:    82828282    ....    DCD    2189591170
        0x0000ce34:    00003844    D8..    DCD    14404
        0x0000ce38:    fc000000    ....    DCD    4227858432
        0x0000ce3c:    42424242    BBBB    DCD    1111638594
        0x0000ce40:    4040407c    |@@@    DCD    1077952636
        0x0000ce44:    0000e040    @...    DCD    57408
        0x0000ce48:    38000000    ...8    DCD    939524096
        0x0000ce4c:    82828244    D...    DCD    2189591108
        0x0000ce50:    cab28282    ....    DCD    3400696450
        0x0000ce54:    0006384c    L8..    DCD    407628
        0x0000ce58:    fc000000    ....    DCD    4227858432
        0x0000ce5c:    7c424242    BBB|    DCD    2084717122
        0x0000ce60:    44444848    HHDD    DCD    1145325640
        0x0000ce64:    0000e342    B...    DCD    58178
        0x0000ce68:    3e000000    ...>    DCD    1040187392
        0x0000ce6c:    20404242    BB@     DCD    541082178
        0x0000ce70:    42020418    ...B    DCD    1107428376
        0x0000ce74:    00007c42    B|..    DCD    31810
        0x0000ce78:    fe000000    ....    DCD    4261412864
        0x0000ce7c:    10101092    ....    DCD    269488274
        0x0000ce80:    10101010    ....    DCD    269488144
        0x0000ce84:    00003810    .8..    DCD    14352
        0x0000ce88:    e7000000    ....    DCD    3875536896
        0x0000ce8c:    42424242    BBBB    DCD    1111638594
        0x0000ce90:    42424242    BBBB    DCD    1111638594
        0x0000ce94:    00003c42    B<..    DCD    15426
        0x0000ce98:    e7000000    ....    DCD    3875536896
        0x0000ce9c:    24444242    BBD$    DCD    608453186
        0x0000cea0:    18282824    $((.    DCD    405284900
        0x0000cea4:    00001010    ....    DCD    4112
        0x0000cea8:    d6000000    ....    DCD    3590324224
        0x0000ceac:    92929292    ....    DCD    2459079314
        0x0000ceb0:    446caaaa    ..lD    DCD    1147972266
        0x0000ceb4:    00004444    DD..    DCD    17476
        0x0000ceb8:    e7000000    ....    DCD    3875536896
        0x0000cebc:    18242442    B$$.    DCD    405021762
        0x0000cec0:    24241818    ..$$    DCD    606345240
        0x0000cec4:    0000e742    B...    DCD    59202
        0x0000cec8:    ee000000    ....    DCD    3992977408
        0x0000cecc:    28284444    DD((    DCD    673727556
        0x0000ced0:    10101010    ....    DCD    269488144
        0x0000ced4:    00003810    .8..    DCD    14352
        0x0000ced8:    7e000000    ...~    DCD    2113929216
        0x0000cedc:    08080484    ....    DCD    134743172
        0x0000cee0:    42202010    .  B    DCD    1109401616
        0x0000cee4:    0000fc42    B...    DCD    64578
        0x0000cee8:    10101e00    ....    DCD    269491712
        0x0000ceec:    10101010    ....    DCD    269488144
        0x0000cef0:    10101010    ....    DCD    269488144
        0x0000cef4:    001e1010    ....    DCD    1970192
        0x0000cef8:    40400000    ..@@    DCD    1077936128
        0x0000cefc:    10102020      ..    DCD    269492256
        0x0000cf00:    04080810    ....    DCD    67635216
        0x0000cf04:    02020404    ....    DCD    33686532
        0x0000cf08:    08087800    .x..    DCD    134772736
        0x0000cf0c:    08080808    ....    DCD    134744072
        0x0000cf10:    08080808    ....    DCD    134744072
        0x0000cf14:    00780808    ..x.    DCD    7866376
        0x0000cf18:    00221c00    ..".    DCD    2235392
        0x0000cf1c:    00000000    ....    DCD    0
        0x0000cf20:    00000000    ....    DCD    0
        0x0000cf24:    00000000    ....    DCD    0
        0x0000cf28:    00000000    ....    DCD    0
        0x0000cf2c:    00000000    ....    DCD    0
        0x0000cf30:    00000000    ....    DCD    0
        0x0000cf34:    ff000000    ....    DCD    4278190080
        0x0000cf38:    10000000    ....    DCD    268435456
        0x0000cf3c:    40402020      @@    DCD    1077944352
        0x0000cf40:    00000000    ....    DCD    0
        0x0000cf44:    00000000    ....    DCD    0
        0x0000cf48:    00000000    ....    DCD    0
        0x0000cf4c:    3c000000    ...<    DCD    1006632960
        0x0000cf50:    42221e42    B."B    DCD    1109532226
        0x0000cf54:    00003f42    B?..    DCD    16194
        0x0000cf58:    c0000000    ....    DCD    3221225472
        0x0000cf5c:    58404040    @@@X    DCD    1480605760
        0x0000cf60:    42424264    dBBB    DCD    1111638628
        0x0000cf64:    00005864    dX..    DCD    22628
        0x0000cf68:    00000000    ....    DCD    0
        0x0000cf6c:    1c000000    ....    DCD    469762048
        0x0000cf70:    40404022    "@@@    DCD    1077952546
        0x0000cf74:    00001c22    "...    DCD    7202
        0x0000cf78:    06000000    ....    DCD    100663296
        0x0000cf7c:    1e020202    ....    DCD    503448066
        0x0000cf80:    42424222    "BBB    DCD    1111638562
        0x0000cf84:    00001b26    &...    DCD    6950
        0x0000cf88:    00000000    ....    DCD    0
        0x0000cf8c:    3c000000    ...<    DCD    1006632960
        0x0000cf90:    40407e42    B~@@    DCD    1077968450
        0x0000cf94:    00003c42    B<..    DCD    15426
        0x0000cf98:    0f000000    ....    DCD    251658240
        0x0000cf9c:    7e101011    ...~    DCD    2114981905
        0x0000cfa0:    10101010    ....    DCD    269488144
        0x0000cfa4:    00007c10    .|..    DCD    31760
        0x0000cfa8:    00000000    ....    DCD    0
        0x0000cfac:    3e000000    ...>    DCD    1040187392
        0x0000cfb0:    40384444    DD8@    DCD    1077429316
        0x0000cfb4:    3c42423c    <BB<    DCD    1010975292
        0x0000cfb8:    c0000000    ....    DCD    3221225472
        0x0000cfbc:    5c404040    @@@\    DCD    1547714624
        0x0000cfc0:    42424262    bBBB    DCD    1111638626
        0x0000cfc4:    0000e742    B...    DCD    59202
        0x0000cfc8:    30000000    ...0    DCD    805306368
        0x0000cfcc:    70000030    0..p    DCD    1879048240
        0x0000cfd0:    10101010    ....    DCD    269488144
        0x0000cfd4:    00007c10    .|..    DCD    31760
        0x0000cfd8:    0c000000    ....    DCD    201326592
        0x0000cfdc:    1c00000c    ....    DCD    469762060
        0x0000cfe0:    04040404    ....    DCD    67372036
        0x0000cfe4:    78440404    ..Dx    DCD    2017723396
        0x0000cfe8:    c0000000    ....    DCD    3221225472
        0x0000cfec:    4e404040    @@@N    DCD    1312833600
        0x0000cff0:    48685048    HPhH    DCD    1214795848
        0x0000cff4:    0000ee44    D...    DCD    60996
        0x0000cff8:    70000000    ...p    DCD    1879048192
        0x0000cffc:    10101010    ....    DCD    269488144
        0x0000d000:    10101010    ....    DCD    269488144
        0x0000d004:    00007c10    .|..    DCD    31760
        0x0000d008:    00000000    ....    DCD    0
        0x0000d00c:    fe000000    ....    DCD    4261412864
        0x0000d010:    49494949    IIII    DCD    1229539657
        0x0000d014:    0000ed49    I...    DCD    60745
        0x0000d018:    00000000    ....    DCD    0
        0x0000d01c:    dc000000    ....    DCD    3690987520
        0x0000d020:    42424262    bBBB    DCD    1111638626
        0x0000d024:    0000e742    B...    DCD    59202
        0x0000d028:    00000000    ....    DCD    0
        0x0000d02c:    3c000000    ...<    DCD    1006632960
        0x0000d030:    42424242    BBBB    DCD    1111638594
        0x0000d034:    00003c42    B<..    DCD    15426
        0x0000d038:    00000000    ....    DCD    0
        0x0000d03c:    d8000000    ....    DCD    3623878656
        0x0000d040:    42424264    dBBB    DCD    1111638628
        0x0000d044:    e0407844    Dx@.    DCD    3762321476
        0x0000d048:    00000000    ....    DCD    0
        0x0000d04c:    1e000000    ....    DCD    503316480
        0x0000d050:    42424222    "BBB    DCD    1111638562
        0x0000d054:    07021e22    "...    DCD    117579298
        0x0000d058:    00000000    ....    DCD    0
        0x0000d05c:    ee000000    ....    DCD    3992977408
        0x0000d060:    20202032    2       DCD    538976306
        0x0000d064:    0000f820     ...    DCD    63520
        0x0000d068:    00000000    ....    DCD    0
        0x0000d06c:    3e000000    ...>    DCD    1040187392
        0x0000d070:    023c4042    B@<.    DCD    37503042
        0x0000d074:    00007c42    B|..    DCD    31810
        0x0000d078:    00000000    ....    DCD    0
        0x0000d07c:    7c101000    ...|    DCD    2081427456
        0x0000d080:    10101010    ....    DCD    269488144
        0x0000d084:    00000c10    ....    DCD    3088
        0x0000d088:    00000000    ....    DCD    0
        0x0000d08c:    c6000000    ....    DCD    3321888768
        0x0000d090:    42424242    BBBB    DCD    1111638594
        0x0000d094:    00003b46    F;..    DCD    15174
        0x0000d098:    00000000    ....    DCD    0
        0x0000d09c:    e7000000    ....    DCD    3875536896
        0x0000d0a0:    28242442    B$$(    DCD    673457218
        0x0000d0a4:    00001010    ....    DCD    4112
        0x0000d0a8:    00000000    ....    DCD    0
        0x0000d0ac:    d7000000    ....    DCD    3607101440
        0x0000d0b0:    aaaa9292    ....    DCD    2863305362
        0x0000d0b4:    00004444    DD..    DCD    17476
        0x0000d0b8:    00000000    ....    DCD    0
        0x0000d0bc:    6e000000    ...n    DCD    1845493760
        0x0000d0c0:    18181824    $...    DCD    404232228
        0x0000d0c4:    00007624    $v..    DCD    30244
        0x0000d0c8:    00000000    ....    DCD    0
        0x0000d0cc:    e7000000    ....    DCD    3875536896
        0x0000d0d0:    28242442    B$$(    DCD    673457218
        0x0000d0d4:    e0101018    ....    DCD    3759149080
        0x0000d0d8:    00000000    ....    DCD    0
        0x0000d0dc:    7e000000    ...~    DCD    2113929216
        0x0000d0e0:    10100844    D...    DCD    269486148
        0x0000d0e4:    00007e22    "~..    DCD    32290
        0x0000d0e8:    04040300    ....    DCD    67371776
        0x0000d0ec:    08040404    ....    DCD    134480900
        0x0000d0f0:    04040404    ....    DCD    67372036
        0x0000d0f4:    00030404    ....    DCD    197636
        0x0000d0f8:    08080808    ....    DCD    134744072
        0x0000d0fc:    08080808    ....    DCD    134744072
        0x0000d100:    08080808    ....    DCD    134744072
        0x0000d104:    08080808    ....    DCD    134744072
        0x0000d108:    10106000    .`..    DCD    269508608
        0x0000d10c:    08101010    ....    DCD    135270416
        0x0000d110:    10101010    ....    DCD    269488144
        0x0000d114:    00601010    ..`.    DCD    6295568
    .constdata
        0x0000d118:    00000055    U...    DCD    85
    .constdata
    checksum_addr_nand_Arr
        0x0000d11c:    00017e40    @~..    DCD    97856
        0x0000d120:    00017e80    .~..    DCD    97920
        0x0000d124:    00017ec0    .~..    DCD    97984
        0x0000d128:    00017f00    ....    DCD    98048
        0x0000d12c:    0001eb80    ....    DCD    125824
        0x0000d130:    0001ebc0    ....    DCD    125888
    .constdata
    uc_hextab
        0x0000d134:    33323130    0123    DCD    858927408
        0x0000d138:    37363534    4567    DCD    926299444
        0x0000d13c:    42413938    89AB    DCD    1111570744
        0x0000d140:    46454443    CDEF    DCD    1178944579
        0x0000d144:    00583040    @0X.    DCD    5779520
    lc_hextab
        0x0000d148:    33323130    0123    DCD    858927408
        0x0000d14c:    37363534    4567    DCD    926299444
        0x0000d150:    62613938    89ab    DCD    1650538808
        0x0000d154:    66656463    cdef    DCD    1717920867
        0x0000d158:    00783040    @0x.    DCD    7876672
    .constdata
    maptable
        0x0000d15c:    08000004    ....    DCD    134217732
        0x0000d160:    00000000    ....    DCD    0
        0x0000d164:    02000000    ....    DCD    33554432
        0x0000d168:    00000100    ....    DCD    256
        0x0000d16c:    00000010    ....    DCD    16
    .constdata
    initial_mbstate
        0x0000d170:    00000000    ....    DCD    0
        0x0000d174:    00000000    ....    DCD    0
    .constdata
    lc_hextab
        0x0000d178:    33323130    0123    DCD    858927408
        0x0000d17c:    37363534    4567    DCD    926299444
        0x0000d180:    62613938    89ab    DCD    1650538808
        0x0000d184:    66656463    cdef    DCD    1717920867
        0x0000d188:    7078        xp      DCW    28792
        0x0000d18a:    00          .       DCB    0
    uc_hextab
        0x0000d18b:    30          0       DCB    48
        0x0000d18c:    34333231    1234    DCD    875770417
        0x0000d190:    38373635    5678    DCD    943142453
        0x0000d194:    43424139    9ABC    DCD    1128415545
        0x0000d198:    58464544    DEFX    DCD    1481000260
        0x0000d19c:    00000050    P...    DCD    80
    .constdata
    tenpwrs_x
        0x0000d1a0:    00004002    .@..    DCD    16386
        0x0000d1a4:    a0000000    ....    DCD    2684354560
        0x0000d1a8:    00000000    ....    DCD    0
        0x0000d1ac:    00004005    .@..    DCD    16389
        0x0000d1b0:    c8000000    ....    DCD    3355443200
        0x0000d1b4:    00000000    ....    DCD    0
        0x0000d1b8:    0000400c    .@..    DCD    16396
        0x0000d1bc:    9c400000    ..@.    DCD    2621440000
        0x0000d1c0:    00000000    ....    DCD    0
        0x0000d1c4:    00004019    .@..    DCD    16409
        0x0000d1c8:    bebc2000    . ..    DCD    3200000000
        0x0000d1cc:    00000000    ....    DCD    0
        0x0000d1d0:    00004034    4@..    DCD    16436
        0x0000d1d4:    8e1bc9bf    ....    DCD    2384185791
        0x0000d1d8:    04000000    ....    DCD    67108864
    tenpwrs_i
        0x0000d1dc:    000040b5    .@..    DCD    16565
        0x0000d1e0:    d0cf4b50    PK..    DCD    3503246160
        0x0000d1e4:    cfe20766    f...    DCD    3487696742
        0x0000d1e8:    00000001    ....    DCD    1
        0x0000d1ec:    0000416c    lA..    DCD    16748
        0x0000d1f0:    aa51823e    >.Q.    DCD    2857468478
        0x0000d1f4:    34a7eedf    ...4    DCD    883420895
        0x0000d1f8:    00000001    ....    DCD    1
        0x0000d1fc:    000042d9    .B..    DCD    17113
        0x0000d200:    e2a0b5dc    ....    DCD    3802183132
        0x0000d204:    971f303a    :0..    DCD    2535403578
        0x0000d208:    ffffffff    ....    DCD    4294967295
        0x0000d20c:    000045b4    .E..    DCD    17844
        0x0000d210:    c8a025fd    .%..    DCD    3365938685
        0x0000d214:    4fc1a3e9    ...O    DCD    1338090473
        0x0000d218:    ffffffff    ....    DCD    4294967295
        0x0000d21c:    00003fff    .?..    DCD    16383
        0x0000d220:    80000000    ....    DCD    2147483648
        0x0000d224:    00000000    ....    DCD    0
        0x0000d228:    00003fff    .?..    DCD    16383
        0x0000d22c:    80000000    ....    DCD    2147483648
        0x0000d230:    00000000    ....    DCD    0
    .conststring
        0x0000d234:    44414552    READ    DCD    1145128274
        0x0000d238:    63757320     suc    DCD    1668641568
        0x0000d23c:    73736563    cess    DCD    1936942435
        0x0000d240:    6c6c7566    full    DCD    1819047270
        0x0000d244:    4d492c79    y,IM    DCD    1296641145
        0x0000d248:    20454741    AGE     DCD    541411137
        0x0000d24c:    3a424154    TAB:    DCD    977420628
        0x0000d250:    25783020     0x%    DCD    628633632
        0x0000d254:    78302078    x 0x    DCD    2016419960
        0x0000d258:    30207825    %x 0    DCD    807434277
        0x0000d25c:    20782578    x%x     DCD    544744824
        0x0000d260:    78257830    0x%x    DCD    2015721520
        0x0000d264:    25783020     0x%    DCD    628633632
        0x0000d268:    78302078    x 0x    DCD    2016419960
        0x0000d26c:    30207825    %x 0    DCD    807434277
        0x0000d270:    20782578    x%x     DCD    544744824
        0x0000d274:    78257830    0x%x    DCD    2015721520
        0x0000d278:    00000a0d    ....    DCD    2573
    Region$$Table$$Base
        0x0000d27c:    0000d3d8    ....    DCD    54232
        0x0000d280:    0000dacc    ....    DCD    56012
        0x0000d284:    000000fc    ....    DCD    252
        0x0000d288:    0000019c    ....    DCD    412
        0x0000d28c:    0000dacc    ....    DCD    56012
        0x0000d290:    0000d3d8    ....    DCD    54232
        0x0000d294:    000006f4    ....    DCD    1780
        0x0000d298:    00000140    @...    DCD    320
        0x0000d29c:    0000d4d4    ....    DCD    54484
        0x0000d2a0:    0000dacc    ....    DCD    56012
        0x0000d2a4:    0005a84c    L...    DCD    370764
        0x0000d2a8:    000001c4    ....    DCD    452
    locale$$data
    Region$$Table$$Limit
        0x0000d2ac:    0000001c    ....    DCD    28
    __lcnum_c_name
        0x0000d2b0:    00000043    C...    DCD    67
        0x0000d2b4:    fffffff8    ....    DCD    4294967288
    __lcnum_c_start
        0x0000d2b8:    0000000c    ....    DCD    12
        0x0000d2bc:    0000000e    ....    DCD    14
        0x0000d2c0:    0000000f    ....    DCD    15
    __lcnum_c_point
        0x0000d2c4:    002e        ..      DCW    46
    __lcnum_c_thousands
        0x0000d2c6:    00          .       DCB    0
    __lcnum_c_grouping
        0x0000d2c7:    00          .       DCB    0
    __lcnum_c_end
    locale$$data
        0x0000d2c8:    00000110    ....    DCD    272
    __lcctype_c_name
        0x0000d2cc:    00000043    C...    DCD    67
        0x0000d2d0:    fffffff8    ....    DCD    4294967288
    __lcctype_c_start
        0x0000d2d4:    00          .       DCB    0
    __ctype
        0x0000d2d5:    404040      @@@     DCB    64,64,64
        0x0000d2d8:    40404040    @@@@    DCD    1077952576
        0x0000d2dc:    41414040    @@AA    DCD    1094795328
        0x0000d2e0:    40414141    AAA@    DCD    1078018369
        0x0000d2e4:    40404040    @@@@    DCD    1077952576
        0x0000d2e8:    40404040    @@@@    DCD    1077952576
        0x0000d2ec:    40404040    @@@@    DCD    1077952576
        0x0000d2f0:    40404040    @@@@    DCD    1077952576
        0x0000d2f4:    02020540    @...    DCD    33686848
        0x0000d2f8:    02020202    ....    DCD    33686018
        0x0000d2fc:    02020202    ....    DCD    33686018
        0x0000d300:    02020202    ....    DCD    33686018
        0x0000d304:    20202002    .       DCD    538976258
        0x0000d308:    20202020            DCD    538976288
        0x0000d30c:    02202020       .    DCD    35659808
        0x0000d310:    02020202    ....    DCD    33686018
        0x0000d314:    90900202    ....    DCD    2425356802
        0x0000d318:    90909090    ....    DCD    2425393296
        0x0000d31c:    10101010    ....    DCD    269488144
        0x0000d320:    10101010    ....    DCD    269488144
        0x0000d324:    10101010    ....    DCD    269488144
        0x0000d328:    10101010    ....    DCD    269488144
        0x0000d32c:    10101010    ....    DCD    269488144
        0x0000d330:    02020202    ....    DCD    33686018
        0x0000d334:    88880202    ....    DCD    2290614786
        0x0000d338:    88888888    ....    DCD    2290649224
        0x0000d33c:    08080808    ....    DCD    134744072
        0x0000d340:    08080808    ....    DCD    134744072
        0x0000d344:    08080808    ....    DCD    134744072
        0x0000d348:    08080808    ....    DCD    134744072
        0x0000d34c:    08080808    ....    DCD    134744072
        0x0000d350:    02020202    ....    DCD    33686018
        0x0000d354:    00000040    @...    DCD    64
        0x0000d358:    00000000    ....    DCD    0
        0x0000d35c:    00000000    ....    DCD    0
        0x0000d360:    00000000    ....    DCD    0
        0x0000d364:    00000000    ....    DCD    0
        0x0000d368:    00000000    ....    DCD    0
        0x0000d36c:    00000000    ....    DCD    0
        0x0000d370:    00000000    ....    DCD    0
        0x0000d374:    00000000    ....    DCD    0
        0x0000d378:    00000000    ....    DCD    0
        0x0000d37c:    00000000    ....    DCD    0
        0x0000d380:    00000000    ....    DCD    0
        0x0000d384:    00000000    ....    DCD    0
        0x0000d388:    00000000    ....    DCD    0
        0x0000d38c:    00000000    ....    DCD    0
        0x0000d390:    00000000    ....    DCD    0
        0x0000d394:    00000000    ....    DCD    0
        0x0000d398:    00000000    ....    DCD    0
        0x0000d39c:    00000000    ....    DCD    0
        0x0000d3a0:    00000000    ....    DCD    0
        0x0000d3a4:    00000000    ....    DCD    0
        0x0000d3a8:    00000000    ....    DCD    0
        0x0000d3ac:    00000000    ....    DCD    0
        0x0000d3b0:    00000000    ....    DCD    0
        0x0000d3b4:    00000000    ....    DCD    0
        0x0000d3b8:    00000000    ....    DCD    0
        0x0000d3bc:    00000000    ....    DCD    0
        0x0000d3c0:    00000000    ....    DCD    0
        0x0000d3c4:    00000000    ....    DCD    0
        0x0000d3c8:    00000000    ....    DCD    0
        0x0000d3cc:    00000000    ....    DCD    0
        0x0000d3d0:    00000000    ....    DCD    0
        0x0000d3d4:    00000000    ....    DCD    0
    __lcctype_c_end

** Section #2 'RW_RAM1' (SHT_PROGBITS) [SHF_ALLOC + SHF_WRITE]
    Size   : 252 bytes (alignment 32)
    Address: 0x0000d3d8


** Section #3 'RW_RAM1' (SHT_NOBITS) [SHF_ALLOC + SHF_WRITE]
    Size   : 370764 bytes (alignment 16384)
    Address: 0x0000dacc


** Section #4 '.debug_abbrev' (SHT_PROGBITS)
    Size   : 1476 bytes


** Section #5 '.debug_frame' (SHT_PROGBITS)
    Size   : 8976 bytes


** Section #6 '.debug_info' (SHT_PROGBITS)
    Size   : 139560 bytes


** Section #7 '.debug_line' (SHT_PROGBITS)
    Size   : 65176 bytes


** Section #8 '.debug_loc' (SHT_PROGBITS)
    Size   : 30860 bytes


** Section #9 '.debug_macinfo' (SHT_PROGBITS)
    Size   : 147228 bytes


** Section #10 '.debug_pubnames' (SHT_PROGBITS)
    Size   : 17403 bytes


** Section #11 '.symtab' (SHT_SYMTAB)
    Size   : 32224 bytes (alignment 4)
    String table #12 '.strtab'
    Last local symbol no. 1474


** Section #12 '.strtab' (SHT_STRTAB)
    Size   : 21448 bytes


** Section #13 '.note' (SHT_NOTE)
    Size   : 28 bytes (alignment 4)


** Section #14 '.comment' (SHT_PROGBITS)
    Size   : 36428 bytes


** Section #15 '.shstrtab' (SHT_STRTAB)
    Size   : 152 bytes


