
========================================================================

** ELF Header Information

    File Name: .\obj\earse_1534_unit.axf

    Machine class: ELFCLASS32 (32-bit)
    Data encoding: ELFDATA2LSB (Little endian)
    Header version: EV_CURRENT (Current version)
    Operating System ABI: none
    ABI Version: 0
    File Type: ET_EXEC (Executable) (2)
    Machine: EM_ARM (ARM)

    Image Entry point: 0x00000000
    Flags: EF_ARM_HASENTRY + EF_ARM_ABI_FLOAT_SOFT (0x05000202)

    ARM ELF revision: 5 (ABI version 2)

    Conforms to Soft float procedure-call standard

    Built with
    Component: ARM Compiler 5.06 update 5 (build 528) Tool: armasm [4d35e1]
    Component: ARM Compiler 5.06 update 5 (build 528) Tool: armlink [4d35e2]

    Header size: 52 bytes (0x34)
    Program header entry size: 32 bytes (0x20)
    Section header entry size: 40 bytes (0x28)

    Program header entries: 1
    Section header entries: 16

    Program header offset: 498308 (0x00079a84)
    Section header offset: 498340 (0x00079aa4)

    Section header string table index: 15

========================================================================

** Program header #0 (PT_LOAD) [PF_X + PF_W + PF_R + PF_ARM_ENTRY]
    Size : 410372 bytes (41080 bytes in file)
    Virtual address: 0x00000000 (Alignment 16384)


========================================================================

** Section #1 'ER_IROM1' (SHT_PROGBITS) [SHF_ALLOC + SHF_EXECINSTR]
    Size   : 40840 bytes (alignment 4)
    Address: 0x00000000

    $a
    NUC_INIT
    Vector_Table
        0x00000000:    ea000014    ....    B        Reset_Go ; 0x58
        0x00000004:    e59ff018    ....    LDR      pc,[pc,#24] ; [0x24] = 0x40
        0x00000008:    e59ff018    ....    LDR      pc,[pc,#24] ; [0x28] = 0x44
        0x0000000c:    e59ff018    ....    LDR      pc,[pc,#24] ; [0x2c] = 0x48
        0x00000010:    e59ff018    ....    LDR      pc,[pc,#24] ; [0x30] = 0x4c
    $d
        0x00000014:    00000000    ....    DCD    0
    $a
        0x00000018:    e59ff018    ....    LDR      pc,[pc,#24] ; [0x38] = 0x50
        0x0000001c:    e59ff018    ....    LDR      pc,[pc,#24] ; [0x3c] = 0x54
    $d
        0x00000020:    00000058    X...    DCD    88
        0x00000024:    00000040    @...    DCD    64
        0x00000028:    00000044    D...    DCD    68
        0x0000002c:    00000048    H...    DCD    72
        0x00000030:    0000004c    L...    DCD    76
        0x00000034:    00000000    ....    DCD    0
        0x00000038:    00000050    P...    DCD    80
        0x0000003c:    00000054    T...    DCD    84
    $a
    Undefined_Handler
        0x00000040:    eafffffe    ....    B        Undefined_Handler ; 0x40
    SWI_Handler1
        0x00000044:    eafffffe    ....    B        SWI_Handler1 ; 0x44
    Prefetch_Handler
        0x00000048:    eafffffe    ....    B        Prefetch_Handler ; 0x48
    Abort_Handler
        0x0000004c:    eafffffe    ....    B        Abort_Handler ; 0x4c
    IRQ_Handler
        0x00000050:    eafffffe    ....    B        IRQ_Handler ; 0x50
    FIQ_Handler
        0x00000054:    eafffffe    ....    B        FIQ_Handler ; 0x54
    Reset_Go
        0x00000058:    e59f0090    ....    LDR      r0,[pc,#144] ; [0xf0] = 0xb8002138
        0x0000005c:    e3e01000    ....    MVN      r1,#0
        0x00000060:    e5801000    ....    STR      r1,[r0,#0]
        0x00000064:    e59f0088    ....    LDR      r0,[pc,#136] ; [0xf4] = 0xb800213c
        0x00000068:    e5801000    ....    STR      r1,[r0,#0]
        0x0000006c:    e59f2084    . ..    LDR      r2,[pc,#132] ; [0xf8] = 0xb0001800
        0x00000070:    e5923010    .0..    LDR      r3,[r2,#0x10]
        0x00000074:    e2033007    .0..    AND      r3,r3,#7
        0x00000078:    e3a01002    ....    MOV      r1,#2
        0x0000007c:    e3a00001    ....    MOV      r0,#1
        0x00000080:    e1500003    ..P.    CMP      r0,r3
        0x00000084:    0a000002    ....    BEQ      0x94 ; Reset_Go + 60
        0x00000088:    e1a01081    ....    LSL      r1,r1,#1
        0x0000008c:    e2800001    ....    ADD      r0,r0,#1
        0x00000090:    eafffffa    ....    B        0x80 ; Reset_Go + 40
        0x00000094:    e1a00a01    ....    LSL      r0,r1,#20
        0x00000098:    e321f0db    ..!.    MSR      CPSR_c,#0xdb
        0x0000009c:    e1a0d000    ....    MOV      sp,r0
        0x000000a0:    e2400a01    ..@.    SUB      r0,r0,#0x1000
        0x000000a4:    e321f0d7    ..!.    MSR      CPSR_c,#0xd7
        0x000000a8:    e1a0d000    ....    MOV      sp,r0
        0x000000ac:    e2400a01    ..@.    SUB      r0,r0,#0x1000
        0x000000b0:    e321f0d2    ..!.    MSR      CPSR_c,#0xd2
        0x000000b4:    e1a0d000    ....    MOV      sp,r0
        0x000000b8:    e2400906    ..@.    SUB      r0,r0,#0x18000
        0x000000bc:    e321f0d1    ..!.    MSR      CPSR_c,#0xd1
        0x000000c0:    e1a0d000    ....    MOV      sp,r0
        0x000000c4:    e2400a02    ..@.    SUB      r0,r0,#0x2000
        0x000000c8:    e321f0df    ..!.    MSR      CPSR_c,#0xdf
        0x000000cc:    e1a0d000    ....    MOV      sp,r0
        0x000000d0:    e2400501    ..@.    SUB      r0,r0,#0x400000
        0x000000d4:    e321f0d3    ..!.    MSR      CPSR_c,#0xd3
        0x000000d8:    e1a0d000    ....    MOV      sp,r0
        0x000000dc:    e2400903    ..@.    SUB      r0,r0,#0xc000
        0x000000e0:    ee110f10    ....    MRC      p15,#0x0,r0,c1,c0,#0
        0x000000e4:    e3c00a02    ....    BIC      r0,r0,#0x2000
        0x000000e8:    ee010f10    ....    MCR      p15,#0x0,r0,c1,c0,#0
        0x000000ec:    ea000002    ....    B        __main ; 0xfc
    $d
        0x000000f0:    b8002138    8!..    DCD    3087016248
        0x000000f4:    b800213c    <!..    DCD    3087016252
        0x000000f8:    b0001800    ....    DCD    2952796160
    $a
    !!!main
    __main
        0x000000fc:    eb000000    ....    BL       __scatterload ; 0x104
        0x00000100:    eb000046    F...    BL       __rt_entry ; 0x220
    !!!scatter
    __scatterload
    __scatterload_rt2
        0x00000104:    e28f002c    ,...    ADR      r0,{pc}+0x34 ; 0x138
        0x00000108:    e8900c00    ....    LDM      r0,{r10,r11}
        0x0000010c:    e08aa000    ....    ADD      r10,r10,r0
        0x00000110:    e08bb000    ....    ADD      r11,r11,r0
        0x00000114:    e24a7001    .pJ.    SUB      r7,r10,#1
    __scatterload_null
        0x00000118:    e15a000b    ..Z.    CMP      r10,r11
        0x0000011c:    1a000000    ....    BNE      0x124 ; __scatterload_null + 12
        0x00000120:    eb00003e    >...    BL       __rt_entry ; 0x220
        0x00000124:    e8ba000f    ....    LDM      r10!,{r0-r3}
        0x00000128:    e24fe018    ..O.    ADR      lr,{pc}-0x10 ; 0x118
        0x0000012c:    e3130001    ....    TST      r3,#1
        0x00000130:    1047f003    ..G.    SUBNE    pc,r7,r3
        0x00000134:    e12fff13    ../.    BX       r3
    $d
        0x00000138:    00009e20     ...    DCD    40480
        0x0000013c:    00009e50    P...    DCD    40528
    $a
    !!dczerorl2
    __decompress
    __decompress1
        0x00000140:    e28fc001    ....    ADR      r12,{pc}+9 ; 0x149
        0x00000144:    e12fff1c    ../.    BX       r12
    $t
        0x00000148:    188a        ..      ADDS     r2,r1,r2
    _decompress_loop
        0x0000014a:    7803        .x      LDRB     r3,[r0,#0]
        0x0000014c:    3001        .0      ADDS     r0,#1
        0x0000014e:    075c        \.      LSLS     r4,r3,#29
        0x00000150:    0f64        d.      LSRS     r4,r4,#29
        0x00000152:    d101        ..      BNE      _decompress_zerolen ; 0x158
        0x00000154:    7804        .x      LDRB     r4,[r0,#0]
        0x00000156:    3001        .0      ADDS     r0,#1
    _decompress_zerolen
        0x00000158:    111d        ..      ASRS     r5,r3,#4
        0x0000015a:    d101        ..      BNE      _decompress_litn ; 0x160
        0x0000015c:    7805        .x      LDRB     r5,[r0,#0]
        0x0000015e:    3001        .0      ADDS     r0,#1
    _decompress_litn
        0x00000160:    3c01        .<      SUBS     r4,#1
        0x00000162:    d005        ..      BEQ      _decompress_copyorzero ; 0x170
    _decompress_lit
        0x00000164:    7806        .x      LDRB     r6,[r0,#0]
        0x00000166:    3001        .0      ADDS     r0,#1
        0x00000168:    700e        .p      STRB     r6,[r1,#0]
        0x0000016a:    3101        .1      ADDS     r1,#1
        0x0000016c:    3c01        .<      SUBS     r4,#1
        0x0000016e:    d1f9        ..      BNE      _decompress_lit ; 0x164
    _decompress_copyorzero
        0x00000170:    071e        ..      LSLS     r6,r3,#28
        0x00000172:    d406        ..      BMI      _decompress_copyn ; 0x182
        0x00000174:    1c2e        ..      ADDS     r6,r5,#0
        0x00000176:    d00e        ..      BEQ      _decompress_end ; 0x196
    _decompress_zero
        0x00000178:    3e01        .>      SUBS     r6,#1
        0x0000017a:    558c        .U      STRB     r4,[r1,r6]
        0x0000017c:    d1fc        ..      BNE      _decompress_zero ; 0x178
        0x0000017e:    1949        I.      ADDS     r1,r1,r5
        0x00000180:    e009        ..      B        _decompress_end ; 0x196
    _decompress_copyn
        0x00000182:    7804        .x      LDRB     r4,[r0,#0]
        0x00000184:    3001        .0      ADDS     r0,#1
        0x00000186:    1b0c        ..      SUBS     r4,r1,r4
        0x00000188:    3501        .5      ADDS     r5,#1
    _decompress_copy
        0x0000018a:    7826        &x      LDRB     r6,[r4,#0]
        0x0000018c:    3401        .4      ADDS     r4,#1
        0x0000018e:    700e        .p      STRB     r6,[r1,#0]
        0x00000190:    3101        .1      ADDS     r1,#1
        0x00000192:    3d01        .=      SUBS     r5,#1
        0x00000194:    d5f9        ..      BPL      _decompress_copy ; 0x18a
    _decompress_end
        0x00000196:    4291        .B      CMP      r1,r2
        0x00000198:    d3d7        ..      BCC      _decompress_loop ; 0x14a
        0x0000019a:    4770        pG      BX       lr
    $a
    !!handler_copy
    __scatterload_copy
        0x0000019c:    e2522010    . R.    SUBS     r2,r2,#0x10
        0x000001a0:    28b00078    x..(    LDMCS    r0!,{r3-r6}
        0x000001a4:    28a10078    x..(    STMCS    r1!,{r3-r6}
        0x000001a8:    8afffffb    ....    BHI      __scatterload_copy ; 0x19c
        0x000001ac:    e1b02e82    ....    LSLS     r2,r2,#29
        0x000001b0:    28b00030    0..(    LDMCS    r0!,{r4,r5}
        0x000001b4:    28a10030    0..(    STMCS    r1!,{r4,r5}
        0x000001b8:    45904000    .@.E    LDRMI    r4,[r0,#0]
        0x000001bc:    45814000    .@.E    STRMI    r4,[r1,#0]
        0x000001c0:    e12fff1e    ../.    BX       lr
    !!handler_zi
    __scatterload_zeroinit
        0x000001c4:    e3b03000    .0..    MOVS     r3,#0
        0x000001c8:    e3b04000    .@..    MOVS     r4,#0
        0x000001cc:    e3b05000    .P..    MOVS     r5,#0
        0x000001d0:    e3b06000    .`..    MOVS     r6,#0
        0x000001d4:    e2522010    . R.    SUBS     r2,r2,#0x10
        0x000001d8:    28a10078    x..(    STMCS    r1!,{r3-r6}
        0x000001dc:    8afffffc    ....    BHI      0x1d4 ; __scatterload_zeroinit + 16
        0x000001e0:    e1b02e82    ....    LSLS     r2,r2,#29
        0x000001e4:    28a10030    0..(    STMCS    r1!,{r4,r5}
        0x000001e8:    45813000    .0.E    STRMI    r3,[r1,#0]
        0x000001ec:    e12fff1e    ../.    BX       lr
    .ARM.Collect$$_printf_percent$$00000009
    .ARM.Collect$$_printf_percent$$00000000
    _printf_d
    _printf_percent
        0x000001f0:    e3510064    d.Q.    CMP      r1,#0x64
        0x000001f4:    0a00007b    {...    BEQ      $Ven$AT$I$$_printf_int_dec ; 0x3e8
    .ARM.Collect$$_printf_percent$$0000000C
    _printf_x
        0x000001f8:    e3510078    x.Q.    CMP      r1,#0x78
        0x000001fc:    0a000096    ....    BEQ      $Ven$AT$I$$_printf_int_hex ; 0x45c
    .ARM.Collect$$_printf_percent$$00000013
    _printf_c
        0x00000200:    e3510063    c.Q.    CMP      r1,#0x63
        0x00000204:    0a00028d    ....    BEQ      $Ven$AT$I$$_printf_char ; 0xc40
    .ARM.Collect$$_printf_percent$$00000017
    _printf_percent_end
        0x00000208:    e3b00000    ....    MOVS     r0,#0
        0x0000020c:    e12fff1e    ../.    BX       lr
    $t
    .ARM.Collect$$libinit$$00000000
    __rt_lib_init
        0x00000210:    b51f        ..      PUSH     {r0-r4,lr}
    .ARM.Collect$$libinit$$00000002
    .ARM.Collect$$libinit$$00000004
    .ARM.Collect$$libinit$$00000005
    __rt_lib_init_fp_1
    __rt_lib_init_heap_2
    __rt_lib_init_preinit_1
        0x00000212:    9800        ..      LDR      r0,[sp,#0]
        0x00000214:    9901        ..      LDR      r1,[sp,#4]
        0x00000216:    f000fc68    ..h.    BL       _init_alloc ; 0xaea
    .ARM.Collect$$libinit$$0000000A
    .ARM.Collect$$libinit$$0000000C
    .ARM.Collect$$libinit$$0000000E
    .ARM.Collect$$libinit$$00000011
    .ARM.Collect$$libinit$$00000013
    .ARM.Collect$$libinit$$00000015
    .ARM.Collect$$libinit$$00000017
    .ARM.Collect$$libinit$$00000019
    .ARM.Collect$$libinit$$0000001B
    .ARM.Collect$$libinit$$0000001D
    .ARM.Collect$$libinit$$0000001F
    .ARM.Collect$$libinit$$00000021
    .ARM.Collect$$libinit$$00000023
    .ARM.Collect$$libinit$$00000025
    .ARM.Collect$$libinit$$0000002C
    .ARM.Collect$$libinit$$0000002E
    .ARM.Collect$$libinit$$00000030
    .ARM.Collect$$libinit$$00000032
    .ARM.Collect$$libinit$$00000033
    __rt_lib_init_alloca_1
    __rt_lib_init_argv_1
    __rt_lib_init_atexit_1
    __rt_lib_init_clock_1
    __rt_lib_init_cpp_1
    __rt_lib_init_exceptions_1
    __rt_lib_init_fp_trap_1
    __rt_lib_init_getenv_1
    __rt_lib_init_heap_1
    __rt_lib_init_lc_collate_1
    __rt_lib_init_lc_ctype_1
    __rt_lib_init_lc_monetary_1
    __rt_lib_init_lc_numeric_1
    __rt_lib_init_lc_time_1
    __rt_lib_init_rand_1
    __rt_lib_init_return
    __rt_lib_init_signal_1
    __rt_lib_init_stdio_1
    __rt_lib_init_user_alloc_1
        0x0000021a:    bd1f        ..      POP      {r0-r4,pc}
    .ARM.Collect$$libshutdown$$00000000
    __rt_lib_shutdown
        0x0000021c:    b510        ..      PUSH     {r4,lr}
    .ARM.Collect$$libshutdown$$00000002
    .ARM.Collect$$libshutdown$$00000004
    .ARM.Collect$$libshutdown$$00000007
    .ARM.Collect$$libshutdown$$0000000A
    .ARM.Collect$$libshutdown$$0000000C
    .ARM.Collect$$libshutdown$$0000000F
    .ARM.Collect$$libshutdown$$00000010
    __rt_lib_shutdown_cpp_1
    __rt_lib_shutdown_fp_trap_1
    __rt_lib_shutdown_heap_1
    __rt_lib_shutdown_return
    __rt_lib_shutdown_signal_1
    __rt_lib_shutdown_stdio_1
    __rt_lib_shutdown_user_alloc_1
        0x0000021e:    bd10        ..      POP      {r4,pc}
    $a
    .ARM.Collect$$rtentry$$00000000
    .ARM.Collect$$rtentry$$00000002
    .ARM.Collect$$rtentry$$00000004
    __rt_entry
    __rt_entry_presh_1
    __rt_entry_sh
        0x00000220:    eb0013a5    ....    BL       __user_setup_stackheap ; 0x50bc
        0x00000224:    e1a01002    ....    MOV      r1,r2
    .ARM.Collect$$rtentry$$00000009
    .ARM.Collect$$rtentry$$0000000A
    __rt_entry_li
    __rt_entry_postsh_1
        0x00000228:    fafffff8    ....    BLX      __rt_lib_init ; 0x210
    .ARM.Collect$$rtentry$$0000000C
    .ARM.Collect$$rtentry$$0000000D
    __rt_entry_main
    __rt_entry_postli_1
        0x0000022c:    e59fc01c    ....    LDR      r12,[pc,#28] ; [0x250] = 0x680c
        0x00000230:    e08cc00f    ....    ADD      r12,r12,pc
        0x00000234:    e31c0001    ....    TST      r12,#1
        0x00000238:    128fe00d    ....    ADRNE    lr,{pc}+0x15 ; 0x24d
        0x0000023c:    01a0e00f    ....    MOVEQ    lr,pc
        0x00000240:    e12fff1c    ../.    BX       r12
        0x00000244:    e28fc001    ....    ADR      r12,{pc}+9 ; 0x24d
        0x00000248:    e12fff1c    ../.    BX       r12
    $t
        0x0000024c:    f000fd72    ..r.    BL       exit ; 0xd34
    $d
        0x00000250:    0000680c    .h..    DCD    26636
    $a
    .ARM.Collect$$rtexit$$00000000
    __rt_exit
        0x00000254:    e92d0003    ..-.    PUSH     {r0,r1}
    .ARM.Collect$$rtexit$$00000002
    .ARM.Collect$$rtexit$$00000003
    __rt_exit_ls
    __rt_exit_prels_1
        0x00000258:    faffffef    ....    BLX      __rt_lib_shutdown ; 0x21c
    .ARM.Collect$$rtexit$$00000004
    __rt_exit_exit
        0x0000025c:    e8bd0003    ....    POP      {r0,r1}
        0x00000260:    eb0013a1    ....    BL       _sys_exit ; 0x50ec
    $t
    .text
    .emb_text
    _maybe_terminate_alloc
    malloc
        0x00000264:    b570        p.      PUSH     {r4-r6,lr}
        0x00000266:    0006        ..      MOVS     r6,r0
        0x00000268:    f000ec20    .. .    BLX      __rt_heap_descriptor ; 0xaac
        0x0000026c:    6805        .h      LDR      r5,[r0,#0]
        0x0000026e:    0030        0.      MOVS     r0,r6
        0x00000270:    300b        .0      ADDS     r0,r0,#0xb
        0x00000272:    08c4        ..      LSRS     r4,r0,#3
        0x00000274:    00e4        ..      LSLS     r4,r4,#3
        0x00000276:    42b4        .B      CMP      r4,r6
        0x00000278:    d801        ..      BHI      0x27e ; _maybe_terminate_alloc + 26
        0x0000027a:    2000        .       MOVS     r0,#0
        0x0000027c:    bd70        p.      POP      {r4-r6,pc}
        0x0000027e:    6868        hh      LDR      r0,[r5,#4]
        0x00000280:    002a        *.      MOVS     r2,r5
        0x00000282:    2800        .(      CMP      r0,#0
        0x00000284:    d018        ..      BEQ      0x2b8 ; _maybe_terminate_alloc + 84
        0x00000286:    6801        .h      LDR      r1,[r0,#0]
        0x00000288:    42a1        .B      CMP      r1,r4
        0x0000028a:    d311        ..      BCC      0x2b0 ; _maybe_terminate_alloc + 76
        0x0000028c:    000b        ..      MOVS     r3,r1
        0x0000028e:    0021        !.      MOVS     r1,r4
        0x00000290:    3108        .1      ADDS     r1,r1,#8
        0x00000292:    428b        .B      CMP      r3,r1
        0x00000294:    d308        ..      BCC      0x2a8 ; _maybe_terminate_alloc + 68
        0x00000296:    6843        Ch      LDR      r3,[r0,#4]
        0x00000298:    1901        ..      ADDS     r1,r0,r4
        0x0000029a:    604b        K`      STR      r3,[r1,#4]
        0x0000029c:    6803        .h      LDR      r3,[r0,#0]
        0x0000029e:    1b1b        ..      SUBS     r3,r3,r4
        0x000002a0:    600b        .`      STR      r3,[r1,#0]
        0x000002a2:    6051        Q`      STR      r1,[r2,#4]
        0x000002a4:    6004        .`      STR      r4,[r0,#0]
        0x000002a6:    e001        ..      B        0x2ac ; _maybe_terminate_alloc + 72
        0x000002a8:    6841        Ah      LDR      r1,[r0,#4]
        0x000002aa:    6051        Q`      STR      r1,[r2,#4]
        0x000002ac:    1d00        ..      ADDS     r0,r0,#4
        0x000002ae:    bd70        p.      POP      {r4-r6,pc}
        0x000002b0:    0002        ..      MOVS     r2,r0
        0x000002b2:    6840        @h      LDR      r0,[r0,#4]
        0x000002b4:    2800        .(      CMP      r0,#0
        0x000002b6:    d1e6        ..      BNE      0x286 ; _maybe_terminate_alloc + 34
        0x000002b8:    0021        !.      MOVS     r1,r4
        0x000002ba:    0028        (.      MOVS     r0,r5
        0x000002bc:    f000fc00    ....    BL       __Heap_Full ; 0xac0
        0x000002c0:    2800        .(      CMP      r0,#0
        0x000002c2:    d1dc        ..      BNE      0x27e ; _maybe_terminate_alloc + 26
        0x000002c4:    bd70        p.      POP      {r4-r6,pc}
    .text
    free
        0x000002c6:    b570        p.      PUSH     {r4-r6,lr}
        0x000002c8:    0004        ..      MOVS     r4,r0
        0x000002ca:    1f05        ..      SUBS     r5,r0,#4
        0x000002cc:    f000ebee    ....    BLX      __rt_heap_descriptor ; 0xaac
        0x000002d0:    6800        .h      LDR      r0,[r0,#0]
        0x000002d2:    2c00        .,      CMP      r4,#0
        0x000002d4:    d01a        ..      BEQ      0x30c ; free + 70
        0x000002d6:    6844        Dh      LDR      r4,[r0,#4]
        0x000002d8:    e001        ..      B        0x2de ; free + 24
        0x000002da:    0020         .      MOVS     r0,r4
        0x000002dc:    6864        dh      LDR      r4,[r4,#4]
        0x000002de:    2c00        .,      CMP      r4,#0
        0x000002e0:    d001        ..      BEQ      0x2e6 ; free + 32
        0x000002e2:    42ac        .B      CMP      r4,r5
        0x000002e4:    d3f9        ..      BCC      0x2da ; free + 20
        0x000002e6:    6801        .h      LDR      r1,[r0,#0]
        0x000002e8:    180a        ..      ADDS     r2,r1,r0
        0x000002ea:    42aa        .B      CMP      r2,r5
        0x000002ec:    d104        ..      BNE      0x2f8 ; free + 50
        0x000002ee:    682a        *h      LDR      r2,[r5,#0]
        0x000002f0:    1889        ..      ADDS     r1,r1,r2
        0x000002f2:    0005        ..      MOVS     r5,r0
        0x000002f4:    6001        .`      STR      r1,[r0,#0]
        0x000002f6:    e000        ..      B        0x2fa ; free + 52
        0x000002f8:    6045        E`      STR      r5,[r0,#4]
        0x000002fa:    6828        (h      LDR      r0,[r5,#0]
        0x000002fc:    1941        A.      ADDS     r1,r0,r5
        0x000002fe:    42a1        .B      CMP      r1,r4
        0x00000300:    d105        ..      BNE      0x30e ; free + 72
        0x00000302:    6861        ah      LDR      r1,[r4,#4]
        0x00000304:    6069        i`      STR      r1,[r5,#4]
        0x00000306:    6821        !h      LDR      r1,[r4,#0]
        0x00000308:    1840        @.      ADDS     r0,r0,r1
        0x0000030a:    6028        (`      STR      r0,[r5,#0]
        0x0000030c:    bd70        p.      POP      {r4-r6,pc}
        0x0000030e:    606c        l`      STR      r4,[r5,#4]
        0x00000310:    bd70        p.      POP      {r4-r6,pc}
        0x00000312:    0000        ..      MOVS     r0,r0
    $a
    $Ven$AT$I$$__2sprintf
        0x00000314:    e28fc001    ....    ADR      r12,{pc}+9 ; 0x31d
        0x00000318:    e12fff1c    ../.    BX       r12
    $t
    .text
    __2sprintf
        0x0000031c:    b40f        ..      PUSH     {r0-r3}
        0x0000031e:    b51c        ..      PUSH     {r2-r4,lr}
        0x00000320:    4b08        .K      LDR      r3,[pc,#32] ; [0x344] = 0x90d
        0x00000322:    aa06        ..      ADD      r2,sp,#0x18
        0x00000324:    447b        {D      ADD      r3,r3,pc
        0x00000326:    4669        iF      MOV      r1,sp
        0x00000328:    9000        ..      STR      r0,[sp,#0]
        0x0000032a:    9805        ..      LDR      r0,[sp,#0x14]
        0x0000032c:    f000fc6f    ..o.    BL       _printf_char_common ; 0xc0e
        0x00000330:    0004        ..      MOVS     r4,r0
        0x00000332:    4669        iF      MOV      r1,sp
        0x00000334:    2000        .       MOVS     r0,#0
        0x00000336:    f000fc7d    ..}.    BL       _sputc ; 0xc34
        0x0000033a:    0020         .      MOVS     r0,r4
        0x0000033c:    bc1c        ..      POP      {r2-r4}
        0x0000033e:    bc08        ..      POP      {r3}
        0x00000340:    b004        ..      ADD      sp,sp,#0x10
        0x00000342:    4718        .G      BX       r3
    $d
        0x00000344:    0000090d    ....    DCD    2317
    $t
    .text
    _printf_pre_padding
        0x00000348:    b570        p.      PUSH     {r4-r6,lr}
        0x0000034a:    6985        .i      LDR      r5,[r0,#0x18]
        0x0000034c:    0004        ..      MOVS     r4,r0
        0x0000034e:    6800        .h      LDR      r0,[r0,#0]
        0x00000350:    06c1        ..      LSLS     r1,r0,#27
        0x00000352:    d501        ..      BPL      0x358 ; _printf_pre_padding + 16
        0x00000354:    2630        0&      MOVS     r6,#0x30
        0x00000356:    e000        ..      B        0x35a ; _printf_pre_padding + 18
        0x00000358:    2620         &      MOVS     r6,#0x20
        0x0000035a:    07c0        ..      LSLS     r0,r0,#31
        0x0000035c:    d007        ..      BEQ      0x36e ; _printf_pre_padding + 38
        0x0000035e:    bd70        p.      POP      {r4-r6,pc}
        0x00000360:    6862        bh      LDR      r2,[r4,#4]
        0x00000362:    68a1        .h      LDR      r1,[r4,#8]
        0x00000364:    0030        0.      MOVS     r0,r6
        0x00000366:    4790        .G      BLX      r2
        0x00000368:    6a20         j      LDR      r0,[r4,#0x20]
        0x0000036a:    1c40        @.      ADDS     r0,r0,#1
        0x0000036c:    6220         b      STR      r0,[r4,#0x20]
        0x0000036e:    1e6d        m.      SUBS     r5,r5,#1
        0x00000370:    d5f6        ..      BPL      0x360 ; _printf_pre_padding + 24
        0x00000372:    bd70        p.      POP      {r4-r6,pc}
    _printf_post_padding
        0x00000374:    b570        p.      PUSH     {r4-r6,lr}
        0x00000376:    6985        .i      LDR      r5,[r0,#0x18]
        0x00000378:    0004        ..      MOVS     r4,r0
        0x0000037a:    7800        .x      LDRB     r0,[r0,#0]
        0x0000037c:    07c0        ..      LSLS     r0,r0,#31
        0x0000037e:    d107        ..      BNE      0x390 ; _printf_post_padding + 28
        0x00000380:    bd70        p.      POP      {r4-r6,pc}
        0x00000382:    6862        bh      LDR      r2,[r4,#4]
        0x00000384:    68a1        .h      LDR      r1,[r4,#8]
        0x00000386:    2020                MOVS     r0,#0x20
        0x00000388:    4790        .G      BLX      r2
        0x0000038a:    6a20         j      LDR      r0,[r4,#0x20]
        0x0000038c:    1c40        @.      ADDS     r0,r0,#1
        0x0000038e:    6220         b      STR      r0,[r4,#0x20]
        0x00000390:    1e6d        m.      SUBS     r5,r5,#1
        0x00000392:    d5f6        ..      BPL      0x382 ; _printf_post_padding + 14
        0x00000394:    bd70        p.      POP      {r4-r6,pc}
    .text
    _printf_str
        0x00000396:    b570        p.      PUSH     {r4-r6,lr}
        0x00000398:    000c        ..      MOVS     r4,r1
        0x0000039a:    0005        ..      MOVS     r5,r0
        0x0000039c:    2a01        .*      CMP      r2,#1
        0x0000039e:    d005        ..      BEQ      0x3ac ; _printf_str + 22
        0x000003a0:    7828        (x      LDRB     r0,[r5,#0]
        0x000003a2:    0680        ..      LSLS     r0,r0,#26
        0x000003a4:    d500        ..      BPL      0x3a8 ; _printf_str + 18
        0x000003a6:    69ea        .i      LDR      r2,[r5,#0x1c]
        0x000003a8:    2300        .#      MOVS     r3,#0
        0x000003aa:    e002        ..      B        0x3b2 ; _printf_str + 28
        0x000003ac:    2301        .#      MOVS     r3,#1
        0x000003ae:    e005        ..      B        0x3bc ; _printf_str + 38
        0x000003b0:    1c5b        [.      ADDS     r3,r3,#1
        0x000003b2:    4293        .B      CMP      r3,r2
        0x000003b4:    d202        ..      BCS      0x3bc ; _printf_str + 38
        0x000003b6:    5ce0        .\      LDRB     r0,[r4,r3]
        0x000003b8:    2800        .(      CMP      r0,#0
        0x000003ba:    d1f9        ..      BNE      0x3b0 ; _printf_str + 26
        0x000003bc:    69a8        .i      LDR      r0,[r5,#0x18]
        0x000003be:    18e6        ..      ADDS     r6,r4,r3
        0x000003c0:    1ac0        ..      SUBS     r0,r0,r3
        0x000003c2:    61a8        .a      STR      r0,[r5,#0x18]
        0x000003c4:    6a28        (j      LDR      r0,[r5,#0x20]
        0x000003c6:    18c0        ..      ADDS     r0,r0,r3
        0x000003c8:    6228        (b      STR      r0,[r5,#0x20]
        0x000003ca:    0028        (.      MOVS     r0,r5
        0x000003cc:    f7ffffbc    ....    BL       _printf_pre_padding ; 0x348
        0x000003d0:    e004        ..      B        0x3dc ; _printf_str + 70
        0x000003d2:    686a        jh      LDR      r2,[r5,#4]
        0x000003d4:    7820         x      LDRB     r0,[r4,#0]
        0x000003d6:    68a9        .h      LDR      r1,[r5,#8]
        0x000003d8:    1c64        d.      ADDS     r4,r4,#1
        0x000003da:    4790        .G      BLX      r2
        0x000003dc:    42b4        .B      CMP      r4,r6
        0x000003de:    d3f8        ..      BCC      0x3d2 ; _printf_str + 60
        0x000003e0:    0028        (.      MOVS     r0,r5
        0x000003e2:    f7ffffc7    ....    BL       _printf_post_padding ; 0x374
        0x000003e6:    bd70        p.      POP      {r4-r6,pc}
    $a
    $Ven$AT$I$$_printf_int_dec
        0x000003e8:    e28fc001    ....    ADR      r12,{pc}+9 ; 0x3f1
        0x000003ec:    e12fff1c    ../.    BX       r12
    $t
    .text
    _printf_int_dec
        0x000003f0:    b5f7        ..      PUSH     {r0-r2,r4-r7,lr}
        0x000003f2:    2500        .%      MOVS     r5,#0
        0x000003f4:    2975        u)      CMP      r1,#0x75
        0x000003f6:    6810        .h      LDR      r0,[r2,#0]
        0x000003f8:    9900        ..      LDR      r1,[sp,#0]
        0x000003fa:    a614        ..      ADR      r6,{pc}+0x52 ; 0x44c
        0x000003fc:    d011        ..      BEQ      0x422 ; _printf_int_dec + 50
        0x000003fe:    46c0        .F      MOV      r8,r8
        0x00000400:    46c0        .F      MOV      r8,r8
        0x00000402:    2800        .(      CMP      r0,#0
        0x00000404:    da02        ..      BGE      0x40c ; _printf_int_dec + 28
        0x00000406:    4240        @B      RSBS     r0,r0,#0
        0x00000408:    a611        ..      ADR      r6,{pc}+0x48 ; 0x450
        0x0000040a:    e008        ..      B        0x41e ; _printf_int_dec + 46
        0x0000040c:    9900        ..      LDR      r1,[sp,#0]
        0x0000040e:    6809        .h      LDR      r1,[r1,#0]
        0x00000410:    078a        ..      LSLS     r2,r1,#30
        0x00000412:    d501        ..      BPL      0x418 ; _printf_int_dec + 40
        0x00000414:    a60f        ..      ADR      r6,{pc}+0x40 ; 0x454
        0x00000416:    e002        ..      B        0x41e ; _printf_int_dec + 46
        0x00000418:    0749        I.      LSLS     r1,r1,#29
        0x0000041a:    d504        ..      BPL      0x426 ; _printf_int_dec + 54
        0x0000041c:    a60e        ..      ADR      r6,{pc}+0x3c ; 0x458
        0x0000041e:    2501        .%      MOVS     r5,#1
        0x00000420:    e001        ..      B        0x426 ; _printf_int_dec + 54
        0x00000422:    46c0        .F      MOV      r8,r8
        0x00000424:    46c0        .F      MOV      r8,r8
        0x00000426:    9f00        ..      LDR      r7,[sp,#0]
        0x00000428:    2400        .$      MOVS     r4,#0
        0x0000042a:    3724        $7      ADDS     r7,r7,#0x24
        0x0000042c:    e004        ..      B        0x438 ; _printf_int_dec + 72
        0x0000042e:    f000ec24    ..$.    BLX      __rt_udiv10 ; 0xc78
        0x00000432:    3130        01      ADDS     r1,r1,#0x30
        0x00000434:    5539        9U      STRB     r1,[r7,r4]
        0x00000436:    1c64        d.      ADDS     r4,r4,#1
        0x00000438:    2800        .(      CMP      r0,#0
        0x0000043a:    d1f8        ..      BNE      0x42e ; _printf_int_dec + 62
        0x0000043c:    9800        ..      LDR      r0,[sp,#0]
        0x0000043e:    002b        +.      MOVS     r3,r5
        0x00000440:    0032        2.      MOVS     r2,r6
        0x00000442:    0021        !.      MOVS     r1,r4
        0x00000444:    f000fb85    ....    BL       _printf_int_common ; 0xb52
        0x00000448:    bdfe        ..      POP      {r1-r7,pc}
    $d
        0x0000044a:    0000        ..      DCW    0
        0x0000044c:    00000000    ....    DCD    0
        0x00000450:    0000002d    -...    DCD    45
        0x00000454:    0000002b    +...    DCD    43
        0x00000458:    00000020     ...    DCD    32
    $a
    $Ven$AT$I$$_printf_int_hex
        0x0000045c:    e28fc059    Y...    ADR      r12,{pc}+0x61 ; 0x4bd
        0x00000460:    e12fff1c    ../.    BX       r12
    $t
    .text
    _printf_hex_common
    _printf_longlong_hex
        0x00000464:    b5f8        ..      PUSH     {r3-r7,lr}
        0x00000466:    000f        ..      MOVS     r7,r1
        0x00000468:    8801        ..      LDRH     r1,[r0,#0]
        0x0000046a:    0509        ..      LSLS     r1,r1,#20
        0x0000046c:    d502        ..      BPL      0x474 ; _printf_hex_common + 16
        0x0000046e:    4c22        "L      LDR      r4,[pc,#136] ; [0x4f8] = 0x9a50
        0x00000470:    447c        |D      ADD      r4,r4,pc
        0x00000472:    e002        ..      B        0x47a ; _printf_hex_common + 22
        0x00000474:    4c20         L      LDR      r4,[pc,#128] ; [0x4f8] = 0x9a50
        0x00000476:    447c        |D      ADD      r4,r4,pc
        0x00000478:    340e        .4      ADDS     r4,r4,#0xe
        0x0000047a:    2100        .!      MOVS     r1,#0
        0x0000047c:    0005        ..      MOVS     r5,r0
        0x0000047e:    3524        $5      ADDS     r5,r5,#0x24
        0x00000480:    e008        ..      B        0x494 ; _printf_hex_common + 48
        0x00000482:    0716        ..      LSLS     r6,r2,#28
        0x00000484:    0912        ..      LSRS     r2,r2,#4
        0x00000486:    0f36        6.      LSRS     r6,r6,#28
        0x00000488:    5da6        .]      LDRB     r6,[r4,r6]
        0x0000048a:    546e        nT      STRB     r6,[r5,r1]
        0x0000048c:    071e        ..      LSLS     r6,r3,#28
        0x0000048e:    4332        2C      ORRS     r2,r2,r6
        0x00000490:    091b        ..      LSRS     r3,r3,#4
        0x00000492:    1c49        I.      ADDS     r1,r1,#1
        0x00000494:    0016        ..      MOVS     r6,r2
        0x00000496:    431e        .C      ORRS     r6,r6,r3
        0x00000498:    d1f3        ..      BNE      0x482 ; _printf_hex_common + 30
        0x0000049a:    0022        ".      MOVS     r2,r4
        0x0000049c:    7804        .x      LDRB     r4,[r0,#0]
        0x0000049e:    2300        .#      MOVS     r3,#0
        0x000004a0:    0724        $.      LSLS     r4,r4,#28
        0x000004a2:    d505        ..      BPL      0x4b0 ; _printf_hex_common + 76
        0x000004a4:    2f70        p/      CMP      r7,#0x70
        0x000004a6:    d006        ..      BEQ      0x4b6 ; _printf_hex_common + 82
        0x000004a8:    2900        .)      CMP      r1,#0
        0x000004aa:    d001        ..      BEQ      0x4b0 ; _printf_hex_common + 76
        0x000004ac:    2302        .#      MOVS     r3,#2
        0x000004ae:    3211        .2      ADDS     r2,r2,#0x11
        0x000004b0:    f000fb4f    ..O.    BL       _printf_int_common ; 0xb52
        0x000004b4:    bdf8        ..      POP      {r3-r7,pc}
        0x000004b6:    2301        .#      MOVS     r3,#1
        0x000004b8:    3210        .2      ADDS     r2,r2,#0x10
        0x000004ba:    e7f9        ..      B        0x4b0 ; _printf_hex_common + 76
    _printf_int_hex
        0x000004bc:    b570        p.      PUSH     {r4-r6,lr}
        0x000004be:    0004        ..      MOVS     r4,r0
        0x000004c0:    000d        ..      MOVS     r5,r1
        0x000004c2:    6810        .h      LDR      r0,[r2,#0]
        0x000004c4:    0021        !.      MOVS     r1,r4
        0x000004c6:    46c0        .F      MOV      r8,r8
        0x000004c8:    46c0        .F      MOV      r8,r8
        0x000004ca:    0002        ..      MOVS     r2,r0
        0x000004cc:    2300        .#      MOVS     r3,#0
        0x000004ce:    0029        ).      MOVS     r1,r5
        0x000004d0:    0020         .      MOVS     r0,r4
        0x000004d2:    f7ffffc7    ....    BL       _printf_hex_common ; 0x464
        0x000004d6:    bd70        p.      POP      {r4-r6,pc}
    _printf_ll_hex
        0x000004d8:    1dd2        ..      ADDS     r2,r2,#7
        0x000004da:    08d3        ..      LSRS     r3,r2,#3
        0x000004dc:    00db        ..      LSLS     r3,r3,#3
        0x000004de:    cb0c        ..      LDM      r3,{r2,r3}
        0x000004e0:    e7c0        ..      B        _printf_hex_common ; 0x464
    _printf_hex_ptr
        0x000004e2:    b430        0.      PUSH     {r4,r5}
        0x000004e4:    6803        .h      LDR      r3,[r0,#0]
        0x000004e6:    2420         $      MOVS     r4,#0x20
        0x000004e8:    6812        .h      LDR      r2,[r2,#0]
        0x000004ea:    4323        #C      ORRS     r3,r3,r4
        0x000004ec:    6003        .`      STR      r3,[r0,#0]
        0x000004ee:    2308        .#      MOVS     r3,#8
        0x000004f0:    61c3        .a      STR      r3,[r0,#0x1c]
        0x000004f2:    bc30        0.      POP      {r4,r5}
        0x000004f4:    2300        .#      MOVS     r3,#0
        0x000004f6:    e7b5        ..      B        _printf_hex_common ; 0x464
    $d
        0x000004f8:    00009a50    P...    DCD    39504
    $t
    .text
    __printf
        0x000004fc:    b5f3        ..      PUSH     {r0,r1,r4-r7,lr}
        0x000004fe:    0004        ..      MOVS     r4,r0
        0x00000500:    2000        .       MOVS     r0,#0
        0x00000502:    b081        ..      SUB      sp,sp,#4
        0x00000504:    6220         b      STR      r0,[r4,#0x20]
        0x00000506:    68e1        .h      LDR      r1,[r4,#0xc]
        0x00000508:    0020         .      MOVS     r0,r4
        0x0000050a:    4788        .G      BLX      r1
        0x0000050c:    2800        .(      CMP      r0,#0
        0x0000050e:    d072        r.      BEQ      0x5f6 ; __printf + 250
        0x00000510:    2825        %(      CMP      r0,#0x25
        0x00000512:    d002        ..      BEQ      0x51a ; __printf + 30
        0x00000514:    6862        bh      LDR      r2,[r4,#4]
        0x00000516:    68a1        .h      LDR      r1,[r4,#8]
        0x00000518:    e0ab        ..      B        0x672 ; __printf + 374
        0x0000051a:    4f59        YO      LDR      r7,[pc,#356] ; [0x680] = 0x99ca
        0x0000051c:    2600        .&      MOVS     r6,#0
        0x0000051e:    447f        .D      ADD      r7,r7,pc
        0x00000520:    68e1        .h      LDR      r1,[r4,#0xc]
        0x00000522:    0020         .      MOVS     r0,r4
        0x00000524:    4788        .G      BLX      r1
        0x00000526:    0005        ..      MOVS     r5,r0
        0x00000528:    2820         (      CMP      r0,#0x20
        0x0000052a:    db08        ..      BLT      0x53e ; __printf + 66
        0x0000052c:    2d31        1-      CMP      r5,#0x31
        0x0000052e:    d206        ..      BCS      0x53e ; __printf + 66
        0x00000530:    1978        x.      ADDS     r0,r7,r5
        0x00000532:    3820         8      SUBS     r0,r0,#0x20
        0x00000534:    7800        .x      LDRB     r0,[r0,#0]
        0x00000536:    2800        .(      CMP      r0,#0
        0x00000538:    d001        ..      BEQ      0x53e ; __printf + 66
        0x0000053a:    4306        .C      ORRS     r6,r6,r0
        0x0000053c:    e7f0        ..      B        0x520 ; __printf + 36
        0x0000053e:    07b0        ..      LSLS     r0,r6,#30
        0x00000540:    d501        ..      BPL      0x546 ; __printf + 74
        0x00000542:    2004        .       MOVS     r0,#4
        0x00000544:    4386        .C      BICS     r6,r6,r0
        0x00000546:    2000        .       MOVS     r0,#0
        0x00000548:    61e0        .a      STR      r0,[r4,#0x1c]
        0x0000054a:    0007        ..      MOVS     r7,r0
        0x0000054c:    61a0        .a      STR      r0,[r4,#0x18]
        0x0000054e:    2d2a        *-      CMP      r5,#0x2a
        0x00000550:    d00a        ..      BEQ      0x568 ; __printf + 108
        0x00000552:    0028        (.      MOVS     r0,r5
        0x00000554:    f004fdc2    ....    BL       _is_digit ; 0x50dc
        0x00000558:    2800        .(      CMP      r0,#0
        0x0000055a:    d027        '.      BEQ      0x5ac ; __printf + 176
        0x0000055c:    00b8        ..      LSLS     r0,r7,#2
        0x0000055e:    1900        ..      ADDS     r0,r0,r4
        0x00000560:    3d30        0=      SUBS     r5,r5,#0x30
        0x00000562:    9000        ..      STR      r0,[sp,#0]
        0x00000564:    6185        .a      STR      r5,[r0,#0x18]
        0x00000566:    e019        ..      B        0x59c ; __printf + 160
        0x00000568:    9802        ..      LDR      r0,[sp,#8]
        0x0000056a:    00ba        ..      LSLS     r2,r7,#2
        0x0000056c:    1912        ..      ADDS     r2,r2,r4
        0x0000056e:    c802        ..      LDM      r0!,{r1}
        0x00000570:    6191        .a      STR      r1,[r2,#0x18]
        0x00000572:    9002        ..      STR      r0,[sp,#8]
        0x00000574:    68e1        .h      LDR      r1,[r4,#0xc]
        0x00000576:    0020         .      MOVS     r0,r4
        0x00000578:    4788        .G      BLX      r1
        0x0000057a:    0005        ..      MOVS     r5,r0
        0x0000057c:    2f01        ./      CMP      r7,#1
        0x0000057e:    d117        ..      BNE      0x5b0 ; __printf + 180
        0x00000580:    69e0        .i      LDR      r0,[r4,#0x1c]
        0x00000582:    2800        .(      CMP      r0,#0
        0x00000584:    da1f        ..      BGE      0x5c6 ; __printf + 202
        0x00000586:    2020                MOVS     r0,#0x20
        0x00000588:    4386        .C      BICS     r6,r6,r0
        0x0000058a:    e01c        ..      B        0x5c6 ; __printf + 202
        0x0000058c:    9800        ..      LDR      r0,[sp,#0]
        0x0000058e:    210a        .!      MOVS     r1,#0xa
        0x00000590:    6980        .i      LDR      r0,[r0,#0x18]
        0x00000592:    4348        HC      MULS     r0,r1,r0
        0x00000594:    9900        ..      LDR      r1,[sp,#0]
        0x00000596:    1940        @.      ADDS     r0,r0,r5
        0x00000598:    3830        08      SUBS     r0,r0,#0x30
        0x0000059a:    6188        .a      STR      r0,[r1,#0x18]
        0x0000059c:    68e1        .h      LDR      r1,[r4,#0xc]
        0x0000059e:    0020         .      MOVS     r0,r4
        0x000005a0:    4788        .G      BLX      r1
        0x000005a2:    0005        ..      MOVS     r5,r0
        0x000005a4:    f004fd9a    ....    BL       _is_digit ; 0x50dc
        0x000005a8:    2800        .(      CMP      r0,#0
        0x000005aa:    d1ef        ..      BNE      0x58c ; __printf + 144
        0x000005ac:    2f01        ./      CMP      r7,#1
        0x000005ae:    d00a        ..      BEQ      0x5c6 ; __printf + 202
        0x000005b0:    2d2e        .-      CMP      r5,#0x2e
        0x000005b2:    d108        ..      BNE      0x5c6 ; __printf + 202
        0x000005b4:    68e1        .h      LDR      r1,[r4,#0xc]
        0x000005b6:    0020         .      MOVS     r0,r4
        0x000005b8:    4788        .G      BLX      r1
        0x000005ba:    0005        ..      MOVS     r5,r0
        0x000005bc:    2020                MOVS     r0,#0x20
        0x000005be:    4306        .C      ORRS     r6,r6,r0
        0x000005c0:    1c7f        ..      ADDS     r7,r7,#1
        0x000005c2:    2f02        ./      CMP      r7,#2
        0x000005c4:    dbc3        ..      BLT      0x54e ; __printf + 82
        0x000005c6:    69a0        .i      LDR      r0,[r4,#0x18]
        0x000005c8:    2800        .(      CMP      r0,#0
        0x000005ca:    da03        ..      BGE      0x5d4 ; __printf + 216
        0x000005cc:    4240        @B      RSBS     r0,r0,#0
        0x000005ce:    61a0        .a      STR      r0,[r4,#0x18]
        0x000005d0:    2001        .       MOVS     r0,#1
        0x000005d2:    4306        .C      ORRS     r6,r6,r0
        0x000005d4:    07f0        ..      LSLS     r0,r6,#31
        0x000005d6:    d001        ..      BEQ      0x5dc ; __printf + 224
        0x000005d8:    2010        .       MOVS     r0,#0x10
        0x000005da:    4386        .C      BICS     r6,r6,r0
        0x000005dc:    2d6c        l-      CMP      r5,#0x6c
        0x000005de:    d00b        ..      BEQ      0x5f8 ; __printf + 252
        0x000005e0:    2d68        h-      CMP      r5,#0x68
        0x000005e2:    d009        ..      BEQ      0x5f8 ; __printf + 252
        0x000005e4:    2d4c        L-      CMP      r5,#0x4c
        0x000005e6:    d03c        <.      BEQ      0x662 ; __printf + 358
        0x000005e8:    2d6a        j-      CMP      r5,#0x6a
        0x000005ea:    d038        8.      BEQ      0x65e ; __printf + 354
        0x000005ec:    2d74        t-      CMP      r5,#0x74
        0x000005ee:    d038        8.      BEQ      0x662 ; __printf + 358
        0x000005f0:    2d7a        z-      CMP      r5,#0x7a
        0x000005f2:    d036        6.      BEQ      0x662 ; __printf + 358
        0x000005f4:    e016        ..      B        0x624 ; __printf + 296
        0x000005f6:    e040        @.      B        0x67a ; __printf + 382
        0x000005f8:    68e1        .h      LDR      r1,[r4,#0xc]
        0x000005fa:    002f        /.      MOVS     r7,r5
        0x000005fc:    0020         .      MOVS     r0,r4
        0x000005fe:    4788        .G      BLX      r1
        0x00000600:    0005        ..      MOVS     r5,r0
        0x00000602:    42b8        .B      CMP      r0,r7
        0x00000604:    d109        ..      BNE      0x61a ; __printf + 286
        0x00000606:    2f6c        l/      CMP      r7,#0x6c
        0x00000608:    d029        ).      BEQ      0x65e ; __printf + 354
        0x0000060a:    2001        .       MOVS     r0,#1
        0x0000060c:    0280        ..      LSLS     r0,r0,#10
        0x0000060e:    68e1        .h      LDR      r1,[r4,#0xc]
        0x00000610:    4306        .C      ORRS     r6,r6,r0
        0x00000612:    0020         .      MOVS     r0,r4
        0x00000614:    4788        .G      BLX      r1
        0x00000616:    0005        ..      MOVS     r5,r0
        0x00000618:    e004        ..      B        0x624 ; __printf + 296
        0x0000061a:    2f6c        l/      CMP      r7,#0x6c
        0x0000061c:    d01d        ..      BEQ      0x65a ; __printf + 350
        0x0000061e:    20ff        .       MOVS     r0,#0xff
        0x00000620:    3001        .0      ADDS     r0,#1
        0x00000622:    4306        .C      ORRS     r6,r6,r0
        0x00000624:    2d00        .-      CMP      r5,#0
        0x00000626:    d028        (.      BEQ      0x67a ; __printf + 382
        0x00000628:    0028        (.      MOVS     r0,r5
        0x0000062a:    3841        A8      SUBS     r0,r0,#0x41
        0x0000062c:    2819        .(      CMP      r0,#0x19
        0x0000062e:    d803        ..      BHI      0x638 ; __printf + 316
        0x00000630:    2001        .       MOVS     r0,#1
        0x00000632:    02c0        ..      LSLS     r0,r0,#11
        0x00000634:    4306        .C      ORRS     r6,r6,r0
        0x00000636:    3520         5      ADDS     r5,r5,#0x20
        0x00000638:    6026        &`      STR      r6,[r4,#0]
        0x0000063a:    9a02        ..      LDR      r2,[sp,#8]
        0x0000063c:    0029        ).      MOVS     r1,r5
        0x0000063e:    0020         .      MOVS     r0,r4
        0x00000640:    0016        ..      MOVS     r6,r2
        0x00000642:    f7ffedd6    ....    BLX      _printf_d ; 0x1f0
        0x00000646:    2800        .(      CMP      r0,#0
        0x00000648:    d010        ..      BEQ      0x66c ; __printf + 368
        0x0000064a:    2801        .(      CMP      r0,#1
        0x0000064c:    d00b        ..      BEQ      0x666 ; __printf + 362
        0x0000064e:    1df6        ..      ADDS     r6,r6,#7
        0x00000650:    08f0        ..      LSRS     r0,r6,#3
        0x00000652:    00c0        ..      LSLS     r0,r0,#3
        0x00000654:    3008        .0      ADDS     r0,r0,#8
        0x00000656:    9002        ..      STR      r0,[sp,#8]
        0x00000658:    e755        U.      B        0x506 ; __printf + 10
        0x0000065a:    2040        @       MOVS     r0,#0x40
        0x0000065c:    e7e1        ..      B        0x622 ; __printf + 294
        0x0000065e:    2080        .       MOVS     r0,#0x80
        0x00000660:    e7d5        ..      B        0x60e ; __printf + 274
        0x00000662:    2000        .       MOVS     r0,#0
        0x00000664:    e7d3        ..      B        0x60e ; __printf + 274
        0x00000666:    1d36        6.      ADDS     r6,r6,#4
        0x00000668:    9602        ..      STR      r6,[sp,#8]
        0x0000066a:    e74c        L.      B        0x506 ; __printf + 10
        0x0000066c:    6862        bh      LDR      r2,[r4,#4]
        0x0000066e:    68a1        .h      LDR      r1,[r4,#8]
        0x00000670:    0028        (.      MOVS     r0,r5
        0x00000672:    4790        .G      BLX      r2
        0x00000674:    6a20         j      LDR      r0,[r4,#0x20]
        0x00000676:    1c40        @.      ADDS     r0,r0,#1
        0x00000678:    e744        D.      B        0x504 ; __printf + 8
        0x0000067a:    6a20         j      LDR      r0,[r4,#0x20]
        0x0000067c:    bdfe        ..      POP      {r1-r7,pc}
    $d
        0x0000067e:    0000        ..      DCW    0
        0x00000680:    000099ca    ....    DCD    39370
    $t
    .text
    memcmp
        0x00000684:    0003        ..      MOVS     r3,r0
        0x00000686:    430b        .C      ORRS     r3,r3,r1
        0x00000688:    b510        ..      PUSH     {r4,lr}
        0x0000068a:    079b        ..      LSLS     r3,r3,#30
        0x0000068c:    d11c        ..      BNE      0x6c8 ; memcmp + 68
        0x0000068e:    2a04        .*      CMP      r2,#4
        0x00000690:    d31a        ..      BCC      0x6c8 ; memcmp + 68
        0x00000692:    c808        ..      LDM      r0!,{r3}
        0x00000694:    c910        ..      LDM      r1!,{r4}
        0x00000696:    1f12        ..      SUBS     r2,r2,#4
        0x00000698:    42a3        .B      CMP      r3,r4
        0x0000069a:    d0f8        ..      BEQ      0x68e ; memcmp + 10
        0x0000069c:    0618        ..      LSLS     r0,r3,#24
        0x0000069e:    0621        !.      LSLS     r1,r4,#24
        0x000006a0:    0e00        ..      LSRS     r0,r0,#24
        0x000006a2:    0e09        ..      LSRS     r1,r1,#24
        0x000006a4:    1a40        @.      SUBS     r0,r0,r1
        0x000006a6:    d10e        ..      BNE      0x6c6 ; memcmp + 66
        0x000006a8:    0418        ..      LSLS     r0,r3,#16
        0x000006aa:    0421        !.      LSLS     r1,r4,#16
        0x000006ac:    0c00        ..      LSRS     r0,r0,#16
        0x000006ae:    0c09        ..      LSRS     r1,r1,#16
        0x000006b0:    1a40        @.      SUBS     r0,r0,r1
        0x000006b2:    d108        ..      BNE      0x6c6 ; memcmp + 66
        0x000006b4:    0218        ..      LSLS     r0,r3,#8
        0x000006b6:    0221        !.      LSLS     r1,r4,#8
        0x000006b8:    0a00        ..      LSRS     r0,r0,#8
        0x000006ba:    0a09        ..      LSRS     r1,r1,#8
        0x000006bc:    1a40        @.      SUBS     r0,r0,r1
        0x000006be:    d102        ..      BNE      0x6c6 ; memcmp + 66
        0x000006c0:    0e18        ..      LSRS     r0,r3,#24
        0x000006c2:    0e21        !.      LSRS     r1,r4,#24
        0x000006c4:    1a40        @.      SUBS     r0,r0,r1
        0x000006c6:    bd10        ..      POP      {r4,pc}
        0x000006c8:    2a00        .*      CMP      r2,#0
        0x000006ca:    d003        ..      BEQ      0x6d4 ; memcmp + 80
        0x000006cc:    07d3        ..      LSLS     r3,r2,#31
        0x000006ce:    d003        ..      BEQ      0x6d8 ; memcmp + 84
        0x000006d0:    1c52        R.      ADDS     r2,r2,#1
        0x000006d2:    e007        ..      B        0x6e4 ; memcmp + 96
        0x000006d4:    2000        .       MOVS     r0,#0
        0x000006d6:    bd10        ..      POP      {r4,pc}
        0x000006d8:    7803        .x      LDRB     r3,[r0,#0]
        0x000006da:    780c        .x      LDRB     r4,[r1,#0]
        0x000006dc:    1c40        @.      ADDS     r0,r0,#1
        0x000006de:    1c49        I.      ADDS     r1,r1,#1
        0x000006e0:    1b1b        ..      SUBS     r3,r3,r4
        0x000006e2:    d107        ..      BNE      0x6f4 ; memcmp + 112
        0x000006e4:    7803        .x      LDRB     r3,[r0,#0]
        0x000006e6:    780c        .x      LDRB     r4,[r1,#0]
        0x000006e8:    1c40        @.      ADDS     r0,r0,#1
        0x000006ea:    1c49        I.      ADDS     r1,r1,#1
        0x000006ec:    1b1b        ..      SUBS     r3,r3,r4
        0x000006ee:    d101        ..      BNE      0x6f4 ; memcmp + 112
        0x000006f0:    1e92        ..      SUBS     r2,r2,#2
        0x000006f2:    d1f1        ..      BNE      0x6d8 ; memcmp + 84
        0x000006f4:    0018        ..      MOVS     r0,r3
        0x000006f6:    bd10        ..      POP      {r4,pc}
    .text
    strlen
        0x000006f8:    b530        0.      PUSH     {r4,r5,lr}
        0x000006fa:    1c44        D.      ADDS     r4,r0,#1
        0x000006fc:    e003        ..      B        0x706 ; strlen + 14
        0x000006fe:    7801        .x      LDRB     r1,[r0,#0]
        0x00000700:    1c40        @.      ADDS     r0,r0,#1
        0x00000702:    2900        .)      CMP      r1,#0
        0x00000704:    d00d        ..      BEQ      0x722 ; strlen + 42
        0x00000706:    0781        ..      LSLS     r1,r0,#30
        0x00000708:    d1f9        ..      BNE      0x6fe ; strlen + 6
        0x0000070a:    4b0b        .K      LDR      r3,[pc,#44] ; [0x738] = 0x1010101
        0x0000070c:    01dd        ..      LSLS     r5,r3,#7
        0x0000070e:    c804        ..      LDM      r0!,{r2}
        0x00000710:    1ad1        ..      SUBS     r1,r2,r3
        0x00000712:    4391        .C      BICS     r1,r1,r2
        0x00000714:    4029        )@      ANDS     r1,r1,r5
        0x00000716:    d0fa        ..      BEQ      0x70e ; strlen + 22
        0x00000718:    1b00        ..      SUBS     r0,r0,r4
        0x0000071a:    060a        ..      LSLS     r2,r1,#24
        0x0000071c:    d003        ..      BEQ      0x726 ; strlen + 46
        0x0000071e:    1ec0        ..      SUBS     r0,r0,#3
        0x00000720:    bd30        0.      POP      {r4,r5,pc}
        0x00000722:    1b00        ..      SUBS     r0,r0,r4
        0x00000724:    bd30        0.      POP      {r4,r5,pc}
        0x00000726:    040a        ..      LSLS     r2,r1,#16
        0x00000728:    d001        ..      BEQ      0x72e ; strlen + 54
        0x0000072a:    1e80        ..      SUBS     r0,r0,#2
        0x0000072c:    bd30        0.      POP      {r4,r5,pc}
        0x0000072e:    0209        ..      LSLS     r1,r1,#8
        0x00000730:    d0fc        ..      BEQ      0x72c ; strlen + 52
        0x00000732:    1e40        @.      SUBS     r0,r0,#1
        0x00000734:    bd30        0.      POP      {r4,r5,pc}
    $d
        0x00000736:    0000        ..      DCW    0
        0x00000738:    01010101    ....    DCD    16843009
    $t
    .text
    strcat
        0x0000073c:    1e42        B.      SUBS     r2,r0,#1
        0x0000073e:    7853        Sx      LDRB     r3,[r2,#1]
        0x00000740:    1c52        R.      ADDS     r2,r2,#1
        0x00000742:    2b00        .+      CMP      r3,#0
        0x00000744:    d1fb        ..      BNE      0x73e ; strcat + 2
        0x00000746:    780b        .x      LDRB     r3,[r1,#0]
        0x00000748:    1c49        I.      ADDS     r1,r1,#1
        0x0000074a:    7013        .p      STRB     r3,[r2,#0]
        0x0000074c:    1c52        R.      ADDS     r2,r2,#1
        0x0000074e:    2b00        .+      CMP      r3,#0
        0x00000750:    d1f9        ..      BNE      0x746 ; strcat + 10
        0x00000752:    4770        pG      BX       lr
    $a
    .text
    __aeabi_memcpy
    __rt_memcpy
        0x00000754:    e3520003    ..R.    CMP      r2,#3
        0x00000758:    9a00002a    *...    BLS      _memcpy_lastbytes ; 0x808
        0x0000075c:    e210c003    ....    ANDS     r12,r0,#3
        0x00000760:    0a000008    ....    BEQ      0x788 ; __aeabi_memcpy + 52
        0x00000764:    e4d13001    .0..    LDRB     r3,[r1],#1
        0x00000768:    e35c0002    ..\.    CMP      r12,#2
        0x0000076c:    e082200c    . ..    ADD      r2,r2,r12
        0x00000770:    94d1c001    ....    LDRBLS   r12,[r1],#1
        0x00000774:    e4c03001    .0..    STRB     r3,[r0],#1
        0x00000778:    34d13001    .0.4    LDRBCC   r3,[r1],#1
        0x0000077c:    94c0c001    ....    STRBLS   r12,[r0],#1
        0x00000780:    e2422004    . B.    SUB      r2,r2,#4
        0x00000784:    34c03001    .0.4    STRBCC   r3,[r0],#1
        0x00000788:    e2113003    .0..    ANDS     r3,r1,#3
        0x0000078c:    0a000025    %...    BEQ      __aeabi_memcpy4 ; 0x828
        0x00000790:    e2522004    . R.    SUBS     r2,r2,#4
        0x00000794:    3a00001b    ...:    BCC      _memcpy_lastbytes ; 0x808
        0x00000798:    e731c003    ..1.    LDR      r12,[r1,-r3]!
        0x0000079c:    e3530002    ..S.    CMP      r3,#2
        0x000007a0:    0a000008    ....    BEQ      0x7c8 ; __aeabi_memcpy + 116
        0x000007a4:    8a00000f    ....    BHI      0x7e8 ; __aeabi_memcpy + 148
        0x000007a8:    e1a0342c    ,4..    LSR      r3,r12,#8
        0x000007ac:    e5b1c004    ....    LDR      r12,[r1,#4]!
        0x000007b0:    e2522004    . R.    SUBS     r2,r2,#4
        0x000007b4:    e1833c0c    .<..    ORR      r3,r3,r12,LSL #24
        0x000007b8:    e4803004    .0..    STR      r3,[r0],#4
        0x000007bc:    2afffff9    ...*    BCS      0x7a8 ; __aeabi_memcpy + 84
        0x000007c0:    e2811001    ....    ADD      r1,r1,#1
        0x000007c4:    ea00000f    ....    B        _memcpy_lastbytes ; 0x808
        0x000007c8:    e1a0382c    ,8..    LSR      r3,r12,#16
        0x000007cc:    e5b1c004    ....    LDR      r12,[r1,#4]!
        0x000007d0:    e2522004    . R.    SUBS     r2,r2,#4
        0x000007d4:    e183380c    .8..    ORR      r3,r3,r12,LSL #16
        0x000007d8:    e4803004    .0..    STR      r3,[r0],#4
        0x000007dc:    2afffff9    ...*    BCS      0x7c8 ; __aeabi_memcpy + 116
        0x000007e0:    e2811002    ....    ADD      r1,r1,#2
        0x000007e4:    ea000007    ....    B        _memcpy_lastbytes ; 0x808
        0x000007e8:    e1a03c2c    ,<..    LSR      r3,r12,#24
        0x000007ec:    e5b1c004    ....    LDR      r12,[r1,#4]!
        0x000007f0:    e2522004    . R.    SUBS     r2,r2,#4
        0x000007f4:    e183340c    .4..    ORR      r3,r3,r12,LSL #8
        0x000007f8:    e4803004    .0..    STR      r3,[r0],#4
        0x000007fc:    2afffff9    ...*    BCS      0x7e8 ; __aeabi_memcpy + 148
        0x00000800:    e2811003    ....    ADD      r1,r1,#3
        0x00000804:    e1a00000    ....    MOV      r0,r0
    _memcpy_lastbytes
        0x00000808:    e1b02f82    ./..    LSLS     r2,r2,#31
        0x0000080c:    24d13001    .0.$    LDRBCS   r3,[r1],#1
        0x00000810:    24d1c001    ...$    LDRBCS   r12,[r1],#1
        0x00000814:    44d12001    . .D    LDRBMI   r2,[r1],#1
        0x00000818:    24c03001    .0.$    STRBCS   r3,[r0],#1
        0x0000081c:    24c0c001    ...$    STRBCS   r12,[r0],#1
        0x00000820:    44c02001    . .D    STRBMI   r2,[r0],#1
        0x00000824:    e12fff1e    ../.    BX       lr
    .text
    __aeabi_memcpy4
    __aeabi_memcpy8
    __rt_memcpy_w
        0x00000828:    e92d4010    .@-.    PUSH     {r4,lr}
        0x0000082c:    e2522020      R.    SUBS     r2,r2,#0x20
        0x00000830:    3a000005    ...:    BCC      0x84c ; __aeabi_memcpy4 + 36
        0x00000834:    e8b15018    .P..    LDM      r1!,{r3,r4,r12,lr}
        0x00000838:    e2522020      R.    SUBS     r2,r2,#0x20
        0x0000083c:    e8a05018    .P..    STM      r0!,{r3,r4,r12,lr}
        0x00000840:    e8b15018    .P..    LDM      r1!,{r3,r4,r12,lr}
        0x00000844:    e8a05018    .P..    STM      r0!,{r3,r4,r12,lr}
        0x00000848:    2afffff9    ...*    BCS      0x834 ; __aeabi_memcpy4 + 12
        0x0000084c:    e1b0ce02    ....    LSLS     r12,r2,#28
        0x00000850:    28b15018    .P.(    LDMCS    r1!,{r3,r4,r12,lr}
        0x00000854:    28a05018    .P.(    STMCS    r0!,{r3,r4,r12,lr}
        0x00000858:    48b10018    ...H    LDMMI    r1!,{r3,r4}
        0x0000085c:    48a00018    ...H    STMMI    r0!,{r3,r4}
        0x00000860:    e8bd4010    .@..    POP      {r4,lr}
        0x00000864:    e1b0cf02    ....    LSLS     r12,r2,#30
        0x00000868:    24913004    .0.$    LDRCS    r3,[r1],#4
        0x0000086c:    24803004    .0.$    STRCS    r3,[r0],#4
        0x00000870:    012fff1e    ../.    BXEQ     lr
    _memcpy_lastbytes_aligned
        0x00000874:    e1b02f82    ./..    LSLS     r2,r2,#31
        0x00000878:    20d130b2    .0.     LDRHCS   r3,[r1],#2
        0x0000087c:    44d12001    . .D    LDRBMI   r2,[r1],#1
        0x00000880:    20c030b2    .0.     STRHCS   r3,[r0],#2
        0x00000884:    44c02001    . .D    STRBMI   r2,[r0],#1
        0x00000888:    e12fff1e    ../.    BX       lr
    .text
    __aeabi_memset
        0x0000088c:    e20230ff    .0..    AND      r3,r2,#0xff
        0x00000890:    e1832403    .$..    ORR      r2,r3,r3,LSL #8
        0x00000894:    e1822802    .(..    ORR      r2,r2,r2,LSL #16
        0x00000898:    ea000000    ....    B        _memset ; 0x8a0
    .text
    __aeabi_memclr
    __rt_memclr
        0x0000089c:    e3a02000    . ..    MOV      r2,#0
    _memset
        0x000008a0:    e3510004    ..Q.    CMP      r1,#4
        0x000008a4:    3a000007    ...:    BCC      0x8c8 ; _memset + 40
        0x000008a8:    e210c003    ....    ANDS     r12,r0,#3
        0x000008ac:    0a00000b    ....    BEQ      _memset_w ; 0x8e0
        0x000008b0:    e26cc004    ..l.    RSB      r12,r12,#4
        0x000008b4:    e35c0002    ..\.    CMP      r12,#2
        0x000008b8:    14c02001    . ..    STRBNE   r2,[r0],#1
        0x000008bc:    e041100c    ..A.    SUB      r1,r1,r12
        0x000008c0:    a0c020b2    . ..    STRHGE   r2,[r0],#2
        0x000008c4:    ea000005    ....    B        _memset_w ; 0x8e0
        0x000008c8:    e1b0cf81    ....    LSLS     r12,r1,#31
        0x000008cc:    24c02001    . .$    STRBCS   r2,[r0],#1
        0x000008d0:    24c02001    . .$    STRBCS   r2,[r0],#1
        0x000008d4:    44c02001    . .D    STRBMI   r2,[r0],#1
        0x000008d8:    e12fff1e    ../.    BX       lr
    .text
    __aeabi_memclr4
    __aeabi_memclr8
    __rt_memclr_w
        0x000008dc:    e3a02000    . ..    MOV      r2,#0
    _memset_w
        0x000008e0:    e92d4000    .@-.    STMDB    sp!,{lr}
        0x000008e4:    e1a03002    .0..    MOV      r3,r2
        0x000008e8:    e1a0c002    ....    MOV      r12,r2
        0x000008ec:    e1a0e002    ....    MOV      lr,r2
        0x000008f0:    e2511020     .Q.    SUBS     r1,r1,#0x20
        0x000008f4:    28a0500c    .P.(    STMCS    r0!,{r2,r3,r12,lr}
        0x000008f8:    28a0500c    .P.(    STMCS    r0!,{r2,r3,r12,lr}
        0x000008fc:    22511020     .Q"    SUBSCS   r1,r1,#0x20
        0x00000900:    2afffffb    ...*    BCS      0x8f4 ; _memset_w + 20
        0x00000904:    e1b01e01    ....    LSLS     r1,r1,#28
        0x00000908:    28a0500c    .P.(    STMCS    r0!,{r2,r3,r12,lr}
        0x0000090c:    48a0000c    ...H    STMMI    r0!,{r2,r3}
        0x00000910:    e8bd4000    .@..    LDM      sp!,{lr}
        0x00000914:    e1b01101    ....    LSLS     r1,r1,#2
        0x00000918:    24802004    . .$    STRCS    r2,[r0],#4
        0x0000091c:    012fff1e    ../.    BXEQ     lr
        0x00000920:    40c020b2    . .@    STRHMI   r2,[r0],#2
        0x00000924:    e3110101    ....    TST      r1,#0x40000000
        0x00000928:    14c02001    . ..    STRBNE   r2,[r0],#1
        0x0000092c:    e12fff1e    ../.    BX       lr
    .text
    __aeabi_idiv
    __aeabi_idivmod
        0x00000930:    e1903001    .0..    ORRS     r3,r0,r1
        0x00000934:    4a000021    !..J    BMI      0x9c0 ; __arm_div2 + 28
        0x00000938:    e3b02000    . ..    MOVS     r2,#0
        0x0000093c:    e07130a0    .0q.    RSBS     r3,r1,r0,LSR #1
        0x00000940:    3a00001a    ...:    BCC      0x9b0 ; __arm_div2 + 12
        0x00000944:    e0713220     2q.    RSBS     r3,r1,r0,LSR #4
        0x00000948:    3a00000f    ...:    BCC      0x98c ; __arm_div5 + 12
        0x0000094c:    e0713420     4q.    RSBS     r3,r1,r0,LSR #8
        0x00000950:    3a000001    ...:    BCC      __arm_div8 ; 0x95c
        0x00000954:    e3a0c000    ....    MOV      r12,#0
        0x00000958:    ea000020     ...    B        __arm_div_large ; 0x9e0
    __arm_div8
        0x0000095c:    e07133a0    .3q.    RSBS     r3,r1,r0,LSR #7
        0x00000960:    20400381    ..@     SUBCS    r0,r0,r1,LSL #7
        0x00000964:    e0b22002    . ..    ADCS     r2,r2,r2
        0x00000968:    e0713320     3q.    RSBS     r3,r1,r0,LSR #6
        0x0000096c:    20400301    ..@     SUBCS    r0,r0,r1,LSL #6
        0x00000970:    e0b22002    . ..    ADCS     r2,r2,r2
        0x00000974:    e07132a0    .2q.    RSBS     r3,r1,r0,LSR #5
        0x00000978:    20400281    ..@     SUBCS    r0,r0,r1,LSL #5
        0x0000097c:    e0b22002    . ..    ADCS     r2,r2,r2
    __arm_div5
        0x00000980:    e0713220     2q.    RSBS     r3,r1,r0,LSR #4
        0x00000984:    20400201    ..@     SUBCS    r0,r0,r1,LSL #4
        0x00000988:    e0b22002    . ..    ADCS     r2,r2,r2
        0x0000098c:    e07131a0    .1q.    RSBS     r3,r1,r0,LSR #3
        0x00000990:    20400181    ..@     SUBCS    r0,r0,r1,LSL #3
        0x00000994:    e0b22002    . ..    ADCS     r2,r2,r2
        0x00000998:    e0713120     1q.    RSBS     r3,r1,r0,LSR #2
        0x0000099c:    20400101    ..@     SUBCS    r0,r0,r1,LSL #2
        0x000009a0:    e0b22002    . ..    ADCS     r2,r2,r2
    __arm_div2
        0x000009a4:    e07130a0    .0q.    RSBS     r3,r1,r0,LSR #1
        0x000009a8:    20400081    ..@     SUBCS    r0,r0,r1,LSL #1
        0x000009ac:    e0b22002    . ..    ADCS     r2,r2,r2
        0x000009b0:    e0501001    ..P.    SUBS     r1,r0,r1
        0x000009b4:    31a01000    ...1    MOVCC    r1,r0
        0x000009b8:    e0a20002    ....    ADC      r0,r2,r2
        0x000009bc:    e12fff1e    ../.    BX       lr
        0x000009c0:    e2112102    .!..    ANDS     r2,r1,#0x80000000
        0x000009c4:    42611000    ..aB    RSBMI    r1,r1,#0
        0x000009c8:    e032c040    @.2.    EORS     r12,r2,r0,ASR #32
        0x000009cc:    22600000    ..`"    RSBCS    r0,r0,#0
        0x000009d0:    e0713220     2q.    RSBS     r3,r1,r0,LSR #4
        0x000009d4:    3a00001d    ...:    BCC      0xa50 ; __arm_div_large + 112
        0x000009d8:    e0713420     4q.    RSBS     r3,r1,r0,LSR #8
        0x000009dc:    3a00000f    ...:    BCC      0xa20 ; __arm_div_large + 64
    __arm_div_large
        0x000009e0:    e1a01301    ....    LSL      r1,r1,#6
        0x000009e4:    e0713420     4q.    RSBS     r3,r1,r0,LSR #8
        0x000009e8:    e382233f    ?#..    ORR      r2,r2,#0xfc000000
        0x000009ec:    3a00000b    ...:    BCC      0xa20 ; __arm_div_large + 64
        0x000009f0:    e1a01301    ....    LSL      r1,r1,#6
        0x000009f4:    e0713420     4q.    RSBS     r3,r1,r0,LSR #8
        0x000009f8:    e382263f    ?&..    ORR      r2,r2,#0x3f00000
        0x000009fc:    3a000007    ...:    BCC      0xa20 ; __arm_div_large + 64
        0x00000a00:    e1a01301    ....    LSL      r1,r1,#6
        0x00000a04:    e0713420     4q.    RSBS     r3,r1,r0,LSR #8
        0x00000a08:    e382293f    ?)..    ORR      r2,r2,#0xfc000
        0x00000a0c:    21a01301    ...!    LSLCS    r1,r1,#6
        0x00000a10:    23822c3f    ?,.#    ORRCS    r2,r2,#0x3f00
        0x00000a14:    e2713000    .0q.    RSBS     r3,r1,#0
        0x00000a18:    2a00001d    ...*    BCS      0xa94 ; __arm_div_large + 180
        0x00000a1c:    21a01321    !..!    LSRCS    r1,r1,#6
        0x00000a20:    e07133a0    .3q.    RSBS     r3,r1,r0,LSR #7
        0x00000a24:    20400381    ..@     SUBCS    r0,r0,r1,LSL #7
        0x00000a28:    e0b22002    . ..    ADCS     r2,r2,r2
        0x00000a2c:    e0713320     3q.    RSBS     r3,r1,r0,LSR #6
        0x00000a30:    20400301    ..@     SUBCS    r0,r0,r1,LSL #6
        0x00000a34:    e0b22002    . ..    ADCS     r2,r2,r2
        0x00000a38:    e07132a0    .2q.    RSBS     r3,r1,r0,LSR #5
        0x00000a3c:    20400281    ..@     SUBCS    r0,r0,r1,LSL #5
        0x00000a40:    e0b22002    . ..    ADCS     r2,r2,r2
        0x00000a44:    e0713220     2q.    RSBS     r3,r1,r0,LSR #4
        0x00000a48:    20400201    ..@     SUBCS    r0,r0,r1,LSL #4
        0x00000a4c:    e0b22002    . ..    ADCS     r2,r2,r2
        0x00000a50:    e07131a0    .1q.    RSBS     r3,r1,r0,LSR #3
        0x00000a54:    20400181    ..@     SUBCS    r0,r0,r1,LSL #3
        0x00000a58:    e0b22002    . ..    ADCS     r2,r2,r2
        0x00000a5c:    e0713120     1q.    RSBS     r3,r1,r0,LSR #2
        0x00000a60:    20400101    ..@     SUBCS    r0,r0,r1,LSL #2
        0x00000a64:    e0b22002    . ..    ADCS     r2,r2,r2
        0x00000a68:    2affffeb    ...*    BCS      0xa1c ; __arm_div_large + 60
        0x00000a6c:    e07130a0    .0q.    RSBS     r3,r1,r0,LSR #1
        0x00000a70:    20400081    ..@     SUBCS    r0,r0,r1,LSL #1
        0x00000a74:    e0b22002    . ..    ADCS     r2,r2,r2
        0x00000a78:    e0501001    ..P.    SUBS     r1,r0,r1
        0x00000a7c:    31a01000    ...1    MOVCC    r1,r0
        0x00000a80:    e0a20002    ....    ADC      r0,r2,r2
        0x00000a84:    e1b0cfcc    ....    ASRS     r12,r12,#31
        0x00000a88:    42600000    ..`B    RSBMI    r0,r0,#0
        0x00000a8c:    22611000    ..a"    RSBCS    r1,r1,#0
        0x00000a90:    e12fff1e    ../.    BX       lr
        0x00000a94:    e1b0cfcc    ....    ASRS     r12,r12,#31
        0x00000a98:    42600000    ..`B    RSBMI    r0,r0,#0
        0x00000a9c:    e92d4001    .@-.    PUSH     {r0,lr}
        0x00000aa0:    e3b00000    ....    MOVS     r0,#0
        0x00000aa4:    e1a00000    ....    MOV      r0,r0
        0x00000aa8:    e8bd8002    ....    POP      {r1,pc}
    .text
    __rt_heap_descriptor
        0x00000aac:    e59f0000    ....    LDR      r0,[pc,#0] ; [0xab4] = 0x64300
        0x00000ab0:    e12fff1e    ../.    BX       lr
    $d
        0x00000ab4:    00064300    .C..    DCD    410368
    $t
    .text
    __use_no_heap
        0x00000ab8:    4770        pG      BX       lr
    __heap$guard
        0x00000aba:    4770        pG      BX       lr
    .text
    _terminate_user_alloc
        0x00000abc:    4770        pG      BX       lr
    _init_user_alloc
        0x00000abe:    4770        pG      BX       lr
    __Heap_Full
        0x00000ac0:    b538        8.      PUSH     {r3-r5,lr}
        0x00000ac2:    0004        ..      MOVS     r4,r0
        0x00000ac4:    000a        ..      MOVS     r2,r1
        0x00000ac6:    4669        iF      MOV      r1,sp
        0x00000ac8:    2000        .       MOVS     r0,#0
        0x00000aca:    f000f917    ....    BL       __rt_heap_expand ; 0xcfc
        0x00000ace:    2800        .(      CMP      r0,#0
        0x00000ad0:    d005        ..      BEQ      0xade ; __Heap_Full + 30
        0x00000ad2:    0002        ..      MOVS     r2,r0
        0x00000ad4:    9900        ..      LDR      r1,[sp,#0]
        0x00000ad6:    0020         .      MOVS     r0,r4
        0x00000ad8:    f000f8e4    ....    BL       __Heap_ProvideMemory ; 0xca4
        0x00000adc:    2001        .       MOVS     r0,#1
        0x00000ade:    bd38        8.      POP      {r3-r5,pc}
    __Heap_Broken
        0x00000ae0:    b510        ..      PUSH     {r4,lr}
        0x00000ae2:    2001        .       MOVS     r0,#1
        0x00000ae4:    f000f8f8    ....    BL       __rt_SIGRTMEM ; 0xcd8
        0x00000ae8:    bd10        ..      POP      {r4,pc}
    _init_alloc
        0x00000aea:    b5f8        ..      PUSH     {r3-r7,lr}
        0x00000aec:    f000f8fa    ....    BL       __rt_heap_escrow ; 0xce4
        0x00000af0:    0005        ..      MOVS     r5,r0
        0x00000af2:    000c        ..      MOVS     r4,r1
        0x00000af4:    2000        .       MOVS     r0,#0
        0x00000af6:    2010        .       MOVS     r0,#0x10
        0x00000af8:    46c0        .F      MOV      r8,r8
        0x00000afa:    0006        ..      MOVS     r6,r0
        0x00000afc:    19a8        ..      ADDS     r0,r5,r6
        0x00000afe:    42a0        .B      CMP      r0,r4
        0x00000b00:    d90d        ..      BLS      0xb1e ; _init_alloc + 52
        0x00000b02:    4669        iF      MOV      r1,sp
        0x00000b04:    0032        2.      MOVS     r2,r6
        0x00000b06:    2000        .       MOVS     r0,#0
        0x00000b08:    f000f8f8    ....    BL       __rt_heap_expand ; 0xcfc
        0x00000b0c:    0007        ..      MOVS     r7,r0
        0x00000b0e:    d101        ..      BNE      0xb14 ; _init_alloc + 42
        0x00000b10:    f000f8e2    ....    BL       __rt_SIGRTMEM ; 0xcd8
        0x00000b14:    9800        ..      LDR      r0,[sp,#0]
        0x00000b16:    42a0        .B      CMP      r0,r4
        0x00000b18:    d000        ..      BEQ      0xb1c ; _init_alloc + 50
        0x00000b1a:    0005        ..      MOVS     r5,r0
        0x00000b1c:    19c4        ..      ADDS     r4,r0,r7
        0x00000b1e:    f7ffefc6    ....    BLX      __rt_heap_descriptor ; 0xaac
        0x00000b22:    1df6        ..      ADDS     r6,r6,#7
        0x00000b24:    0007        ..      MOVS     r7,r0
        0x00000b26:    6005        .`      STR      r5,[r0,#0]
        0x00000b28:    08f0        ..      LSRS     r0,r6,#3
        0x00000b2a:    00c0        ..      LSLS     r0,r0,#3
        0x00000b2c:    1946        F.      ADDS     r6,r0,r5
        0x00000b2e:    0028        (.      MOVS     r0,r5
        0x00000b30:    f000f808    ....    BL       __Heap_Initialize ; 0xb44
        0x00000b34:    42b4        .B      CMP      r4,r6
        0x00000b36:    d004        ..      BEQ      0xb42 ; _init_alloc + 88
        0x00000b38:    6838        8h      LDR      r0,[r7,#0]
        0x00000b3a:    1ba2        ..      SUBS     r2,r4,r6
        0x00000b3c:    0031        1.      MOVS     r1,r6
        0x00000b3e:    f000f8b1    ....    BL       __Heap_ProvideMemory ; 0xca4
        0x00000b42:    bdf8        ..      POP      {r3-r7,pc}
    .text
    __Heap_Initialize
        0x00000b44:    2100        .!      MOVS     r1,#0
        0x00000b46:    6001        .`      STR      r1,[r0,#0]
        0x00000b48:    6041        A`      STR      r1,[r0,#4]
        0x00000b4a:    6080        .`      STR      r0,[r0,#8]
        0x00000b4c:    4770        pG      BX       lr
    __Heap_DescSize
        0x00000b4e:    2010        .       MOVS     r0,#0x10
        0x00000b50:    4770        pG      BX       lr
    .text
    _printf_int_common
        0x00000b52:    b5ff        ..      PUSH     {r0-r7,lr}
        0x00000b54:    0004        ..      MOVS     r4,r0
        0x00000b56:    b081        ..      SUB      sp,sp,#4
        0x00000b58:    3024        $0      ADDS     r0,r0,#0x24
        0x00000b5a:    000d        ..      MOVS     r5,r1
        0x00000b5c:    9000        ..      STR      r0,[sp,#0]
        0x00000b5e:    6821        !h      LDR      r1,[r4,#0]
        0x00000b60:    0688        ..      LSLS     r0,r1,#26
        0x00000b62:    d504        ..      BPL      0xb6e ; _printf_int_common + 28
        0x00000b64:    2210        ."      MOVS     r2,#0x10
        0x00000b66:    69e0        .i      LDR      r0,[r4,#0x1c]
        0x00000b68:    4391        .C      BICS     r1,r1,r2
        0x00000b6a:    6021        !`      STR      r1,[r4,#0]
        0x00000b6c:    e000        ..      B        0xb70 ; _printf_int_common + 30
        0x00000b6e:    2001        .       MOVS     r0,#1
        0x00000b70:    42a8        .B      CMP      r0,r5
        0x00000b72:    dd01        ..      BLE      0xb78 ; _printf_int_common + 38
        0x00000b74:    1b47        G.      SUBS     r7,r0,r5
        0x00000b76:    e000        ..      B        0xb7a ; _printf_int_common + 40
        0x00000b78:    2700        .'      MOVS     r7,#0
        0x00000b7a:    9804        ..      LDR      r0,[sp,#0x10]
        0x00000b7c:    69a1        .i      LDR      r1,[r4,#0x18]
        0x00000b7e:    197a        z.      ADDS     r2,r7,r5
        0x00000b80:    1810        ..      ADDS     r0,r2,r0
        0x00000b82:    1a08        ..      SUBS     r0,r1,r0
        0x00000b84:    61a0        .a      STR      r0,[r4,#0x18]
        0x00000b86:    7820         x      LDRB     r0,[r4,#0]
        0x00000b88:    06c0        ..      LSLS     r0,r0,#27
        0x00000b8a:    d402        ..      BMI      0xb92 ; _printf_int_common + 64
        0x00000b8c:    0020         .      MOVS     r0,r4
        0x00000b8e:    f7fffbdb    ....    BL       _printf_pre_padding ; 0x348
        0x00000b92:    2600        .&      MOVS     r6,#0
        0x00000b94:    e008        ..      B        0xba8 ; _printf_int_common + 86
        0x00000b96:    9803        ..      LDR      r0,[sp,#0xc]
        0x00000b98:    6862        bh      LDR      r2,[r4,#4]
        0x00000b9a:    68a1        .h      LDR      r1,[r4,#8]
        0x00000b9c:    5d80        .]      LDRB     r0,[r0,r6]
        0x00000b9e:    4790        .G      BLX      r2
        0x00000ba0:    6a20         j      LDR      r0,[r4,#0x20]
        0x00000ba2:    1c40        @.      ADDS     r0,r0,#1
        0x00000ba4:    1c76        v.      ADDS     r6,r6,#1
        0x00000ba6:    6220         b      STR      r0,[r4,#0x20]
        0x00000ba8:    9804        ..      LDR      r0,[sp,#0x10]
        0x00000baa:    4286        .B      CMP      r6,r0
        0x00000bac:    dbf3        ..      BLT      0xb96 ; _printf_int_common + 68
        0x00000bae:    7820         x      LDRB     r0,[r4,#0]
        0x00000bb0:    06c0        ..      LSLS     r0,r0,#27
        0x00000bb2:    d50a        ..      BPL      0xbca ; _printf_int_common + 120
        0x00000bb4:    0020         .      MOVS     r0,r4
        0x00000bb6:    f7fffbc7    ....    BL       _printf_pre_padding ; 0x348
        0x00000bba:    e006        ..      B        0xbca ; _printf_int_common + 120
        0x00000bbc:    6862        bh      LDR      r2,[r4,#4]
        0x00000bbe:    68a1        .h      LDR      r1,[r4,#8]
        0x00000bc0:    2030        0       MOVS     r0,#0x30
        0x00000bc2:    4790        .G      BLX      r2
        0x00000bc4:    6a20         j      LDR      r0,[r4,#0x20]
        0x00000bc6:    1c40        @.      ADDS     r0,r0,#1
        0x00000bc8:    6220         b      STR      r0,[r4,#0x20]
        0x00000bca:    0038        8.      MOVS     r0,r7
        0x00000bcc:    1e7f        ..      SUBS     r7,r7,#1
        0x00000bce:    2800        .(      CMP      r0,#0
        0x00000bd0:    dcf4        ..      BGT      0xbbc ; _printf_int_common + 106
        0x00000bd2:    e007        ..      B        0xbe4 ; _printf_int_common + 146
        0x00000bd4:    9800        ..      LDR      r0,[sp,#0]
        0x00000bd6:    6862        bh      LDR      r2,[r4,#4]
        0x00000bd8:    68a1        .h      LDR      r1,[r4,#8]
        0x00000bda:    5d40        @]      LDRB     r0,[r0,r5]
        0x00000bdc:    4790        .G      BLX      r2
        0x00000bde:    6a20         j      LDR      r0,[r4,#0x20]
        0x00000be0:    1c40        @.      ADDS     r0,r0,#1
        0x00000be2:    6220         b      STR      r0,[r4,#0x20]
        0x00000be4:    0028        (.      MOVS     r0,r5
        0x00000be6:    1e6d        m.      SUBS     r5,r5,#1
        0x00000be8:    2800        .(      CMP      r0,#0
        0x00000bea:    dcf3        ..      BGT      0xbd4 ; _printf_int_common + 130
        0x00000bec:    0020         .      MOVS     r0,r4
        0x00000bee:    f7fffbc1    ....    BL       _printf_post_padding ; 0x374
        0x00000bf2:    7820         x      LDRB     r0,[r4,#0]
        0x00000bf4:    0600        ..      LSLS     r0,r0,#24
        0x00000bf6:    d502        ..      BPL      0xbfe ; _printf_int_common + 172
        0x00000bf8:    2002        .       MOVS     r0,#2
        0x00000bfa:    b005        ..      ADD      sp,sp,#0x14
        0x00000bfc:    bdf0        ..      POP      {r4-r7,pc}
        0x00000bfe:    2001        .       MOVS     r0,#1
        0x00000c00:    e7fb        ..      B        0xbfa ; _printf_int_common + 168
        0x00000c02:    0000        ..      MOVS     r0,r0
    .text
    _printf_input_char
        0x00000c04:    6901        .i      LDR      r1,[r0,#0x10]
        0x00000c06:    1c4a        J.      ADDS     r2,r1,#1
        0x00000c08:    6102        .a      STR      r2,[r0,#0x10]
        0x00000c0a:    7808        .x      LDRB     r0,[r1,#0]
        0x00000c0c:    4770        pG      BX       lr
    _printf_char_common
        0x00000c0e:    b500        ..      PUSH     {lr}
        0x00000c10:    b08f        ..      SUB      sp,sp,#0x3c
        0x00000c12:    9102        ..      STR      r1,[sp,#8]
        0x00000c14:    2100        .!      MOVS     r1,#0
        0x00000c16:    9105        ..      STR      r1,[sp,#0x14]
        0x00000c18:    4905        .I      LDR      r1,[pc,#20] ; [0xc30] = 0xffffffe5
        0x00000c1a:    9301        ..      STR      r3,[sp,#4]
        0x00000c1c:    4479        yD      ADD      r1,r1,pc
        0x00000c1e:    9103        ..      STR      r1,[sp,#0xc]
        0x00000c20:    0011        ..      MOVS     r1,r2
        0x00000c22:    9004        ..      STR      r0,[sp,#0x10]
        0x00000c24:    4668        hF      MOV      r0,sp
        0x00000c26:    f7fffc69    ..i.    BL       __printf ; 0x4fc
        0x00000c2a:    b00f        ..      ADD      sp,sp,#0x3c
        0x00000c2c:    bd00        ..      POP      {pc}
    $d
        0x00000c2e:    0000        ..      DCW    0
        0x00000c30:    ffffffe5    ....    DCD    4294967269
    $t
    .text
    _sputc
        0x00000c34:    680a        .h      LDR      r2,[r1,#0]
        0x00000c36:    7010        .p      STRB     r0,[r2,#0]
        0x00000c38:    1c52        R.      ADDS     r2,r2,#1
        0x00000c3a:    600a        .`      STR      r2,[r1,#0]
        0x00000c3c:    4770        pG      BX       lr
        0x00000c3e:    0000        ..      MOVS     r0,r0
    $a
    $Ven$AT$I$$_printf_char
        0x00000c40:    e28fc017    ....    ADR      r12,{pc}+0x1f ; 0xc5f
        0x00000c44:    e12fff1c    ../.    BX       r12
    $t
    .text
    _printf_cs_common
        0x00000c48:    b510        ..      PUSH     {r4,lr}
        0x00000c4a:    6943        Ci      LDR      r3,[r0,#0x14]
        0x00000c4c:    2b00        .+      CMP      r3,#0
        0x00000c4e:    d002        ..      BEQ      0xc56 ; _printf_cs_common + 14
        0x00000c50:    46c0        .F      MOV      r8,r8
        0x00000c52:    46c0        .F      MOV      r8,r8
        0x00000c54:    e001        ..      B        0xc5a ; _printf_cs_common + 18
        0x00000c56:    f7fffb9e    ....    BL       _printf_str ; 0x396
        0x00000c5a:    2001        .       MOVS     r0,#1
        0x00000c5c:    bd10        ..      POP      {r4,pc}
    _printf_char
        0x00000c5e:    7812        .x      LDRB     r2,[r2,#0]
        0x00000c60:    0001        ..      MOVS     r1,r0
        0x00000c62:    3124        $1      ADDS     r1,r1,#0x24
        0x00000c64:    700a        .p      STRB     r2,[r1,#0]
        0x00000c66:    2200        ."      MOVS     r2,#0
        0x00000c68:    704a        Jp      STRB     r2,[r1,#1]
        0x00000c6a:    2201        ."      MOVS     r2,#1
        0x00000c6c:    e7ec        ..      B        _printf_cs_common ; 0xc48
    _printf_string
        0x00000c6e:    6811        .h      LDR      r1,[r2,#0]
        0x00000c70:    2200        ."      MOVS     r2,#0
        0x00000c72:    43d2        .C      MVNS     r2,r2
        0x00000c74:    e7e8        ..      B        _printf_cs_common ; 0xc48
        0x00000c76:    0000        ..      MOVS     r0,r0
    $a
    .text
    __rt_udiv10
        0x00000c78:    e240100a    ..@.    SUB      r1,r0,#0xa
        0x00000c7c:    e0400120     .@.    SUB      r0,r0,r0,LSR #2
        0x00000c80:    e0800220     ...    ADD      r0,r0,r0,LSR #4
        0x00000c84:    e0800420     ...    ADD      r0,r0,r0,LSR #8
        0x00000c88:    e0800820     ...    ADD      r0,r0,r0,LSR #16
        0x00000c8c:    e1a001a0    ....    LSR      r0,r0,#3
        0x00000c90:    e0802100    .!..    ADD      r2,r0,r0,LSL #2
        0x00000c94:    e0511082    ..Q.    SUBS     r1,r1,r2,LSL #1
        0x00000c98:    52800001    ...R    ADDPL    r0,r0,#1
        0x00000c9c:    4281100a    ...B    ADDMI    r1,r1,#0xa
        0x00000ca0:    e12fff1e    ../.    BX       lr
    $t
    .text
    __Heap_ProvideMemory
        0x00000ca4:    b510        ..      PUSH     {r4,lr}
        0x00000ca6:    0003        ..      MOVS     r3,r0
        0x00000ca8:    6840        @h      LDR      r0,[r0,#4]
        0x00000caa:    e001        ..      B        0xcb0 ; __Heap_ProvideMemory + 12
        0x00000cac:    0003        ..      MOVS     r3,r0
        0x00000cae:    6840        @h      LDR      r0,[r0,#4]
        0x00000cb0:    2800        .(      CMP      r0,#0
        0x00000cb2:    d001        ..      BEQ      0xcb8 ; __Heap_ProvideMemory + 20
        0x00000cb4:    4288        .B      CMP      r0,r1
        0x00000cb6:    d3f9        ..      BCC      0xcac ; __Heap_ProvideMemory + 8
        0x00000cb8:    6818        .h      LDR      r0,[r3,#0]
        0x00000cba:    18c3        ..      ADDS     r3,r0,r3
        0x00000cbc:    428b        .B      CMP      r3,r1
        0x00000cbe:    d006        ..      BEQ      0xcce ; __Heap_ProvideMemory + 42
        0x00000cc0:    1ccb        ..      ADDS     r3,r1,#3
        0x00000cc2:    08d8        ..      LSRS     r0,r3,#3
        0x00000cc4:    00c0        ..      LSLS     r0,r0,#3
        0x00000cc6:    1d00        ..      ADDS     r0,r0,#4
        0x00000cc8:    1a41        A.      SUBS     r1,r0,r1
        0x00000cca:    1a52        R.      SUBS     r2,r2,r1
        0x00000ccc:    0001        ..      MOVS     r1,r0
        0x00000cce:    1d08        ..      ADDS     r0,r1,#4
        0x00000cd0:    600a        .`      STR      r2,[r1,#0]
        0x00000cd2:    f7fffaf8    ....    BL       free ; 0x2c6
        0x00000cd6:    bd10        ..      POP      {r4,pc}
    .text
    __rt_SIGRTMEM
        0x00000cd8:    b510        ..      PUSH     {r4,lr}
        0x00000cda:    f000f839    ..9.    BL       __rt_SIGRTMEM_inner ; 0xd50
        0x00000cde:    f000f831    ..1.    BL       __sig_exit ; 0xd44
        0x00000ce2:    bd10        ..      POP      {r4,pc}
    .text
    __rt_heap_escrow
        0x00000ce4:    2201        ."      MOVS     r2,#1
        0x00000ce6:    4669        iF      MOV      r1,sp
        0x00000ce8:    4b11        .K      LDR      r3,[pc,#68] ; [0xd30] = 0xa634
        0x00000cea:    0312        ..      LSLS     r2,r2,#12
        0x00000cec:    1882        ..      ADDS     r2,r0,r2
        0x00000cee:    428a        .B      CMP      r2,r1
        0x00000cf0:    601a        .`      STR      r2,[r3,#0]
        0x00000cf2:    d801        ..      BHI      0xcf8 ; __rt_heap_escrow + 20
        0x00000cf4:    0011        ..      MOVS     r1,r2
        0x00000cf6:    4770        pG      BX       lr
        0x00000cf8:    6019        .`      STR      r1,[r3,#0]
        0x00000cfa:    4770        pG      BX       lr
    __rt_heap_expand
        0x00000cfc:    b570        p.      PUSH     {r4-r6,lr}
        0x00000cfe:    4c0c        .L      LDR      r4,[pc,#48] ; [0xd30] = 0xa634
        0x00000d00:    466d        mF      MOV      r5,sp
        0x00000d02:    2601        .&      MOVS     r6,#1
        0x00000d04:    0336        6.      LSLS     r6,r6,#12
        0x00000d06:    6823        #h      LDR      r3,[r4,#0]
        0x00000d08:    1bad        ..      SUBS     r5,r5,r6
        0x00000d0a:    189a        ..      ADDS     r2,r3,r2
        0x00000d0c:    42aa        .B      CMP      r2,r5
        0x00000d0e:    d80e        ..      BHI      0xd2e ; __rt_heap_expand + 50
        0x00000d10:    1aad        ..      SUBS     r5,r5,r2
        0x00000d12:    1990        ..      ADDS     r0,r2,r6
        0x00000d14:    0fee        ..      LSRS     r6,r5,#31
        0x00000d16:    1975        u.      ADDS     r5,r6,r5
        0x00000d18:    106d        m.      ASRS     r5,r5,#1
        0x00000d1a:    18aa        ..      ADDS     r2,r5,r2
        0x00000d1c:    4290        .B      CMP      r0,r2
        0x00000d1e:    d900        ..      BLS      0xd22 ; __rt_heap_expand + 38
        0x00000d20:    0010        ..      MOVS     r0,r2
        0x00000d22:    1dc0        ..      ADDS     r0,r0,#7
        0x00000d24:    600b        .`      STR      r3,[r1,#0]
        0x00000d26:    08c2        ..      LSRS     r2,r0,#3
        0x00000d28:    00d2        ..      LSLS     r2,r2,#3
        0x00000d2a:    1ad0        ..      SUBS     r0,r2,r3
        0x00000d2c:    6022        "`      STR      r2,[r4,#0]
        0x00000d2e:    bd70        p.      POP      {r4-r6,pc}
    $d
        0x00000d30:    0000a634    4...    DCD    42548
    $t
    .text
    exit
        0x00000d34:    b510        ..      PUSH     {r4,lr}
        0x00000d36:    0004        ..      MOVS     r4,r0
        0x00000d38:    46c0        .F      MOV      r8,r8
        0x00000d3a:    46c0        .F      MOV      r8,r8
        0x00000d3c:    0020         .      MOVS     r0,r4
        0x00000d3e:    f7ffea8a    ....    BLX      __rt_exit ; 0x254
        0x00000d42:    bd10        ..      POP      {r4,pc}
    .text
    __sig_exit
        0x00000d44:    b510        ..      PUSH     {r4,lr}
        0x00000d46:    2800        .(      CMP      r0,#0
        0x00000d48:    d001        ..      BEQ      0xd4e ; __sig_exit + 10
        0x00000d4a:    f004e9d0    ....    BLX      _sys_exit ; 0x50ec
        0x00000d4e:    bd10        ..      POP      {r4,pc}
    .text
    __rt_SIGRTMEM_inner
        0x00000d50:    b510        ..      PUSH     {r4,lr}
        0x00000d52:    2801        .(      CMP      r0,#1
        0x00000d54:    d005        ..      BEQ      0xd62 ; __rt_SIGRTMEM_inner + 18
        0x00000d56:    2100        .!      MOVS     r1,#0
        0x00000d58:    a003        ..      ADR      r0,{pc}+0x10 ; 0xd68
        0x00000d5a:    f000f821    ..!.    BL       __default_signal_display ; 0xda0
        0x00000d5e:    2001        .       MOVS     r0,#1
        0x00000d60:    bd10        ..      POP      {r4,pc}
        0x00000d62:    a109        ..      ADR      r1,{pc}+0x26 ; 0xd88
        0x00000d64:    e7f8        ..      B        0xd58 ; __rt_SIGRTMEM_inner + 8
    $d
        0x00000d66:    0000        ..      DCW    0
        0x00000d68:    52474953    SIGR    DCD    1380403539
        0x00000d6c:    4d454d54    TMEM    DCD    1296387412
        0x00000d70:    754f203a    : Ou    DCD    1968119866
        0x00000d74:    666f2074    t of    DCD    1718558836
        0x00000d78:    61656820     hea    DCD    1634035744
        0x00000d7c:    656d2070    p me    DCD    1701650544
        0x00000d80:    79726f6d    mory    DCD    2037542765
        0x00000d84:    00000000    ....    DCD    0
        0x00000d88:    6548203a    : He    DCD    1699225658
        0x00000d8c:    6d207061    ap m    DCD    1830842465
        0x00000d90:    726f6d65    emor    DCD    1919905125
        0x00000d94:    6f632079    y co    DCD    1868767353
        0x00000d98:    70757272    rrup    DCD    1886745202
        0x00000d9c:    00646574    ted.    DCD    6579572
    $t
    .text
    __default_signal_display
        0x00000da0:    b570        p.      PUSH     {r4-r6,lr}
        0x00000da2:    000c        ..      MOVS     r4,r1
        0x00000da4:    0005        ..      MOVS     r5,r0
        0x00000da6:    200a        .       MOVS     r0,#0xa
        0x00000da8:    e000        ..      B        0xdac ; __default_signal_display + 12
        0x00000daa:    1c6d        m.      ADDS     r5,r5,#1
        0x00000dac:    f004e9a0    ....    BLX      _ttywrch ; 0x50f0
        0x00000db0:    2d00        .-      CMP      r5,#0
        0x00000db2:    d006        ..      BEQ      0xdc2 ; __default_signal_display + 34
        0x00000db4:    7828        (x      LDRB     r0,[r5,#0]
        0x00000db6:    2800        .(      CMP      r0,#0
        0x00000db8:    d1f7        ..      BNE      0xdaa ; __default_signal_display + 10
        0x00000dba:    e002        ..      B        0xdc2 ; __default_signal_display + 34
        0x00000dbc:    1c64        d.      ADDS     r4,r4,#1
        0x00000dbe:    f004e998    ....    BLX      _ttywrch ; 0x50f0
        0x00000dc2:    2c00        .,      CMP      r4,#0
        0x00000dc4:    d002        ..      BEQ      0xdcc ; __default_signal_display + 44
        0x00000dc6:    7820         x      LDRB     r0,[r4,#0]
        0x00000dc8:    2800        .(      CMP      r0,#0
        0x00000dca:    d1f7        ..      BNE      0xdbc ; __default_signal_display + 28
        0x00000dcc:    200a        .       MOVS     r0,#0xa
        0x00000dce:    f004e990    ....    BLX      _ttywrch ; 0x50f0
        0x00000dd2:    bd70        p.      POP      {r4-r6,pc}
    $a
    .text_udiv
    __aeabi_uidiv
    __aeabi_uidivmod
        0x00000dd4:    e3b02000    . ..    MOVS     r2,#0
        0x00000dd8:    e0713120     1q.    RSBS     r3,r1,r0,LSR #2
        0x00000ddc:    3afffef0    ...:    BCC      __arm_div2 ; 0x9a4
        0x00000de0:    e07132a0    .2q.    RSBS     r3,r1,r0,LSR #5
        0x00000de4:    3afffee5    ...:    BCC      __arm_div5 ; 0x980
        0x00000de8:    e0713420     4q.    RSBS     r3,r1,r0,LSR #8
        0x00000dec:    3afffeda    ...:    BCC      __arm_div8 ; 0x95c
        0x00000df0:    e3a0c000    ....    MOV      r12,#0
        0x00000df4:    eafffef9    ....    B        __arm_div_large ; 0x9e0
    SYS_INIT
    sysSetupCP15
        0x00000df8:    e1a01000    ....    MOV      r1,r0
        0x00000dfc:    ee021f10    ....    MCR      p15,#0x0,r1,c2,c0,#0
        0x00000e00:    e3a01101    ....    MOV      r1,#0x40000000
        0x00000e04:    ee031f10    ....    MCR      p15,#0x0,r1,c3,c0,#0
        0x00000e08:    ee111f10    ....    MRC      p15,#0x0,r1,c1,c0,#0
        0x00000e0c:    e3811a01    ....    ORR      r1,r1,#0x1000
        0x00000e10:    e3811005    ....    ORR      r1,r1,#5
        0x00000e14:    ee011f10    ....    MCR      p15,#0x0,r1,c1,c0,#0
        0x00000e18:    e12fff1e    ../.    BX       lr
    sys_flush_and_clean_dcache
        0x00000e1c:    ee17ff7e    ~...    MRC      p15,#0x0,APSR_nzcv,c7,c14,#3
        0x00000e20:    1afffffd    ....    BNE      sys_flush_and_clean_dcache ; 0xe1c
        0x00000e24:    e12fff1e    ../.    BX       lr
    i.AD_init_8V
    AD_init_8V
        0x00000e28:    e92d4010    .@-.    PUSH     {r4,lr}
        0x00000e2c:    eb0013e3    ....    BL       adcOpen ; 0x5dc0
        0x00000e30:    e59f40c0    .@..    LDR      r4,[pc,#192] ; [0xef8] = 0xb800a004
        0x00000e34:    e3a02000    . ..    MOV      r2,#0
        0x00000e38:    e3a01038    8...    MOV      r1,#0x38
        0x00000e3c:    e1a00004    ....    MOV      r0,r4
        0x00000e40:    eb00070e    ....    BL       REG_OPERATE ; 0x2a80
        0x00000e44:    e3a02001    . ..    MOV      r2,#1
        0x00000e48:    e3a01008    ....    MOV      r1,#8
        0x00000e4c:    e1a00004    ....    MOV      r0,r4
        0x00000e50:    eb00070a    ....    BL       REG_OPERATE ; 0x2a80
        0x00000e54:    e3a02000    . ..    MOV      r2,#0
        0x00000e58:    e3a01c01    ....    MOV      r1,#0x100
        0x00000e5c:    e1a00004    ....    MOV      r0,r4
        0x00000e60:    eb000706    ....    BL       REG_OPERATE ; 0x2a80
        0x00000e64:    e3a02001    . ..    MOV      r2,#1
        0x00000e68:    e3a01501    ....    MOV      r1,#0x400000
        0x00000e6c:    e1a00004    ....    MOV      r0,r4
        0x00000e70:    eb000702    ....    BL       REG_OPERATE ; 0x2a80
        0x00000e74:    e3a02001    . ..    MOV      r2,#1
        0x00000e78:    e3a010c0    ....    MOV      r1,#0xc0
        0x00000e7c:    e1a00004    ....    MOV      r0,r4
        0x00000e80:    eb0006fe    ....    BL       REG_OPERATE ; 0x2a80
        0x00000e84:    e3a02001    . ..    MOV      r2,#1
        0x00000e88:    e3a01004    ....    MOV      r1,#4
        0x00000e8c:    e1a00004    ....    MOV      r0,r4
        0x00000e90:    eb0006fa    ....    BL       REG_OPERATE ; 0x2a80
        0x00000e94:    e3a02001    . ..    MOV      r2,#1
        0x00000e98:    e3a0180f    ....    MOV      r1,#0xf0000
        0x00000e9c:    e1a00004    ....    MOV      r0,r4
        0x00000ea0:    eb0006f6    ....    BL       REG_OPERATE ; 0x2a80
        0x00000ea4:    e3a01b01    ....    MOV      r1,#0x400
        0x00000ea8:    e3a02001    . ..    MOV      r2,#1
        0x00000eac:    e18403c1    ....    ORR      r0,r4,r1,ASR #7
        0x00000eb0:    eb0006f2    ....    BL       REG_OPERATE ; 0x2a80
        0x00000eb4:    e3a01002    ....    MOV      r1,#2
        0x00000eb8:    e1c44081    .@..    BIC      r4,r4,r1,LSL #1
        0x00000ebc:    e3a02000    . ..    MOV      r2,#0
        0x00000ec0:    e1a00004    ....    MOV      r0,r4
        0x00000ec4:    eb0006ed    ....    BL       REG_OPERATE ; 0x2a80
        0x00000ec8:    e3a01001    ....    MOV      r1,#1
        0x00000ecc:    e5841000    ....    STR      r1,[r4,#0]
        0x00000ed0:    e3a02001    . ..    MOV      r2,#1
        0x00000ed4:    e3a01c01    ....    MOV      r1,#0x100
        0x00000ed8:    e1a00004    ....    MOV      r0,r4
        0x00000edc:    eb0006e7    ....    BL       REG_OPERATE ; 0x2a80
        0x00000ee0:    e594100c    ....    LDR      r1,[r4,#0xc]
        0x00000ee4:    e3110001    ....    TST      r1,#1
        0x00000ee8:    0afffffc    ....    BEQ      0xee0 ; AD_init_8V + 184
        0x00000eec:    e594000c    ....    LDR      r0,[r4,#0xc]
        0x00000ef0:    e584000c    ....    STR      r0,[r4,#0xc]
        0x00000ef4:    e8bd8010    ....    POP      {r4,pc}
    $d
        0x00000ef8:    b800a004    ....    DCD    3087048708
    $a
    i.AD_init_vbat
    AD_init_vbat
        0x00000efc:    e92d4070    p@-.    PUSH     {r4-r6,lr}
        0x00000f00:    eb0013ae    ....    BL       adcOpen ; 0x5dc0
        0x00000f04:    e59f50b0    .P..    LDR      r5,[pc,#176] ; [0xfbc] = 0xb800a004
        0x00000f08:    e3a02001    . ..    MOV      r2,#1
        0x00000f0c:    e3a01c01    ....    MOV      r1,#0x100
        0x00000f10:    e1a00005    ....    MOV      r0,r5
        0x00000f14:    eb0006d9    ....    BL       REG_OPERATE ; 0x2a80
        0x00000f18:    e3a02001    . ..    MOV      r2,#1
        0x00000f1c:    e3a01501    ....    MOV      r1,#0x400000
        0x00000f20:    e1a00005    ....    MOV      r0,r5
        0x00000f24:    eb0006d5    ....    BL       REG_OPERATE ; 0x2a80
        0x00000f28:    e3a02000    . ..    MOV      r2,#0
        0x00000f2c:    e3a010c0    ....    MOV      r1,#0xc0
        0x00000f30:    e1a00005    ....    MOV      r0,r5
        0x00000f34:    eb0006d1    ....    BL       REG_OPERATE ; 0x2a80
        0x00000f38:    e3a02000    . ..    MOV      r2,#0
        0x00000f3c:    e3a01038    8...    MOV      r1,#0x38
        0x00000f40:    e1a00005    ....    MOV      r0,r5
        0x00000f44:    eb0006cd    ....    BL       REG_OPERATE ; 0x2a80
        0x00000f48:    e3a02001    . ..    MOV      r2,#1
        0x00000f4c:    e3a0180f    ....    MOV      r1,#0xf0000
        0x00000f50:    e1a00005    ....    MOV      r0,r5
        0x00000f54:    eb0006c9    ....    BL       REG_OPERATE ; 0x2a80
        0x00000f58:    e3a01002    ....    MOV      r1,#2
        0x00000f5c:    e1c54081    .@..    BIC      r4,r5,r1,LSL #1
        0x00000f60:    e3a02001    . ..    MOV      r2,#1
        0x00000f64:    e1a00004    ....    MOV      r0,r4
        0x00000f68:    eb0006c4    ....    BL       REG_OPERATE ; 0x2a80
        0x00000f6c:    e3a02000    . ..    MOV      r2,#0
        0x00000f70:    e3a01004    ....    MOV      r1,#4
        0x00000f74:    e1a00005    ....    MOV      r0,r5
        0x00000f78:    eb0006c0    ....    BL       REG_OPERATE ; 0x2a80
        0x00000f7c:    e3a01b03    ....    MOV      r1,#0xc00
        0x00000f80:    e3a02001    . ..    MOV      r2,#1
        0x00000f84:    e1840441    A...    ORR      r0,r4,r1,ASR #8
        0x00000f88:    eb0006bc    ....    BL       REG_OPERATE ; 0x2a80
        0x00000f8c:    e3a01001    ....    MOV      r1,#1
        0x00000f90:    e5841000    ....    STR      r1,[r4,#0]
        0x00000f94:    e3a02001    . ..    MOV      r2,#1
        0x00000f98:    e3a01c01    ....    MOV      r1,#0x100
        0x00000f9c:    e1a00004    ....    MOV      r0,r4
        0x00000fa0:    eb0006b6    ....    BL       REG_OPERATE ; 0x2a80
        0x00000fa4:    e594100c    ....    LDR      r1,[r4,#0xc]
        0x00000fa8:    e3110001    ....    TST      r1,#1
        0x00000fac:    0afffffc    ....    BEQ      0xfa4 ; AD_init_vbat + 168
        0x00000fb0:    e594000c    ....    LDR      r0,[r4,#0xc]
        0x00000fb4:    e584000c    ....    STR      r0,[r4,#0xc]
        0x00000fb8:    e8bd8070    p...    POP      {r4-r6,pc}
    $d
        0x00000fbc:    b800a004    ....    DCD    3087048708
    $a
    i.BAD_BLOCK_CHANGE
    BAD_BLOCK_CHANGE
        0x00000fc0:    e92d4030    0@-.    PUSH     {r4,r5,lr}
        0x00000fc4:    e59f404c    L@..    LDR      r4,[pc,#76] ; [0x1018] = 0x1d55c
        0x00000fc8:    e59f204c    L ..    LDR      r2,[pc,#76] ; [0x101c] = 0x36373839
        0x00000fcc:    e5941008    ....    LDR      r1,[r4,#8]
        0x00000fd0:    e1510002    ..Q.    CMP      r1,r2
        0x00000fd4:    1a00000e    ....    BNE      0x1014 ; BAD_BLOCK_CHANGE + 84
        0x00000fd8:    e59f3040    @0..    LDR      r3,[pc,#64] ; [0x1020] = 0xa05c
        0x00000fdc:    e3a01000    ....    MOV      r1,#0
        0x00000fe0:    e5c31003    ....    STRB     r1,[r3,#3]
        0x00000fe4:    e594c00c    ....    LDR      r12,[r4,#0xc]
        0x00000fe8:    ea000006    ....    B        0x1008 ; BAD_BLOCK_CHANGE + 72
        0x00000fec:    e0842081    . ..    ADD      r2,r4,r1,LSL #1
        0x00000ff0:    e1d251b0    .Q..    LDRH     r5,[r2,#0x10]
        0x00000ff4:    e1550000    ..U.    CMP      r5,r0
        0x00000ff8:    1a000000    ....    BNE      0x1000 ; BAD_BLOCK_CHANGE + 64
        0x00000ffc:    e1d20bb0    ....    LDRH     r0,[r2,#0xb0]
        0x00001000:    e2811001    ....    ADD      r1,r1,#1
        0x00001004:    e5c31003    ....    STRB     r1,[r3,#3]
        0x00001008:    e5d31003    ....    LDRB     r1,[r3,#3]
        0x0000100c:    e15c0001    ..\.    CMP      r12,r1
        0x00001010:    8afffff5    ....    BHI      0xfec ; BAD_BLOCK_CHANGE + 44
        0x00001014:    e8bd8030    0...    POP      {r4,r5,pc}
    $d
        0x00001018:    0001d55c    \...    DCD    120156
        0x0000101c:    36373839    9876    DCD    909588537
        0x00001020:    0000a05c    \...    DCD    41052
    $a
    i.BAD_BLOCK_MARK
    BAD_BLOCK_MARK
        0x00001024:    e92d4010    .@-.    PUSH     {r4,lr}
        0x00001028:    e59f4070    p@..    LDR      r4,[pc,#112] ; [0x10a0] = 0x1d55c
        0x0000102c:    e594100c    ....    LDR      r1,[r4,#0xc]
        0x00001030:    e0841081    ....    ADD      r1,r4,r1,LSL #1
        0x00001034:    e1c101b0    ....    STRH     r0,[r1,#0x10]
        0x00001038:    e594000c    ....    LDR      r0,[r4,#0xc]
        0x0000103c:    e2801e7b    {...    ADD      r1,r0,#0x7b0
        0x00001040:    e0840080    ....    ADD      r0,r4,r0,LSL #1
        0x00001044:    e1c01bb0    ....    STRH     r1,[r0,#0xb0]
        0x00001048:    e594000c    ....    LDR      r0,[r4,#0xc]
        0x0000104c:    e350004f    O.P.    CMP      r0,#0x4f
        0x00001050:    3a000004    ...:    BCC      0x1068 ; BAD_BLOCK_MARK + 68
        0x00001054:    e59f0048    H...    LDR      r0,[pc,#72] ; [0x10a4] = 0xa074
        0x00001058:    e5901000    ....    LDR      r1,[r0,#0]
        0x0000105c:    e3811102    ....    ORR      r1,r1,#0x80000000
        0x00001060:    e5801000    ....    STR      r1,[r0,#0]
        0x00001064:    e8bd8010    ....    POP      {r4,pc}
        0x00001068:    e2800001    ....    ADD      r0,r0,#1
        0x0000106c:    e3a01050    P...    MOV      r1,#0x50
        0x00001070:    ebffff57    W...    BL       __aeabi_uidiv ; 0xdd4
        0x00001074:    e584100c    ....    STR      r1,[r4,#0xc]
        0x00001078:    e59f0028    (...    LDR      r0,[pc,#40] ; [0x10a8] = 0xa05c
        0x0000107c:    e3a02008    . ..    MOV      r2,#8
        0x00001080:    e5900028    (...    LDR      r0,[r0,#0x28]
        0x00001084:    e5c025a8    .%..    STRB     r2,[r0,#0x5a8]
        0x00001088:    e1a02001    . ..    MOV      r2,r1
        0x0000108c:    e28f1018    ....    ADR      r1,{pc}+0x20 ; 0x10ac
        0x00001090:    e2800e5a    Z...    ADD      r0,r0,#0x5a0
        0x00001094:    fafffca0    ....    BLX      __2sprintf ; 0x31c
        0x00001098:    e8bd4010    .@..    POP      {r4,lr}
        0x0000109c:    ea000414    ....    B        NANDFLASH_P3PD_INX_SAVE ; 0x20f4
    $d
        0x000010a0:    0001d55c    \...    DCD    120156
        0x000010a4:    0000a074    t...    DCD    41076
        0x000010a8:    0000a05c    \...    DCD    41052
        0x000010ac:    58383025    %08X    DCD    1480077349
        0x000010b0:    00000000    ....    DCD    0
    $a
    i.BASEDATA_RAM_INIT
    BASEDATA_RAM_INIT
        0x000010b4:    e92d5ff0    ._-.    PUSH     {r4-r12,lr}
        0x000010b8:    e59f42dc    .B..    LDR      r4,[pc,#732] ; [0x139c] = 0x5bb
        0x000010bc:    e59f52dc    .R..    LDR      r5,[pc,#732] ; [0x13a0] = 0xa084
        0x000010c0:    e59f62dc    .b..    LDR      r6,[pc,#732] ; [0x13a4] = 0xa014
        0x000010c4:    e59f82dc    ....    LDR      r8,[pc,#732] ; [0x13a8] = 0xa184
        0x000010c8:    e59fa2dc    ....    LDR      r10,[pc,#732] ; [0x13ac] = 0xa638
        0x000010cc:    e59f72dc    .r..    LDR      r7,[pc,#732] ; [0x13b0] = 0xa074
        0x000010d0:    e284b009    ....    ADD      r11,r4,#9
        0x000010d4:    e3a09001    ....    MOV      r9,#1
        0x000010d8:    e5960000    ....    LDR      r0,[r6,#0]
        0x000010dc:    e2800c05    ....    ADD      r0,r0,#0x500
        0x000010e0:    e28000bb    ....    ADD      r0,r0,#0xbb
        0x000010e4:    eb0000b9    ....    BL       CharToHex ; 0x13d0
        0x000010e8:    e3a03000    .0..    MOV      r3,#0
        0x000010ec:    e3a02000    . ..    MOV      r2,#0
        0x000010f0:    e5961000    ....    LDR      r1,[r6,#0]
        0x000010f4:    e7d1c002    ....    LDRB     r12,[r1,r2]
        0x000010f8:    e083300c    .0..    ADD      r3,r3,r12
        0x000010fc:    e2822001    . ..    ADD      r2,r2,#1
        0x00001100:    e3c22801    .(..    BIC      r2,r2,#0x10000
        0x00001104:    e1520004    ..R.    CMP      r2,r4
        0x00001108:    3afffff9    ...:    BCC      0x10f4 ; BASEDATA_RAM_INIT + 64
        0x0000110c:    e1500003    ..P.    CMP      r0,r3
        0x00001110:    1a000003    ....    BNE      0x1124 ; BASEDATA_RAM_INIT + 112
        0x00001114:    e5950000    ....    LDR      r0,[r5,#0]
        0x00001118:    e1a0200b    . ..    MOV      r2,r11
        0x0000111c:    ebfffd8c    ....    BL       __aeabi_memcpy ; 0x754
        0x00001120:    ea000045    E...    B        0x123c ; BASEDATA_RAM_INIT + 392
        0x00001124:    e2810c55    U...    ADD      r0,r1,#0x5500
        0x00001128:    e28000bb    ....    ADD      r0,r0,#0xbb
        0x0000112c:    eb0000a7    ....    BL       CharToHex ; 0x13d0
        0x00001130:    e3a02000    . ..    MOV      r2,#0
        0x00001134:    e3a01000    ....    MOV      r1,#0
        0x00001138:    e5963000    .0..    LDR      r3,[r6,#0]
        0x0000113c:    e083c001    ....    ADD      r12,r3,r1
        0x00001140:    e28cca05    ....    ADD      r12,r12,#0x5000
        0x00001144:    e5dcc000    ....    LDRB     r12,[r12,#0]
        0x00001148:    e082200c    . ..    ADD      r2,r2,r12
        0x0000114c:    e2811001    ....    ADD      r1,r1,#1
        0x00001150:    e3c11801    ....    BIC      r1,r1,#0x10000
        0x00001154:    e1510004    ..Q.    CMP      r1,r4
        0x00001158:    3afffff7    ...:    BCC      0x113c ; BASEDATA_RAM_INIT + 136
        0x0000115c:    e1500002    ..P.    CMP      r0,r2
        0x00001160:    1a000004    ....    BNE      0x1178 ; BASEDATA_RAM_INIT + 196
        0x00001164:    e5950000    ....    LDR      r0,[r5,#0]
        0x00001168:    e1a0200b    . ..    MOV      r2,r11
        0x0000116c:    e2831a05    ....    ADD      r1,r3,#0x5000
        0x00001170:    ebfffd77    w...    BL       __aeabi_memcpy ; 0x754
        0x00001174:    ea000030    0...    B        0x123c ; BASEDATA_RAM_INIT + 392
        0x00001178:    e59f0234    4...    LDR      r0,[pc,#564] ; [0x13b4] = 0x105bb
        0x0000117c:    e0800003    ....    ADD      r0,r0,r3
        0x00001180:    eb000092    ....    BL       CharToHex ; 0x13d0
        0x00001184:    e3a02000    . ..    MOV      r2,#0
        0x00001188:    e3a01000    ....    MOV      r1,#0
        0x0000118c:    e5963000    .0..    LDR      r3,[r6,#0]
        0x00001190:    e083c001    ....    ADD      r12,r3,r1
        0x00001194:    e28cc801    ....    ADD      r12,r12,#0x10000
        0x00001198:    e5dcc000    ....    LDRB     r12,[r12,#0]
        0x0000119c:    e082200c    . ..    ADD      r2,r2,r12
        0x000011a0:    e2811001    ....    ADD      r1,r1,#1
        0x000011a4:    e3c11801    ....    BIC      r1,r1,#0x10000
        0x000011a8:    e1510004    ..Q.    CMP      r1,r4
        0x000011ac:    3afffff7    ...:    BCC      0x1190 ; BASEDATA_RAM_INIT + 220
        0x000011b0:    e1500002    ..P.    CMP      r0,r2
        0x000011b4:    1a000004    ....    BNE      0x11cc ; BASEDATA_RAM_INIT + 280
        0x000011b8:    e5950000    ....    LDR      r0,[r5,#0]
        0x000011bc:    e1a0200b    . ..    MOV      r2,r11
        0x000011c0:    e2831801    ....    ADD      r1,r3,#0x10000
        0x000011c4:    ebfffd62    b...    BL       __aeabi_memcpy ; 0x754
        0x000011c8:    ea00001b    ....    B        0x123c ; BASEDATA_RAM_INIT + 392
        0x000011cc:    e59f01e4    ....    LDR      r0,[pc,#484] ; [0x13b8] = 0x155bb
        0x000011d0:    e0800003    ....    ADD      r0,r0,r3
        0x000011d4:    eb00007d    }...    BL       CharToHex ; 0x13d0
        0x000011d8:    e3a02000    . ..    MOV      r2,#0
        0x000011dc:    e3a01000    ....    MOV      r1,#0
        0x000011e0:    e5963000    .0..    LDR      r3,[r6,#0]
        0x000011e4:    e083c001    ....    ADD      r12,r3,r1
        0x000011e8:    e28cca15    ....    ADD      r12,r12,#0x15000
        0x000011ec:    e5dcc000    ....    LDRB     r12,[r12,#0]
        0x000011f0:    e082200c    . ..    ADD      r2,r2,r12
        0x000011f4:    e2811001    ....    ADD      r1,r1,#1
        0x000011f8:    e3c11801    ....    BIC      r1,r1,#0x10000
        0x000011fc:    e1510004    ..Q.    CMP      r1,r4
        0x00001200:    3afffff7    ...:    BCC      0x11e4 ; BASEDATA_RAM_INIT + 304
        0x00001204:    e1500002    ..P.    CMP      r0,r2
        0x00001208:    1a000004    ....    BNE      0x1220 ; BASEDATA_RAM_INIT + 364
        0x0000120c:    e5950000    ....    LDR      r0,[r5,#0]
        0x00001210:    e1a0200b    . ..    MOV      r2,r11
        0x00001214:    e2831a15    ....    ADD      r1,r3,#0x15000
        0x00001218:    ebfffd4d    M...    BL       __aeabi_memcpy ; 0x754
        0x0000121c:    ea000006    ....    B        0x123c ; BASEDATA_RAM_INIT + 392
        0x00001220:    e5970000    ....    LDR      r0,[r7,#0]
        0x00001224:    e3800010    ....    ORR      r0,r0,#0x10
        0x00001228:    e5870000    ....    STR      r0,[r7,#0]
        0x0000122c:    e5d80004    ....    LDRB     r0,[r8,#4]
        0x00001230:    e3500001    ..P.    CMP      r0,#1
        0x00001234:    1a000000    ....    BNE      0x123c ; BASEDATA_RAM_INIT + 392
        0x00001238:    e5c89005    ....    STRB     r9,[r8,#5]
        0x0000123c:    eb000a30    0...    BL       ReadAreaConfig_new ; 0x3b04
        0x00001240:    e59a0000    ....    LDR      r0,[r10,#0]
        0x00001244:    e28004fa    ....    ADD      r0,r0,#0xfa000000
        0x00001248:    e3500b02    ..P.    CMP      r0,#0x800
        0x0000124c:    2a000002    ...*    BCS      0x125c ; BASEDATA_RAM_INIT + 424
        0x00001250:    e59a0004    ....    LDR      r0,[r10,#4]
        0x00001254:    e3500802    ..P.    CMP      r0,#0x20000
        0x00001258:    0a000006    ....    BEQ      0x1278 ; BASEDATA_RAM_INIT + 452
        0x0000125c:    e5970000    ....    LDR      r0,[r7,#0]
        0x00001260:    e3800010    ....    ORR      r0,r0,#0x10
        0x00001264:    e5870000    ....    STR      r0,[r7,#0]
        0x00001268:    e5d80004    ....    LDRB     r0,[r8,#4]
        0x0000126c:    e3500001    ..P.    CMP      r0,#1
        0x00001270:    1a000000    ....    BNE      0x1278 ; BASEDATA_RAM_INIT + 452
        0x00001274:    e5c89005    ....    STRB     r9,[r8,#5]
        0x00001278:    e5d70000    ....    LDRB     r0,[r7,#0]
        0x0000127c:    e3100010    ....    TST      r0,#0x10
        0x00001280:    0a000002    ....    BEQ      0x1290 ; BASEDATA_RAM_INIT + 476
        0x00001284:    e5d80004    ....    LDRB     r0,[r8,#4]
        0x00001288:    e3500000    ..P.    CMP      r0,#0
        0x0000128c:    0a000003    ....    BEQ      0x12a0 ; BASEDATA_RAM_INIT + 492
        0x00001290:    e5d80005    ....    LDRB     r0,[r8,#5]
        0x00001294:    e3500001    ..P.    CMP      r0,#1
        0x00001298:    0a000006    ....    BEQ      0x12b8 ; BASEDATA_RAM_INIT + 516
        0x0000129c:    ea000020     ...    B        0x1324 ; BASEDATA_RAM_INIT + 624
        0x000012a0:    e5c89004    ....    STRB     r9,[r8,#4]
        0x000012a4:    e59f1110    ....    LDR      r1,[pc,#272] ; [0x13bc] = 0x1ebc0
        0x000012a8:    e5960000    ....    LDR      r0,[r6,#0]
        0x000012ac:    e3a02001    . ..    MOV      r2,#1
        0x000012b0:    eb00039c    ....    BL       NANDFLASH_TO_SDRAM ; 0x2128
        0x000012b4:    eaffff87    ....    B        0x10d8 ; BASEDATA_RAM_INIT + 36
        0x000012b8:    e3a00c01    ....    MOV      r0,#0x100
        0x000012bc:    eb000069    i...    BL       Clear_sdram ; 0x1468
        0x000012c0:    e3a00000    ....    MOV      r0,#0
        0x000012c4:    e59f30f4    .0..    LDR      r3,[pc,#244] ; [0x13c0] = 0x1e7e0
        0x000012c8:    e3a01000    ....    MOV      r1,#0
        0x000012cc:    e3a0c0ff    ....    MOV      r12,#0xff
        0x000012d0:    e08a2200    ."..    ADD      r2,r10,r0,LSL #4
        0x000012d4:    e582c008    ....    STR      r12,[r2,#8]
        0x000012d8:    e78a1200    ....    STR      r1,[r10,r0,LSL #4]
        0x000012dc:    e5821004    ....    STR      r1,[r2,#4]
        0x000012e0:    e582100c    ....    STR      r1,[r2,#0xc]
        0x000012e4:    e0802080    . ..    ADD      r2,r0,r0,LSL #1
        0x000012e8:    e7831102    ....    STR      r1,[r3,r2,LSL #2]
        0x000012ec:    e0832102    .!..    ADD      r2,r3,r2,LSL #2
        0x000012f0:    e5821008    ....    STR      r1,[r2,#8]
        0x000012f4:    e5821004    ....    STR      r1,[r2,#4]
        0x000012f8:    e2800001    ....    ADD      r0,r0,#1
        0x000012fc:    e3c00801    ....    BIC      r0,r0,#0x10000
        0x00001300:    e3500010    ..P.    CMP      r0,#0x10
        0x00001304:    3afffff1    ...:    BCC      0x12d0 ; BASEDATA_RAM_INIT + 540
        0x00001308:    e3a00406    ....    MOV      r0,#0x6000000
        0x0000130c:    e58a0000    ....    STR      r0,[r10,#0]
        0x00001310:    e3a00802    ....    MOV      r0,#0x20000
        0x00001314:    e58a0004    ....    STR      r0,[r10,#4]
        0x00001318:    e58a1008    ....    STR      r1,[r10,#8]
        0x0000131c:    e3a00008    ....    MOV      r0,#8
        0x00001320:    eb000e33    3...    BL       W25Q128_Read ; 0x4bf4
        0x00001324:    eb000f2c    ,...    BL       WriteAreaConfig_new ; 0x4fdc
        0x00001328:    eb001483    ....    BL       field_info_save ; 0x653c
        0x0000132c:    eb0016a5    ....    BL       para_init ; 0x6dc8
        0x00001330:    e5950000    ....    LDR      r0,[r5,#0]
        0x00001334:    e3a04008    .@..    MOV      r4,#8
        0x00001338:    e5c0401a    .@..    STRB     r4,[r0,#0x1a]
        0x0000133c:    e59f1080    ....    LDR      r1,[pc,#128] ; [0x13c4] = 0xa198
        0x00001340:    e1a02004    . ..    MOV      r2,r4
        0x00001344:    e2800012    ....    ADD      r0,r0,#0x12
        0x00001348:    ebfffd01    ....    BL       __aeabi_memcpy ; 0x754
        0x0000134c:    e5950000    ....    LDR      r0,[r5,#0]
        0x00001350:    e5c045a8    .E..    STRB     r4,[r0,#0x5a8]
        0x00001354:    eb0014c7    ....    BL       get_bad_block ; 0x6678
        0x00001358:    e1a02000    . ..    MOV      r2,r0
        0x0000135c:    e5950000    ....    LDR      r0,[r5,#0]
        0x00001360:    e28f1060    `...    ADR      r1,{pc}+0x68 ; 0x13c8
        0x00001364:    e2800e5a    Z...    ADD      r0,r0,#0x5a0
        0x00001368:    fafffbeb    ....    BLX      __2sprintf ; 0x31c
        0x0000136c:    e5970000    ....    LDR      r0,[r7,#0]
        0x00001370:    e3100010    ....    TST      r0,#0x10
        0x00001374:    0a000002    ....    BEQ      0x1384 ; BASEDATA_RAM_INIT + 720
        0x00001378:    e3c00010    ....    BIC      r0,r0,#0x10
        0x0000137c:    e5870000    ....    STR      r0,[r7,#0]
        0x00001380:    e8bd9ff0    ....    POP      {r4-r12,pc}
        0x00001384:    eb0012ab    ....    BL       basedata_ram_to_sdram ; 0x5e38
        0x00001388:    e5960000    ....    LDR      r0,[r6,#0]
        0x0000138c:    e8bd5ff0    ._..    POP      {r4-r12,lr}
        0x00001390:    e59f1024    $...    LDR      r1,[pc,#36] ; [0x13bc] = 0x1ebc0
        0x00001394:    e3a02001    . ..    MOV      r2,#1
        0x00001398:    ea000b10    ....    B        SDRAM_TO_NANDFLASH ; 0x3fe0
    $d
        0x0000139c:    000005bb    ....    DCD    1467
        0x000013a0:    0000a084    ....    DCD    41092
        0x000013a4:    0000a014    ....    DCD    40980
        0x000013a8:    0000a184    ....    DCD    41348
        0x000013ac:    0000a638    8...    DCD    42552
        0x000013b0:    0000a074    t...    DCD    41076
        0x000013b4:    000105bb    ....    DCD    67003
        0x000013b8:    000155bb    .U..    DCD    87483
        0x000013bc:    0001ebc0    ....    DCD    125888
        0x000013c0:    0001e7e0    ....    DCD    124896
        0x000013c4:    0000a198    ....    DCD    41368
        0x000013c8:    58383025    %08X    DCD    1480077349
        0x000013cc:    00000000    ....    DCD    0
    $a
    i.CharToHex
    CharToHex
        0x000013d0:    e92d400c    .@-.    PUSH     {r2,r3,lr}
        0x000013d4:    e3a01000    ....    MOV      r1,#0
        0x000013d8:    e3a0c000    ....    MOV      r12,#0
        0x000013dc:    e1a0300d    .0..    MOV      r3,sp
        0x000013e0:    e5d02000    . ..    LDRB     r2,[r0,#0]
        0x000013e4:    e3520041    A.R.    CMP      r2,#0x41
        0x000013e8:    3a000002    ...:    BCC      0x13f8 ; CharToHex + 40
        0x000013ec:    e2422037    7 B.    SUB      r2,r2,#0x37
        0x000013f0:    e7c32001    . ..    STRB     r2,[r3,r1]
        0x000013f4:    ea000005    ....    B        0x1410 ; CharToHex + 64
        0x000013f8:    e3520030    0.R.    CMP      r2,#0x30
        0x000013fc:    3a000002    ...:    BCC      0x140c ; CharToHex + 60
        0x00001400:    e2422030    0 B.    SUB      r2,r2,#0x30
        0x00001404:    e7c32001    . ..    STRB     r2,[r3,r1]
        0x00001408:    ea000000    ....    B        0x1410 ; CharToHex + 64
        0x0000140c:    e7c3c001    ....    STRB     r12,[r3,r1]
        0x00001410:    e2800001    ....    ADD      r0,r0,#1
        0x00001414:    e2811001    ....    ADD      r1,r1,#1
        0x00001418:    e20110ff    ....    AND      r1,r1,#0xff
        0x0000141c:    e3510008    ..Q.    CMP      r1,#8
        0x00001420:    3affffee    ...:    BCC      0x13e0 ; CharToHex + 16
        0x00001424:    e5dd0000    ....    LDRB     r0,[sp,#0]
        0x00001428:    e5dd1001    ....    LDRB     r1,[sp,#1]
        0x0000142c:    e1a00e00    ....    LSL      r0,r0,#28
        0x00001430:    e0800c01    ....    ADD      r0,r0,r1,LSL #24
        0x00001434:    e5dd1002    ....    LDRB     r1,[sp,#2]
        0x00001438:    e0800a01    ....    ADD      r0,r0,r1,LSL #20
        0x0000143c:    e5dd1003    ....    LDRB     r1,[sp,#3]
        0x00001440:    e0800801    ....    ADD      r0,r0,r1,LSL #16
        0x00001444:    e5dd1004    ....    LDRB     r1,[sp,#4]
        0x00001448:    e0800601    ....    ADD      r0,r0,r1,LSL #12
        0x0000144c:    e5dd1005    ....    LDRB     r1,[sp,#5]
        0x00001450:    e0800401    ....    ADD      r0,r0,r1,LSL #8
        0x00001454:    e5dd1006    ....    LDRB     r1,[sp,#6]
        0x00001458:    e0800201    ....    ADD      r0,r0,r1,LSL #4
        0x0000145c:    e5dd1007    ....    LDRB     r1,[sp,#7]
        0x00001460:    e0800001    ....    ADD      r0,r0,r1
        0x00001464:    e8bd800c    ....    POP      {r2,r3,pc}
    i.Clear_sdram
    Clear_sdram
        0x00001468:    e92d41f0    .A-.    PUSH     {r4-r8,lr}
        0x0000146c:    e1a05000    .P..    MOV      r5,r0
        0x00001470:    e3a04000    .@..    MOV      r4,#0
        0x00001474:    e59f7160    `q..    LDR      r7,[pc,#352] ; [0x15dc] = 0xbb800
        0x00001478:    e59f6160    `a..    LDR      r6,[pc,#352] ; [0x15e0] = 0xcfc0
        0x0000147c:    e3150001    ....    TST      r5,#1
        0x00001480:    0a000004    ....    BEQ      0x1498 ; Clear_sdram + 48
        0x00001484:    e5960004    ....    LDR      r0,[r6,#4]
        0x00001488:    e3500000    ..P.    CMP      r0,#0
        0x0000148c:    0a000001    ....    BEQ      0x1498 ; Clear_sdram + 48
        0x00001490:    e1a01007    ....    MOV      r1,r7
        0x00001494:    ebfffd00    ....    BL       __aeabi_memclr ; 0x89c
        0x00001498:    e3150002    ....    TST      r5,#2
        0x0000149c:    0a000004    ....    BEQ      0x14b4 ; Clear_sdram + 76
        0x000014a0:    e5960008    ....    LDR      r0,[r6,#8]
        0x000014a4:    e3500000    ..P.    CMP      r0,#0
        0x000014a8:    0a000001    ....    BEQ      0x14b4 ; Clear_sdram + 76
        0x000014ac:    e1a01007    ....    MOV      r1,r7
        0x000014b0:    ebfffcf9    ....    BL       __aeabi_memclr ; 0x89c
        0x000014b4:    e3150004    ....    TST      r5,#4
        0x000014b8:    0a000004    ....    BEQ      0x14d0 ; Clear_sdram + 104
        0x000014bc:    e596000c    ....    LDR      r0,[r6,#0xc]
        0x000014c0:    e3500000    ..P.    CMP      r0,#0
        0x000014c4:    0a000001    ....    BEQ      0x14d0 ; Clear_sdram + 104
        0x000014c8:    e1a01007    ....    MOV      r1,r7
        0x000014cc:    ebfffcf2    ....    BL       __aeabi_memclr ; 0x89c
        0x000014d0:    e3150008    ....    TST      r5,#8
        0x000014d4:    0a000004    ....    BEQ      0x14ec ; Clear_sdram + 132
        0x000014d8:    e5960010    ....    LDR      r0,[r6,#0x10]
        0x000014dc:    e3500000    ..P.    CMP      r0,#0
        0x000014e0:    0a000001    ....    BEQ      0x14ec ; Clear_sdram + 132
        0x000014e4:    e1a01007    ....    MOV      r1,r7
        0x000014e8:    ebfffceb    ....    BL       __aeabi_memclr ; 0x89c
        0x000014ec:    e3150010    ....    TST      r5,#0x10
        0x000014f0:    0a000004    ....    BEQ      0x1508 ; Clear_sdram + 160
        0x000014f4:    e5960014    ....    LDR      r0,[r6,#0x14]
        0x000014f8:    e3500000    ..P.    CMP      r0,#0
        0x000014fc:    0a000001    ....    BEQ      0x1508 ; Clear_sdram + 160
        0x00001500:    e3a01702    ....    MOV      r1,#0x80000
        0x00001504:    ebfffce4    ....    BL       __aeabi_memclr ; 0x89c
        0x00001508:    e3150020     ...    TST      r5,#0x20
        0x0000150c:    0a000009    ....    BEQ      0x1538 ; Clear_sdram + 208
        0x00001510:    e5960018    ....    LDR      r0,[r6,#0x18]
        0x00001514:    e3500000    ..P.    CMP      r0,#0
        0x00001518:    0a000001    ....    BEQ      0x1524 ; Clear_sdram + 188
        0x0000151c:    e3a01702    ....    MOV      r1,#0x80000
        0x00001520:    ebfffcdd    ....    BL       __aeabi_memclr ; 0x89c
        0x00001524:    e5960020     ...    LDR      r0,[r6,#0x20]
        0x00001528:    e3500000    ..P.    CMP      r0,#0
        0x0000152c:    0a000001    ....    BEQ      0x1538 ; Clear_sdram + 208
        0x00001530:    e3a01701    ....    MOV      r1,#0x40000
        0x00001534:    ebfffcd8    ....    BL       __aeabi_memclr ; 0x89c
        0x00001538:    e3150040    @...    TST      r5,#0x40
        0x0000153c:    0a000004    ....    BEQ      0x1554 ; Clear_sdram + 236
        0x00001540:    e5960000    ....    LDR      r0,[r6,#0]
        0x00001544:    e3500000    ..P.    CMP      r0,#0
        0x00001548:    0a000001    ....    BEQ      0x1554 ; Clear_sdram + 236
        0x0000154c:    e1a01007    ....    MOV      r1,r7
        0x00001550:    ebfffcd1    ....    BL       __aeabi_memclr ; 0x89c
        0x00001554:    e3150080    ....    TST      r5,#0x80
        0x00001558:    0a000002    ....    BEQ      0x1568 ; Clear_sdram + 256
        0x0000155c:    e59f0080    ....    LDR      r0,[pc,#128] ; [0x15e4] = 0x1d55c
        0x00001560:    e3a01f55    U...    MOV      r1,#0x154
        0x00001564:    ebfffcdc    ....    BL       __aeabi_memclr4 ; 0x8dc
        0x00001568:    e59f7078    xp..    LDR      r7,[pc,#120] ; [0x15e8] = 0xa05c
        0x0000156c:    e59f6078    x`..    LDR      r6,[pc,#120] ; [0x15ec] = 0x9e68
        0x00001570:    e3a08001    ....    MOV      r8,#1
        0x00001574:    e2840008    ....    ADD      r0,r4,#8
        0x00001578:    e1150018    ....    TST      r5,r8,LSL r0
        0x0000157c:    0a000008    ....    BEQ      0x15a4 ; Clear_sdram + 316
        0x00001580:    e59f0068    h...    LDR      r0,[pc,#104] ; [0x15f0] = 0xa838
        0x00001584:    e7900104    ....    LDR      r0,[r0,r4,LSL #2]
        0x00001588:    e3500000    ..P.    CMP      r0,#0
        0x0000158c:    0a000004    ....    BEQ      0x15a4 ; Clear_sdram + 316
        0x00001590:    e3540000    ..T.    CMP      r4,#0
        0x00001594:    0a000008    ....    BEQ      0x15bc ; Clear_sdram + 340
        0x00001598:    e7961104    ....    LDR      r1,[r6,r4,LSL #2]
        0x0000159c:    e3a020ff    . ..    MOV      r2,#0xff
        0x000015a0:    ebfffcb9    ....    BL       __aeabi_memset ; 0x88c
        0x000015a4:    e2840001    ....    ADD      r0,r4,#1
        0x000015a8:    e20040ff    .@..    AND      r4,r0,#0xff
        0x000015ac:    e3540010    ..T.    CMP      r4,#0x10
        0x000015b0:    3affffef    ...:    BCC      0x1574 ; Clear_sdram + 268
        0x000015b4:    e3a00001    ....    MOV      r0,#1
        0x000015b8:    e8bd81f0    ....    POP      {r4-r8,pc}
        0x000015bc:    e5961000    ....    LDR      r1,[r6,#0]
        0x000015c0:    ebfffcb5    ....    BL       __aeabi_memclr ; 0x89c
        0x000015c4:    e5970028    (...    LDR      r0,[r7,#0x28]
        0x000015c8:    e3500000    ..P.    CMP      r0,#0
        0x000015cc:    0afffff4    ....    BEQ      0x15a4 ; Clear_sdram + 316
        0x000015d0:    e59f101c    ....    LDR      r1,[pc,#28] ; [0x15f4] = 0x5c4
        0x000015d4:    ebfffcb0    ....    BL       __aeabi_memclr ; 0x89c
        0x000015d8:    eafffff1    ....    B        0x15a4 ; Clear_sdram + 316
    $d
        0x000015dc:    000bb800    ....    DCD    768000
        0x000015e0:    0000cfc0    ....    DCD    53184
        0x000015e4:    0001d55c    \...    DCD    120156
        0x000015e8:    0000a05c    \...    DCD    41052
        0x000015ec:    00009e68    h...    DCD    40552
        0x000015f0:    0000a838    8...    DCD    43064
        0x000015f4:    000005c4    ....    DCD    1476
    $a
    i.DATACLASS1_Check_Read
    DATACLASS1_Check_Read
        0x000015f8:    e92d400e    .@-.    PUSH     {r1-r3,lr}
        0x000015fc:    e59f1030    0...    LDR      r1,[pc,#48] ; [0x1634] = 0x1e8a0
        0x00001600:    e59f0030    0...    LDR      r0,[pc,#48] ; [0x1638] = 0xffe000
        0x00001604:    e3a02018    . ..    MOV      r2,#0x18
        0x00001608:    eb000bfe    ....    BL       SpiFlash_NormalRead ; 0x4608
        0x0000160c:    e59f0020     ...    LDR      r0,[pc,#32] ; [0x1634] = 0x1e8a0
        0x00001610:    e5901014    ....    LDR      r1,[r0,#0x14]
        0x00001614:    e590200c    . ..    LDR      r2,[r0,#0xc]
        0x00001618:    e5903010    .0..    LDR      r3,[r0,#0x10]
        0x0000161c:    e1cd20f0    . ..    STRD     r2,r3,[sp,#0]
        0x00001620:    e58d1008    ....    STR      r1,[sp,#8]
        0x00001624:    e890000e    ....    LDM      r0,{r1-r3}
        0x00001628:    e28f000c    ....    ADR      r0,{pc}+0x14 ; 0x163c
        0x0000162c:    eb001ce5    ....    BL       sysprintf ; 0x89c8
        0x00001630:    e8bd800e    ....    POP      {r1-r3,pc}
    $d
        0x00001634:    0001e8a0    ....    DCD    125088
        0x00001638:    00ffe000    ....    DCD    16769024
        0x0000163c:    43454843    CHEC    DCD    1128613955
        0x00001640:    4d55534b    KSUM    DCD    1297437515
        0x00001644:    61655220     Rea    DCD    1634030112
        0x00001648:    58253d64    d=%X    DCD    1478835556
        0x0000164c:    2c58252c    ,%X,    DCD    743974188
        0x00001650:    252c5825    %X,%    DCD    623663141
        0x00001654:    58252c58    X,%X    DCD    1478831192
        0x00001658:    0d58252c    ,%X.    DCD    223880492
        0x0000165c:    0000000a    ....    DCD    10
    $a
    i.DATACLASS1_Check_Write
    DATACLASS1_Check_Write
        0x00001660:    e92d403e    >@-.    PUSH     {r1-r5,lr}
        0x00001664:    e59f403c    <@..    LDR      r4,[pc,#60] ; [0x16a8] = 0xffe000
        0x00001668:    e1a00004    ....    MOV      r0,r4
        0x0000166c:    eb000c9d    ....    BL       SpiFlash_SectorErase ; 0x48e8
        0x00001670:    e59f1034    4...    LDR      r1,[pc,#52] ; [0x16ac] = 0x1e8a0
        0x00001674:    e3a02018    . ..    MOV      r2,#0x18
        0x00001678:    e1a00004    ....    MOV      r0,r4
        0x0000167c:    eb000b3a    :...    BL       SpiFlash_NormalPageProgram ; 0x436c
        0x00001680:    e59f0024    $...    LDR      r0,[pc,#36] ; [0x16ac] = 0x1e8a0
        0x00001684:    e5901014    ....    LDR      r1,[r0,#0x14]
        0x00001688:    e590200c    . ..    LDR      r2,[r0,#0xc]
        0x0000168c:    e5903010    .0..    LDR      r3,[r0,#0x10]
        0x00001690:    e1cd20f0    . ..    STRD     r2,r3,[sp,#0]
        0x00001694:    e58d1008    ....    STR      r1,[sp,#8]
        0x00001698:    e890000e    ....    LDM      r0,{r1-r3}
        0x0000169c:    e28f000c    ....    ADR      r0,{pc}+0x14 ; 0x16b0
        0x000016a0:    eb001cc8    ....    BL       sysprintf ; 0x89c8
        0x000016a4:    e8bd803e    >...    POP      {r1-r5,pc}
    $d
        0x000016a8:    00ffe000    ....    DCD    16769024
        0x000016ac:    0001e8a0    ....    DCD    125088
        0x000016b0:    43454843    CHEC    DCD    1128613955
        0x000016b4:    4d55534b    KSUM    DCD    1297437515
        0x000016b8:    69725720     Wri    DCD    1769101088
        0x000016bc:    253d6574    te=%    DCD    624780660
        0x000016c0:    58252c58    X,%X    DCD    1478831192
        0x000016c4:    2c58252c    ,%X,    DCD    743974188
        0x000016c8:    252c5825    %X,%    DCD    623663141
        0x000016cc:    58252c58    X,%X    DCD    1478831192
        0x000016d0:    00000a0d    ....    DCD    2573
    $a
    i.ETIMER_EnableInt
    ETIMER_EnableInt
        0x000016d4:    e3500000    ..P.    CMP      r0,#0
        0x000016d8:    0a000008    ....    BEQ      0x1700 ; ETIMER_EnableInt + 44
        0x000016dc:    e3500001    ..P.    CMP      r0,#1
        0x000016e0:    0a00000b    ....    BEQ      0x1714 ; ETIMER_EnableInt + 64
        0x000016e4:    e3500002    ..P.    CMP      r0,#2
        0x000016e8:    0a00000e    ....    BEQ      0x1728 ; ETIMER_EnableInt + 84
        0x000016ec:    e59f0048    H...    LDR      r0,[pc,#72] ; [0x173c] = 0xb800170c
        0x000016f0:    e5901000    ....    LDR      r1,[r0,#0]
        0x000016f4:    e3811001    ....    ORR      r1,r1,#1
        0x000016f8:    e5801000    ....    STR      r1,[r0,#0]
        0x000016fc:    e12fff1e    ../.    BX       lr
        0x00001700:    e59f0038    8...    LDR      r0,[pc,#56] ; [0x1740] = 0xb800140c
        0x00001704:    e5901000    ....    LDR      r1,[r0,#0]
        0x00001708:    e3811001    ....    ORR      r1,r1,#1
        0x0000170c:    e5801000    ....    STR      r1,[r0,#0]
        0x00001710:    e12fff1e    ../.    BX       lr
        0x00001714:    e59f0028    (...    LDR      r0,[pc,#40] ; [0x1744] = 0xb800150c
        0x00001718:    e5901000    ....    LDR      r1,[r0,#0]
        0x0000171c:    e3811001    ....    ORR      r1,r1,#1
        0x00001720:    e5801000    ....    STR      r1,[r0,#0]
        0x00001724:    e12fff1e    ../.    BX       lr
        0x00001728:    e59f0018    ....    LDR      r0,[pc,#24] ; [0x1748] = 0xb800160c
        0x0000172c:    e5901000    ....    LDR      r1,[r0,#0]
        0x00001730:    e3811001    ....    ORR      r1,r1,#1
        0x00001734:    e5801000    ....    STR      r1,[r0,#0]
        0x00001738:    e12fff1e    ../.    BX       lr
    $d
        0x0000173c:    b800170c    ....    DCD    3087013644
        0x00001740:    b800140c    ....    DCD    3087012876
        0x00001744:    b800150c    ....    DCD    3087013132
        0x00001748:    b800160c    ....    DCD    3087013388
    $a
    i.ETIMER_GetModuleClock
    ETIMER_GetModuleClock
        0x0000174c:    e92d4010    .@-.    PUSH     {r4,lr}
        0x00001750:    e3a0120b    ....    MOV      r1,#0xb0000000
        0x00001754:    e5911240    @...    LDR      r1,[r1,#0x240]
        0x00001758:    e3a02010    . ..    MOV      r2,#0x10
        0x0000175c:    e0820100    ....    ADD      r0,r2,r0,LSL #2
        0x00001760:    e1a00031    1...    LSR      r0,r1,r0
        0x00001764:    e2000003    ....    AND      r0,r0,#3
        0x00001768:    e3500000    ..P.    CMP      r0,#0
        0x0000176c:    0a000005    ....    BEQ      0x1788 ; ETIMER_GetModuleClock + 60
        0x00001770:    e3500001    ..P.    CMP      r0,#1
        0x00001774:    0a000005    ....    BEQ      0x1790 ; ETIMER_GetModuleClock + 68
        0x00001778:    e3500002    ..P.    CMP      r0,#2
        0x0000177c:    0a000006    ....    BEQ      0x179c ; ETIMER_GetModuleClock + 80
        0x00001780:    e3a00902    ....    MOV      r0,#0x8000
        0x00001784:    e8bd8010    ....    POP      {r4,pc}
        0x00001788:    e59f001c    ....    LDR      r0,[pc,#28] ; [0x17ac] = 0xb71b00
        0x0000178c:    e8bd8010    ....    POP      {r4,pc}
        0x00001790:    e8bd4010    .@..    POP      {r4,lr}
        0x00001794:    e3a00006    ....    MOV      r0,#6
        0x00001798:    ea0018e7    ....    B        sysGetClock ; 0x7b3c
        0x0000179c:    e3a00006    ....    MOV      r0,#6
        0x000017a0:    eb0018e5    ....    BL       sysGetClock ; 0x7b3c
        0x000017a4:    e1a00620     ...    LSR      r0,r0,#12
        0x000017a8:    e8bd8010    ....    POP      {r4,pc}
    $d
        0x000017ac:    00b71b00    ....    DCD    12000000
    $a
    i.ETIMER_Open
    ETIMER_Open
        0x000017b0:    e92d41f0    .A-.    PUSH     {r4-r8,lr}
        0x000017b4:    e1a06000    .`..    MOV      r6,r0
        0x000017b8:    e1a08001    ....    MOV      r8,r1
        0x000017bc:    e1a07002    .p..    MOV      r7,r2
        0x000017c0:    e1a00006    ....    MOV      r0,r6
        0x000017c4:    ebffffe0    ....    BL       ETIMER_GetModuleClock ; 0x174c
        0x000017c8:    e1a04000    .@..    MOV      r4,r0
        0x000017cc:    e3a05000    .P..    MOV      r5,#0
        0x000017d0:    e15700a4    ..W.    CMP      r7,r4,LSR #1
        0x000017d4:    9a000001    ....    BLS      0x17e0 ; ETIMER_Open + 48
        0x000017d8:    e3a00002    ....    MOV      r0,#2
        0x000017dc:    ea000010    ....    B        0x1824 ; ETIMER_Open + 116
        0x000017e0:    e3540301    ..T.    CMP      r4,#0x4000000
        0x000017e4:    3a000002    ...:    BCC      0x17f4 ; ETIMER_Open + 68
        0x000017e8:    e3a05007    .P..    MOV      r5,#7
        0x000017ec:    e1a041a4    .A..    LSR      r4,r4,#3
        0x000017f0:    ea000008    ....    B        0x1818 ; ETIMER_Open + 104
        0x000017f4:    e3540402    ..T.    CMP      r4,#0x2000000
        0x000017f8:    3a000002    ...:    BCC      0x1808 ; ETIMER_Open + 88
        0x000017fc:    e3a05003    .P..    MOV      r5,#3
        0x00001800:    e1a04124    $A..    LSR      r4,r4,#2
        0x00001804:    ea000003    ....    B        0x1818 ; ETIMER_Open + 104
        0x00001808:    e3540401    ..T.    CMP      r4,#0x1000000
        0x0000180c:    3a000001    ...:    BCC      0x1818 ; ETIMER_Open + 104
        0x00001810:    e3a05001    .P..    MOV      r5,#1
        0x00001814:    e1a040a4    .@..    LSR      r4,r4,#1
        0x00001818:    e1a01007    ....    MOV      r1,r7
        0x0000181c:    e1a00004    ....    MOV      r0,r4
        0x00001820:    ebfffd6b    k...    BL       __aeabi_uidiv ; 0xdd4
        0x00001824:    e3560000    ..V.    CMP      r6,#0
        0x00001828:    e3881001    ....    ORR      r1,r8,#1
        0x0000182c:    0a00000e    ....    BEQ      0x186c ; ETIMER_Open + 188
        0x00001830:    e3560001    ..V.    CMP      r6,#1
        0x00001834:    0a000013    ....    BEQ      0x1888 ; ETIMER_Open + 216
        0x00001838:    e3560002    ..V.    CMP      r6,#2
        0x0000183c:    0a000018    ....    BEQ      0x18a4 ; ETIMER_Open + 244
        0x00001840:    e59f2078    x ..    LDR      r2,[pc,#120] ; [0x18c0] = 0xb8001708
        0x00001844:    e5820000    ....    STR      r0,[r2,#0]
        0x00001848:    e2422004    . B.    SUB      r2,r2,#4
        0x0000184c:    e5825000    .P..    STR      r5,[r2,#0]
        0x00001850:    e2422004    . B.    SUB      r2,r2,#4
        0x00001854:    e5821000    ....    STR      r1,[r2,#0]
        0x00001858:    e2851001    ....    ADD      r1,r5,#1
        0x0000185c:    e0010190    ....    MUL      r1,r0,r1
        0x00001860:    e1a00004    ....    MOV      r0,r4
        0x00001864:    ebfffd5a    Z...    BL       __aeabi_uidiv ; 0xdd4
        0x00001868:    e8bd81f0    ....    POP      {r4-r8,pc}
        0x0000186c:    e59f2050    P ..    LDR      r2,[pc,#80] ; [0x18c4] = 0xb8001408
        0x00001870:    e5820000    ....    STR      r0,[r2,#0]
        0x00001874:    e2422004    . B.    SUB      r2,r2,#4
        0x00001878:    e5825000    .P..    STR      r5,[r2,#0]
        0x0000187c:    e2422004    . B.    SUB      r2,r2,#4
        0x00001880:    e5821000    ....    STR      r1,[r2,#0]
        0x00001884:    eafffff3    ....    B        0x1858 ; ETIMER_Open + 168
        0x00001888:    e59f2038    8 ..    LDR      r2,[pc,#56] ; [0x18c8] = 0xb8001508
        0x0000188c:    e5820000    ....    STR      r0,[r2,#0]
        0x00001890:    e2422004    . B.    SUB      r2,r2,#4
        0x00001894:    e5825000    .P..    STR      r5,[r2,#0]
        0x00001898:    e2422004    . B.    SUB      r2,r2,#4
        0x0000189c:    e5821000    ....    STR      r1,[r2,#0]
        0x000018a0:    eaffffec    ....    B        0x1858 ; ETIMER_Open + 168
        0x000018a4:    e59f2020      ..    LDR      r2,[pc,#32] ; [0x18cc] = 0xb8001608
        0x000018a8:    e5820000    ....    STR      r0,[r2,#0]
        0x000018ac:    e2422004    . B.    SUB      r2,r2,#4
        0x000018b0:    e5825000    .P..    STR      r5,[r2,#0]
        0x000018b4:    e2422004    . B.    SUB      r2,r2,#4
        0x000018b8:    e5821000    ....    STR      r1,[r2,#0]
        0x000018bc:    eaffffe5    ....    B        0x1858 ; ETIMER_Open + 168
    $d
        0x000018c0:    b8001708    ....    DCD    3087013640
        0x000018c4:    b8001408    ....    DCD    3087012872
        0x000018c8:    b8001508    ....    DCD    3087013128
        0x000018cc:    b8001608    ....    DCD    3087013384
    $a
    i.ETIMER_Stop
    ETIMER_Stop
        0x000018d0:    e3500000    ..P.    CMP      r0,#0
        0x000018d4:    0a000008    ....    BEQ      0x18fc ; ETIMER_Stop + 44
        0x000018d8:    e3500001    ..P.    CMP      r0,#1
        0x000018dc:    0a00000b    ....    BEQ      0x1910 ; ETIMER_Stop + 64
        0x000018e0:    e3500002    ..P.    CMP      r0,#2
        0x000018e4:    0a00000e    ....    BEQ      0x1924 ; ETIMER_Stop + 84
        0x000018e8:    e59f0048    H...    LDR      r0,[pc,#72] ; [0x1938] = 0xb8001700
        0x000018ec:    e5901000    ....    LDR      r1,[r0,#0]
        0x000018f0:    e3c11001    ....    BIC      r1,r1,#1
        0x000018f4:    e5801000    ....    STR      r1,[r0,#0]
        0x000018f8:    e12fff1e    ../.    BX       lr
        0x000018fc:    e59f0038    8...    LDR      r0,[pc,#56] ; [0x193c] = 0xb8001400
        0x00001900:    e5901000    ....    LDR      r1,[r0,#0]
        0x00001904:    e3c11001    ....    BIC      r1,r1,#1
        0x00001908:    e5801000    ....    STR      r1,[r0,#0]
        0x0000190c:    e12fff1e    ../.    BX       lr
        0x00001910:    e59f0028    (...    LDR      r0,[pc,#40] ; [0x1940] = 0xb8001500
        0x00001914:    e5901000    ....    LDR      r1,[r0,#0]
        0x00001918:    e3c11001    ....    BIC      r1,r1,#1
        0x0000191c:    e5801000    ....    STR      r1,[r0,#0]
        0x00001920:    e12fff1e    ../.    BX       lr
        0x00001924:    e59f0018    ....    LDR      r0,[pc,#24] ; [0x1944] = 0xb8001600
        0x00001928:    e5901000    ....    LDR      r1,[r0,#0]
        0x0000192c:    e3c11001    ....    BIC      r1,r1,#1
        0x00001930:    e5801000    ....    STR      r1,[r0,#0]
        0x00001934:    e12fff1e    ../.    BX       lr
    $d
        0x00001938:    b8001700    ....    DCD    3087013632
        0x0000193c:    b8001400    ....    DCD    3087012864
        0x00001940:    b8001500    ....    DCD    3087013120
        0x00001944:    b8001600    ....    DCD    3087013376
    $a
    i.ETMR2_IRQHandler
    ETMR2_IRQHandler
        0x00001948:    e92d4010    .@-.    PUSH     {r4,lr}
        0x0000194c:    eb0011b3    ....    BL       check_tp_send ; 0x6020
        0x00001950:    e59f1008    ....    LDR      r1,[pc,#8] ; [0x1960] = 0xb8001610
        0x00001954:    e3a00001    ....    MOV      r0,#1
        0x00001958:    e5810000    ....    STR      r0,[r1,#0]
        0x0000195c:    e8bd8010    ....    POP      {r4,pc}
    $d
        0x00001960:    b8001610    ....    DCD    3087013392
    $a
    i.FT5x06_Init
    FT5x06_Init
        0x00001964:    e92d4010    .@-.    PUSH     {r4,lr}
        0x00001968:    e3a04000    .@..    MOV      r4,#0
        0x0000196c:    eb00017c    |...    BL       IIC_Init ; 0x1f64
        0x00001970:    eb0001b7    ....    BL       IL2117A_InitHard ; 0x2054
        0x00001974:    e59f101c    ....    LDR      r1,[pc,#28] ; [0x1998] = 0x1d1e8
        0x00001978:    e3a0000a    ....    MOV      r0,#0xa
        0x0000197c:    e0812204    ."..    ADD      r2,r1,r4,LSL #4
        0x00001980:    e5820008    ....    STR      r0,[r2,#8]
        0x00001984:    e2842001    . ..    ADD      r2,r4,#1
        0x00001988:    e20240ff    .@..    AND      r4,r2,#0xff
        0x0000198c:    e354000a    ..T.    CMP      r4,#0xa
        0x00001990:    3afffff9    ...:    BCC      0x197c ; FT5x06_Init + 24
        0x00001994:    e8bd8010    ....    POP      {r4,pc}
    $d
        0x00001998:    0001d1e8    ....    DCD    119272
    $a
    i.FormatItem
    FormatItem
        0x0000199c:    e92d41f0    .A-.    PUSH     {r4-r8,lr}
        0x000019a0:    e1a05000    .P..    MOV      r5,r0
        0x000019a4:    e1a07001    .p..    MOV      r7,r1
        0x000019a8:    e3a04000    .@..    MOV      r4,#0
        0x000019ac:    e3a06000    .`..    MOV      r6,#0
        0x000019b0:    e3a01000    ....    MOV      r1,#0
        0x000019b4:    e3a08020     ...    MOV      r8,#0x20
        0x000019b8:    e5d50000    ....    LDRB     r0,[r5,#0]
        0x000019bc:    e3500030    0.P.    CMP      r0,#0x30
        0x000019c0:    1a00005e    ^...    BNE      0x1b40 ; FormatItem + 420
        0x000019c4:    e3a08030    0...    MOV      r8,#0x30
        0x000019c8:    ea00005c    \...    B        0x1b40 ; FormatItem + 420
        0x000019cc:    e2402030    0 @.    SUB      r2,r0,#0x30
        0x000019d0:    e3520009    ..R.    CMP      r2,#9
        0x000019d4:    8a000003    ....    BHI      0x19e8 ; FormatItem + 76
        0x000019d8:    e0842104    .!..    ADD      r2,r4,r4,LSL #2
        0x000019dc:    e0800082    ....    ADD      r0,r0,r2,LSL #1
        0x000019e0:    e2404030    0@@.    SUB      r4,r0,#0x30
        0x000019e4:    ea00001e    ....    B        0x1a64 ; FormatItem + 200
        0x000019e8:    e350006c    l.P.    CMP      r0,#0x6c
        0x000019ec:    0a000053    S...    BEQ      0x1b40 ; FormatItem + 420
        0x000019f0:    e3500064    d.P.    CMP      r0,#0x64
        0x000019f4:    0a000047    G...    BEQ      0x1b18 ; FormatItem + 380
        0x000019f8:    ca00000c    ....    BGT      0x1a30 ; FormatItem + 148
        0x000019fc:    e350002d    -.P.    CMP      r0,#0x2d
        0x00001a00:    0a000020     ...    BEQ      0x1a88 ; FormatItem + 236
        0x00001a04:    ca000004    ....    BGT      0x1a1c ; FormatItem + 128
        0x00001a08:    e3500000    ..P.    CMP      r0,#0
        0x00001a0c:    0a000017    ....    BEQ      0x1a70 ; FormatItem + 212
        0x00001a10:    e3500025    %.P.    CMP      r0,#0x25
        0x00001a14:    1a000011    ....    BNE      0x1a60 ; FormatItem + 196
        0x00001a18:    ea000016    ....    B        0x1a78 ; FormatItem + 220
        0x00001a1c:    e3500058    X.P.    CMP      r0,#0x58
        0x00001a20:    0a000042    B...    BEQ      0x1b30 ; FormatItem + 404
        0x00001a24:    e3500063    c.P.    CMP      r0,#0x63
        0x00001a28:    1a00000c    ....    BNE      0x1a60 ; FormatItem + 196
        0x00001a2c:    ea000017    ....    B        0x1a90 ; FormatItem + 244
        0x00001a30:    e3500073    s.P.    CMP      r0,#0x73
        0x00001a34:    0a000024    $...    BEQ      0x1acc ; FormatItem + 304
        0x00001a38:    ca000004    ....    BGT      0x1a50 ; FormatItem + 180
        0x00001a3c:    e3500069    i.P.    CMP      r0,#0x69
        0x00001a40:    0a000034    4...    BEQ      0x1b18 ; FormatItem + 380
        0x00001a44:    e350006f    o.P.    CMP      r0,#0x6f
        0x00001a48:    1a000004    ....    BNE      0x1a60 ; FormatItem + 196
        0x00001a4c:    ea000039    9...    B        0x1b38 ; FormatItem + 412
        0x00001a50:    e3500075    u.P.    CMP      r0,#0x75
        0x00001a54:    0a000031    1...    BEQ      0x1b20 ; FormatItem + 388
        0x00001a58:    e3500078    x.P.    CMP      r0,#0x78
        0x00001a5c:    0a000031    1...    BEQ      0x1b28 ; FormatItem + 396
        0x00001a60:    e3a01003    ....    MOV      r1,#3
        0x00001a64:    e3510000    ..Q.    CMP      r1,#0
        0x00001a68:    0a000034    4...    BEQ      0x1b40 ; FormatItem + 420
        0x00001a6c:    ea000036    6...    B        0x1b4c ; FormatItem + 432
        0x00001a70:    e2450001    ..E.    SUB      r0,r5,#1
        0x00001a74:    e8bd81f0    ....    POP      {r4-r8,pc}
        0x00001a78:    e3a00025    %...    MOV      r0,#0x25
        0x00001a7c:    eb000d81    ....    BL       _PutChar_f ; 0x5088
        0x00001a80:    e1a00005    ....    MOV      r0,r5
        0x00001a84:    e8bd81f0    ....    POP      {r4-r8,pc}
        0x00001a88:    e3a06001    .`..    MOV      r6,#1
        0x00001a8c:    eafffff4    ....    B        0x1a64 ; FormatItem + 200
        0x00001a90:    e3560000    ..V.    CMP      r6,#0
        0x00001a94:    0a000001    ....    BEQ      0x1aa0 ; FormatItem + 260
        0x00001a98:    e207007f    ....    AND      r0,r7,#0x7f
        0x00001a9c:    eb000d79    y...    BL       _PutChar_f ; 0x5088
        0x00001aa0:    e3540000    ..T.    CMP      r4,#0
        0x00001aa4:    da000002    ....    BLE      0x1ab4 ; FormatItem + 280
        0x00001aa8:    e2441001    ..D.    SUB      r1,r4,#1
        0x00001aac:    e1a00008    ....    MOV      r0,r8
        0x00001ab0:    eb001ac2    ....    BL       sysPutRepChar ; 0x85c0
        0x00001ab4:    e3560000    ..V.    CMP      r6,#0
        0x00001ab8:    1a000001    ....    BNE      0x1ac4 ; FormatItem + 296
        0x00001abc:    e207007f    ....    AND      r0,r7,#0x7f
        0x00001ac0:    eb000d70    p...    BL       _PutChar_f ; 0x5088
        0x00001ac4:    e1a00005    ....    MOV      r0,r5
        0x00001ac8:    e8bd81f0    ....    POP      {r4-r8,pc}
        0x00001acc:    e3560000    ..V.    CMP      r6,#0
        0x00001ad0:    0a000001    ....    BEQ      0x1adc ; FormatItem + 320
        0x00001ad4:    e1a00007    ....    MOV      r0,r7
        0x00001ad8:    eb001ac1    ....    BL       sysPutString ; 0x85e4
        0x00001adc:    e1a00007    ....    MOV      r0,r7
        0x00001ae0:    fafffb04    ....    BLX      strlen ; 0x6f8
        0x00001ae4:    e1500004    ..P.    CMP      r0,r4
        0x00001ae8:    2a000004    ...*    BCS      0x1b00 ; FormatItem + 356
        0x00001aec:    e1a00007    ....    MOV      r0,r7
        0x00001af0:    fafffb00    ....    BLX      strlen ; 0x6f8
        0x00001af4:    e0441000    ..D.    SUB      r1,r4,r0
        0x00001af8:    e1a00008    ....    MOV      r0,r8
        0x00001afc:    eb001aaf    ....    BL       sysPutRepChar ; 0x85c0
        0x00001b00:    e3560000    ..V.    CMP      r6,#0
        0x00001b04:    1a000001    ....    BNE      0x1b10 ; FormatItem + 372
        0x00001b08:    e1a00007    ....    MOV      r0,r7
        0x00001b0c:    eb001ab4    ....    BL       sysPutString ; 0x85e4
        0x00001b10:    e1a00005    ....    MOV      r0,r5
        0x00001b14:    e8bd81f0    ....    POP      {r4-r8,pc}
        0x00001b18:    e3e01009    ....    MVN      r1,#9
        0x00001b1c:    eaffffd0    ....    B        0x1a64 ; FormatItem + 200
        0x00001b20:    e3a0100a    ....    MOV      r1,#0xa
        0x00001b24:    eaffffce    ....    B        0x1a64 ; FormatItem + 200
        0x00001b28:    e3a01010    ....    MOV      r1,#0x10
        0x00001b2c:    eaffffcc    ....    B        0x1a64 ; FormatItem + 200
        0x00001b30:    e3a01010    ....    MOV      r1,#0x10
        0x00001b34:    eaffffca    ....    B        0x1a64 ; FormatItem + 200
        0x00001b38:    e3a01008    ....    MOV      r1,#8
        0x00001b3c:    eaffffc8    ....    B        0x1a64 ; FormatItem + 200
        0x00001b40:    e4d50001    ....    LDRB     r0,[r5],#1
        0x00001b44:    e3500000    ..P.    CMP      r0,#0
        0x00001b48:    1affff9f    ....    BNE      0x19cc ; FormatItem + 48
        0x00001b4c:    e3560000    ..V.    CMP      r6,#0
        0x00001b50:    0a000000    ....    BEQ      0x1b58 ; FormatItem + 444
        0x00001b54:    e2644000    .@d.    RSB      r4,r4,#0
        0x00001b58:    e1a03008    .0..    MOV      r3,r8
        0x00001b5c:    e1a02004    . ..    MOV      r2,r4
        0x00001b60:    e1a00007    ....    MOV      r0,r7
        0x00001b64:    eb001a35    5...    BL       sysPutNumber ; 0x8440
        0x00001b68:    e1a00005    ....    MOV      r0,r5
        0x00001b6c:    e8bd81f0    ....    POP      {r4-r8,pc}
    i.GET_READ_RXNUM
    GET_READ_RXNUM
        0x00001b70:    e1510000    ..Q.    CMP      r1,r0
        0x00001b74:    9a000004    ....    BLS      0x1b8c ; GET_READ_RXNUM + 28
        0x00001b78:    e0421001    ..B.    SUB      r1,r2,r1
        0x00001b7c:    e0800001    ....    ADD      r0,r0,r1
        0x00001b80:    e1a00800    ....    LSL      r0,r0,#16
        0x00001b84:    e1a00820     ...    LSR      r0,r0,#16
        0x00001b88:    e12fff1e    ../.    BX       lr
        0x00001b8c:    e0400001    ..@.    SUB      r0,r0,r1
        0x00001b90:    e1a00800    ....    LSL      r0,r0,#16
        0x00001b94:    e1a00820     ...    LSR      r0,r0,#16
        0x00001b98:    e12fff1e    ../.    BX       lr
    i.GPIOECallback
    GPIOECallback
        0x00001b9c:    e92d4010    .@-.    PUSH     {r4,lr}
        0x00001ba0:    e3100080    ....    TST      r0,#0x80
        0x00001ba4:    0a000005    ....    BEQ      0x1bc0 ; GPIOECallback + 36
        0x00001ba8:    e59f1024    $...    LDR      r1,[pc,#36] ; [0x1bd4] = 0xa034
        0x00001bac:    e3a02001    . ..    MOV      r2,#1
        0x00001bb0:    e5c12002    . ..    STRB     r2,[r1,#2]
        0x00001bb4:    e59f201c    . ..    LDR      r2,[pc,#28] ; [0x1bd8] = 0xa3d8
        0x00001bb8:    e5922000    . ..    LDR      r2,[r2,#0]
        0x00001bbc:    e5812008    . ..    STR      r2,[r1,#8]
        0x00001bc0:    e1a01000    ....    MOV      r1,r0
        0x00001bc4:    e3a00c01    ....    MOV      r0,#0x100
        0x00001bc8:    eb000041    A...    BL       GPIO_ClrISRBit ; 0x1cd4
        0x00001bcc:    e3a00000    ....    MOV      r0,#0
        0x00001bd0:    e8bd8010    ....    POP      {r4,pc}
    $d
        0x00001bd4:    0000a034    4...    DCD    41012
        0x00001bd8:    0000a3d8    ....    DCD    41944
    $a
    i.GPIOICallback
    GPIOICallback
        0x00001bdc:    e92d4070    p@-.    PUSH     {r4-r6,lr}
        0x00001be0:    e1a05000    .P..    MOV      r5,r0
        0x00001be4:    e3150a01    ....    TST      r5,#0x1000
        0x00001be8:    0a000018    ....    BEQ      0x1c50 ; GPIOICallback + 116
        0x00001bec:    e3a01a01    ....    MOV      r1,#0x1000
        0x00001bf0:    e3a00c02    ....    MOV      r0,#0x200
        0x00001bf4:    eb0000c8    ....    BL       GPIO_ReadBit ; 0x1f1c
        0x00001bf8:    e59f4064    d@..    LDR      r4,[pc,#100] ; [0x1c64] = 0xa0a8
        0x00001bfc:    e3500000    ..P.    CMP      r0,#0
        0x00001c00:    0a00000c    ....    BEQ      0x1c38 ; GPIOICallback + 92
        0x00001c04:    e3a00000    ....    MOV      r0,#0
        0x00001c08:    eb0015ce    ....    BL       set_wt588h_voice_state ; 0x7348
        0x00001c0c:    e59f0054    T...    LDR      r0,[pc,#84] ; [0x1c68] = 0xa3d8
        0x00001c10:    e5900000    ....    LDR      r0,[r0,#0]
        0x00001c14:    e59f1050    P...    LDR      r1,[pc,#80] ; [0x1c6c] = 0x1dfd0
        0x00001c18:    e5810008    ....    STR      r0,[r1,#8]
        0x00001c1c:    e3a01901    ....    MOV      r1,#0x4000
        0x00001c20:    e3a00c02    ....    MOV      r0,#0x200
        0x00001c24:    eb000022    "...    BL       GPIO_Clr ; 0x1cb4
        0x00001c28:    e5d40004    ....    LDRB     r0,[r4,#4]
        0x00001c2c:    e2800001    ....    ADD      r0,r0,#1
        0x00001c30:    e5c40004    ....    STRB     r0,[r4,#4]
        0x00001c34:    ea000005    ....    B        0x1c50 ; GPIOICallback + 116
        0x00001c38:    e5d40004    ....    LDRB     r0,[r4,#4]
        0x00001c3c:    e2800001    ....    ADD      r0,r0,#1
        0x00001c40:    e5c40004    ....    STRB     r0,[r4,#4]
        0x00001c44:    e3a01901    ....    MOV      r1,#0x4000
        0x00001c48:    e3a00c02    ....    MOV      r0,#0x200
        0x00001c4c:    eb0000bc    ....    BL       GPIO_Set ; 0x1f44
        0x00001c50:    e1a01005    ....    MOV      r1,r5
        0x00001c54:    e3a00c02    ....    MOV      r0,#0x200
        0x00001c58:    eb00001d    ....    BL       GPIO_ClrISRBit ; 0x1cd4
        0x00001c5c:    e3a00000    ....    MOV      r0,#0
        0x00001c60:    e8bd8070    p...    POP      {r4-r6,pc}
    $d
        0x00001c64:    0000a0a8    ....    DCD    41128
        0x00001c68:    0000a3d8    ....    DCD    41944
        0x00001c6c:    0001dfd0    ....    DCD    122832
    $a
    i.GPIO_CloseBit
    GPIO_CloseBit
        0x00001c70:    e1a02320     #..    LSR      r2,r0,#6
        0x00001c74:    e59f3030    00..    LDR      r3,[pc,#48] ; [0x1cac] = 0x64000
        0x00001c78:    e0832082    . ..    ADD      r2,r3,r2,LSL #1
        0x00001c7c:    e1d230b0    .0..    LDRH     r3,[r2,#0]
        0x00001c80:    e1c33001    .0..    BIC      r3,r3,r1
        0x00001c84:    e1c230b0    .0..    STRH     r3,[r2,#0]
        0x00001c88:    e59f2020      ..    LDR      r2,[pc,#32] ; [0x1cb0] = 0xb8003000
        0x00001c8c:    e7b02002    . ..    LDR      r2,[r0,r2]!
        0x00001c90:    e1c22001    . ..    BIC      r2,r2,r1
        0x00001c94:    e5802000    . ..    STR      r2,[r0,#0]
        0x00001c98:    e5902020      ..    LDR      r2,[r0,#0x20]
        0x00001c9c:    e1c21001    ....    BIC      r1,r2,r1
        0x00001ca0:    e5801020     ...    STR      r1,[r0,#0x20]
        0x00001ca4:    e3a00000    ....    MOV      r0,#0
        0x00001ca8:    e12fff1e    ../.    BX       lr
    $d
        0x00001cac:    00064000    .@..    DCD    409600
        0x00001cb0:    b8003000    .0..    DCD    3087020032
    $a
    i.GPIO_Clr
    GPIO_Clr
        0x00001cb4:    e59f2014    . ..    LDR      r2,[pc,#20] ; [0x1cd0] = 0xb8003000
        0x00001cb8:    e0800002    ....    ADD      r0,r0,r2
        0x00001cbc:    e5902004    . ..    LDR      r2,[r0,#4]
        0x00001cc0:    e1c21001    ....    BIC      r1,r2,r1
        0x00001cc4:    e5801004    ....    STR      r1,[r0,#4]
        0x00001cc8:    e3a00000    ....    MOV      r0,#0
        0x00001ccc:    e12fff1e    ../.    BX       lr
    $d
        0x00001cd0:    b8003000    .0..    DCD    3087020032
    $a
    i.GPIO_ClrISRBit
    GPIO_ClrISRBit
        0x00001cd4:    e59f200c    . ..    LDR      r2,[pc,#12] ; [0x1ce8] = 0xb8003000
        0x00001cd8:    e0800002    ....    ADD      r0,r0,r2
        0x00001cdc:    e5801018    ....    STR      r1,[r0,#0x18]
        0x00001ce0:    e3a00000    ....    MOV      r0,#0
        0x00001ce4:    e12fff1e    ../.    BX       lr
    $d
        0x00001ce8:    b8003000    .0..    DCD    3087020032
    $a
    i.GPIO_EnableInt
    GPIO_EnableInt
        0x00001cec:    e92d4010    .@-.    PUSH     {r4,lr}
        0x00001cf0:    e1a00320     ...    LSR      r0,r0,#6
        0x00001cf4:    e3510000    ..Q.    CMP      r1,#0
        0x00001cf8:    0a000003    ....    BEQ      0x1d0c ; GPIO_EnableInt + 32
        0x00001cfc:    e59f3030    00..    LDR      r3,[pc,#48] ; [0x1d34] = 0x64000
        0x00001d00:    e0830100    ....    ADD      r0,r3,r0,LSL #2
        0x00001d04:    e5801014    ....    STR      r1,[r0,#0x14]
        0x00001d08:    e580203c    < ..    STR      r2,[r0,#0x3c]
        0x00001d0c:    e59f2024    $ ..    LDR      r2,[pc,#36] ; [0x1d38] = 0x1e34
        0x00001d10:    e3a01039    9...    MOV      r1,#0x39
        0x00001d14:    e3a00007    ....    MOV      r0,#7
        0x00001d18:    eb00198b    ....    BL       sysInstallISR ; 0x834c
        0x00001d1c:    e3a00039    9...    MOV      r0,#0x39
        0x00001d20:    eb001742    B...    BL       sysEnableInterrupt ; 0x7a30
        0x00001d24:    e3a0007f    ....    MOV      r0,#0x7f
        0x00001d28:    eb001a40    @...    BL       sysSetLocalInterrupt ; 0x8630
        0x00001d2c:    e3a00000    ....    MOV      r0,#0
        0x00001d30:    e8bd8010    ....    POP      {r4,pc}
    $d
        0x00001d34:    00064000    .@..    DCD    409600
        0x00001d38:    00001e34    4...    DCD    7732
    $a
    i.GPIO_EnableTriggerType
    GPIO_EnableTriggerType
        0x00001d3c:    e59f30ec    .0..    LDR      r3,[pc,#236] ; [0x1e30] = 0xb8003000
        0x00001d40:    e3520005    ..R.    CMP      r2,#5
        0x00001d44:    e0800003    ....    ADD      r0,r0,r3
        0x00001d48:    308ff102    ...0    ADDCC    pc,pc,r2,LSL #2
        0x00001d4c:    ea000035    5...    B        0x1e28 ; GPIO_EnableTriggerType + 236
        0x00001d50:    ea000003    ....    B        0x1d64 ; GPIO_EnableTriggerType + 40
        0x00001d54:    ea00000c    ....    B        0x1d8c ; GPIO_EnableTriggerType + 80
        0x00001d58:    ea000015    ....    B        0x1db4 ; GPIO_EnableTriggerType + 120
        0x00001d5c:    ea00001e    ....    B        0x1ddc ; GPIO_EnableTriggerType + 160
        0x00001d60:    ea000027    '...    B        0x1e04 ; GPIO_EnableTriggerType + 200
        0x00001d64:    e590200c    . ..    LDR      r2,[r0,#0xc]
        0x00001d68:    e1822001    . ..    ORR      r2,r2,r1
        0x00001d6c:    e580200c    . ..    STR      r2,[r0,#0xc]
        0x00001d70:    e5902010    . ..    LDR      r2,[r0,#0x10]
        0x00001d74:    e1c22001    . ..    BIC      r2,r2,r1
        0x00001d78:    e5802010    . ..    STR      r2,[r0,#0x10]
        0x00001d7c:    e5902014    . ..    LDR      r2,[r0,#0x14]
        0x00001d80:    e1811002    ....    ORR      r1,r1,r2
        0x00001d84:    e5801014    ....    STR      r1,[r0,#0x14]
        0x00001d88:    ea000026    &...    B        0x1e28 ; GPIO_EnableTriggerType + 236
        0x00001d8c:    e590200c    . ..    LDR      r2,[r0,#0xc]
        0x00001d90:    e1822001    . ..    ORR      r2,r2,r1
        0x00001d94:    e580200c    . ..    STR      r2,[r0,#0xc]
        0x00001d98:    e5902010    . ..    LDR      r2,[r0,#0x10]
        0x00001d9c:    e1822001    . ..    ORR      r2,r2,r1
        0x00001da0:    e5802010    . ..    STR      r2,[r0,#0x10]
        0x00001da4:    e5902014    . ..    LDR      r2,[r0,#0x14]
        0x00001da8:    e1c21001    ....    BIC      r1,r2,r1
        0x00001dac:    e5801014    ....    STR      r1,[r0,#0x14]
        0x00001db0:    ea00001c    ....    B        0x1e28 ; GPIO_EnableTriggerType + 236
        0x00001db4:    e590200c    . ..    LDR      r2,[r0,#0xc]
        0x00001db8:    e1c22001    . ..    BIC      r2,r2,r1
        0x00001dbc:    e580200c    . ..    STR      r2,[r0,#0xc]
        0x00001dc0:    e5902010    . ..    LDR      r2,[r0,#0x10]
        0x00001dc4:    e1c22001    . ..    BIC      r2,r2,r1
        0x00001dc8:    e5802010    . ..    STR      r2,[r0,#0x10]
        0x00001dcc:    e5902014    . ..    LDR      r2,[r0,#0x14]
        0x00001dd0:    e1811002    ....    ORR      r1,r1,r2
        0x00001dd4:    e5801014    ....    STR      r1,[r0,#0x14]
        0x00001dd8:    ea000012    ....    B        0x1e28 ; GPIO_EnableTriggerType + 236
        0x00001ddc:    e590200c    . ..    LDR      r2,[r0,#0xc]
        0x00001de0:    e1c22001    . ..    BIC      r2,r2,r1
        0x00001de4:    e580200c    . ..    STR      r2,[r0,#0xc]
        0x00001de8:    e5902010    . ..    LDR      r2,[r0,#0x10]
        0x00001dec:    e1822001    . ..    ORR      r2,r2,r1
        0x00001df0:    e5802010    . ..    STR      r2,[r0,#0x10]
        0x00001df4:    e5902014    . ..    LDR      r2,[r0,#0x14]
        0x00001df8:    e1c21001    ....    BIC      r1,r2,r1
        0x00001dfc:    e5801014    ....    STR      r1,[r0,#0x14]
        0x00001e00:    ea000008    ....    B        0x1e28 ; GPIO_EnableTriggerType + 236
        0x00001e04:    e590200c    . ..    LDR      r2,[r0,#0xc]
        0x00001e08:    e1c22001    . ..    BIC      r2,r2,r1
        0x00001e0c:    e580200c    . ..    STR      r2,[r0,#0xc]
        0x00001e10:    e5902010    . ..    LDR      r2,[r0,#0x10]
        0x00001e14:    e1822001    . ..    ORR      r2,r2,r1
        0x00001e18:    e5802010    . ..    STR      r2,[r0,#0x10]
        0x00001e1c:    e5902014    . ..    LDR      r2,[r0,#0x14]
        0x00001e20:    e1811002    ....    ORR      r1,r1,r2
        0x00001e24:    e5801014    ....    STR      r1,[r0,#0x14]
        0x00001e28:    e3a00000    ....    MOV      r0,#0
        0x00001e2c:    e12fff1e    ../.    BX       lr
    $d
        0x00001e30:    b8003000    .0..    DCD    3087020032
    $a
    i.GPIO_IRQHandler
    GPIO_IRQHandler
        0x00001e34:    e92d47f0    .G-.    PUSH     {r4-r10,lr}
        0x00001e38:    e59f8054    T...    LDR      r8,[pc,#84] ; [0x1e94] = 0xb8002000
        0x00001e3c:    e5980114    ....    LDR      r0,[r8,#0x114]
        0x00001e40:    e3a06402    .d..    MOV      r6,#0x2000000
        0x00001e44:    e18876c6    .v..    ORR      r7,r8,r6,ASR #13
        0x00001e48:    e59753fc    .S..    LDR      r5,[r7,#0x3fc]
        0x00001e4c:    e3a04000    .@..    MOV      r4,#0
        0x00001e50:    e59f9040    @...    LDR      r9,[pc,#64] ; [0x1e98] = 0x64000
        0x00001e54:    e3a0a001    ....    MOV      r10,#1
        0x00001e58:    e0890104    ....    ADD      r0,r9,r4,LSL #2
        0x00001e5c:    e5902014    . ..    LDR      r2,[r0,#0x14]
        0x00001e60:    e3520000    ..R.    CMP      r2,#0
        0x00001e64:    0a000005    ....    BEQ      0x1e80 ; GPIO_IRQHandler + 76
        0x00001e68:    e115041a    ....    TST      r5,r10,LSL r4
        0x00001e6c:    0a000003    ....    BEQ      0x1e80 ; GPIO_IRQHandler + 76
        0x00001e70:    e590103c    <...    LDR      r1,[r0,#0x3c]
        0x00001e74:    e0870304    ....    ADD      r0,r7,r4,LSL #6
        0x00001e78:    e5900018    ....    LDR      r0,[r0,#0x18]
        0x00001e7c:    e12fff32    2./.    BLX      r2
        0x00001e80:    e2844001    .@..    ADD      r4,r4,#1
        0x00001e84:    e354000a    ..T.    CMP      r4,#0xa
        0x00001e88:    bafffff2    ....    BLT      0x1e58 ; GPIO_IRQHandler + 36
        0x00001e8c:    e588614c    La..    STR      r6,[r8,#0x14c]
        0x00001e90:    e8bd87f0    ....    POP      {r4-r10,pc}
    $d
        0x00001e94:    b8002000    . ..    DCD    3087015936
        0x00001e98:    00064000    .@..    DCD    409600
    $a
    i.GPIO_OpenBit
    GPIO_OpenBit
        0x00001e9c:    e92d4030    0@-.    PUSH     {r4,r5,lr}
        0x00001ea0:    e3a0c20b    ....    MOV      r12,#0xb0000000
        0x00001ea4:    e59c4218    .B..    LDR      r4,[r12,#0x218]
        0x00001ea8:    e3844008    .@..    ORR      r4,r4,#8
        0x00001eac:    e58c4218    .B..    STR      r4,[r12,#0x218]
        0x00001eb0:    e1a0c320     ...    LSR      r12,r0,#6
        0x00001eb4:    e59f4058    X@..    LDR      r4,[pc,#88] ; [0x1f14] = 0x64000
        0x00001eb8:    e084c08c    ....    ADD      r12,r4,r12,LSL #1
        0x00001ebc:    e1dc40b0    .@..    LDRH     r4,[r12,#0]
        0x00001ec0:    e1140001    ....    TST      r4,r1
        0x00001ec4:    0a000001    ....    BEQ      0x1ed0 ; GPIO_OpenBit + 52
        0x00001ec8:    e3e00002    ....    MVN      r0,#2
        0x00001ecc:    e8bd8030    0...    POP      {r4,r5,pc}
        0x00001ed0:    e1844001    .@..    ORR      r4,r4,r1
        0x00001ed4:    e1cc40b0    .@..    STRH     r4,[r12,#0]
        0x00001ed8:    e59fc038    8...    LDR      r12,[pc,#56] ; [0x1f18] = 0xb8003000
        0x00001edc:    e7b0c00c    ....    LDR      r12,[r0,r12]!
        0x00001ee0:    e1ccc001    ....    BIC      r12,r12,r1
        0x00001ee4:    e3520001    ..R.    CMP      r2,#1
        0x00001ee8:    1a000000    ....    BNE      0x1ef0 ; GPIO_OpenBit + 84
        0x00001eec:    e18cc001    ....    ORR      r12,r12,r1
        0x00001ef0:    e580c000    ....    STR      r12,[r0,#0]
        0x00001ef4:    e5902020      ..    LDR      r2,[r0,#0x20]
        0x00001ef8:    e1c22001    . ..    BIC      r2,r2,r1
        0x00001efc:    e3530001    ..S.    CMP      r3,#1
        0x00001f00:    1a000000    ....    BNE      0x1f08 ; GPIO_OpenBit + 108
        0x00001f04:    e1822001    . ..    ORR      r2,r2,r1
        0x00001f08:    e5802020      ..    STR      r2,[r0,#0x20]
        0x00001f0c:    e3a00000    ....    MOV      r0,#0
        0x00001f10:    e8bd8030    0...    POP      {r4,r5,pc}
    $d
        0x00001f14:    00064000    .@..    DCD    409600
        0x00001f18:    b8003000    .0..    DCD    3087020032
    $a
    i.GPIO_ReadBit
    GPIO_ReadBit
        0x00001f1c:    e59f201c    . ..    LDR      r2,[pc,#28] ; [0x1f40] = 0xb8003000
        0x00001f20:    e0800002    ....    ADD      r0,r0,r2
        0x00001f24:    e5900008    ....    LDR      r0,[r0,#8]
        0x00001f28:    e1100001    ....    TST      r0,r1
        0x00001f2c:    0a000001    ....    BEQ      0x1f38 ; GPIO_ReadBit + 28
        0x00001f30:    e3a00001    ....    MOV      r0,#1
        0x00001f34:    e12fff1e    ../.    BX       lr
        0x00001f38:    e3a00000    ....    MOV      r0,#0
        0x00001f3c:    e12fff1e    ../.    BX       lr
    $d
        0x00001f40:    b8003000    .0..    DCD    3087020032
    $a
    i.GPIO_Set
    GPIO_Set
        0x00001f44:    e59f2014    . ..    LDR      r2,[pc,#20] ; [0x1f60] = 0xb8003000
        0x00001f48:    e0800002    ....    ADD      r0,r0,r2
        0x00001f4c:    e5902004    . ..    LDR      r2,[r0,#4]
        0x00001f50:    e1811002    ....    ORR      r1,r1,r2
        0x00001f54:    e5801004    ....    STR      r1,[r0,#4]
        0x00001f58:    e3a00000    ....    MOV      r0,#0
        0x00001f5c:    e12fff1e    ../.    BX       lr
    $d
        0x00001f60:    b8003000    .0..    DCD    3087020032
    $a
    i.IIC_Init
    IIC_Init
        0x00001f64:    e92d4010    .@-.    PUSH     {r4,lr}
        0x00001f68:    e59f00d4    ....    LDR      r0,[pc,#212] ; [0x2044] = 0xb0000094
        0x00001f6c:    e3a02000    . ..    MOV      r2,#0
        0x00001f70:    e3a010ff    ....    MOV      r1,#0xff
        0x00001f74:    eb0002c1    ....    BL       REG_OPERATE ; 0x2a80
        0x00001f78:    e3a03001    .0..    MOV      r3,#1
        0x00001f7c:    e1a02003    . ..    MOV      r2,r3
        0x00001f80:    e3a01c02    ....    MOV      r1,#0x200
        0x00001f84:    e3a00c01    ....    MOV      r0,#0x100
        0x00001f88:    ebffffc3    ....    BL       GPIO_OpenBit ; 0x1e9c
        0x00001f8c:    e3a03001    .0..    MOV      r3,#1
        0x00001f90:    e3a01c01    ....    MOV      r1,#0x100
        0x00001f94:    e1a02003    . ..    MOV      r2,r3
        0x00001f98:    e1a00001    ....    MOV      r0,r1
        0x00001f9c:    ebffffbe    ....    BL       GPIO_OpenBit ; 0x1e9c
        0x00001fa0:    e3a01c02    ....    MOV      r1,#0x200
        0x00001fa4:    e3a00c01    ....    MOV      r0,#0x100
        0x00001fa8:    ebffffe5    ....    BL       GPIO_Set ; 0x1f44
        0x00001fac:    e3a01c01    ....    MOV      r1,#0x100
        0x00001fb0:    e1a00001    ....    MOV      r0,r1
        0x00001fb4:    ebffffe2    ....    BL       GPIO_Set ; 0x1f44
        0x00001fb8:    e59f0088    ....    LDR      r0,[pc,#136] ; [0x2048] = 0xb0000090
        0x00001fbc:    e3a02000    . ..    MOV      r2,#0
        0x00001fc0:    e3a0120f    ....    MOV      r1,#0xf0000000
        0x00001fc4:    eb0002ad    ....    BL       REG_OPERATE ; 0x2a80
        0x00001fc8:    e3a03001    .0..    MOV      r3,#1
        0x00001fcc:    e3a02000    . ..    MOV      r2,#0
        0x00001fd0:    e3a01080    ....    MOV      r1,#0x80
        0x00001fd4:    e3a00c01    ....    MOV      r0,#0x100
        0x00001fd8:    ebffffaf    ....    BL       GPIO_OpenBit ; 0x1e9c
        0x00001fdc:    e3a02004    . ..    MOV      r2,#4
        0x00001fe0:    e3a01080    ....    MOV      r1,#0x80
        0x00001fe4:    e3a00c01    ....    MOV      r0,#0x100
        0x00001fe8:    ebffff53    S...    BL       GPIO_EnableTriggerType ; 0x1d3c
        0x00001fec:    e59f1058    X...    LDR      r1,[pc,#88] ; [0x204c] = 0x1b9c
        0x00001ff0:    e3a02000    . ..    MOV      r2,#0
        0x00001ff4:    e3a00c01    ....    MOV      r0,#0x100
        0x00001ff8:    ebffff3b    ;...    BL       GPIO_EnableInt ; 0x1cec
        0x00001ffc:    e59f004c    L...    LDR      r0,[pc,#76] ; [0x2050] = 0xb000007c
        0x00002000:    e3a02000    . ..    MOV      r2,#0
        0x00002004:    e3a01a0f    ....    MOV      r1,#0xf000
        0x00002008:    eb00029c    ....    BL       REG_OPERATE ; 0x2a80
        0x0000200c:    e3a03001    .0..    MOV      r3,#1
        0x00002010:    e1a02003    . ..    MOV      r2,r3
        0x00002014:    e3a01b02    ....    MOV      r1,#0x800
        0x00002018:    e3a00040    @...    MOV      r0,#0x40
        0x0000201c:    ebffff9e    ....    BL       GPIO_OpenBit ; 0x1e9c
        0x00002020:    e3a01b02    ....    MOV      r1,#0x800
        0x00002024:    e3a00040    @...    MOV      r0,#0x40
        0x00002028:    ebffff21    !...    BL       GPIO_Clr ; 0x1cb4
        0x0000202c:    e3a00002    ....    MOV      r0,#2
        0x00002030:    eb0010b5    ....    BL       delay_ms ; 0x630c
        0x00002034:    e8bd4010    .@..    POP      {r4,lr}
        0x00002038:    e3a01b02    ....    MOV      r1,#0x800
        0x0000203c:    e3a00040    @...    MOV      r0,#0x40
        0x00002040:    eaffffbf    ....    B        GPIO_Set ; 0x1f44
    $d
        0x00002044:    b0000094    ....    DCD    2952790164
        0x00002048:    b0000090    ....    DCD    2952790160
        0x0000204c:    00001b9c    ....    DCD    7068
        0x00002050:    b000007c    |...    DCD    2952790140
    $a
    i.IL2117A_InitHard
    IL2117A_InitHard
        0x00002054:    e12fff1e    ../.    BX       lr
    i.LIN_HANDLE
    LIN_HANDLE
        0x00002058:    e92d403e    >@-.    PUSH     {r1-r5,lr}
        0x0000205c:    e1a01400    ....    LSL      r1,r0,#8
        0x00002060:    e281432e    .C..    ADD      r4,r1,#0xb8000000
        0x00002064:    e594101c    ....    LDR      r1,[r4,#0x1c]
        0x00002068:    e58d1008    ....    STR      r1,[sp,#8]
        0x0000206c:    e5941018    ....    LDR      r1,[r4,#0x18]
        0x00002070:    e58d1004    ....    STR      r1,[sp,#4]
        0x00002074:    e5941038    8...    LDR      r1,[r4,#0x38]
        0x00002078:    e58d1000    ....    STR      r1,[sp,#0]
        0x0000207c:    e59d1008    ....    LDR      r1,[sp,#8]
        0x00002080:    e3a05001    .P..    MOV      r5,#1
        0x00002084:    e3110902    ....    TST      r1,#0x8000
        0x00002088:    0a000009    ....    BEQ      0x20b4 ; LIN_HANDLE + 92
        0x0000208c:    e59d1000    ....    LDR      r1,[sp,#0]
        0x00002090:    e3110001    ....    TST      r1,#1
        0x00002094:    0a000000    ....    BEQ      0x209c ; LIN_HANDLE + 68
        0x00002098:    e5845038    8P..    STR      r5,[r4,#0x38]
        0x0000209c:    e59d1000    ....    LDR      r1,[sp,#0]
        0x000020a0:    e311000e    ....    TST      r1,#0xe
        0x000020a4:    0a000002    ....    BEQ      0x20b4 ; LIN_HANDLE + 92
        0x000020a8:    e3a0100e    ....    MOV      r1,#0xe
        0x000020ac:    e58d1000    ....    STR      r1,[sp,#0]
        0x000020b0:    e5841038    8...    STR      r1,[r4,#0x38]
        0x000020b4:    e59d1008    ....    LDR      r1,[sp,#8]
        0x000020b8:    e3110011    ....    TST      r1,#0x11
        0x000020bc:    0a000000    ....    BEQ      0x20c4 ; LIN_HANDLE + 108
        0x000020c0:    eb000e20     ...    BL       _uartReceiveChars ; 0x5948
        0x000020c4:    e59d0008    ....    LDR      r0,[sp,#8]
        0x000020c8:    e3100004    ....    TST      r0,#4
        0x000020cc:    0a000006    ....    BEQ      0x20ec ; LIN_HANDLE + 148
        0x000020d0:    e5940018    ....    LDR      r0,[r4,#0x18]
        0x000020d4:    e58d0004    ....    STR      r0,[sp,#4]
        0x000020d8:    e59d0004    ....    LDR      r0,[sp,#4]
        0x000020dc:    e3100040    @...    TST      r0,#0x40
        0x000020e0:    0a000001    ....    BEQ      0x20ec ; LIN_HANDLE + 148
        0x000020e4:    e59f0004    ....    LDR      r0,[pc,#4] ; [0x20f0] = 0xa56c
        0x000020e8:    e5c05001    .P..    STRB     r5,[r0,#1]
        0x000020ec:    e8bd803e    >...    POP      {r1-r5,pc}
    $d
        0x000020f0:    0000a56c    l...    DCD    42348
    $a
    i.NANDFLASH_P3PD_INX_SAVE
    NANDFLASH_P3PD_INX_SAVE
        0x000020f4:    e92d4010    .@-.    PUSH     {r4,lr}
        0x000020f8:    eb0000cd    ....    BL       NANDFLASH_backup_checksum ; 0x2434
        0x000020fc:    e3a00000    ....    MOV      r0,#0
        0x00002100:    eb0000d6    ....    BL       NAND_EraseBlock ; 0x2460
        0x00002104:    e3a01000    ....    MOV      r1,#0
        0x00002108:    e59f2014    . ..    LDR      r2,[pc,#20] ; [0x2124] = 0x1d55c
        0x0000210c:    e3a03f55    U?..    MOV      r3,#0x154
        0x00002110:    e1a00001    ....    MOV      r0,r1
        0x00002114:    eb0001e1    ....    BL       NAND_WritePage ; 0x28a0
        0x00002118:    e8bd4010    .@..    POP      {r4,lr}
        0x0000211c:    e3a00006    ....    MOV      r0,#6
        0x00002120:    ea000b12    ....    B        W25Q128_Write ; 0x4d70
    $d
        0x00002124:    0001d55c    \...    DCD    120156
    $a
    i.NANDFLASH_TO_SDRAM
    NANDFLASH_TO_SDRAM
        0x00002128:    e92d4ff7    .O-.    PUSH     {r0-r2,r4-r11,lr}
        0x0000212c:    e24dd010    ..M.    SUB      sp,sp,#0x10
        0x00002130:    e1a0a001    ....    MOV      r10,r1
        0x00002134:    e3a06000    .`..    MOV      r6,#0
        0x00002138:    e3a05000    .P..    MOV      r5,#0
        0x0000213c:    e1a0132a    *...    LSR      r1,r10,#6
        0x00002140:    e28f0f6d    m...    ADR      r0,{pc}+0x1bc ; 0x22fc
        0x00002144:    eb001a1f    ....    BL       sysprintf ; 0x89c8
        0x00002148:    e3a0b000    ....    MOV      r11,#0
        0x0000214c:    e58db000    ....    STR      r11,[sp,#0]
        0x00002150:    e31a003f    ?...    TST      r10,#0x3f
        0x00002154:    0a000002    ....    BEQ      0x2164 ; NANDFLASH_TO_SDRAM + 60
        0x00002158:    e3a00000    ....    MOV      r0,#0
        0x0000215c:    e28dd01c    ....    ADD      sp,sp,#0x1c
        0x00002160:    e8bd8ff0    ....    POP      {r4-r11,pc}
        0x00002164:    e59d0018    ....    LDR      r0,[sp,#0x18]
        0x00002168:    e3500b01    ..P.    CMP      r0,#0x400
        0x0000216c:    9a000001    ....    BLS      0x2178 ; NANDFLASH_TO_SDRAM + 80
        0x00002170:    e3a00000    ....    MOV      r0,#0
        0x00002174:    eafffff8    ....    B        0x215c ; NANDFLASH_TO_SDRAM + 52
        0x00002178:    e59f8190    ....    LDR      r8,[pc,#400] ; [0x2310] = 0x1e8a0
        0x0000217c:    ea000052    R...    B        0x22cc ; NANDFLASH_TO_SDRAM + 420
        0x00002180:    e58db004    ....    STR      r11,[sp,#4]
        0x00002184:    e58db008    ....    STR      r11,[sp,#8]
        0x00002188:    e08a9006    ....    ADD      r9,r10,r6
        0x0000218c:    e58d900c    ....    STR      r9,[sp,#0xc]
        0x00002190:    e59f417c    |A..    LDR      r4,[pc,#380] ; [0x2314] = 0xa05c
        0x00002194:    e59d000c    ....    LDR      r0,[sp,#0xc]
        0x00002198:    e5942024    $ ..    LDR      r2,[r4,#0x24]
        0x0000219c:    e3a03b02    .;..    MOV      r3,#0x800
        0x000021a0:    e3a01000    ....    MOV      r1,#0
        0x000021a4:    eb000130    0...    BL       NAND_ReadPage ; 0x266c
        0x000021a8:    e3a00000    ....    MOV      r0,#0
        0x000021ac:    e59d1010    ....    LDR      r1,[sp,#0x10]
        0x000021b0:    e0811586    ....    ADD      r1,r1,r6,LSL #11
        0x000021b4:    e5942024    $ ..    LDR      r2,[r4,#0x24]
        0x000021b8:    e7d22000    . ..    LDRB     r2,[r2,r0]
        0x000021bc:    e7c12000    . ..    STRB     r2,[r1,r0]
        0x000021c0:    e2800001    ....    ADD      r0,r0,#1
        0x000021c4:    e3c00801    ....    BIC      r0,r0,#0x10000
        0x000021c8:    e3500b02    ..P.    CMP      r0,#0x800
        0x000021cc:    3afffff8    ...:    BCC      0x21b4 ; NANDFLASH_TO_SDRAM + 140
        0x000021d0:    e3a00000    ....    MOV      r0,#0
        0x000021d4:    e5941024    $...    LDR      r1,[r4,#0x24]
        0x000021d8:    e59d2000    . ..    LDR      r2,[sp,#0]
        0x000021dc:    e7d13000    .0..    LDRB     r3,[r1,r0]
        0x000021e0:    e0827003    .p..    ADD      r7,r2,r3
        0x000021e4:    e58d7000    .p..    STR      r7,[sp,#0]
        0x000021e8:    e2800001    ....    ADD      r0,r0,#1
        0x000021ec:    e3500b02    ..P.    CMP      r0,#0x800
        0x000021f0:    3afffff8    ...:    BCC      0x21d8 ; NANDFLASH_TO_SDRAM + 176
        0x000021f4:    e3a0003f    ?...    MOV      r0,#0x3f
        0x000021f8:    e1d00006    ....    BICS     r0,r0,r6
        0x000021fc:    1a000031    1...    BNE      0x22c8 ; NANDFLASH_TO_SDRAM + 416
        0x00002200:    e3a04000    .@..    MOV      r4,#0
        0x00002204:    e249903f    ?.I.    SUB      r9,r9,#0x3f
        0x00002208:    e59f0108    ....    LDR      r0,[pc,#264] ; [0x2318] = 0x9eac
        0x0000220c:    e7900104    ....    LDR      r0,[r0,r4,LSL #2]
        0x00002210:    e1590000    ..Y.    CMP      r9,r0
        0x00002214:    1a000027    '...    BNE      0x22b8 ; NANDFLASH_TO_SDRAM + 400
        0x00002218:    e7980104    ....    LDR      r0,[r8,r4,LSL #2]
        0x0000221c:    e1500007    ..P.    CMP      r0,r7
        0x00002220:    0a000024    $...    BEQ      0x22b8 ; NANDFLASH_TO_SDRAM + 400
        0x00002224:    e3540006    ..T.    CMP      r4,#6
        0x00002228:    308ff104    ...0    ADDCC    pc,pc,r4,LSL #2
        0x0000222c:    ea00001c    ....    B        0x22a4 ; NANDFLASH_TO_SDRAM + 380
        0x00002230:    ea000018    ....    B        0x2298 ; NANDFLASH_TO_SDRAM + 368
        0x00002234:    ea000013    ....    B        0x2288 ; NANDFLASH_TO_SDRAM + 352
        0x00002238:    ea00000e    ....    B        0x2278 ; NANDFLASH_TO_SDRAM + 336
        0x0000223c:    ea000009    ....    B        0x2268 ; NANDFLASH_TO_SDRAM + 320
        0x00002240:    ea000004    ....    B        0x2258 ; NANDFLASH_TO_SDRAM + 304
        0x00002244:    eaffffff    ....    B        0x2248 ; NANDFLASH_TO_SDRAM + 288
        0x00002248:    e3a00005    ....    MOV      r0,#5
        0x0000224c:    eb000a68    h...    BL       W25Q128_Read ; 0x4bf4
        0x00002250:    eb000ef8    ....    BL       basedata_ram_to_sdram ; 0x5e38
        0x00002254:    ea000012    ....    B        0x22a4 ; NANDFLASH_TO_SDRAM + 380
        0x00002258:    e3a00004    ....    MOV      r0,#4
        0x0000225c:    eb000a64    d...    BL       W25Q128_Read ; 0x4bf4
        0x00002260:    eb001e2f    /...    BL       unit_ram_to_sdram ; 0x9b24
        0x00002264:    ea00000e    ....    B        0x22a4 ; NANDFLASH_TO_SDRAM + 380
        0x00002268:    e3a00003    ....    MOV      r0,#3
        0x0000226c:    eb000a60    `...    BL       W25Q128_Read ; 0x4bf4
        0x00002270:    e3a05001    .P..    MOV      r5,#1
        0x00002274:    ea00000a    ....    B        0x22a4 ; NANDFLASH_TO_SDRAM + 380
        0x00002278:    e3a00002    ....    MOV      r0,#2
        0x0000227c:    eb000a5c    \...    BL       W25Q128_Read ; 0x4bf4
        0x00002280:    e3a05001    .P..    MOV      r5,#1
        0x00002284:    ea000006    ....    B        0x22a4 ; NANDFLASH_TO_SDRAM + 380
        0x00002288:    e3a00001    ....    MOV      r0,#1
        0x0000228c:    eb000a58    X...    BL       W25Q128_Read ; 0x4bf4
        0x00002290:    e3a05001    .P..    MOV      r5,#1
        0x00002294:    ea000002    ....    B        0x22a4 ; NANDFLASH_TO_SDRAM + 380
        0x00002298:    e3a00000    ....    MOV      r0,#0
        0x0000229c:    eb000a54    T...    BL       W25Q128_Read ; 0x4bf4
        0x000022a0:    e3a05001    .P..    MOV      r5,#1
        0x000022a4:    e7982104    .!..    LDR      r2,[r8,r4,LSL #2]
        0x000022a8:    e1a03007    .0..    MOV      r3,r7
        0x000022ac:    e1a01004    ....    MOV      r1,r4
        0x000022b0:    e28f0064    d...    ADR      r0,{pc}+0x6c ; 0x231c
        0x000022b4:    eb0019c3    ....    BL       sysprintf ; 0x89c8
        0x000022b8:    e2844001    .@..    ADD      r4,r4,#1
        0x000022bc:    e3540006    ..T.    CMP      r4,#6
        0x000022c0:    3affffd0    ...:    BCC      0x2208 ; NANDFLASH_TO_SDRAM + 224
        0x000022c4:    e58db000    ....    STR      r11,[sp,#0]
        0x000022c8:    e2866001    .`..    ADD      r6,r6,#1
        0x000022cc:    e59d0018    ....    LDR      r0,[sp,#0x18]
        0x000022d0:    e1560300    ..V.    CMP      r6,r0,LSL #6
        0x000022d4:    3affffa9    ...:    BCC      0x2180 ; NANDFLASH_TO_SDRAM + 88
        0x000022d8:    e3550001    ..U.    CMP      r5,#1
        0x000022dc:    1a000004    ....    BNE      0x22f4 ; NANDFLASH_TO_SDRAM + 460
        0x000022e0:    e59f0054    T...    LDR      r0,[pc,#84] ; [0x233c] = 0xcfc0
        0x000022e4:    e59f1054    T...    LDR      r1,[pc,#84] ; [0x2340] = 0x17e40
        0x000022e8:    e5900014    ....    LDR      r0,[r0,#0x14]
        0x000022ec:    e3a02004    . ..    MOV      r2,#4
        0x000022f0:    eb00073a    :...    BL       SDRAM_TO_NANDFLASH ; 0x3fe0
        0x000022f4:    e3a00001    ....    MOV      r0,#1
        0x000022f8:    eaffff97    ....    B        0x215c ; NANDFLASH_TO_SDRAM + 52
    $d
        0x000022fc:    444e414e    NAND    DCD    1145979214
        0x00002300:    204f5420     TO     DCD    542069792
        0x00002304:    3d524444    DDR=    DCD    1028801604
        0x00002308:    58255830    0X%X    DCD    1478842416
        0x0000230c:    00000a0d    ....    DCD    2573
        0x00002310:    0001e8a0    ....    DCD    125088
        0x00002314:    0000a05c    \...    DCD    41052
        0x00002318:    00009eac    ....    DCD    40620
        0x0000231c:    43454843    CHEC    DCD    1128613955
        0x00002320:    4d55534b    KSUM    DCD    1297437515
        0x00002324:    52524520     ERR    DCD    1381123360
        0x00002328:    2c58253d    =%X,    DCD    743974205
        0x0000232c:    64616572    read    DCD    1684104562
        0x00002330:    3d215825    %X!=    DCD    1025595429
        0x00002334:    256c6163    cal%    DCD    627859811
        0x00002338:    000a0d58    X...    DCD    658776
        0x0000233c:    0000cfc0    ....    DCD    53184
        0x00002340:    00017e40    @~..    DCD    97856
    $a
    i.NANDFLASH_TO_SDRAM_RANDOM
    NANDFLASH_TO_SDRAM_RANDOM
        0x00002344:    e92d4ffe    .O-.    PUSH     {r1-r11,lr}
        0x00002348:    e1a08000    ....    MOV      r8,r0
        0x0000234c:    e1a0a001    ....    MOV      r10,r1
        0x00002350:    e1a06002    .`..    MOV      r6,r2
        0x00002354:    e1a0b003    ....    MOV      r11,r3
        0x00002358:    e156058b    ..V.    CMP      r6,r11,LSL #11
        0x0000235c:    9a000003    ....    BLS      0x2370 ; NANDFLASH_TO_SDRAM_RANDOM + 44
        0x00002360:    e28f00bc    ....    ADR      r0,{pc}+0xc4 ; 0x2424
        0x00002364:    eb001997    ....    BL       sysprintf ; 0x89c8
        0x00002368:    e3a00000    ....    MOV      r0,#0
        0x0000236c:    e8bd8ffe    ....    POP      {r1-r11,pc}
        0x00002370:    e1b00a86    ....    LSLS     r0,r6,#21
        0x00002374:    0a000005    ....    BEQ      0x2390 ; NANDFLASH_TO_SDRAM_RANDOM + 76
        0x00002378:    e3a00001    ....    MOV      r0,#1
        0x0000237c:    e08075a6    .u..    ADD      r7,r0,r6,LSR #11
        0x00002380:    e1a0500a    .P..    MOV      r5,r10
        0x00002384:    e3a04000    .@..    MOV      r4,#0
        0x00002388:    e59f90a0    ....    LDR      r9,[pc,#160] ; [0x2430] = 0xa080
        0x0000238c:    ea000020     ...    B        0x2414 ; NANDFLASH_TO_SDRAM_RANDOM + 208
        0x00002390:    e1a075a6    .u..    LSR      r7,r6,#11
        0x00002394:    eafffff9    ....    B        0x2380 ; NANDFLASH_TO_SDRAM_RANDOM + 60
        0x00002398:    e3a00000    ....    MOV      r0,#0
        0x0000239c:    e58d0000    ....    STR      r0,[sp,#0]
        0x000023a0:    e58d0004    ....    STR      r0,[sp,#4]
        0x000023a4:    e58d5008    .P..    STR      r5,[sp,#8]
        0x000023a8:    e59d0008    ....    LDR      r0,[sp,#8]
        0x000023ac:    e5992000    . ..    LDR      r2,[r9,#0]
        0x000023b0:    e3a03b02    .;..    MOV      r3,#0x800
        0x000023b4:    e3a01000    ....    MOV      r1,#0
        0x000023b8:    eb0000ab    ....    BL       NAND_ReadPage ; 0x266c
        0x000023bc:    e2470001    ..G.    SUB      r0,r7,#1
        0x000023c0:    e1540000    ..T.    CMP      r4,r0
        0x000023c4:    2a000004    ...*    BCS      0x23dc ; NANDFLASH_TO_SDRAM_RANDOM + 152
        0x000023c8:    e5991000    ....    LDR      r1,[r9,#0]
        0x000023cc:    e3a02b02    .+..    MOV      r2,#0x800
        0x000023d0:    e1a00008    ....    MOV      r0,r8
        0x000023d4:    ebfff8de    ....    BL       __aeabi_memcpy ; 0x754
        0x000023d8:    ea000004    ....    B        0x23f0 ; NANDFLASH_TO_SDRAM_RANDOM + 172
        0x000023dc:    e2640000    ..d.    RSB      r0,r4,#0
        0x000023e0:    e0862580    .%..    ADD      r2,r6,r0,LSL #11
        0x000023e4:    e5991000    ....    LDR      r1,[r9,#0]
        0x000023e8:    e1a00008    ....    MOV      r0,r8
        0x000023ec:    ebfff8d8    ....    BL       __aeabi_memcpy ; 0x754
        0x000023f0:    e2855001    .P..    ADD      r5,r5,#1
        0x000023f4:    e59d0008    ....    LDR      r0,[sp,#8]
        0x000023f8:    e08a100b    ....    ADD      r1,r10,r11
        0x000023fc:    e1500001    ..P.    CMP      r0,r1
        0x00002400:    3a000001    ...:    BCC      0x240c ; NANDFLASH_TO_SDRAM_RANDOM + 200
        0x00002404:    e3a00000    ....    MOV      r0,#0
        0x00002408:    e8bd8ffe    ....    POP      {r1-r11,pc}
        0x0000240c:    e2888b02    ....    ADD      r8,r8,#0x800
        0x00002410:    e2844001    .@..    ADD      r4,r4,#1
        0x00002414:    e1540007    ..T.    CMP      r4,r7
        0x00002418:    3affffde    ...:    BCC      0x2398 ; NANDFLASH_TO_SDRAM_RANDOM + 84
        0x0000241c:    e3a00001    ....    MOV      r0,#1
        0x00002420:    e8bd8ffe    ....    POP      {r1-r11,pc}
    $d
        0x00002424:    45525245    ERRE    DCD    1163022917
        0x00002428:    0d315252    RR1.    DCD    221336146
        0x0000242c:    0000000a    ....    DCD    10
        0x00002430:    0000a080    ....    DCD    41088
    $a
    i.NANDFLASH_backup_checksum
    NANDFLASH_backup_checksum
        0x00002434:    e3a01000    ....    MOV      r1,#0
        0x00002438:    e3a00000    ....    MOV      r0,#0
        0x0000243c:    e59f2018    . ..    LDR      r2,[pc,#24] ; [0x245c] = 0x1d55c
        0x00002440:    e7d23000    .0..    LDRB     r3,[r2,r0]
        0x00002444:    e0811003    ....    ADD      r1,r1,r3
        0x00002448:    e2800001    ....    ADD      r0,r0,#1
        0x0000244c:    e3500e15    ..P.    CMP      r0,#0x150
        0x00002450:    3afffffa    ...:    BCC      0x2440 ; NANDFLASH_backup_checksum + 12
        0x00002454:    e5821150    P...    STR      r1,[r2,#0x150]
        0x00002458:    e12fff1e    ../.    BX       lr
    $d
        0x0000245c:    0001d55c    \...    DCD    120156
    $a
    i.NAND_EraseBlock
    NAND_EraseBlock
        0x00002460:    e92d4010    .@-.    PUSH     {r4,lr}
        0x00002464:    e1a00800    ....    LSL      r0,r0,#16
        0x00002468:    e1a00820     ...    LSR      r0,r0,#16
        0x0000246c:    ebfffad3    ....    BL       BAD_BLOCK_CHANGE ; 0xfc0
        0x00002470:    e1a00300    ....    LSL      r0,r0,#6
        0x00002474:    e59f208c    . ..    LDR      r2,[pc,#140] ; [0x2508] = 0xb000d8b0
        0x00002478:    e3a01060    `...    MOV      r1,#0x60
        0x0000247c:    e5821000    ....    STR      r1,[r2,#0]
        0x00002480:    e2821004    ....    ADD      r1,r2,#4
        0x00002484:    e5913000    .0..    LDR      r3,[r1,#0]
        0x00002488:    e200c0ff    ....    AND      r12,r0,#0xff
        0x0000248c:    e3c33102    .1..    BIC      r3,r3,#0x80000000
        0x00002490:    e3c330ff    .0..    BIC      r3,r3,#0xff
        0x00002494:    e183300c    .0..    ORR      r3,r3,r12
        0x00002498:    e5813000    .0..    STR      r3,[r1,#0]
        0x0000249c:    e5913000    .0..    LDR      r3,[r1,#0]
        0x000024a0:    e1a0c800    ....    LSL      r12,r0,#16
        0x000024a4:    e3c33102    .1..    BIC      r3,r3,#0x80000000
        0x000024a8:    e3c330ff    .0..    BIC      r3,r3,#0xff
        0x000024ac:    e1833c2c    ,<..    ORR      r3,r3,r12,LSR #24
        0x000024b0:    e5813000    .0..    STR      r3,[r1,#0]
        0x000024b4:    e5913000    .0..    LDR      r3,[r1,#0]
        0x000024b8:    e3c3c102    ....    BIC      r12,r3,#0x80000000
        0x000024bc:    e3ccc0ff    ....    BIC      r12,r12,#0xff
        0x000024c0:    e18c3820     8..    ORR      r3,r12,r0,LSR #16
        0x000024c4:    e5813000    .0..    STR      r3,[r1,#0]
        0x000024c8:    e3a03102    .1..    MOV      r3,#0x80000000
        0x000024cc:    e1830c20     ...    ORR      r0,r3,r0,LSR #24
        0x000024d0:    e5810000    ....    STR      r0,[r1,#0]
        0x000024d4:    e3a000d0    ....    MOV      r0,#0xd0
        0x000024d8:    e5820000    ....    STR      r0,[r2,#0]
        0x000024dc:    eb000027    '...    BL       NAND_GetStatus ; 0x2580
        0x000024e0:    e3500040    @.P.    CMP      r0,#0x40
        0x000024e4:    0a000005    ....    BEQ      0x2500 ; NAND_EraseBlock + 160
        0x000024e8:    e59f001c    ....    LDR      r0,[pc,#28] ; [0x250c] = 0xa074
        0x000024ec:    e5901000    ....    LDR      r1,[r0,#0]
        0x000024f0:    e3811102    ....    ORR      r1,r1,#0x80000000
        0x000024f4:    e5801000    ....    STR      r1,[r0,#0]
        0x000024f8:    e3a00001    ....    MOV      r0,#1
        0x000024fc:    e8bd8010    ....    POP      {r4,pc}
        0x00002500:    e3a00000    ....    MOV      r0,#0
        0x00002504:    e8bd8010    ....    POP      {r4,pc}
    $d
        0x00002508:    b000d8b0    ....    DCD    2952845488
        0x0000250c:    0000a074    t...    DCD    41076
    $a
    i.NAND_GetBusy
    NAND_GetBusy
        0x00002510:    e92d4008    .@-.    PUSH     {r3,lr}
        0x00002514:    e3a00000    ....    MOV      r0,#0
        0x00002518:    e3a01000    ....    MOV      r1,#0
        0x0000251c:    e58d1000    ....    STR      r1,[sp,#0]
        0x00002520:    e59f2054    T ..    LDR      r2,[pc,#84] ; [0x257c] = 0x1ffff
        0x00002524:    ea000008    ....    B        0x254c ; NAND_GetBusy + 60
        0x00002528:    eb0000b9    ....    BL       NAND_ReadStatus ; 0x2814
        0x0000252c:    e3100040    @...    TST      r0,#0x40
        0x00002530:    0a000001    ....    BEQ      0x253c ; NAND_GetBusy + 44
        0x00002534:    e3a00040    @...    MOV      r0,#0x40
        0x00002538:    ea000000    ....    B        0x2540 ; NAND_GetBusy + 48
        0x0000253c:    e3a00000    ....    MOV      r0,#0
        0x00002540:    e59d1000    ....    LDR      r1,[sp,#0]
        0x00002544:    e2811001    ....    ADD      r1,r1,#1
        0x00002548:    e58d1000    ....    STR      r1,[sp,#0]
        0x0000254c:    e3500040    @.P.    CMP      r0,#0x40
        0x00002550:    0a000002    ....    BEQ      0x2560 ; NAND_GetBusy + 80
        0x00002554:    e59d0000    ....    LDR      r0,[sp,#0]
        0x00002558:    e1500002    ..P.    CMP      r0,r2
        0x0000255c:    3afffff1    ...:    BCC      0x2528 ; NAND_GetBusy + 24
        0x00002560:    e59d0000    ....    LDR      r0,[sp,#0]
        0x00002564:    e1500002    ..P.    CMP      r0,r2
        0x00002568:    3a000001    ...:    BCC      0x2574 ; NAND_GetBusy + 100
        0x0000256c:    e3a00002    ....    MOV      r0,#2
        0x00002570:    e8bd8008    ....    POP      {r3,pc}
        0x00002574:    e3a00040    @...    MOV      r0,#0x40
        0x00002578:    e8bd8008    ....    POP      {r3,pc}
    $d
        0x0000257c:    0001ffff    ....    DCD    131071
    $a
    i.NAND_GetStatus
    NAND_GetStatus
        0x00002580:    e92d4008    .@-.    PUSH     {r3,lr}
        0x00002584:    e3a00000    ....    MOV      r0,#0
        0x00002588:    e3a01000    ....    MOV      r1,#0
        0x0000258c:    e58d1000    ....    STR      r1,[sp,#0]
        0x00002590:    e59f2064    d ..    LDR      r2,[pc,#100] ; [0x25fc] = 0x1ffff
        0x00002594:    ea00000c    ....    B        0x25cc ; NAND_GetStatus + 76
        0x00002598:    eb00009d    ....    BL       NAND_ReadStatus ; 0x2814
        0x0000259c:    e3100001    ....    TST      r0,#1
        0x000025a0:    0a000001    ....    BEQ      0x25ac ; NAND_GetStatus + 44
        0x000025a4:    e3a00001    ....    MOV      r0,#1
        0x000025a8:    ea000004    ....    B        0x25c0 ; NAND_GetStatus + 64
        0x000025ac:    e3100040    @...    TST      r0,#0x40
        0x000025b0:    0a000001    ....    BEQ      0x25bc ; NAND_GetStatus + 60
        0x000025b4:    e3a00040    @...    MOV      r0,#0x40
        0x000025b8:    ea000000    ....    B        0x25c0 ; NAND_GetStatus + 64
        0x000025bc:    e3a00000    ....    MOV      r0,#0
        0x000025c0:    e59d1000    ....    LDR      r1,[sp,#0]
        0x000025c4:    e2811001    ....    ADD      r1,r1,#1
        0x000025c8:    e58d1000    ....    STR      r1,[sp,#0]
        0x000025cc:    e3500040    @.P.    CMP      r0,#0x40
        0x000025d0:    0a000002    ....    BEQ      0x25e0 ; NAND_GetStatus + 96
        0x000025d4:    e59d0000    ....    LDR      r0,[sp,#0]
        0x000025d8:    e1500002    ..P.    CMP      r0,r2
        0x000025dc:    3affffed    ...:    BCC      0x2598 ; NAND_GetStatus + 24
        0x000025e0:    e59d0000    ....    LDR      r0,[sp,#0]
        0x000025e4:    e1500002    ..P.    CMP      r0,r2
        0x000025e8:    3a000001    ...:    BCC      0x25f4 ; NAND_GetStatus + 116
        0x000025ec:    e3a00002    ....    MOV      r0,#2
        0x000025f0:    e8bd8008    ....    POP      {r3,pc}
        0x000025f4:    e3a00040    @...    MOV      r0,#0x40
        0x000025f8:    e8bd8008    ....    POP      {r3,pc}
    $d
        0x000025fc:    0001ffff    ....    DCD    131071
    $a
    i.NAND_ReadID
    NAND_ReadID
        0x00002600:    e59f0058    X...    LDR      r0,[pc,#88] ; [0x2660] = 0xb000d8b0
        0x00002604:    e5901000    ....    LDR      r1,[r0,#0]
        0x00002608:    e3c110ff    ....    BIC      r1,r1,#0xff
        0x0000260c:    e3811090    ....    ORR      r1,r1,#0x90
        0x00002610:    e5801000    ....    STR      r1,[r0,#0]
        0x00002614:    e2800004    ....    ADD      r0,r0,#4
        0x00002618:    e5901000    ....    LDR      r1,[r0,#0]
        0x0000261c:    e3c110ff    ....    BIC      r1,r1,#0xff
        0x00002620:    e3811102    ....    ORR      r1,r1,#0x80000000
        0x00002624:    e5801000    ....    STR      r1,[r0,#0]
        0x00002628:    e2800004    ....    ADD      r0,r0,#4
        0x0000262c:    e5902000    . ..    LDR      r2,[r0,#0]
        0x00002630:    e59f102c    ,...    LDR      r1,[pc,#44] ; [0x2664] = 0xa02c
        0x00002634:    e5c12000    . ..    STRB     r2,[r1,#0]
        0x00002638:    e5902000    . ..    LDR      r2,[r0,#0]
        0x0000263c:    e5c12001    . ..    STRB     r2,[r1,#1]
        0x00002640:    e5902000    . ..    LDR      r2,[r0,#0]
        0x00002644:    e5c12002    . ..    STRB     r2,[r1,#2]
        0x00002648:    e5902000    . ..    LDR      r2,[r0,#0]
        0x0000264c:    e5c12003    . ..    STRB     r2,[r1,#3]
        0x00002650:    e5900000    ....    LDR      r0,[r0,#0]
        0x00002654:    e5c10004    ....    STRB     r0,[r1,#4]
        0x00002658:    e59f0008    ....    LDR      r0,[pc,#8] ; [0x2668] = 0x5555
        0x0000265c:    e12fff1e    ../.    BX       lr
    $d
        0x00002660:    b000d8b0    ....    DCD    2952845488
        0x00002664:    0000a02c    ,...    DCD    41004
        0x00002668:    00005555    UU..    DCD    21845
    $a
    i.NAND_ReadPage
    NAND_ReadPage
        0x0000266c:    e92d41f0    .A-.    PUSH     {r4-r8,lr}
        0x00002670:    e1a04000    .@..    MOV      r4,r0
        0x00002674:    e1a08001    ....    MOV      r8,r1
        0x00002678:    e1a05002    .P..    MOV      r5,r2
        0x0000267c:    e1a07003    .p..    MOV      r7,r3
        0x00002680:    e3a06000    .`..    MOV      r6,#0
        0x00002684:    e1a00504    ....    LSL      r0,r4,#10
        0x00002688:    e1a00820     ...    LSR      r0,r0,#16
        0x0000268c:    ebfffa4b    K...    BL       BAD_BLOCK_CHANGE ; 0xfc0
        0x00002690:    e204103f    ?...    AND      r1,r4,#0x3f
        0x00002694:    e0814300    .C..    ADD      r4,r1,r0,LSL #6
        0x00002698:    e59f0124    $...    LDR      r0,[pc,#292] ; [0x27c4] = 0xb000d8b0
        0x0000269c:    e5901000    ....    LDR      r1,[r0,#0]
        0x000026a0:    e3c110ff    ....    BIC      r1,r1,#0xff
        0x000026a4:    e5801000    ....    STR      r1,[r0,#0]
        0x000026a8:    e280c004    ....    ADD      r12,r0,#4
        0x000026ac:    e59c1000    ....    LDR      r1,[r12,#0]
        0x000026b0:    e20820ff    . ..    AND      r2,r8,#0xff
        0x000026b4:    e3c11102    ....    BIC      r1,r1,#0x80000000
        0x000026b8:    e3c110ff    ....    BIC      r1,r1,#0xff
        0x000026bc:    e1811002    ....    ORR      r1,r1,r2
        0x000026c0:    e58c1000    ....    STR      r1,[r12,#0]
        0x000026c4:    e59c1000    ....    LDR      r1,[r12,#0]
        0x000026c8:    e3c11102    ....    BIC      r1,r1,#0x80000000
        0x000026cc:    e3c110ff    ....    BIC      r1,r1,#0xff
        0x000026d0:    e1811428    (...    ORR      r1,r1,r8,LSR #8
        0x000026d4:    e58c1000    ....    STR      r1,[r12,#0]
        0x000026d8:    e59c1000    ....    LDR      r1,[r12,#0]
        0x000026dc:    e20420ff    . ..    AND      r2,r4,#0xff
        0x000026e0:    e3c11102    ....    BIC      r1,r1,#0x80000000
        0x000026e4:    e3c110ff    ....    BIC      r1,r1,#0xff
        0x000026e8:    e1811002    ....    ORR      r1,r1,r2
        0x000026ec:    e58c1000    ....    STR      r1,[r12,#0]
        0x000026f0:    e59c1000    ....    LDR      r1,[r12,#0]
        0x000026f4:    e1a02804    .(..    LSL      r2,r4,#16
        0x000026f8:    e3c11102    ....    BIC      r1,r1,#0x80000000
        0x000026fc:    e3c110ff    ....    BIC      r1,r1,#0xff
        0x00002700:    e1811c22    "...    ORR      r1,r1,r2,LSR #24
        0x00002704:    e58c1000    ....    STR      r1,[r12,#0]
        0x00002708:    e59c1000    ....    LDR      r1,[r12,#0]
        0x0000270c:    e3c12102    .!..    BIC      r2,r1,#0x80000000
        0x00002710:    e3c220ff    . ..    BIC      r2,r2,#0xff
        0x00002714:    e1821824    $...    ORR      r1,r2,r4,LSR #16
        0x00002718:    e58c1000    ....    STR      r1,[r12,#0]
        0x0000271c:    e59c1000    ....    LDR      r1,[r12,#0]
        0x00002720:    e3c110ff    ....    BIC      r1,r1,#0xff
        0x00002724:    e1811c24    $...    ORR      r1,r1,r4,LSR #24
        0x00002728:    e3811102    ....    ORR      r1,r1,#0x80000000
        0x0000272c:    e58c1000    ....    STR      r1,[r12,#0]
        0x00002730:    e5901000    ....    LDR      r1,[r0,#0]
        0x00002734:    e3c110ff    ....    BIC      r1,r1,#0xff
        0x00002738:    e3811030    0...    ORR      r1,r1,#0x30
        0x0000273c:    e5801000    ....    STR      r1,[r0,#0]
        0x00002740:    e3a00000    ....    MOV      r0,#0
        0x00002744:    eb000040    @...    BL       NAND_WaitRB ; 0x284c
        0x00002748:    e3500000    ..P.    CMP      r0,#0
        0x0000274c:    0a000003    ....    BEQ      0x2760 ; NAND_ReadPage + 244
        0x00002750:    e28f0070    p...    ADR      r0,{pc}+0x78 ; 0x27c8
        0x00002754:    eb00189b    ....    BL       sysprintf ; 0x89c8
        0x00002758:    e3a00002    ....    MOV      r0,#2
        0x0000275c:    e8bd81f0    ....    POP      {r4-r8,pc}
        0x00002760:    e3a00001    ....    MOV      r0,#1
        0x00002764:    eb000038    8...    BL       NAND_WaitRB ; 0x284c
        0x00002768:    e3500000    ..P.    CMP      r0,#0
        0x0000276c:    0a000003    ....    BEQ      0x2780 ; NAND_ReadPage + 276
        0x00002770:    e28f0068    h...    ADR      r0,{pc}+0x70 ; 0x27e0
        0x00002774:    eb001893    ....    BL       sysprintf ; 0x89c8
        0x00002778:    e3a00002    ....    MOV      r0,#2
        0x0000277c:    e8bd81f0    ....    POP      {r4-r8,pc}
        0x00002780:    e3a01000    ....    MOV      r1,#0
        0x00002784:    e59f406c    l@..    LDR      r4,[pc,#108] ; [0x27f8] = 0xb000d8b8
        0x00002788:    ea000003    ....    B        0x279c ; NAND_ReadPage + 304
        0x0000278c:    e594c000    ....    LDR      r12,[r4,#0]
        0x00002790:    e7c5c001    ....    STRB     r12,[r5,r1]
        0x00002794:    e2810001    ....    ADD      r0,r1,#1
        0x00002798:    e3c01801    ....    BIC      r1,r0,#0x10000
        0x0000279c:    e1510007    ..Q.    CMP      r1,r7
        0x000027a0:    3afffff9    ...:    BCC      0x278c ; NAND_ReadPage + 288
        0x000027a4:    ebffff59    Y...    BL       NAND_GetBusy ; 0x2510
        0x000027a8:    e3500040    @.P.    CMP      r0,#0x40
        0x000027ac:    0a000002    ....    BEQ      0x27bc ; NAND_ReadPage + 336
        0x000027b0:    e28f0044    D...    ADR      r0,{pc}+0x4c ; 0x27fc
        0x000027b4:    eb001883    ....    BL       sysprintf ; 0x89c8
        0x000027b8:    e3a06001    .`..    MOV      r6,#1
        0x000027bc:    e1a00006    ....    MOV      r0,r6
        0x000027c0:    e8bd81f0    ....    POP      {r4-r8,pc}
    $d
        0x000027c4:    b000d8b0    ....    DCD    2952845488
        0x000027c8:    454d4954    TIME    DCD    1162692948
        0x000027cc:    2054554f    OUT     DCD    542397775
        0x000027d0:    4f525245    ERRO    DCD    1330795077
        0x000027d4:    3d203152    R1 =    DCD    1025519954
        0x000027d8:    0a782520     %x.    DCD    175645984
        0x000027dc:    00000000    ....    DCD    0
        0x000027e0:    454d4954    TIME    DCD    1162692948
        0x000027e4:    2054554f    OUT     DCD    542397775
        0x000027e8:    4f525245    ERRO    DCD    1330795077
        0x000027ec:    3d203252    R2 =    DCD    1025520210
        0x000027f0:    0a782520     %x.    DCD    175645984
        0x000027f4:    00000000    ....    DCD    0
        0x000027f8:    b000d8b8    ....    DCD    2952845496
        0x000027fc:    44414552    READ    DCD    1145128274
        0x00002800:    47415020     PAG    DCD    1195462688
        0x00002804:    52452045    E ER    DCD    1380261957
        0x00002808:    20524f52    ROR     DCD    542265170
        0x0000280c:    7825203d    = %x    DCD    2015699005
        0x00002810:    0000000a    ....    DCD    10
    $a
    i.NAND_ReadStatus
    NAND_ReadStatus
        0x00002814:    e92d4008    .@-.    PUSH     {r3,lr}
        0x00002818:    e3a00000    ....    MOV      r0,#0
        0x0000281c:    e58d0000    ....    STR      r0,[sp,#0]
        0x00002820:    e59f0020     ...    LDR      r0,[pc,#32] ; [0x2848] = 0xb000d8b0
        0x00002824:    e5901000    ....    LDR      r1,[r0,#0]
        0x00002828:    e3c110ff    ....    BIC      r1,r1,#0xff
        0x0000282c:    e3811070    p...    ORR      r1,r1,#0x70
        0x00002830:    e5801000    ....    STR      r1,[r0,#0]
        0x00002834:    e2800008    ....    ADD      r0,r0,#8
        0x00002838:    e5900000    ....    LDR      r0,[r0,#0]
        0x0000283c:    e58d0000    ....    STR      r0,[sp,#0]
        0x00002840:    e5dd0000    ....    LDRB     r0,[sp,#0]
        0x00002844:    e8bd8008    ....    POP      {r3,pc}
    $d
        0x00002848:    b000d8b0    ....    DCD    2952845488
    $a
    i.NAND_WaitRB
    NAND_WaitRB
        0x0000284c:    e92d4001    .@-.    PUSH     {r0,lr}
        0x00002850:    e24dd004    ..M.    SUB      sp,sp,#4
        0x00002854:    e3a00000    ....    MOV      r0,#0
        0x00002858:    e58d0000    ....    STR      r0,[sp,#0]
        0x0000285c:    e59f1038    8...    LDR      r1,[pc,#56] ; [0x289c] = 0x2710
        0x00002860:    ea000008    ....    B        0x2888 ; NAND_WaitRB + 60
        0x00002864:    e1dd00b0    ....    LDRH     r0,[sp,#0]
        0x00002868:    e2800001    ....    ADD      r0,r0,#1
        0x0000286c:    e58d0000    ....    STR      r0,[sp,#0]
        0x00002870:    eb001116    ....    BL       nuc970_dev_ready ; 0x6cd0
        0x00002874:    e5dd2004    . ..    LDRB     r2,[sp,#4]
        0x00002878:    e1500002    ..P.    CMP      r0,r2
        0x0000287c:    1a000001    ....    BNE      0x2888 ; NAND_WaitRB + 60
        0x00002880:    e3a00000    ....    MOV      r0,#0
        0x00002884:    e8bd800c    ....    POP      {r2,r3,pc}
        0x00002888:    e1dd00b0    ....    LDRH     r0,[sp,#0]
        0x0000288c:    e1500001    ..P.    CMP      r0,r1
        0x00002890:    3afffff3    ...:    BCC      0x2864 ; NAND_WaitRB + 24
        0x00002894:    e3a00001    ....    MOV      r0,#1
        0x00002898:    e8bd800c    ....    POP      {r2,r3,pc}
    $d
        0x0000289c:    00002710    .'..    DCD    10000
    $a
    i.NAND_WritePage
    NAND_WritePage
        0x000028a0:    e92d41f0    .A-.    PUSH     {r4-r8,lr}
        0x000028a4:    e1a06000    .`..    MOV      r6,r0
        0x000028a8:    e1a07001    .p..    MOV      r7,r1
        0x000028ac:    e1a04002    .@..    MOV      r4,r2
        0x000028b0:    e1a05003    .P..    MOV      r5,r3
        0x000028b4:    e1a00506    ....    LSL      r0,r6,#10
        0x000028b8:    e1a00820     ...    LSR      r0,r0,#16
        0x000028bc:    ebfff9bf    ....    BL       BAD_BLOCK_CHANGE ; 0xfc0
        0x000028c0:    e206103f    ?...    AND      r1,r6,#0x3f
        0x000028c4:    e081c300    ....    ADD      r12,r1,r0,LSL #6
        0x000028c8:    e59f60fc    .`..    LDR      r6,[pc,#252] ; [0x29cc] = 0xb000d8b0
        0x000028cc:    e5960000    ....    LDR      r0,[r6,#0]
        0x000028d0:    e3c000ff    ....    BIC      r0,r0,#0xff
        0x000028d4:    e3800080    ....    ORR      r0,r0,#0x80
        0x000028d8:    e5860000    ....    STR      r0,[r6,#0]
        0x000028dc:    e2860004    ....    ADD      r0,r6,#4
        0x000028e0:    e5901000    ....    LDR      r1,[r0,#0]
        0x000028e4:    e20720ff    . ..    AND      r2,r7,#0xff
        0x000028e8:    e3c11102    ....    BIC      r1,r1,#0x80000000
        0x000028ec:    e3c110ff    ....    BIC      r1,r1,#0xff
        0x000028f0:    e1811002    ....    ORR      r1,r1,r2
        0x000028f4:    e5801000    ....    STR      r1,[r0,#0]
        0x000028f8:    e5901000    ....    LDR      r1,[r0,#0]
        0x000028fc:    e3c11102    ....    BIC      r1,r1,#0x80000000
        0x00002900:    e3c110ff    ....    BIC      r1,r1,#0xff
        0x00002904:    e1811427    '...    ORR      r1,r1,r7,LSR #8
        0x00002908:    e5801000    ....    STR      r1,[r0,#0]
        0x0000290c:    e5901000    ....    LDR      r1,[r0,#0]
        0x00002910:    e20c20ff    . ..    AND      r2,r12,#0xff
        0x00002914:    e3c11102    ....    BIC      r1,r1,#0x80000000
        0x00002918:    e3c110ff    ....    BIC      r1,r1,#0xff
        0x0000291c:    e1811002    ....    ORR      r1,r1,r2
        0x00002920:    e5801000    ....    STR      r1,[r0,#0]
        0x00002924:    e5901000    ....    LDR      r1,[r0,#0]
        0x00002928:    e1a0280c    .(..    LSL      r2,r12,#16
        0x0000292c:    e3c11102    ....    BIC      r1,r1,#0x80000000
        0x00002930:    e3c110ff    ....    BIC      r1,r1,#0xff
        0x00002934:    e1811c22    "...    ORR      r1,r1,r2,LSR #24
        0x00002938:    e5801000    ....    STR      r1,[r0,#0]
        0x0000293c:    e5901000    ....    LDR      r1,[r0,#0]
        0x00002940:    e3c12102    .!..    BIC      r2,r1,#0x80000000
        0x00002944:    e3c220ff    . ..    BIC      r2,r2,#0xff
        0x00002948:    e182182c    ,...    ORR      r1,r2,r12,LSR #16
        0x0000294c:    e5801000    ....    STR      r1,[r0,#0]
        0x00002950:    e5901000    ....    LDR      r1,[r0,#0]
        0x00002954:    e3c110ff    ....    BIC      r1,r1,#0xff
        0x00002958:    e1811c2c    ,...    ORR      r1,r1,r12,LSR #24
        0x0000295c:    e3811102    ....    ORR      r1,r1,#0x80000000
        0x00002960:    e5801000    ....    STR      r1,[r0,#0]
        0x00002964:    e3a00001    ....    MOV      r0,#1
        0x00002968:    eb000e73    s...    BL       delay_us ; 0x633c
        0x0000296c:    e3a00000    ....    MOV      r0,#0
        0x00002970:    e2861008    ....    ADD      r1,r6,#8
        0x00002974:    ea000003    ....    B        0x2988 ; NAND_WritePage + 232
        0x00002978:    e7d42000    . ..    LDRB     r2,[r4,r0]
        0x0000297c:    e5812000    . ..    STR      r2,[r1,#0]
        0x00002980:    e2800001    ....    ADD      r0,r0,#1
        0x00002984:    e3c00801    ....    BIC      r0,r0,#0x10000
        0x00002988:    e1500005    ..P.    CMP      r0,r5
        0x0000298c:    3afffff9    ...:    BCC      0x2978 ; NAND_WritePage + 216
        0x00002990:    e5960000    ....    LDR      r0,[r6,#0]
        0x00002994:    e3c000ff    ....    BIC      r0,r0,#0xff
        0x00002998:    e3800010    ....    ORR      r0,r0,#0x10
        0x0000299c:    e5860000    ....    STR      r0,[r6,#0]
        0x000029a0:    ebfffef6    ....    BL       NAND_GetStatus ; 0x2580
        0x000029a4:    e3500040    @.P.    CMP      r0,#0x40
        0x000029a8:    0a000005    ....    BEQ      0x29c4 ; NAND_WritePage + 292
        0x000029ac:    e59f001c    ....    LDR      r0,[pc,#28] ; [0x29d0] = 0xa074
        0x000029b0:    e5901000    ....    LDR      r1,[r0,#0]
        0x000029b4:    e3811010    ....    ORR      r1,r1,#0x10
        0x000029b8:    e5801000    ....    STR      r1,[r0,#0]
        0x000029bc:    e3a00001    ....    MOV      r0,#1
        0x000029c0:    e8bd81f0    ....    POP      {r4-r8,pc}
        0x000029c4:    e3a00000    ....    MOV      r0,#0
        0x000029c8:    e8bd81f0    ....    POP      {r4-r8,pc}
    $d
        0x000029cc:    b000d8b0    ....    DCD    2952845488
        0x000029d0:    0000a074    t...    DCD    41076
    $a
    i.POWER_5V_SETTING_initstart
    POWER_5V_SETTING_initstart
        0x000029d4:    e92d4010    .@-.    PUSH     {r4,lr}
        0x000029d8:    e3a01b01    ....    MOV      r1,#0x400
        0x000029dc:    e3a00c01    ....    MOV      r0,#0x100
        0x000029e0:    ebfffd4d    M...    BL       GPIO_ReadBit ; 0x1f1c
        0x000029e4:    e20000ff    ....    AND      r0,r0,#0xff
        0x000029e8:    e3500000    ..P.    CMP      r0,#0
        0x000029ec:    0a000005    ....    BEQ      0x2a08 ; POWER_5V_SETTING_initstart + 52
        0x000029f0:    e3a01a01    ....    MOV      r1,#0x1000
        0x000029f4:    e3a00d05    ....    MOV      r0,#0x140
        0x000029f8:    ebfffd51    Q...    BL       GPIO_Set ; 0x1f44
        0x000029fc:    e8bd4010    .@..    POP      {r4,lr}
        0x00002a00:    e28f0004    ....    ADR      r0,{pc}+0xc ; 0x2a0c
        0x00002a04:    ea0017ef    ....    B        sysprintf ; 0x89c8
        0x00002a08:    e8bd8010    ....    POP      {r4,pc}
    $d
        0x00002a0c:    2076352b    +5v     DCD    544617771
        0x00002a10:    45574f50    POWE    DCD    1163349840
        0x00002a14:    204e4f52    RON     DCD    542003026
        0x00002a18:    65636e6f    once    DCD    1701015151
        0x00002a1c:    00000a0d    ....    DCD    2573
    $a
    i.READ_TAB_FROMSDRAM
    READ_TAB_FROMSDRAM
        0x00002a20:    e59f1050    P...    LDR      r1,[pc,#80] ; [0x2a78] = 0xcfc0
        0x00002a24:    e5911014    ....    LDR      r1,[r1,#0x14]
        0x00002a28:    e0810180    ....    ADD      r0,r1,r0,LSL #3
        0x00002a2c:    e1d010b0    ....    LDRH     r1,[r0,#0]
        0x00002a30:    e1d030b2    .0..    LDRH     r3,[r0,#2]
        0x00002a34:    e5900004    ....    LDR      r0,[r0,#4]
        0x00002a38:    e3510000    ..Q.    CMP      r1,#0
        0x00002a3c:    0a00000b    ....    BEQ      0x2a70 ; READ_TAB_FROMSDRAM + 80
        0x00002a40:    e3530000    ..S.    CMP      r3,#0
        0x00002a44:    0a000009    ....    BEQ      0x2a70 ; READ_TAB_FROMSDRAM + 80
        0x00002a48:    e3510e32    2.Q.    CMP      r1,#0x320
        0x00002a4c:    8a000007    ....    BHI      0x2a70 ; READ_TAB_FROMSDRAM + 80
        0x00002a50:    e3530e1e    ..S.    CMP      r3,#0x1e0
        0x00002a54:    8a000005    ....    BHI      0x2a70 ; READ_TAB_FROMSDRAM + 80
        0x00002a58:    e59fc01c    ....    LDR      r12,[pc,#28] ; [0x2a7c] = 0x17e40
        0x00002a5c:    e150000c    ..P.    CMP      r0,r12
        0x00002a60:    2a000002    ...*    BCS      0x2a70 ; READ_TAB_FROMSDRAM + 80
        0x00002a64:    e5821000    ....    STR      r1,[r2,#0]
        0x00002a68:    e5823004    .0..    STR      r3,[r2,#4]
        0x00002a6c:    e12fff1e    ../.    BX       lr
        0x00002a70:    e3e00000    ....    MVN      r0,#0
        0x00002a74:    e12fff1e    ../.    BX       lr
    $d
        0x00002a78:    0000cfc0    ....    DCD    53184
        0x00002a7c:    00017e40    @~..    DCD    97856
    $a
    i.REG_OPERATE
    REG_OPERATE
        0x00002a80:    e3520000    ..R.    CMP      r2,#0
        0x00002a84:    0a000003    ....    BEQ      0x2a98 ; REG_OPERATE + 24
        0x00002a88:    e5902000    . ..    LDR      r2,[r0,#0]
        0x00002a8c:    e1811002    ....    ORR      r1,r1,r2
        0x00002a90:    e5801000    ....    STR      r1,[r0,#0]
        0x00002a94:    e12fff1e    ../.    BX       lr
        0x00002a98:    e5902000    . ..    LDR      r2,[r0,#0]
        0x00002a9c:    e1c21001    ....    BIC      r1,r2,r1
        0x00002aa0:    e5801000    ....    STR      r1,[r0,#0]
        0x00002aa4:    e12fff1e    ../.    BX       lr
    i.RS485_HANDLE
    RS485_HANDLE
        0x00002aa8:    e92d401c    .@-.    PUSH     {r2-r4,lr}
        0x00002aac:    e1a01400    ....    LSL      r1,r0,#8
        0x00002ab0:    e281432e    .C..    ADD      r4,r1,#0xb8000000
        0x00002ab4:    e594101c    ....    LDR      r1,[r4,#0x1c]
        0x00002ab8:    e58d1004    ....    STR      r1,[sp,#4]
        0x00002abc:    e5941018    ....    LDR      r1,[r4,#0x18]
        0x00002ac0:    e58d1000    ....    STR      r1,[sp,#0]
        0x00002ac4:    e59d1004    ....    LDR      r1,[sp,#4]
        0x00002ac8:    e3110004    ....    TST      r1,#4
        0x00002acc:    0a000009    ....    BEQ      0x2af8 ; RS485_HANDLE + 80
        0x00002ad0:    e59d1004    ....    LDR      r1,[sp,#4]
        0x00002ad4:    e3110001    ....    TST      r1,#1
        0x00002ad8:    0a000006    ....    BEQ      0x2af8 ; RS485_HANDLE + 80
        0x00002adc:    e59d1000    ....    LDR      r1,[sp,#0]
        0x00002ae0:    e3110008    ....    TST      r1,#8
        0x00002ae4:    0a000007    ....    BEQ      0x2b08 ; RS485_HANDLE + 96
        0x00002ae8:    eb000b96    ....    BL       _uartReceiveChars ; 0x5948
        0x00002aec:    e3a00008    ....    MOV      r0,#8
        0x00002af0:    e5840018    ....    STR      r0,[r4,#0x18]
        0x00002af4:    ea000003    ....    B        0x2b08 ; RS485_HANDLE + 96
        0x00002af8:    e59d1004    ....    LDR      r1,[sp,#4]
        0x00002afc:    e3110011    ....    TST      r1,#0x11
        0x00002b00:    0a000000    ....    BEQ      0x2b08 ; RS485_HANDLE + 96
        0x00002b04:    eb000b8f    ....    BL       _uartReceiveChars ; 0x5948
        0x00002b08:    e59d0004    ....    LDR      r0,[sp,#4]
        0x00002b0c:    e3100004    ....    TST      r0,#4
        0x00002b10:    0a000007    ....    BEQ      0x2b34 ; RS485_HANDLE + 140
        0x00002b14:    e5940018    ....    LDR      r0,[r4,#0x18]
        0x00002b18:    e58d0000    ....    STR      r0,[sp,#0]
        0x00002b1c:    e59d0000    ....    LDR      r0,[sp,#0]
        0x00002b20:    e3100040    @...    TST      r0,#0x40
        0x00002b24:    0a000002    ....    BEQ      0x2b34 ; RS485_HANDLE + 140
        0x00002b28:    e59f1008    ....    LDR      r1,[pc,#8] ; [0x2b38] = 0xa56c
        0x00002b2c:    e3a00001    ....    MOV      r0,#1
        0x00002b30:    e5c10000    ....    STRB     r0,[r1,#0]
        0x00002b34:    e8bd801c    ....    POP      {r2-r4,pc}
    $d
        0x00002b38:    0000a56c    l...    DCD    42348
    $a
    i.RTC_Check
    RTC_Check
        0x00002b3c:    e59f004c    L...    LDR      r0,[pc,#76] ; [0x2b90] = 0xa5dc
        0x00002b40:    e3a01000    ....    MOV      r1,#0
        0x00002b44:    e5801050    P...    STR      r1,[r0,#0x50]
        0x00002b48:    e59f1044    D...    LDR      r1,[pc,#68] ; [0x2b94] = 0xb8004000
        0x00002b4c:    e591202c    , ..    LDR      r2,[r1,#0x2c]
        0x00002b50:    e2022102    .!..    AND      r2,r2,#0x80000000
        0x00002b54:    e5802054    T ..    STR      r2,[r0,#0x54]
        0x00002b58:    ea000008    ....    B        0x2b80 ; RTC_Check + 68
        0x00002b5c:    e591202c    , ..    LDR      r2,[r1,#0x2c]
        0x00002b60:    e2022102    .!..    AND      r2,r2,#0x80000000
        0x00002b64:    e5802054    T ..    STR      r2,[r0,#0x54]
        0x00002b68:    e5902050    P ..    LDR      r2,[r0,#0x50]
        0x00002b6c:    e2822001    . ..    ADD      r2,r2,#1
        0x00002b70:    e5802050    P ..    STR      r2,[r0,#0x50]
        0x00002b74:    e5902050    P ..    LDR      r2,[r0,#0x50]
        0x00002b78:    e3520a01    ..R.    CMP      r2,#0x1000
        0x00002b7c:    2a000002    ...*    BCS      0x2b8c ; RTC_Check + 80
        0x00002b80:    e5902054    T ..    LDR      r2,[r0,#0x54]
        0x00002b84:    e3520102    ..R.    CMP      r2,#0x80000000
        0x00002b88:    0afffff3    ....    BEQ      0x2b5c ; RTC_Check + 32
        0x00002b8c:    e12fff1e    ../.    BX       lr
    $d
        0x00002b90:    0000a5dc    ....    DCD    42460
        0x00002b94:    b8004000    .@..    DCD    3087024128
    $a
    i.RTC_DoFrequencyCompensation
    RTC_DoFrequencyCompensation
        0x00002b98:    e92d4010    .@-.    PUSH     {r4,lr}
        0x00002b9c:    e3a01064    d...    MOV      r1,#0x64
        0x00002ba0:    ebfff762    b...    BL       __aeabi_idiv ; 0x930
        0x00002ba4:    e2404c7f    .L@.    SUB      r4,r0,#0x7f00
        0x00002ba8:    e24440f9    .@D.    SUB      r4,r4,#0xf9
        0x00002bac:    e0610201    ..a.    RSB      r0,r1,r1,LSL #4
        0x00002bb0:    e1a00100    ....    LSL      r0,r0,#2
        0x00002bb4:    e3a01064    d...    MOV      r1,#0x64
        0x00002bb8:    ebfff75c    \...    BL       __aeabi_idiv ; 0x930
        0x00002bbc:    e354000f    ..T.    CMP      r4,#0xf
        0x00002bc0:    da000001    ....    BLE      0x2bcc ; RTC_DoFrequencyCompensation + 52
        0x00002bc4:    e3a01001    ....    MOV      r1,#1
        0x00002bc8:    ea000000    ....    B        0x2bd0 ; RTC_DoFrequencyCompensation + 56
        0x00002bcc:    e3a01000    ....    MOV      r1,#0
        0x00002bd0:    e1911fa4    ....    ORRS     r1,r1,r4,LSR #31
        0x00002bd4:    0a000001    ....    BEQ      0x2be0 ; RTC_DoFrequencyCompensation + 72
        0x00002bd8:    e3a00005    ....    MOV      r0,#5
        0x00002bdc:    e8bd8010    ....    POP      {r4,pc}
        0x00002be0:    e1804404    .D..    ORR      r4,r0,r4,LSL #8
        0x00002be4:    e3a00001    ....    MOV      r0,#1
        0x00002be8:    eb00039a    ....    BL       RTC_WriteEnable ; 0x3a58
        0x00002bec:    e59f000c    ....    LDR      r0,[pc,#12] ; [0x2c00] = 0xb8004000
        0x00002bf0:    e5804008    .@..    STR      r4,[r0,#8]
        0x00002bf4:    ebffffd0    ....    BL       RTC_Check ; 0x2b3c
        0x00002bf8:    e3a00000    ....    MOV      r0,#0
        0x00002bfc:    e8bd8010    ....    POP      {r4,pc}
    $d
        0x00002c00:    b8004000    .@..    DCD    3087024128
    $a
    i.RTC_EnableClock
    RTC_EnableClock
        0x00002c04:    e3500000    ..P.    CMP      r0,#0
        0x00002c08:    e3a0120b    ....    MOV      r1,#0xb0000000
        0x00002c0c:    0a000003    ....    BEQ      0x2c20 ; RTC_EnableClock + 28
        0x00002c10:    e5910218    ....    LDR      r0,[r1,#0x218]
        0x00002c14:    e3800004    ....    ORR      r0,r0,#4
        0x00002c18:    e5810218    ....    STR      r0,[r1,#0x218]
        0x00002c1c:    e12fff1e    ../.    BX       lr
        0x00002c20:    e5910218    ....    LDR      r0,[r1,#0x218]
        0x00002c24:    e3c00004    ....    BIC      r0,r0,#4
        0x00002c28:    e5810218    ....    STR      r0,[r1,#0x218]
        0x00002c2c:    e12fff1e    ../.    BX       lr
    i.RTC_ISR
    RTC_ISR
        0x00002c30:    e92d4038    8@-.    PUSH     {r3-r5,lr}
        0x00002c34:    e59f40fc    .@..    LDR      r4,[pc,#252] ; [0x2d38] = 0xb8004000
        0x00002c38:    e594002c    ,...    LDR      r0,[r4,#0x2c]
        0x00002c3c:    e58d0000    ....    STR      r0,[sp,#0]
        0x00002c40:    e59d0000    ....    LDR      r0,[sp,#0]
        0x00002c44:    e59f50f0    .P..    LDR      r5,[pc,#240] ; [0x2d3c] = 0xa5dc
        0x00002c48:    e3100002    ....    TST      r0,#2
        0x00002c4c:    0a00000b    ....    BEQ      0x2c80 ; RTC_ISR + 80
        0x00002c50:    e3a00001    ....    MOV      r0,#1
        0x00002c54:    eb00037f    ....    BL       RTC_WriteEnable ; 0x3a58
        0x00002c58:    e3a00002    ....    MOV      r0,#2
        0x00002c5c:    e584002c    ,...    STR      r0,[r4,#0x2c]
        0x00002c60:    ebffffb5    ....    BL       RTC_Check ; 0x2b3c
        0x00002c64:    e5950014    ....    LDR      r0,[r5,#0x14]
        0x00002c68:    e2800001    ....    ADD      r0,r0,#1
        0x00002c6c:    e5850014    ....    STR      r0,[r5,#0x14]
        0x00002c70:    e5950004    ....    LDR      r0,[r5,#4]
        0x00002c74:    e3500000    ..P.    CMP      r0,#0
        0x00002c78:    0a000000    ....    BEQ      0x2c80 ; RTC_ISR + 80
        0x00002c7c:    e12fff30    0./.    BLX      r0
        0x00002c80:    e59d0000    ....    LDR      r0,[sp,#0]
        0x00002c84:    e3100001    ....    TST      r0,#1
        0x00002c88:    0a000008    ....    BEQ      0x2cb0 ; RTC_ISR + 128
        0x00002c8c:    e3a00001    ....    MOV      r0,#1
        0x00002c90:    eb000370    p...    BL       RTC_WriteEnable ; 0x3a58
        0x00002c94:    e3a00001    ....    MOV      r0,#1
        0x00002c98:    e584002c    ,...    STR      r0,[r4,#0x2c]
        0x00002c9c:    ebffffa6    ....    BL       RTC_Check ; 0x2b3c
        0x00002ca0:    e5950008    ....    LDR      r0,[r5,#8]
        0x00002ca4:    e3500000    ..P.    CMP      r0,#0
        0x00002ca8:    0a000000    ....    BEQ      0x2cb0 ; RTC_ISR + 128
        0x00002cac:    e12fff30    0./.    BLX      r0
        0x00002cb0:    e59d0000    ....    LDR      r0,[sp,#0]
        0x00002cb4:    e3100010    ....    TST      r0,#0x10
        0x00002cb8:    0a00000f    ....    BEQ      0x2cfc ; RTC_ISR + 204
        0x00002cbc:    e3a00001    ....    MOV      r0,#1
        0x00002cc0:    eb000364    d...    BL       RTC_WriteEnable ; 0x3a58
        0x00002cc4:    e3a00010    ....    MOV      r0,#0x10
        0x00002cc8:    e584002c    ,...    STR      r0,[r4,#0x2c]
        0x00002ccc:    ebffff9a    ....    BL       RTC_Check ; 0x2b3c
        0x00002cd0:    e3a03000    .0..    MOV      r3,#0
        0x00002cd4:    e3a02010    . ..    MOV      r2,#0x10
        0x00002cd8:    e3a01005    ....    MOV      r1,#5
        0x00002cdc:    e1a00003    ....    MOV      r0,r3
        0x00002ce0:    eb000052    R...    BL       RTC_Ioctl ; 0x2e30
        0x00002ce4:    e5950010    ....    LDR      r0,[r5,#0x10]
        0x00002ce8:    e3500000    ..P.    CMP      r0,#0
        0x00002cec:    0a000002    ....    BEQ      0x2cfc ; RTC_ISR + 204
        0x00002cf0:    e12fff30    0./.    BLX      r0
        0x00002cf4:    e3a00000    ....    MOV      r0,#0
        0x00002cf8:    e5850010    ....    STR      r0,[r5,#0x10]
        0x00002cfc:    e59d0000    ....    LDR      r0,[sp,#0]
        0x00002d00:    e3100008    ....    TST      r0,#8
        0x00002d04:    0a00000a    ....    BEQ      0x2d34 ; RTC_ISR + 260
        0x00002d08:    e3a00001    ....    MOV      r0,#1
        0x00002d0c:    eb000351    Q...    BL       RTC_WriteEnable ; 0x3a58
        0x00002d10:    e3a00008    ....    MOV      r0,#8
        0x00002d14:    e584002c    ,...    STR      r0,[r4,#0x2c]
        0x00002d18:    ebffff87    ....    BL       RTC_Check ; 0x2b3c
        0x00002d1c:    e595000c    ....    LDR      r0,[r5,#0xc]
        0x00002d20:    e3500000    ..P.    CMP      r0,#0
        0x00002d24:    0a000002    ....    BEQ      0x2d34 ; RTC_ISR + 260
        0x00002d28:    e28dd004    ....    ADD      sp,sp,#4
        0x00002d2c:    e8bd4030    0@..    POP      {r4,r5,lr}
        0x00002d30:    e12fff10    ../.    BX       r0
        0x00002d34:    e8bd8038    8...    POP      {r3-r5,pc}
    $d
        0x00002d38:    b8004000    .@..    DCD    3087024128
        0x00002d3c:    0000a5dc    ....    DCD    42460
    $a
    i.RTC_Init
    RTC_Init
        0x00002d40:    e92d4010    .@-.    PUSH     {r4,lr}
        0x00002d44:    e59f10cc    ....    LDR      r1,[pc,#204] ; [0x2e18] = 0xa5dc
        0x00002d48:    e3a00000    ....    MOV      r0,#0
        0x00002d4c:    e5810008    ....    STR      r0,[r1,#8]
        0x00002d50:    e5810004    ....    STR      r0,[r1,#4]
        0x00002d54:    e581000c    ....    STR      r0,[r1,#0xc]
        0x00002d58:    e5810010    ....    STR      r0,[r1,#0x10]
        0x00002d5c:    e5810014    ....    STR      r0,[r1,#0x14]
        0x00002d60:    e59f30b4    .0..    LDR      r3,[pc,#180] ; [0x2e1c] = 0xb8004000
        0x00002d64:    e59f40b4    .@..    LDR      r4,[pc,#180] ; [0x2e20] = 0xfff
        0x00002d68:    e5931000    ....    LDR      r1,[r3,#0]
        0x00002d6c:    e3110001    ....    TST      r1,#1
        0x00002d70:    1a000002    ....    BNE      0x2d80 ; RTC_Init + 64
        0x00002d74:    e2800001    ....    ADD      r0,r0,#1
        0x00002d78:    e1500004    ..P.    CMP      r0,r4
        0x00002d7c:    bafffff9    ....    BLT      0x2d68 ; RTC_Init + 40
        0x00002d80:    e59f009c    ....    LDR      r0,[pc,#156] ; [0x2e24] = 0xa5eb1357
        0x00002d84:    e5830000    ....    STR      r0,[r3,#0]
        0x00002d88:    ebffff6b    k...    BL       RTC_Check ; 0x2b3c
        0x00002d8c:    e3a00000    ....    MOV      r0,#0
        0x00002d90:    e5931000    ....    LDR      r1,[r3,#0]
        0x00002d94:    e3110001    ....    TST      r1,#1
        0x00002d98:    1a000002    ....    BNE      0x2da8 ; RTC_Init + 104
        0x00002d9c:    e2800001    ....    ADD      r0,r0,#1
        0x00002da0:    e1500004    ..P.    CMP      r0,r4
        0x00002da4:    bafffff9    ....    BLT      0x2d90 ; RTC_Init + 80
        0x00002da8:    e1500004    ..P.    CMP      r0,r4
        0x00002dac:    1a000001    ....    BNE      0x2db8 ; RTC_Init + 120
        0x00002db0:    e3a00006    ....    MOV      r0,#6
        0x00002db4:    e8bd8010    ....    POP      {r4,pc}
        0x00002db8:    e59f0068    h...    LDR      r0,[pc,#104] ; [0x2e28] = 0xa965
        0x00002dbc:    e5830004    ....    STR      r0,[r3,#4]
        0x00002dc0:    ebffff5d    ]...    BL       RTC_Check ; 0x2b3c
        0x00002dc4:    e3a00000    ....    MOV      r0,#0
        0x00002dc8:    e5931004    ....    LDR      r1,[r3,#4]
        0x00002dcc:    e3110801    ....    TST      r1,#0x10000
        0x00002dd0:    1a000002    ....    BNE      0x2de0 ; RTC_Init + 160
        0x00002dd4:    e2800001    ....    ADD      r0,r0,#1
        0x00002dd8:    e1500004    ..P.    CMP      r0,r4
        0x00002ddc:    bafffff9    ....    BLT      0x2dc8 ; RTC_Init + 136
        0x00002de0:    e1500004    ..P.    CMP      r0,r4
        0x00002de4:    1a000001    ....    BNE      0x2df0 ; RTC_Init + 176
        0x00002de8:    e3a00006    ....    MOV      r0,#6
        0x00002dec:    e8bd8010    ....    POP      {r4,pc}
        0x00002df0:    e59f2034    4 ..    LDR      r2,[pc,#52] ; [0x2e2c] = 0x2c30
        0x00002df4:    e3a0100f    ....    MOV      r1,#0xf
        0x00002df8:    e3a00001    ....    MOV      r0,#1
        0x00002dfc:    eb001552    R...    BL       sysInstallISR ; 0x834c
        0x00002e00:    e3a0007f    ....    MOV      r0,#0x7f
        0x00002e04:    eb001609    ....    BL       sysSetLocalInterrupt ; 0x8630
        0x00002e08:    e3a0000f    ....    MOV      r0,#0xf
        0x00002e0c:    eb001307    ....    BL       sysEnableInterrupt ; 0x7a30
        0x00002e10:    e3a00000    ....    MOV      r0,#0
        0x00002e14:    e8bd8010    ....    POP      {r4,pc}
    $d
        0x00002e18:    0000a5dc    ....    DCD    42460
        0x00002e1c:    b8004000    .@..    DCD    3087024128
        0x00002e20:    00000fff    ....    DCD    4095
        0x00002e24:    a5eb1357    W...    DCD    2783646551
        0x00002e28:    0000a965    e...    DCD    43365
        0x00002e2c:    00002c30    0,..    DCD    11312
    $a
    i.RTC_Ioctl
    RTC_Ioctl
        0x00002e30:    e92d47f0    .G-.    PUSH     {r4-r10,lr}
        0x00002e34:    e1a04002    .@..    MOV      r4,r2
        0x00002e38:    e1a09003    ....    MOV      r9,r3
        0x00002e3c:    e3500000    ..P.    CMP      r0,#0
        0x00002e40:    0a000001    ....    BEQ      0x2e4c ; RTC_Ioctl + 28
        0x00002e44:    e3a00008    ....    MOV      r0,#8
        0x00002e48:    e8bd87f0    ....    POP      {r4-r10,pc}
        0x00002e4c:    e59f549c    .T..    LDR      r5,[pc,#1180] ; [0x32f0] = 0xb8004000
        0x00002e50:    e59f649c    .d..    LDR      r6,[pc,#1180] ; [0x32f4] = 0xa5dc
        0x00002e54:    e3510013    ..Q.    CMP      r1,#0x13
        0x00002e58:    e3a08001    ....    MOV      r8,#1
        0x00002e5c:    e20400ff    ....    AND      r0,r4,#0xff
        0x00002e60:    e3a07000    .p..    MOV      r7,#0
        0x00002e64:    308ff101    ...0    ADDCC    pc,pc,r1,LSL #2
        0x00002e68:    ea00011e    ....    B        0x32e8 ; RTC_Ioctl + 1208
        0x00002e6c:    ea000011    ....    B        0x2eb8 ; RTC_Ioctl + 136
        0x00002e70:    ea000017    ....    B        0x2ed4 ; RTC_Ioctl + 164
        0x00002e74:    ea00003a    :...    B        0x2f64 ; RTC_Ioctl + 308
        0x00002e78:    ea00003c    <...    B        0x2f70 ; RTC_Ioctl + 320
        0x00002e7c:    ea00003d    =...    B        0x2f78 ; RTC_Ioctl + 328
        0x00002e80:    ea000069    i...    B        0x302c ; RTC_Ioctl + 508
        0x00002e84:    ea000117    ....    B        0x32e8 ; RTC_Ioctl + 1208
        0x00002e88:    ea000116    ....    B        0x32e8 ; RTC_Ioctl + 1208
        0x00002e8c:    ea0000b0    ....    B        0x3154 ; RTC_Ioctl + 804
        0x00002e90:    ea0000b5    ....    B        0x316c ; RTC_Ioctl + 828
        0x00002e94:    ea0000be    ....    B        0x3194 ; RTC_Ioctl + 868
        0x00002e98:    ea0000c5    ....    B        0x31b4 ; RTC_Ioctl + 900
        0x00002e9c:    ea0000d1    ....    B        0x31e8 ; RTC_Ioctl + 952
        0x00002ea0:    ea0000d7    ....    B        0x3204 ; RTC_Ioctl + 980
        0x00002ea4:    ea0000e8    ....    B        0x324c ; RTC_Ioctl + 1052
        0x00002ea8:    ea0000dc    ....    B        0x3220 ; RTC_Ioctl + 1008
        0x00002eac:    ea00010d    ....    B        0x32e8 ; RTC_Ioctl + 1208
        0x00002eb0:    ea00010c    ....    B        0x32e8 ; RTC_Ioctl + 1208
        0x00002eb4:    ea0000ed    ....    B        0x3270 ; RTC_Ioctl + 1088
        0x00002eb8:    e5950024    $...    LDR      r0,[r5,#0x24]
        0x00002ebc:    e3100001    ....    TST      r0,#1
        0x00002ec0:    0a000001    ....    BEQ      0x2ecc ; RTC_Ioctl + 156
        0x00002ec4:    e5848000    ....    STR      r8,[r4,#0]
        0x00002ec8:    ea000104    ....    B        0x32e0 ; RTC_Ioctl + 1200
        0x00002ecc:    e5847000    .p..    STR      r7,[r4,#0]
        0x00002ed0:    ea000102    ....    B        0x32e0 ; RTC_Ioctl + 1200
        0x00002ed4:    e5d60001    ....    LDRB     r0,[r6,#1]
        0x00002ed8:    e3500001    ..P.    CMP      r0,#1
        0x00002edc:    1a000005    ....    BNE      0x2ef8 ; RTC_Ioctl + 200
        0x00002ee0:    e3a03000    .0..    MOV      r3,#0
        0x00002ee4:    e3a02002    . ..    MOV      r2,#2
        0x00002ee8:    e3a01005    ....    MOV      r1,#5
        0x00002eec:    e1a00003    ....    MOV      r0,r3
        0x00002ef0:    ebffffce    ....    BL       RTC_Ioctl ; 0x2e30
        0x00002ef4:    e5c68001    ....    STRB     r8,[r6,#1]
        0x00002ef8:    e5867014    .p..    STR      r7,[r6,#0x14]
        0x00002efc:    e5d40000    ....    LDRB     r0,[r4,#0]
        0x00002f00:    e3500007    ..P.    CMP      r0,#7
        0x00002f04:    9a000001    ....    BLS      0x2f10 ; RTC_Ioctl + 224
        0x00002f08:    e3a00007    ....    MOV      r0,#7
        0x00002f0c:    e8bd87f0    ....    POP      {r4-r10,pc}
        0x00002f10:    e3a00001    ....    MOV      r0,#1
        0x00002f14:    eb0002cf    ....    BL       RTC_WriteEnable ; 0x3a58
        0x00002f18:    e5d40000    ....    LDRB     r0,[r4,#0]
        0x00002f1c:    e5850030    0...    STR      r0,[r5,#0x30]
        0x00002f20:    ebffff05    ....    BL       RTC_Check ; 0x2b3c
        0x00002f24:    e5940004    ....    LDR      r0,[r4,#4]
        0x00002f28:    e3500000    ..P.    CMP      r0,#0
        0x00002f2c:    0a000001    ....    BEQ      0x2f38 ; RTC_Ioctl + 264
        0x00002f30:    e5860004    ....    STR      r0,[r6,#4]
        0x00002f34:    ea000000    ....    B        0x2f3c ; RTC_Ioctl + 268
        0x00002f38:    e5867004    .p..    STR      r7,[r6,#4]
        0x00002f3c:    e5d60001    ....    LDRB     r0,[r6,#1]
        0x00002f40:    e3500001    ..P.    CMP      r0,#1
        0x00002f44:    1a0000e5    ....    BNE      0x32e0 ; RTC_Ioctl + 1200
        0x00002f48:    e3a03000    .0..    MOV      r3,#0
        0x00002f4c:    e3a02002    . ..    MOV      r2,#2
        0x00002f50:    e3a01004    ....    MOV      r1,#4
        0x00002f54:    e1a00003    ....    MOV      r0,r3
        0x00002f58:    ebffffb4    ....    BL       RTC_Ioctl ; 0x2e30
        0x00002f5c:    e3a00000    ....    MOV      r0,#0
        0x00002f60:    e8bd87f0    ....    POP      {r4-r10,pc}
        0x00002f64:    e5960014    ....    LDR      r0,[r6,#0x14]
        0x00002f68:    e5840000    ....    STR      r0,[r4,#0]
        0x00002f6c:    ea0000db    ....    B        0x32e0 ; RTC_Ioctl + 1200
        0x00002f70:    e5867014    .p..    STR      r7,[r6,#0x14]
        0x00002f74:    ea0000d9    ....    B        0x32e0 ; RTC_Ioctl + 1200
        0x00002f78:    e3500001    ..P.    CMP      r0,#1
        0x00002f7c:    0a00000b    ....    BEQ      0x2fb0 ; RTC_Ioctl + 384
        0x00002f80:    e3500002    ..P.    CMP      r0,#2
        0x00002f84:    0a000005    ....    BEQ      0x2fa0 ; RTC_Ioctl + 368
        0x00002f88:    e3500008    ..P.    CMP      r0,#8
        0x00002f8c:    0a00001e    ....    BEQ      0x300c ; RTC_Ioctl + 476
        0x00002f90:    e3500010    ..P.    CMP      r0,#0x10
        0x00002f94:    0a000012    ....    BEQ      0x2fe4 ; RTC_Ioctl + 436
        0x00002f98:    e3a00007    ....    MOV      r0,#7
        0x00002f9c:    e8bd87f0    ....    POP      {r4-r10,pc}
        0x00002fa0:    e5c68001    ....    STRB     r8,[r6,#1]
        0x00002fa4:    e5950028    (...    LDR      r0,[r5,#0x28]
        0x00002fa8:    e3804002    .@..    ORR      r4,r0,#2
        0x00002fac:    ea000019    ....    B        0x3018 ; RTC_Ioctl + 488
        0x00002fb0:    e5c68002    ....    STRB     r8,[r6,#2]
        0x00002fb4:    e3a00001    ....    MOV      r0,#1
        0x00002fb8:    eb0002a6    ....    BL       RTC_WriteEnable ; 0x3a58
        0x00002fbc:    e5950034    4...    LDR      r0,[r5,#0x34]
        0x00002fc0:    e3800008    ....    ORR      r0,r0,#8
        0x00002fc4:    e5850034    4...    STR      r0,[r5,#0x34]
        0x00002fc8:    e5950028    (...    LDR      r0,[r5,#0x28]
        0x00002fcc:    e3800001    ....    ORR      r0,r0,#1
        0x00002fd0:    e5850028    (...    STR      r0,[r5,#0x28]
        0x00002fd4:    ebfffed8    ....    BL       RTC_Check ; 0x2b3c
        0x00002fd8:    e5950028    (...    LDR      r0,[r5,#0x28]
        0x00002fdc:    e3804001    .@..    ORR      r4,r0,#1
        0x00002fe0:    ea00000c    ....    B        0x3018 ; RTC_Ioctl + 488
        0x00002fe4:    e5c68002    ....    STRB     r8,[r6,#2]
        0x00002fe8:    e3a00001    ....    MOV      r0,#1
        0x00002fec:    eb000299    ....    BL       RTC_WriteEnable ; 0x3a58
        0x00002ff0:    e5950034    4...    LDR      r0,[r5,#0x34]
        0x00002ff4:    e3800010    ....    ORR      r0,r0,#0x10
        0x00002ff8:    e5850034    4...    STR      r0,[r5,#0x34]
        0x00002ffc:    ebfffece    ....    BL       RTC_Check ; 0x2b3c
        0x00003000:    e5950028    (...    LDR      r0,[r5,#0x28]
        0x00003004:    e3804010    .@..    ORR      r4,r0,#0x10
        0x00003008:    ea000002    ....    B        0x3018 ; RTC_Ioctl + 488
        0x0000300c:    e5c68002    ....    STRB     r8,[r6,#2]
        0x00003010:    e5950028    (...    LDR      r0,[r5,#0x28]
        0x00003014:    e3804008    .@..    ORR      r4,r0,#8
        0x00003018:    e3a00001    ....    MOV      r0,#1
        0x0000301c:    eb00028d    ....    BL       RTC_WriteEnable ; 0x3a58
        0x00003020:    e5854028    (@..    STR      r4,[r5,#0x28]
        0x00003024:    ebfffec4    ....    BL       RTC_Check ; 0x2b3c
        0x00003028:    ea0000ac    ....    B        0x32e0 ; RTC_Ioctl + 1200
        0x0000302c:    e3500008    ..P.    CMP      r0,#8
        0x00003030:    0a000034    4...    BEQ      0x3108 ; RTC_Ioctl + 728
        0x00003034:    ca000004    ....    BGT      0x304c ; RTC_Ioctl + 540
        0x00003038:    e3500001    ..P.    CMP      r0,#1
        0x0000303c:    0a000012    ....    BEQ      0x308c ; RTC_Ioctl + 604
        0x00003040:    e3500002    ..P.    CMP      r0,#2
        0x00003044:    1a000004    ....    BNE      0x305c ; RTC_Ioctl + 556
        0x00003048:    ea000005    ....    B        0x3064 ; RTC_Ioctl + 564
        0x0000304c:    e3500010    ..P.    CMP      r0,#0x10
        0x00003050:    0a00001c    ....    BEQ      0x30c8 ; RTC_Ioctl + 664
        0x00003054:    e350003f    ?.P.    CMP      r0,#0x3f
        0x00003058:    0a000034    4...    BEQ      0x3130 ; RTC_Ioctl + 768
        0x0000305c:    e3a00007    ....    MOV      r0,#7
        0x00003060:    e8bd87f0    ....    POP      {r4-r10,pc}
        0x00003064:    e5c67001    .p..    STRB     r7,[r6,#1]
        0x00003068:    e3a00001    ....    MOV      r0,#1
        0x0000306c:    eb000279    y...    BL       RTC_WriteEnable ; 0x3a58
        0x00003070:    e5950028    (...    LDR      r0,[r5,#0x28]
        0x00003074:    e3c00002    ....    BIC      r0,r0,#2
        0x00003078:    e5850028    (...    STR      r0,[r5,#0x28]
        0x0000307c:    e3a00002    ....    MOV      r0,#2
        0x00003080:    e585002c    ,...    STR      r0,[r5,#0x2c]
        0x00003084:    ebfffeac    ....    BL       RTC_Check ; 0x2b3c
        0x00003088:    ea000094    ....    B        0x32e0 ; RTC_Ioctl + 1200
        0x0000308c:    e5c67002    .p..    STRB     r7,[r6,#2]
        0x00003090:    e3a00001    ....    MOV      r0,#1
        0x00003094:    eb00026f    o...    BL       RTC_WriteEnable ; 0x3a58
        0x00003098:    e5950028    (...    LDR      r0,[r5,#0x28]
        0x0000309c:    e3c00001    ....    BIC      r0,r0,#1
        0x000030a0:    e5850028    (...    STR      r0,[r5,#0x28]
        0x000030a4:    ebfffea4    ....    BL       RTC_Check ; 0x2b3c
        0x000030a8:    e3a00001    ....    MOV      r0,#1
        0x000030ac:    eb000269    i...    BL       RTC_WriteEnable ; 0x3a58
        0x000030b0:    e5950034    4...    LDR      r0,[r5,#0x34]
        0x000030b4:    e3c00008    ....    BIC      r0,r0,#8
        0x000030b8:    e5850034    4...    STR      r0,[r5,#0x34]
        0x000030bc:    ebfffe9e    ....    BL       RTC_Check ; 0x2b3c
        0x000030c0:    e585802c    ,...    STR      r8,[r5,#0x2c]
        0x000030c4:    ea000085    ....    B        0x32e0 ; RTC_Ioctl + 1200
        0x000030c8:    e5c67002    .p..    STRB     r7,[r6,#2]
        0x000030cc:    e3a00001    ....    MOV      r0,#1
        0x000030d0:    eb000260    `...    BL       RTC_WriteEnable ; 0x3a58
        0x000030d4:    e5950028    (...    LDR      r0,[r5,#0x28]
        0x000030d8:    e3c00010    ....    BIC      r0,r0,#0x10
        0x000030dc:    e5850028    (...    STR      r0,[r5,#0x28]
        0x000030e0:    ebfffe95    ....    BL       RTC_Check ; 0x2b3c
        0x000030e4:    e3a00001    ....    MOV      r0,#1
        0x000030e8:    eb00025a    Z...    BL       RTC_WriteEnable ; 0x3a58
        0x000030ec:    e5950034    4...    LDR      r0,[r5,#0x34]
        0x000030f0:    e3c00010    ....    BIC      r0,r0,#0x10
        0x000030f4:    e5850034    4...    STR      r0,[r5,#0x34]
        0x000030f8:    ebfffe8f    ....    BL       RTC_Check ; 0x2b3c
        0x000030fc:    e3a00010    ....    MOV      r0,#0x10
        0x00003100:    e585002c    ,...    STR      r0,[r5,#0x2c]
        0x00003104:    ea000075    u...    B        0x32e0 ; RTC_Ioctl + 1200
        0x00003108:    e5c67002    .p..    STRB     r7,[r6,#2]
        0x0000310c:    e3a00001    ....    MOV      r0,#1
        0x00003110:    eb000250    P...    BL       RTC_WriteEnable ; 0x3a58
        0x00003114:    e5950028    (...    LDR      r0,[r5,#0x28]
        0x00003118:    e3c00008    ....    BIC      r0,r0,#8
        0x0000311c:    e5850028    (...    STR      r0,[r5,#0x28]
        0x00003120:    ebfffe85    ....    BL       RTC_Check ; 0x2b3c
        0x00003124:    e3a00008    ....    MOV      r0,#8
        0x00003128:    e585002c    ,...    STR      r0,[r5,#0x2c]
        0x0000312c:    ea00006b    k...    B        0x32e0 ; RTC_Ioctl + 1200
        0x00003130:    e5c67001    .p..    STRB     r7,[r6,#1]
        0x00003134:    e5c67002    .p..    STRB     r7,[r6,#2]
        0x00003138:    e3a00001    ....    MOV      r0,#1
        0x0000313c:    eb000245    E...    BL       RTC_WriteEnable ; 0x3a58
        0x00003140:    e5857028    (p..    STR      r7,[r5,#0x28]
        0x00003144:    e3a0003f    ?...    MOV      r0,#0x3f
        0x00003148:    e585002c    ,...    STR      r0,[r5,#0x2c]
        0x0000314c:    ebfffe7a    z...    BL       RTC_Check ; 0x2b3c
        0x00003150:    ea000062    b...    B        0x32e0 ; RTC_Ioctl + 1200
        0x00003154:    e1a00004    ....    MOV      r0,r4
        0x00003158:    ebfffe8e    ....    BL       RTC_DoFrequencyCompensation ; 0x2b98
        0x0000315c:    e3500000    ..P.    CMP      r0,#0
        0x00003160:    0a00005e    ^...    BEQ      0x32e0 ; RTC_Ioctl + 1200
        0x00003164:    e3a00007    ....    MOV      r0,#7
        0x00003168:    e8bd87f0    ....    POP      {r4-r10,pc}
        0x0000316c:    e3a00001    ....    MOV      r0,#1
        0x00003170:    eb000238    8...    BL       RTC_WriteEnable ; 0x3a58
        0x00003174:    e5950034    4...    LDR      r0,[r5,#0x34]
        0x00003178:    e3800001    ....    ORR      r0,r0,#1
        0x0000317c:    e5850034    4...    STR      r0,[r5,#0x34]
        0x00003180:    ebfffe6d    m...    BL       RTC_Check ; 0x2b3c
        0x00003184:    e5950034    4...    LDR      r0,[r5,#0x34]
        0x00003188:    e3100001    ....    TST      r0,#1
        0x0000318c:    0afffffc    ....    BEQ      0x3184 ; RTC_Ioctl + 852
        0x00003190:    ea000052    R...    B        0x32e0 ; RTC_Ioctl + 1200
        0x00003194:    e3a00001    ....    MOV      r0,#1
        0x00003198:    eb00022e    ....    BL       RTC_WriteEnable ; 0x3a58
        0x0000319c:    e5950034    4...    LDR      r0,[r5,#0x34]
        0x000031a0:    e3c00001    ....    BIC      r0,r0,#1
        0x000031a4:    e3800002    ....    ORR      r0,r0,#2
        0x000031a8:    e5850034    4...    STR      r0,[r5,#0x34]
        0x000031ac:    ebfffe62    b...    BL       RTC_Check ; 0x2b3c
        0x000031b0:    eafffffe    ....    B        0x31b0 ; RTC_Ioctl + 896
        0x000031b4:    e3540004    ..T.    CMP      r4,#4
        0x000031b8:    2a000000    ...*    BCS      0x31c0 ; RTC_Ioctl + 912
        0x000031bc:    e3a04004    .@..    MOV      r4,#4
        0x000031c0:    e2444004    .@D.    SUB      r4,r4,#4
        0x000031c4:    e3a00001    ....    MOV      r0,#1
        0x000031c8:    eb000222    "...    BL       RTC_WriteEnable ; 0x3a58
        0x000031cc:    e5950034    4...    LDR      r0,[r5,#0x34]
        0x000031d0:    e204100f    ....    AND      r1,r4,#0xf
        0x000031d4:    e3c00a0f    ....    BIC      r0,r0,#0xf000
        0x000031d8:    e1800601    ....    ORR      r0,r0,r1,LSL #12
        0x000031dc:    e5850034    4...    STR      r0,[r5,#0x34]
        0x000031e0:    ebfffe55    U...    BL       RTC_Check ; 0x2b3c
        0x000031e4:    ea00003d    =...    B        0x32e0 ; RTC_Ioctl + 1200
        0x000031e8:    e3a00001    ....    MOV      r0,#1
        0x000031ec:    eb000219    ....    BL       RTC_WriteEnable ; 0x3a58
        0x000031f0:    e5950034    4...    LDR      r0,[r5,#0x34]
        0x000031f4:    e3800004    ....    ORR      r0,r0,#4
        0x000031f8:    e5850034    4...    STR      r0,[r5,#0x34]
        0x000031fc:    ebfffe4e    N...    BL       RTC_Check ; 0x2b3c
        0x00003200:    ea000036    6...    B        0x32e0 ; RTC_Ioctl + 1200
        0x00003204:    e3a00001    ....    MOV      r0,#1
        0x00003208:    eb000212    ....    BL       RTC_WriteEnable ; 0x3a58
        0x0000320c:    e5950034    4...    LDR      r0,[r5,#0x34]
        0x00003210:    e3c00004    ....    BIC      r0,r0,#4
        0x00003214:    e5850034    4...    STR      r0,[r5,#0x34]
        0x00003218:    ebfffe47    G...    BL       RTC_Check ; 0x2b3c
        0x0000321c:    ea00002f    /...    B        0x32e0 ; RTC_Ioctl + 1200
        0x00003220:    e3a03000    .0..    MOV      r3,#0
        0x00003224:    e3a02008    . ..    MOV      r2,#8
        0x00003228:    e3a01004    ....    MOV      r1,#4
        0x0000322c:    e1a00003    ....    MOV      r0,r3
        0x00003230:    ebfffefe    ....    BL       RTC_Ioctl ; 0x2e30
        0x00003234:    e3540000    ..T.    CMP      r4,#0
        0x00003238:    0a000001    ....    BEQ      0x3244 ; RTC_Ioctl + 1044
        0x0000323c:    e586400c    .@..    STR      r4,[r6,#0xc]
        0x00003240:    ea000026    &...    B        0x32e0 ; RTC_Ioctl + 1200
        0x00003244:    e586700c    .p..    STR      r7,[r6,#0xc]
        0x00003248:    ea000024    $...    B        0x32e0 ; RTC_Ioctl + 1200
        0x0000324c:    e3a00001    ....    MOV      r0,#1
        0x00003250:    eb000200    ....    BL       RTC_WriteEnable ; 0x3a58
        0x00003254:    e5950034    4...    LDR      r0,[r5,#0x34]
        0x00003258:    e3100080    ....    TST      r0,#0x80
        0x0000325c:    0a000001    ....    BEQ      0x3268 ; RTC_Ioctl + 1080
        0x00003260:    e5848000    ....    STR      r8,[r4,#0]
        0x00003264:    ea00001d    ....    B        0x32e0 ; RTC_Ioctl + 1200
        0x00003268:    e5847000    .p..    STR      r7,[r4,#0]
        0x0000326c:    ea00001b    ....    B        0x32e0 ; RTC_Ioctl + 1200
        0x00003270:    e5c68002    ....    STRB     r8,[r6,#2]
        0x00003274:    e3a00001    ....    MOV      r0,#1
        0x00003278:    eb0001f6    ....    BL       RTC_WriteEnable ; 0x3a58
        0x0000327c:    e5950034    4...    LDR      r0,[r5,#0x34]
        0x00003280:    e59f1070    p...    LDR      r1,[pc,#112] ; [0x32f8] = 0xf000ffef
        0x00003284:    e0000001    ....    AND      r0,r0,r1
        0x00003288:    e5850034    4...    STR      r0,[r5,#0x34]
        0x0000328c:    ebfffe2a    *...    BL       RTC_Check ; 0x2b3c
        0x00003290:    e3a00001    ....    MOV      r0,#1
        0x00003294:    eb0001ef    ....    BL       RTC_WriteEnable ; 0x3a58
        0x00003298:    e5950034    4...    LDR      r0,[r5,#0x34]
        0x0000329c:    e3c41a0f    ....    BIC      r1,r4,#0xf000
        0x000032a0:    e3c0040f    ....    BIC      r0,r0,#0xf000000
        0x000032a4:    e3c008ff    ....    BIC      r0,r0,#0xff0000
        0x000032a8:    e1800801    ....    ORR      r0,r0,r1,LSL #16
        0x000032ac:    e3800010    ....    ORR      r0,r0,#0x10
        0x000032b0:    e5850034    4...    STR      r0,[r5,#0x34]
        0x000032b4:    ebfffe20     ...    BL       RTC_Check ; 0x2b3c
        0x000032b8:    e5c68002    ....    STRB     r8,[r6,#2]
        0x000032bc:    e3a00001    ....    MOV      r0,#1
        0x000032c0:    eb0001e4    ....    BL       RTC_WriteEnable ; 0x3a58
        0x000032c4:    e5950028    (...    LDR      r0,[r5,#0x28]
        0x000032c8:    e3800010    ....    ORR      r0,r0,#0x10
        0x000032cc:    e5850028    (...    STR      r0,[r5,#0x28]
        0x000032d0:    ebfffe19    ....    BL       RTC_Check ; 0x2b3c
        0x000032d4:    e3590000    ..Y.    CMP      r9,#0
        0x000032d8:    0a000000    ....    BEQ      0x32e0 ; RTC_Ioctl + 1200
        0x000032dc:    e5869010    ....    STR      r9,[r6,#0x10]
        0x000032e0:    e3a00000    ....    MOV      r0,#0
        0x000032e4:    e8bd87f0    ....    POP      {r4-r10,pc}
        0x000032e8:    e3a00007    ....    MOV      r0,#7
        0x000032ec:    e8bd87f0    ....    POP      {r4-r10,pc}
    $d
        0x000032f0:    b8004000    .@..    DCD    3087024128
        0x000032f4:    0000a5dc    ....    DCD    42460
        0x000032f8:    f000ffef    ....    DCD    4026597359
    $a
    i.RTC_Read
    RTC_Read
        0x000032fc:    e92d4010    .@-.    PUSH     {r4,lr}
        0x00003300:    e59fc258    X...    LDR      r12,[pc,#600] ; [0x3560] = 0xb8004000
        0x00003304:    e59c2014    . ..    LDR      r2,[r12,#0x14]
        0x00003308:    e20230ff    .0..    AND      r3,r2,#0xff
        0x0000330c:    e5c13000    .0..    STRB     r3,[r1,#0]
        0x00003310:    e59c2018    . ..    LDR      r2,[r12,#0x18]
        0x00003314:    e5812010    . ..    STR      r2,[r1,#0x10]
        0x00003318:    e59f2244    D"..    LDR      r2,[pc,#580] ; [0x3564] = 0xa5dc
        0x0000331c:    e3500000    ..P.    CMP      r0,#0
        0x00003320:    0a000003    ....    BEQ      0x3334 ; RTC_Read + 56
        0x00003324:    e3500001    ..P.    CMP      r0,#1
        0x00003328:    0a000006    ....    BEQ      0x3348 ; RTC_Read + 76
        0x0000332c:    e3a00007    ....    MOV      r0,#7
        0x00003330:    e8bd8010    ....    POP      {r4,pc}
        0x00003334:    e59c4010    .@..    LDR      r4,[r12,#0x10]
        0x00003338:    e5824018    .@..    STR      r4,[r2,#0x18]
        0x0000333c:    e59cc00c    ....    LDR      r12,[r12,#0xc]
        0x00003340:    e582c01c    ....    STR      r12,[r2,#0x1c]
        0x00003344:    ea000003    ....    B        0x3358 ; RTC_Read + 92
        0x00003348:    e59c4020     @..    LDR      r4,[r12,#0x20]
        0x0000334c:    e5824018    .@..    STR      r4,[r2,#0x18]
        0x00003350:    e59cc01c    ....    LDR      r12,[r12,#0x1c]
        0x00003354:    e582c01c    ....    STR      r12,[r2,#0x1c]
        0x00003358:    e592c018    ....    LDR      r12,[r2,#0x18]
        0x0000335c:    e20cc60f    ....    AND      r12,r12,#0xf00000
        0x00003360:    e1a0ca2c    ,...    LSR      r12,r12,#20
        0x00003364:    e582c020     ...    STR      r12,[r2,#0x20]
        0x00003368:    e592c018    ....    LDR      r12,[r2,#0x18]
        0x0000336c:    e20cc80f    ....    AND      r12,r12,#0xf0000
        0x00003370:    e1a0c82c    ,...    LSR      r12,r12,#16
        0x00003374:    e582c024    $...    STR      r12,[r2,#0x24]
        0x00003378:    e592c018    ....    LDR      r12,[r2,#0x18]
        0x0000337c:    e20cca01    ....    AND      r12,r12,#0x1000
        0x00003380:    e1a0c62c    ,...    LSR      r12,r12,#12
        0x00003384:    e582c028    (...    STR      r12,[r2,#0x28]
        0x00003388:    e592c018    ....    LDR      r12,[r2,#0x18]
        0x0000338c:    e20ccc0f    ....    AND      r12,r12,#0xf00
        0x00003390:    e1a0c42c    ,...    LSR      r12,r12,#8
        0x00003394:    e582c02c    ,...    STR      r12,[r2,#0x2c]
        0x00003398:    e592c018    ....    LDR      r12,[r2,#0x18]
        0x0000339c:    e20cc030    0...    AND      r12,r12,#0x30
        0x000033a0:    e1a0c22c    ,...    LSR      r12,r12,#4
        0x000033a4:    e582c030    0...    STR      r12,[r2,#0x30]
        0x000033a8:    e592c018    ....    LDR      r12,[r2,#0x18]
        0x000033ac:    e20cc00f    ....    AND      r12,r12,#0xf
        0x000033b0:    e582c034    4...    STR      r12,[r2,#0x34]
        0x000033b4:    e592c020     ...    LDR      r12,[r2,#0x20]
        0x000033b8:    e08cc10c    ....    ADD      r12,r12,r12,LSL #2
        0x000033bc:    e1a0c08c    ....    LSL      r12,r12,#1
        0x000033c0:    e5924024    $@..    LDR      r4,[r2,#0x24]
        0x000033c4:    e08cc004    ....    ADD      r12,r12,r4
        0x000033c8:    e28cce7d    }...    ADD      r12,r12,#0x7d0
        0x000033cc:    e581c01c    ....    STR      r12,[r1,#0x1c]
        0x000033d0:    e592c028    (...    LDR      r12,[r2,#0x28]
        0x000033d4:    e08cc10c    ....    ADD      r12,r12,r12,LSL #2
        0x000033d8:    e1a0c08c    ....    LSL      r12,r12,#1
        0x000033dc:    e592402c    ,@..    LDR      r4,[r2,#0x2c]
        0x000033e0:    e08cc004    ....    ADD      r12,r12,r4
        0x000033e4:    e581c018    ....    STR      r12,[r1,#0x18]
        0x000033e8:    e592c030    0...    LDR      r12,[r2,#0x30]
        0x000033ec:    e08cc10c    ....    ADD      r12,r12,r12,LSL #2
        0x000033f0:    e1a0c08c    ....    LSL      r12,r12,#1
        0x000033f4:    e5924034    4@..    LDR      r4,[r2,#0x34]
        0x000033f8:    e08cc004    ....    ADD      r12,r12,r4
        0x000033fc:    e581c014    ....    STR      r12,[r1,#0x14]
        0x00003400:    e592c01c    ....    LDR      r12,[r2,#0x1c]
        0x00003404:    e20cc603    ....    AND      r12,r12,#0x300000
        0x00003408:    e1a0ca2c    ,...    LSR      r12,r12,#20
        0x0000340c:    e582c038    8...    STR      r12,[r2,#0x38]
        0x00003410:    e592c01c    ....    LDR      r12,[r2,#0x1c]
        0x00003414:    e20cc80f    ....    AND      r12,r12,#0xf0000
        0x00003418:    e1a0c82c    ,...    LSR      r12,r12,#16
        0x0000341c:    e582c03c    <...    STR      r12,[r2,#0x3c]
        0x00003420:    e592c01c    ....    LDR      r12,[r2,#0x1c]
        0x00003424:    e20cca07    ....    AND      r12,r12,#0x7000
        0x00003428:    e1a0c62c    ,...    LSR      r12,r12,#12
        0x0000342c:    e582c040    @...    STR      r12,[r2,#0x40]
        0x00003430:    e592c01c    ....    LDR      r12,[r2,#0x1c]
        0x00003434:    e20ccc0f    ....    AND      r12,r12,#0xf00
        0x00003438:    e1a0c42c    ,...    LSR      r12,r12,#8
        0x0000343c:    e582c044    D...    STR      r12,[r2,#0x44]
        0x00003440:    e592c01c    ....    LDR      r12,[r2,#0x1c]
        0x00003444:    e20cc070    p...    AND      r12,r12,#0x70
        0x00003448:    e1a0c22c    ,...    LSR      r12,r12,#4
        0x0000344c:    e582c048    H...    STR      r12,[r2,#0x48]
        0x00003450:    e592c01c    ....    LDR      r12,[r2,#0x1c]
        0x00003454:    e20cc00f    ....    AND      r12,r12,#0xf
        0x00003458:    e582c04c    L...    STR      r12,[r2,#0x4c]
        0x0000345c:    e3530000    ..S.    CMP      r3,#0
        0x00003460:    0a000013    ....    BEQ      0x34b4 ; RTC_Read + 440
        0x00003464:    e5920038    8...    LDR      r0,[r2,#0x38]
        0x00003468:    e0800100    ....    ADD      r0,r0,r0,LSL #2
        0x0000346c:    e1a00080    ....    LSL      r0,r0,#1
        0x00003470:    e592303c    <0..    LDR      r3,[r2,#0x3c]
        0x00003474:    e0800003    ....    ADD      r0,r0,r3
        0x00003478:    e581000c    ....    STR      r0,[r1,#0xc]
        0x0000347c:    e5920040    @...    LDR      r0,[r2,#0x40]
        0x00003480:    e0800100    ....    ADD      r0,r0,r0,LSL #2
        0x00003484:    e1a00080    ....    LSL      r0,r0,#1
        0x00003488:    e5923044    D0..    LDR      r3,[r2,#0x44]
        0x0000348c:    e0800003    ....    ADD      r0,r0,r3
        0x00003490:    e5810008    ....    STR      r0,[r1,#8]
        0x00003494:    e5920048    H...    LDR      r0,[r2,#0x48]
        0x00003498:    e0800100    ....    ADD      r0,r0,r0,LSL #2
        0x0000349c:    e1a00080    ....    LSL      r0,r0,#1
        0x000034a0:    e592204c    L ..    LDR      r2,[r2,#0x4c]
        0x000034a4:    e0800002    ....    ADD      r0,r0,r2
        0x000034a8:    e5810004    ....    STR      r0,[r1,#4]
        0x000034ac:    e3a00000    ....    MOV      r0,#0
        0x000034b0:    e8bd8010    ....    POP      {r4,pc}
        0x000034b4:    e5923038    80..    LDR      r3,[r2,#0x38]
        0x000034b8:    e0833103    .1..    ADD      r3,r3,r3,LSL #2
        0x000034bc:    e1a03083    .0..    LSL      r3,r3,#1
        0x000034c0:    e592c03c    <...    LDR      r12,[r2,#0x3c]
        0x000034c4:    e083300c    .0..    ADD      r3,r3,r12
        0x000034c8:    e581300c    .0..    STR      r3,[r1,#0xc]
        0x000034cc:    e3500000    ..P.    CMP      r0,#0
        0x000034d0:    e3a04001    .@..    MOV      r4,#1
        0x000034d4:    e3a0c002    ....    MOV      r12,#2
        0x000034d8:    0a000004    ....    BEQ      0x34f0 ; RTC_Read + 500
        0x000034dc:    e353000c    ..S.    CMP      r3,#0xc
        0x000034e0:    2a00000e    ...*    BCS      0x3520 ; RTC_Read + 548
        0x000034e4:    e3530000    ..S.    CMP      r3,#0
        0x000034e8:    0a000008    ....    BEQ      0x3510 ; RTC_Read + 532
        0x000034ec:    ea000009    ....    B        0x3518 ; RTC_Read + 540
        0x000034f0:    e3530015    ..S.    CMP      r3,#0x15
        0x000034f4:    3a000003    ...:    BCC      0x3508 ; RTC_Read + 524
        0x000034f8:    e5c1c001    ....    STRB     r12,[r1,#1]
        0x000034fc:    e2430014    ..C.    SUB      r0,r3,#0x14
        0x00003500:    e581000c    ....    STR      r0,[r1,#0xc]
        0x00003504:    ea000008    ....    B        0x352c ; RTC_Read + 560
        0x00003508:    e5c14001    .@..    STRB     r4,[r1,#1]
        0x0000350c:    ea000006    ....    B        0x352c ; RTC_Read + 560
        0x00003510:    e3a0000c    ....    MOV      r0,#0xc
        0x00003514:    e581000c    ....    STR      r0,[r1,#0xc]
        0x00003518:    e5c14001    .@..    STRB     r4,[r1,#1]
        0x0000351c:    ea000002    ....    B        0x352c ; RTC_Read + 560
        0x00003520:    e243000c    ..C.    SUB      r0,r3,#0xc
        0x00003524:    e581000c    ....    STR      r0,[r1,#0xc]
        0x00003528:    e5c1c001    ....    STRB     r12,[r1,#1]
        0x0000352c:    e5920040    @...    LDR      r0,[r2,#0x40]
        0x00003530:    e0800100    ....    ADD      r0,r0,r0,LSL #2
        0x00003534:    e1a00080    ....    LSL      r0,r0,#1
        0x00003538:    e5923044    D0..    LDR      r3,[r2,#0x44]
        0x0000353c:    e0800003    ....    ADD      r0,r0,r3
        0x00003540:    e5810008    ....    STR      r0,[r1,#8]
        0x00003544:    e5920048    H...    LDR      r0,[r2,#0x48]
        0x00003548:    e0800100    ....    ADD      r0,r0,r0,LSL #2
        0x0000354c:    e1a00080    ....    LSL      r0,r0,#1
        0x00003550:    e592204c    L ..    LDR      r2,[r2,#0x4c]
        0x00003554:    e0800002    ....    ADD      r0,r0,r2
        0x00003558:    e5810004    ....    STR      r0,[r1,#4]
        0x0000355c:    eaffffd2    ....    B        0x34ac ; RTC_Read + 432
    $d
        0x00003560:    b8004000    .@..    DCD    3087024128
        0x00003564:    0000a5dc    ....    DCD    42460
    $a
    i.RTC_Write
    RTC_Write
        0x00003568:    e92d41f0    .A-.    PUSH     {r4-r8,lr}
        0x0000356c:    e1a04001    .@..    MOV      r4,r1
        0x00003570:    e5941018    ....    LDR      r1,[r4,#0x18]
        0x00003574:    e3510000    ..Q.    CMP      r1,#0
        0x00003578:    0a000001    ....    BEQ      0x3584 ; RTC_Write + 28
        0x0000357c:    e351000c    ..Q.    CMP      r1,#0xc
        0x00003580:    9a000001    ....    BLS      0x358c ; RTC_Write + 36
        0x00003584:    e3a02001    . ..    MOV      r2,#1
        0x00003588:    ea000000    ....    B        0x3590 ; RTC_Write + 40
        0x0000358c:    e3a02000    . ..    MOV      r2,#0
        0x00003590:    e594301c    .0..    LDR      r3,[r4,#0x1c]
        0x00003594:    e2433e7d    }>C.    SUB      r3,r3,#0x7d0
        0x00003598:    e3530063    c.S.    CMP      r3,#0x63
        0x0000359c:    9a000001    ....    BLS      0x35a8 ; RTC_Write + 64
        0x000035a0:    e3a0c001    ....    MOV      r12,#1
        0x000035a4:    ea000000    ....    B        0x35ac ; RTC_Write + 68
        0x000035a8:    e3a0c000    ....    MOV      r12,#0
        0x000035ac:    e182500c    .P..    ORR      r5,r2,r12
        0x000035b0:    e5942014    . ..    LDR      r2,[r4,#0x14]
        0x000035b4:    e3520000    ..R.    CMP      r2,#0
        0x000035b8:    0a000001    ....    BEQ      0x35c4 ; RTC_Write + 92
        0x000035bc:    e352001f    ..R.    CMP      r2,#0x1f
        0x000035c0:    9a000001    ....    BLS      0x35cc ; RTC_Write + 100
        0x000035c4:    e3a0c001    ....    MOV      r12,#1
        0x000035c8:    ea000000    ....    B        0x35d0 ; RTC_Write + 104
        0x000035cc:    e3a0c000    ....    MOV      r12,#0
        0x000035d0:    e19cc005    ....    ORRS     r12,r12,r5
        0x000035d4:    0a000001    ....    BEQ      0x35e0 ; RTC_Write + 120
        0x000035d8:    e3a00001    ....    MOV      r0,#1
        0x000035dc:    e8bd81f0    ....    POP      {r4-r8,pc}
        0x000035e0:    e3530063    c.S.    CMP      r3,#0x63
        0x000035e4:    9a000001    ....    BLS      0x35f0 ; RTC_Write + 136
        0x000035e8:    e3a00001    ....    MOV      r0,#1
        0x000035ec:    e8bd81f0    ....    POP      {r4-r8,pc}
        0x000035f0:    e3510000    ..Q.    CMP      r1,#0
        0x000035f4:    0a000001    ....    BEQ      0x3600 ; RTC_Write + 152
        0x000035f8:    e351000c    ..Q.    CMP      r1,#0xc
        0x000035fc:    9a000001    ....    BLS      0x3608 ; RTC_Write + 160
        0x00003600:    e3a00001    ....    MOV      r0,#1
        0x00003604:    e8bd81f0    ....    POP      {r4-r8,pc}
        0x00003608:    e3520000    ..R.    CMP      r2,#0
        0x0000360c:    0a000001    ....    BEQ      0x3618 ; RTC_Write + 176
        0x00003610:    e352001f    ..R.    CMP      r2,#0x1f
        0x00003614:    9a000001    ....    BLS      0x3620 ; RTC_Write + 184
        0x00003618:    e3a00001    ....    MOV      r0,#1
        0x0000361c:    e8bd81f0    ....    POP      {r4-r8,pc}
        0x00003620:    e5d41000    ....    LDRB     r1,[r4,#0]
        0x00003624:    e3510000    ..Q.    CMP      r1,#0
        0x00003628:    0a000003    ....    BEQ      0x363c ; RTC_Write + 212
        0x0000362c:    e3510001    ..Q.    CMP      r1,#1
        0x00003630:    0a000008    ....    BEQ      0x3658 ; RTC_Write + 240
        0x00003634:    e3a00003    ....    MOV      r0,#3
        0x00003638:    e8bd81f0    ....    POP      {r4-r8,pc}
        0x0000363c:    e594200c    . ..    LDR      r2,[r4,#0xc]
        0x00003640:    e3520000    ..R.    CMP      r2,#0
        0x00003644:    0a000001    ....    BEQ      0x3650 ; RTC_Write + 232
        0x00003648:    e352000c    ..R.    CMP      r2,#0xc
        0x0000364c:    9a000006    ....    BLS      0x366c ; RTC_Write + 260
        0x00003650:    e3a00003    ....    MOV      r0,#3
        0x00003654:    e8bd81f0    ....    POP      {r4-r8,pc}
        0x00003658:    e594200c    . ..    LDR      r2,[r4,#0xc]
        0x0000365c:    e3520017    ..R.    CMP      r2,#0x17
        0x00003660:    9a000001    ....    BLS      0x366c ; RTC_Write + 260
        0x00003664:    e3a00003    ....    MOV      r0,#3
        0x00003668:    e8bd81f0    ....    POP      {r4-r8,pc}
        0x0000366c:    e5942008    . ..    LDR      r2,[r4,#8]
        0x00003670:    e352003b    ;.R.    CMP      r2,#0x3b
        0x00003674:    9a000001    ....    BLS      0x3680 ; RTC_Write + 280
        0x00003678:    e3a00003    ....    MOV      r0,#3
        0x0000367c:    e8bd81f0    ....    POP      {r4-r8,pc}
        0x00003680:    e5942004    . ..    LDR      r2,[r4,#4]
        0x00003684:    e352003b    ;.R.    CMP      r2,#0x3b
        0x00003688:    9a000001    ....    BLS      0x3694 ; RTC_Write + 300
        0x0000368c:    e3a00003    ....    MOV      r0,#3
        0x00003690:    e8bd81f0    ....    POP      {r4-r8,pc}
        0x00003694:    e5942010    . ..    LDR      r2,[r4,#0x10]
        0x00003698:    e3520006    ..R.    CMP      r2,#6
        0x0000369c:    9a000001    ....    BLS      0x36a8 ; RTC_Write + 320
        0x000036a0:    e3a00004    ....    MOV      r0,#4
        0x000036a4:    e8bd81f0    ....    POP      {r4-r8,pc}
        0x000036a8:    e59f53a0    .S..    LDR      r5,[pc,#928] ; [0x3a50] = 0xa5dc
        0x000036ac:    e59f63a0    .c..    LDR      r6,[pc,#928] ; [0x3a54] = 0xb8004000
        0x000036b0:    e3500000    ..P.    CMP      r0,#0
        0x000036b4:    e3a07000    .p..    MOV      r7,#0
        0x000036b8:    0a000003    ....    BEQ      0x36cc ; RTC_Write + 356
        0x000036bc:    e3500001    ..P.    CMP      r0,#1
        0x000036c0:    0a000069    i...    BEQ      0x386c ; RTC_Write + 772
        0x000036c4:    e3a00007    ....    MOV      r0,#7
        0x000036c8:    e8bd81f0    ....    POP      {r4-r8,pc}
        0x000036cc:    e3510000    ..Q.    CMP      r1,#0
        0x000036d0:    0a000051    Q...    BEQ      0x381c ; RTC_Write + 692
        0x000036d4:    e3a07001    .p..    MOV      r7,#1
        0x000036d8:    e5c57000    .p..    STRB     r7,[r5,#0]
        0x000036dc:    e3a00001    ....    MOV      r0,#1
        0x000036e0:    eb0000dc    ....    BL       RTC_WriteEnable ; 0x3a58
        0x000036e4:    e5867014    .p..    STR      r7,[r6,#0x14]
        0x000036e8:    ebfffd13    ....    BL       RTC_Check ; 0x2b3c
        0x000036ec:    e594000c    ....    LDR      r0,[r4,#0xc]
        0x000036f0:    e3a0100a    ....    MOV      r1,#0xa
        0x000036f4:    ebfff5b6    ....    BL       __aeabi_uidiv ; 0xdd4
        0x000036f8:    e5850038    8...    STR      r0,[r5,#0x38]
        0x000036fc:    e585103c    <...    STR      r1,[r5,#0x3c]
        0x00003700:    e5940008    ....    LDR      r0,[r4,#8]
        0x00003704:    e3a0100a    ....    MOV      r1,#0xa
        0x00003708:    ebfff5b1    ....    BL       __aeabi_uidiv ; 0xdd4
        0x0000370c:    e5850040    @...    STR      r0,[r5,#0x40]
        0x00003710:    e5851044    D...    STR      r1,[r5,#0x44]
        0x00003714:    e5940004    ....    LDR      r0,[r4,#4]
        0x00003718:    e3a0100a    ....    MOV      r1,#0xa
        0x0000371c:    ebfff5ac    ....    BL       __aeabi_uidiv ; 0xdd4
        0x00003720:    e5850048    H...    STR      r0,[r5,#0x48]
        0x00003724:    e585104c    L...    STR      r1,[r5,#0x4c]
        0x00003728:    e5950038    8...    LDR      r0,[r5,#0x38]
        0x0000372c:    e1a00a00    ....    LSL      r0,r0,#20
        0x00003730:    e595103c    <...    LDR      r1,[r5,#0x3c]
        0x00003734:    e1800801    ....    ORR      r0,r0,r1,LSL #16
        0x00003738:    e5951040    @...    LDR      r1,[r5,#0x40]
        0x0000373c:    e1800601    ....    ORR      r0,r0,r1,LSL #12
        0x00003740:    e5951044    D...    LDR      r1,[r5,#0x44]
        0x00003744:    e1800401    ....    ORR      r0,r0,r1,LSL #8
        0x00003748:    e5951048    H...    LDR      r1,[r5,#0x48]
        0x0000374c:    e1800201    ....    ORR      r0,r0,r1,LSL #4
        0x00003750:    e595104c    L...    LDR      r1,[r5,#0x4c]
        0x00003754:    e1800001    ....    ORR      r0,r0,r1
        0x00003758:    e5850018    ....    STR      r0,[r5,#0x18]
        0x0000375c:    e3a00001    ....    MOV      r0,#1
        0x00003760:    eb0000bc    ....    BL       RTC_WriteEnable ; 0x3a58
        0x00003764:    e5950018    ....    LDR      r0,[r5,#0x18]
        0x00003768:    e586000c    ....    STR      r0,[r6,#0xc]
        0x0000376c:    ebfffcf2    ....    BL       RTC_Check ; 0x2b3c
        0x00003770:    e594001c    ....    LDR      r0,[r4,#0x1c]
        0x00003774:    e3a0100a    ....    MOV      r1,#0xa
        0x00003778:    e2400e7d    }.@.    SUB      r0,r0,#0x7d0
        0x0000377c:    ebfff594    ....    BL       __aeabi_uidiv ; 0xdd4
        0x00003780:    e5850020     ...    STR      r0,[r5,#0x20]
        0x00003784:    e5851024    $...    STR      r1,[r5,#0x24]
        0x00003788:    e5940018    ....    LDR      r0,[r4,#0x18]
        0x0000378c:    e3a0100a    ....    MOV      r1,#0xa
        0x00003790:    ebfff58f    ....    BL       __aeabi_uidiv ; 0xdd4
        0x00003794:    e5850028    (...    STR      r0,[r5,#0x28]
        0x00003798:    e585102c    ,...    STR      r1,[r5,#0x2c]
        0x0000379c:    e5940014    ....    LDR      r0,[r4,#0x14]
        0x000037a0:    e3a0100a    ....    MOV      r1,#0xa
        0x000037a4:    ebfff58a    ....    BL       __aeabi_uidiv ; 0xdd4
        0x000037a8:    e5850030    0...    STR      r0,[r5,#0x30]
        0x000037ac:    e5851034    4...    STR      r1,[r5,#0x34]
        0x000037b0:    e5950020     ...    LDR      r0,[r5,#0x20]
        0x000037b4:    e1a00a00    ....    LSL      r0,r0,#20
        0x000037b8:    e5951024    $...    LDR      r1,[r5,#0x24]
        0x000037bc:    e1800801    ....    ORR      r0,r0,r1,LSL #16
        0x000037c0:    e5951028    (...    LDR      r1,[r5,#0x28]
        0x000037c4:    e1800601    ....    ORR      r0,r0,r1,LSL #12
        0x000037c8:    e595102c    ,...    LDR      r1,[r5,#0x2c]
        0x000037cc:    e1800401    ....    ORR      r0,r0,r1,LSL #8
        0x000037d0:    e5951030    0...    LDR      r1,[r5,#0x30]
        0x000037d4:    e1800201    ....    ORR      r0,r0,r1,LSL #4
        0x000037d8:    e5951034    4...    LDR      r1,[r5,#0x34]
        0x000037dc:    e1800001    ....    ORR      r0,r0,r1
        0x000037e0:    e5850018    ....    STR      r0,[r5,#0x18]
        0x000037e4:    e3a00001    ....    MOV      r0,#1
        0x000037e8:    eb00009a    ....    BL       RTC_WriteEnable ; 0x3a58
        0x000037ec:    e5950018    ....    LDR      r0,[r5,#0x18]
        0x000037f0:    e5860010    ....    STR      r0,[r6,#0x10]
        0x000037f4:    ebfffcd0    ....    BL       RTC_Check ; 0x2b3c
        0x000037f8:    e3a00001    ....    MOV      r0,#1
        0x000037fc:    eb000095    ....    BL       RTC_WriteEnable ; 0x3a58
        0x00003800:    e5940010    ....    LDR      r0,[r4,#0x10]
        0x00003804:    e5860018    ....    STR      r0,[r6,#0x18]
        0x00003808:    ebfffccb    ....    BL       RTC_Check ; 0x2b3c
        0x0000380c:    e5d40000    ....    LDRB     r0,[r4,#0]
        0x00003810:    e3500000    ..P.    CMP      r0,#0
        0x00003814:    0a00000c    ....    BEQ      0x384c ; RTC_Write + 740
        0x00003818:    ea000011    ....    B        0x3864 ; RTC_Write + 764
        0x0000381c:    e5c57000    .p..    STRB     r7,[r5,#0]
        0x00003820:    e3a00001    ....    MOV      r0,#1
        0x00003824:    eb00008b    ....    BL       RTC_WriteEnable ; 0x3a58
        0x00003828:    e5867014    .p..    STR      r7,[r6,#0x14]
        0x0000382c:    ebfffcc2    ....    BL       RTC_Check ; 0x2b3c
        0x00003830:    e5d40001    ....    LDRB     r0,[r4,#1]
        0x00003834:    e3500002    ..P.    CMP      r0,#2
        0x00003838:    1affffab    ....    BNE      0x36ec ; RTC_Write + 388
        0x0000383c:    e594000c    ....    LDR      r0,[r4,#0xc]
        0x00003840:    e2800014    ....    ADD      r0,r0,#0x14
        0x00003844:    e584000c    ....    STR      r0,[r4,#0xc]
        0x00003848:    eaffffa7    ....    B        0x36ec ; RTC_Write + 388
        0x0000384c:    e5d40001    ....    LDRB     r0,[r4,#1]
        0x00003850:    e3500002    ..P.    CMP      r0,#2
        0x00003854:    1a000002    ....    BNE      0x3864 ; RTC_Write + 764
        0x00003858:    e594000c    ....    LDR      r0,[r4,#0xc]
        0x0000385c:    e2400014    ..@.    SUB      r0,r0,#0x14
        0x00003860:    e584000c    ....    STR      r0,[r4,#0xc]
        0x00003864:    e3a00000    ....    MOV      r0,#0
        0x00003868:    e8bd81f0    ....    POP      {r4-r8,pc}
        0x0000386c:    e3a00001    ....    MOV      r0,#1
        0x00003870:    eb000078    x...    BL       RTC_WriteEnable ; 0x3a58
        0x00003874:    e5960034    4...    LDR      r0,[r6,#0x34]
        0x00003878:    e3c00008    ....    BIC      r0,r0,#8
        0x0000387c:    e5860034    4...    STR      r0,[r6,#0x34]
        0x00003880:    ebfffcad    ....    BL       RTC_Check ; 0x2b3c
        0x00003884:    e5857008    .p..    STR      r7,[r5,#8]
        0x00003888:    e594001c    ....    LDR      r0,[r4,#0x1c]
        0x0000388c:    e3a0100a    ....    MOV      r1,#0xa
        0x00003890:    e2400e7d    }.@.    SUB      r0,r0,#0x7d0
        0x00003894:    ebfff54e    N...    BL       __aeabi_uidiv ; 0xdd4
        0x00003898:    e5850020     ...    STR      r0,[r5,#0x20]
        0x0000389c:    e5851024    $...    STR      r1,[r5,#0x24]
        0x000038a0:    e5940018    ....    LDR      r0,[r4,#0x18]
        0x000038a4:    e3a0100a    ....    MOV      r1,#0xa
        0x000038a8:    ebfff549    I...    BL       __aeabi_uidiv ; 0xdd4
        0x000038ac:    e5850028    (...    STR      r0,[r5,#0x28]
        0x000038b0:    e585102c    ,...    STR      r1,[r5,#0x2c]
        0x000038b4:    e5940014    ....    LDR      r0,[r4,#0x14]
        0x000038b8:    e3a0100a    ....    MOV      r1,#0xa
        0x000038bc:    ebfff544    D...    BL       __aeabi_uidiv ; 0xdd4
        0x000038c0:    e5850030    0...    STR      r0,[r5,#0x30]
        0x000038c4:    e5851034    4...    STR      r1,[r5,#0x34]
        0x000038c8:    e5d40010    ....    LDRB     r0,[r4,#0x10]
        0x000038cc:    e1a00e80    ....    LSL      r0,r0,#29
        0x000038d0:    e1a002a0    ....    LSR      r0,r0,#5
        0x000038d4:    e5951020     ...    LDR      r1,[r5,#0x20]
        0x000038d8:    e1800a01    ....    ORR      r0,r0,r1,LSL #20
        0x000038dc:    e5951024    $...    LDR      r1,[r5,#0x24]
        0x000038e0:    e1800801    ....    ORR      r0,r0,r1,LSL #16
        0x000038e4:    e5951028    (...    LDR      r1,[r5,#0x28]
        0x000038e8:    e1800601    ....    ORR      r0,r0,r1,LSL #12
        0x000038ec:    e595102c    ,...    LDR      r1,[r5,#0x2c]
        0x000038f0:    e1800401    ....    ORR      r0,r0,r1,LSL #8
        0x000038f4:    e5951030    0...    LDR      r1,[r5,#0x30]
        0x000038f8:    e1800201    ....    ORR      r0,r0,r1,LSL #4
        0x000038fc:    e5951034    4...    LDR      r1,[r5,#0x34]
        0x00003900:    e1800001    ....    ORR      r0,r0,r1
        0x00003904:    e5850018    ....    STR      r0,[r5,#0x18]
        0x00003908:    e3a00001    ....    MOV      r0,#1
        0x0000390c:    eb000051    Q...    BL       RTC_WriteEnable ; 0x3a58
        0x00003910:    e5950018    ....    LDR      r0,[r5,#0x18]
        0x00003914:    e5860020     ...    STR      r0,[r6,#0x20]
        0x00003918:    ebfffc87    ....    BL       RTC_Check ; 0x2b3c
        0x0000391c:    e5d50000    ....    LDRB     r0,[r5,#0]
        0x00003920:    e3500000    ..P.    CMP      r0,#0
        0x00003924:    1a000005    ....    BNE      0x3940 ; RTC_Write + 984
        0x00003928:    e5d40001    ....    LDRB     r0,[r4,#1]
        0x0000392c:    e3500002    ..P.    CMP      r0,#2
        0x00003930:    1a000002    ....    BNE      0x3940 ; RTC_Write + 984
        0x00003934:    e594000c    ....    LDR      r0,[r4,#0xc]
        0x00003938:    e2800014    ....    ADD      r0,r0,#0x14
        0x0000393c:    e584000c    ....    STR      r0,[r4,#0xc]
        0x00003940:    e594000c    ....    LDR      r0,[r4,#0xc]
        0x00003944:    e3a0100a    ....    MOV      r1,#0xa
        0x00003948:    ebfff521    !...    BL       __aeabi_uidiv ; 0xdd4
        0x0000394c:    e5850038    8...    STR      r0,[r5,#0x38]
        0x00003950:    e585103c    <...    STR      r1,[r5,#0x3c]
        0x00003954:    e5940008    ....    LDR      r0,[r4,#8]
        0x00003958:    e3a0100a    ....    MOV      r1,#0xa
        0x0000395c:    ebfff51c    ....    BL       __aeabi_uidiv ; 0xdd4
        0x00003960:    e5850040    @...    STR      r0,[r5,#0x40]
        0x00003964:    e5851044    D...    STR      r1,[r5,#0x44]
        0x00003968:    e5940004    ....    LDR      r0,[r4,#4]
        0x0000396c:    e3a0100a    ....    MOV      r1,#0xa
        0x00003970:    ebfff517    ....    BL       __aeabi_uidiv ; 0xdd4
        0x00003974:    e5850048    H...    STR      r0,[r5,#0x48]
        0x00003978:    e585104c    L...    STR      r1,[r5,#0x4c]
        0x0000397c:    e5d40028    (...    LDRB     r0,[r4,#0x28]
        0x00003980:    e1a00f80    ....    LSL      r0,r0,#31
        0x00003984:    e1a000a0    ....    LSR      r0,r0,#1
        0x00003988:    e5951038    8...    LDR      r1,[r5,#0x38]
        0x0000398c:    e1800a01    ....    ORR      r0,r0,r1,LSL #20
        0x00003990:    e595103c    <...    LDR      r1,[r5,#0x3c]
        0x00003994:    e1800801    ....    ORR      r0,r0,r1,LSL #16
        0x00003998:    e5d41024    $...    LDRB     r1,[r4,#0x24]
        0x0000399c:    e2011001    ....    AND      r1,r1,#1
        0x000039a0:    e1800e81    ....    ORR      r0,r0,r1,LSL #29
        0x000039a4:    e5951040    @...    LDR      r1,[r5,#0x40]
        0x000039a8:    e1800601    ....    ORR      r0,r0,r1,LSL #12
        0x000039ac:    e5951044    D...    LDR      r1,[r5,#0x44]
        0x000039b0:    e1800401    ....    ORR      r0,r0,r1,LSL #8
        0x000039b4:    e5d41020     ...    LDRB     r1,[r4,#0x20]
        0x000039b8:    e2011001    ....    AND      r1,r1,#1
        0x000039bc:    e1800e01    ....    ORR      r0,r0,r1,LSL #28
        0x000039c0:    e5951048    H...    LDR      r1,[r5,#0x48]
        0x000039c4:    e1800201    ....    ORR      r0,r0,r1,LSL #4
        0x000039c8:    e595104c    L...    LDR      r1,[r5,#0x4c]
        0x000039cc:    e1800001    ....    ORR      r0,r0,r1
        0x000039d0:    e5850018    ....    STR      r0,[r5,#0x18]
        0x000039d4:    e3a00001    ....    MOV      r0,#1
        0x000039d8:    eb00001e    ....    BL       RTC_WriteEnable ; 0x3a58
        0x000039dc:    e5950018    ....    LDR      r0,[r5,#0x18]
        0x000039e0:    e586001c    ....    STR      r0,[r6,#0x1c]
        0x000039e4:    ebfffc54    T...    BL       RTC_Check ; 0x2b3c
        0x000039e8:    e5d40000    ....    LDRB     r0,[r4,#0]
        0x000039ec:    e3500000    ..P.    CMP      r0,#0
        0x000039f0:    1a000005    ....    BNE      0x3a0c ; RTC_Write + 1188
        0x000039f4:    e5d40001    ....    LDRB     r0,[r4,#1]
        0x000039f8:    e3500002    ..P.    CMP      r0,#2
        0x000039fc:    1a000002    ....    BNE      0x3a0c ; RTC_Write + 1188
        0x00003a00:    e594000c    ....    LDR      r0,[r4,#0xc]
        0x00003a04:    e2400014    ..@.    SUB      r0,r0,#0x14
        0x00003a08:    e584000c    ....    STR      r0,[r4,#0xc]
        0x00003a0c:    e594002c    ,...    LDR      r0,[r4,#0x2c]
        0x00003a10:    e3500000    ..P.    CMP      r0,#0
        0x00003a14:    0a000000    ....    BEQ      0x3a1c ; RTC_Write + 1204
        0x00003a18:    e5850008    ....    STR      r0,[r5,#8]
        0x00003a1c:    e3a03000    .0..    MOV      r3,#0
        0x00003a20:    e3a02001    . ..    MOV      r2,#1
        0x00003a24:    e3a01004    ....    MOV      r1,#4
        0x00003a28:    e1a00003    ....    MOV      r0,r3
        0x00003a2c:    ebfffcff    ....    BL       RTC_Ioctl ; 0x2e30
        0x00003a30:    e3a00001    ....    MOV      r0,#1
        0x00003a34:    eb000007    ....    BL       RTC_WriteEnable ; 0x3a58
        0x00003a38:    e5960034    4...    LDR      r0,[r6,#0x34]
        0x00003a3c:    e3800008    ....    ORR      r0,r0,#8
        0x00003a40:    e5860034    4...    STR      r0,[r6,#0x34]
        0x00003a44:    ebfffc3c    <...    BL       RTC_Check ; 0x2b3c
        0x00003a48:    e3a00000    ....    MOV      r0,#0
        0x00003a4c:    e8bd81f0    ....    POP      {r4-r8,pc}
    $d
        0x00003a50:    0000a5dc    ....    DCD    42460
        0x00003a54:    b8004000    .@..    DCD    3087024128
    $a
    i.RTC_WriteEnable
    RTC_WriteEnable
        0x00003a58:    e92d4078    x@-.    PUSH     {r3-r6,lr}
        0x00003a5c:    e1a05000    .P..    MOV      r5,r0
        0x00003a60:    ebfffc35    5...    BL       RTC_Check ; 0x2b3c
        0x00003a64:    e59f308c    .0..    LDR      r3,[pc,#140] ; [0x3af8] = 0xb8004000
        0x00003a68:    e59f408c    .@..    LDR      r4,[pc,#140] ; [0x3afc] = 0xfff
        0x00003a6c:    e3550000    ..U.    CMP      r5,#0
        0x00003a70:    e3a06000    .`..    MOV      r6,#0
        0x00003a74:    0a000012    ....    BEQ      0x3ac4 ; RTC_WriteEnable + 108
        0x00003a78:    e59f0080    ....    LDR      r0,[pc,#128] ; [0x3b00] = 0xa965
        0x00003a7c:    e5830004    ....    STR      r0,[r3,#4]
        0x00003a80:    ebfffc2d    -...    BL       RTC_Check ; 0x2b3c
        0x00003a84:    e58d6000    .`..    STR      r6,[sp,#0]
        0x00003a88:    ea000005    ....    B        0x3aa4 ; RTC_WriteEnable + 76
        0x00003a8c:    e5930004    ....    LDR      r0,[r3,#4]
        0x00003a90:    e3100801    ....    TST      r0,#0x10000
        0x00003a94:    1a000005    ....    BNE      0x3ab0 ; RTC_WriteEnable + 88
        0x00003a98:    e59d0000    ....    LDR      r0,[sp,#0]
        0x00003a9c:    e2800001    ....    ADD      r0,r0,#1
        0x00003aa0:    e58d0000    ....    STR      r0,[sp,#0]
        0x00003aa4:    e59d0000    ....    LDR      r0,[sp,#0]
        0x00003aa8:    e1500004    ..P.    CMP      r0,r4
        0x00003aac:    bafffff6    ....    BLT      0x3a8c ; RTC_WriteEnable + 52
        0x00003ab0:    e59d0000    ....    LDR      r0,[sp,#0]
        0x00003ab4:    e1500004    ..P.    CMP      r0,r4
        0x00003ab8:    1a00000c    ....    BNE      0x3af0 ; RTC_WriteEnable + 152
        0x00003abc:    e3a00006    ....    MOV      r0,#6
        0x00003ac0:    e8bd8078    x...    POP      {r3-r6,pc}
        0x00003ac4:    e58d6000    .`..    STR      r6,[sp,#0]
        0x00003ac8:    ea000005    ....    B        0x3ae4 ; RTC_WriteEnable + 140
        0x00003acc:    e5930004    ....    LDR      r0,[r3,#4]
        0x00003ad0:    e3500000    ..P.    CMP      r0,#0
        0x00003ad4:    0a000005    ....    BEQ      0x3af0 ; RTC_WriteEnable + 152
        0x00003ad8:    e59d0000    ....    LDR      r0,[sp,#0]
        0x00003adc:    e2800001    ....    ADD      r0,r0,#1
        0x00003ae0:    e58d0000    ....    STR      r0,[sp,#0]
        0x00003ae4:    e59d0000    ....    LDR      r0,[sp,#0]
        0x00003ae8:    e1500004    ..P.    CMP      r0,r4
        0x00003aec:    bafffff6    ....    BLT      0x3acc ; RTC_WriteEnable + 116
        0x00003af0:    e3a00000    ....    MOV      r0,#0
        0x00003af4:    e8bd8078    x...    POP      {r3-r6,pc}
    $d
        0x00003af8:    b8004000    .@..    DCD    3087024128
        0x00003afc:    00000fff    ....    DCD    4095
        0x00003b00:    0000a965    e...    DCD    43365
    $a
    i.ReadAreaConfig_new
    ReadAreaConfig_new
        0x00003b04:    e92d4070    p@-.    PUSH     {r4-r6,lr}
        0x00003b08:    e3a04000    .@..    MOV      r4,#0
        0x00003b0c:    e59f6084    .`..    LDR      r6,[pc,#132] ; [0x3b98] = 0xa084
        0x00003b10:    e59f5084    .P..    LDR      r5,[pc,#132] ; [0x3b9c] = 0xa638
        0x00003b14:    e5961000    ....    LDR      r1,[r6,#0]
        0x00003b18:    e2840020     ...    ADD      r0,r4,#0x20
        0x00003b1c:    e0800180    ....    ADD      r0,r0,r0,LSL #3
        0x00003b20:    e0800001    ....    ADD      r0,r0,r1
        0x00003b24:    ebfff629    )...    BL       CharToHex ; 0x13d0
        0x00003b28:    e2141003    ....    ANDS     r1,r4,#3
        0x00003b2c:    0a000006    ....    BEQ      0x3b4c ; ReadAreaConfig_new + 72
        0x00003b30:    e3510001    ..Q.    CMP      r1,#1
        0x00003b34:    0a000007    ....    BEQ      0x3b58 ; ReadAreaConfig_new + 84
        0x00003b38:    e3510002    ..Q.    CMP      r1,#2
        0x00003b3c:    0a000009    ....    BEQ      0x3b68 ; ReadAreaConfig_new + 100
        0x00003b40:    e3510003    ..Q.    CMP      r1,#3
        0x00003b44:    1a00000e    ....    BNE      0x3b84 ; ReadAreaConfig_new + 128
        0x00003b48:    ea00000a    ....    B        0x3b78 ; ReadAreaConfig_new + 116
        0x00003b4c:    e1a01124    $...    LSR      r1,r4,#2
        0x00003b50:    e7850201    ....    STR      r0,[r5,r1,LSL #4]
        0x00003b54:    ea00000a    ....    B        0x3b84 ; ReadAreaConfig_new + 128
        0x00003b58:    e1a01124    $...    LSR      r1,r4,#2
        0x00003b5c:    e0851201    ....    ADD      r1,r5,r1,LSL #4
        0x00003b60:    e5810004    ....    STR      r0,[r1,#4]
        0x00003b64:    ea000006    ....    B        0x3b84 ; ReadAreaConfig_new + 128
        0x00003b68:    e1a01124    $...    LSR      r1,r4,#2
        0x00003b6c:    e0851201    ....    ADD      r1,r5,r1,LSL #4
        0x00003b70:    e5810008    ....    STR      r0,[r1,#8]
        0x00003b74:    ea000002    ....    B        0x3b84 ; ReadAreaConfig_new + 128
        0x00003b78:    e1a01124    $...    LSR      r1,r4,#2
        0x00003b7c:    e0851201    ....    ADD      r1,r5,r1,LSL #4
        0x00003b80:    e581000c    ....    STR      r0,[r1,#0xc]
        0x00003b84:    e2840001    ....    ADD      r0,r4,#1
        0x00003b88:    e3c04801    .H..    BIC      r4,r0,#0x10000
        0x00003b8c:    e3540040    @.T.    CMP      r4,#0x40
        0x00003b90:    3affffdf    ...:    BCC      0x3b14 ; ReadAreaConfig_new + 16
        0x00003b94:    e8bd8070    p...    POP      {r4-r6,pc}
    $d
        0x00003b98:    0000a084    ....    DCD    41092
        0x00003b9c:    0000a638    8...    DCD    42552
    $a
    i.SDRAM_DATA_INIT
    SDRAM_DATA_INIT
        0x00003ba0:    e92d41ff    .A-.    PUSH     {r0-r8,lr}
        0x00003ba4:    e3a00007    ....    MOV      r0,#7
        0x00003ba8:    eb000411    ....    BL       W25Q128_Read ; 0x4bf4
        0x00003bac:    e59f43a4    .C..    LDR      r4,[pc,#932] ; [0x3f58] = 0x80040
        0x00003bb0:    e1a00004    ....    MOV      r0,r4
        0x00003bb4:    fafff1aa    ....    BLX      _maybe_terminate_alloc ; 0x264
        0x00003bb8:    e59f639c    .c..    LDR      r6,[pc,#924] ; [0x3f5c] = 0xcfc0
        0x00003bbc:    e5860014    ....    STR      r0,[r6,#0x14]
        0x00003bc0:    e3a01020     ...    MOV      r1,#0x20
        0x00003bc4:    eb000de6    ....    BL       shift_pointer ; 0x7364
        0x00003bc8:    e2800020     ...    ADD      r0,r0,#0x20
        0x00003bcc:    e3800102    ....    ORR      r0,r0,#0x80000000
        0x00003bd0:    e5860014    ....    STR      r0,[r6,#0x14]
        0x00003bd4:    e1a00004    ....    MOV      r0,r4
        0x00003bd8:    fafff1a1    ....    BLX      _maybe_terminate_alloc ; 0x264
        0x00003bdc:    e5860018    ....    STR      r0,[r6,#0x18]
        0x00003be0:    e3a01020     ...    MOV      r1,#0x20
        0x00003be4:    eb000dde    ....    BL       shift_pointer ; 0x7364
        0x00003be8:    e2800020     ...    ADD      r0,r0,#0x20
        0x00003bec:    e3800102    ....    ORR      r0,r0,#0x80000000
        0x00003bf0:    e5860018    ....    STR      r0,[r6,#0x18]
        0x00003bf4:    e3500000    ..P.    CMP      r0,#0
        0x00003bf8:    0a000001    ....    BEQ      0x3c04 ; SDRAM_DATA_INIT + 100
        0x00003bfc:    e3a01702    ....    MOV      r1,#0x80000
        0x00003c00:    ebfff325    %...    BL       __aeabi_memclr ; 0x89c
        0x00003c04:    e59f0354    T...    LDR      r0,[pc,#852] ; [0x3f60] = 0x40040
        0x00003c08:    fafff195    ....    BLX      _maybe_terminate_alloc ; 0x264
        0x00003c0c:    e5860020     ...    STR      r0,[r6,#0x20]
        0x00003c10:    e3a01020     ...    MOV      r1,#0x20
        0x00003c14:    eb000dd2    ....    BL       shift_pointer ; 0x7364
        0x00003c18:    e2800020     ...    ADD      r0,r0,#0x20
        0x00003c1c:    e3800102    ....    ORR      r0,r0,#0x80000000
        0x00003c20:    e5860020     ...    STR      r0,[r6,#0x20]
        0x00003c24:    e3500000    ..P.    CMP      r0,#0
        0x00003c28:    0a000001    ....    BEQ      0x3c34 ; SDRAM_DATA_INIT + 148
        0x00003c2c:    e3a01701    ....    MOV      r1,#0x40000
        0x00003c30:    ebfff319    ....    BL       __aeabi_memclr ; 0x89c
        0x00003c34:    e59f0328    (...    LDR      r0,[pc,#808] ; [0x3f64] = 0xbb840
        0x00003c38:    fafff189    ....    BLX      _maybe_terminate_alloc ; 0x264
        0x00003c3c:    e586001c    ....    STR      r0,[r6,#0x1c]
        0x00003c40:    e3a01020     ...    MOV      r1,#0x20
        0x00003c44:    eb000dc6    ....    BL       shift_pointer ; 0x7364
        0x00003c48:    e2800020     ...    ADD      r0,r0,#0x20
        0x00003c4c:    e3800102    ....    ORR      r0,r0,#0x80000000
        0x00003c50:    e586001c    ....    STR      r0,[r6,#0x1c]
        0x00003c54:    e3a00d21    !...    MOV      r0,#0x840
        0x00003c58:    fafff181    ....    BLX      _maybe_terminate_alloc ; 0x264
        0x00003c5c:    e59f4304    .C..    LDR      r4,[pc,#772] ; [0x3f68] = 0xa080
        0x00003c60:    e5840000    ....    STR      r0,[r4,#0]
        0x00003c64:    e3a01020     ...    MOV      r1,#0x20
        0x00003c68:    eb000dbd    ....    BL       shift_pointer ; 0x7364
        0x00003c6c:    e2800020     ...    ADD      r0,r0,#0x20
        0x00003c70:    e3800102    ....    ORR      r0,r0,#0x80000000
        0x00003c74:    e5840000    ....    STR      r0,[r4,#0]
        0x00003c78:    e3a01b02    ....    MOV      r1,#0x800
        0x00003c7c:    ebfff306    ....    BL       __aeabi_memclr ; 0x89c
        0x00003c80:    e59f02e4    ....    LDR      r0,[pc,#740] ; [0x3f6c] = 0x604
        0x00003c84:    fafff176    v...    BLX      _maybe_terminate_alloc ; 0x264
        0x00003c88:    e59f42e0    .B..    LDR      r4,[pc,#736] ; [0x3f70] = 0xa084
        0x00003c8c:    e5840000    ....    STR      r0,[r4,#0]
        0x00003c90:    e3a01020     ...    MOV      r1,#0x20
        0x00003c94:    eb000db2    ....    BL       shift_pointer ; 0x7364
        0x00003c98:    e2800020     ...    ADD      r0,r0,#0x20
        0x00003c9c:    e3800102    ....    ORR      r0,r0,#0x80000000
        0x00003ca0:    e5840000    ....    STR      r0,[r4,#0]
        0x00003ca4:    e59f12c8    ....    LDR      r1,[pc,#712] ; [0x3f74] = 0x5c4
        0x00003ca8:    ebfff2fb    ....    BL       __aeabi_memclr ; 0x89c
        0x00003cac:    e59f02c4    ....    LDR      r0,[pc,#708] ; [0x3f78] = 0x2041
        0x00003cb0:    fafff16b    k...    BLX      _maybe_terminate_alloc ; 0x264
        0x00003cb4:    e59f42c0    .B..    LDR      r4,[pc,#704] ; [0x3f7c] = 0xa0d0
        0x00003cb8:    e5840000    ....    STR      r0,[r4,#0]
        0x00003cbc:    e3a01020     ...    MOV      r1,#0x20
        0x00003cc0:    eb000da7    ....    BL       shift_pointer ; 0x7364
        0x00003cc4:    e2800020     ...    ADD      r0,r0,#0x20
        0x00003cc8:    e3800102    ....    ORR      r0,r0,#0x80000000
        0x00003ccc:    e5840000    ....    STR      r0,[r4,#0]
        0x00003cd0:    e3a01a02    ....    MOV      r1,#0x2000
        0x00003cd4:    ebfff2f0    ....    BL       __aeabi_memclr ; 0x89c
        0x00003cd8:    e59f02a0    ....    LDR      r0,[pc,#672] ; [0x3f80] = 0x20040
        0x00003cdc:    fafff160    `...    BLX      _maybe_terminate_alloc ; 0x264
        0x00003ce0:    e59f729c    .r..    LDR      r7,[pc,#668] ; [0x3f84] = 0xa00c
        0x00003ce4:    e5870008    ....    STR      r0,[r7,#8]
        0x00003ce8:    e3a01020     ...    MOV      r1,#0x20
        0x00003cec:    eb000d9c    ....    BL       shift_pointer ; 0x7364
        0x00003cf0:    e2800020     ...    ADD      r0,r0,#0x20
        0x00003cf4:    e3800102    ....    ORR      r0,r0,#0x80000000
        0x00003cf8:    e5870008    ....    STR      r0,[r7,#8]
        0x00003cfc:    e59f1284    ....    LDR      r1,[pc,#644] ; [0x3f88] = 0xa838
        0x00003d00:    e5810000    ....    STR      r0,[r1,#0]
        0x00003d04:    e3a00d21    !...    MOV      r0,#0x840
        0x00003d08:    fafff155    U...    BLX      _maybe_terminate_alloc ; 0x264
        0x00003d0c:    e59f4278    xB..    LDR      r4,[pc,#632] ; [0x3f8c] = 0x9fc0
        0x00003d10:    e5840000    ....    STR      r0,[r4,#0]
        0x00003d14:    e3a01020     ...    MOV      r1,#0x20
        0x00003d18:    eb000d91    ....    BL       shift_pointer ; 0x7364
        0x00003d1c:    e2800020     ...    ADD      r0,r0,#0x20
        0x00003d20:    e3800102    ....    ORR      r0,r0,#0x80000000
        0x00003d24:    e5840000    ....    STR      r0,[r4,#0]
        0x00003d28:    e3a01b02    ....    MOV      r1,#0x800
        0x00003d2c:    ebfff2da    ....    BL       __aeabi_memclr ; 0x89c
        0x00003d30:    e3a00d11    ....    MOV      r0,#0x440
        0x00003d34:    fafff14a    J...    BLX      _maybe_terminate_alloc ; 0x264
        0x00003d38:    e59f4250    PB..    LDR      r4,[pc,#592] ; [0x3f90] = 0x9fc4
        0x00003d3c:    e5840000    ....    STR      r0,[r4,#0]
        0x00003d40:    e3a01020     ...    MOV      r1,#0x20
        0x00003d44:    eb000d86    ....    BL       shift_pointer ; 0x7364
        0x00003d48:    e2800020     ...    ADD      r0,r0,#0x20
        0x00003d4c:    e3800102    ....    ORR      r0,r0,#0x80000000
        0x00003d50:    e5840000    ....    STR      r0,[r4,#0]
        0x00003d54:    e3a01b01    ....    MOV      r1,#0x400
        0x00003d58:    ebfff2cf    ....    BL       __aeabi_memclr ; 0x89c
        0x00003d5c:    e3a00d81    ....    MOV      r0,#0x2040
        0x00003d60:    fafff13f    ?...    BLX      _maybe_terminate_alloc ; 0x264
        0x00003d64:    e59f4228    (B..    LDR      r4,[pc,#552] ; [0x3f94] = 0x9fec
        0x00003d68:    e5840000    ....    STR      r0,[r4,#0]
        0x00003d6c:    e3a01020     ...    MOV      r1,#0x20
        0x00003d70:    eb000d7b    {...    BL       shift_pointer ; 0x7364
        0x00003d74:    e2800020     ...    ADD      r0,r0,#0x20
        0x00003d78:    e3800102    ....    ORR      r0,r0,#0x80000000
        0x00003d7c:    e5840000    ....    STR      r0,[r4,#0]
        0x00003d80:    e3a01a02    ....    MOV      r1,#0x2000
        0x00003d84:    ebfff2c4    ....    BL       __aeabi_memclr ; 0x89c
        0x00003d88:    e3a00d21    !...    MOV      r0,#0x840
        0x00003d8c:    fafff134    4...    BLX      _maybe_terminate_alloc ; 0x264
        0x00003d90:    e59f4200    .B..    LDR      r4,[pc,#512] ; [0x3f98] = 0x9fbc
        0x00003d94:    e5840000    ....    STR      r0,[r4,#0]
        0x00003d98:    e3a01020     ...    MOV      r1,#0x20
        0x00003d9c:    eb000d70    p...    BL       shift_pointer ; 0x7364
        0x00003da0:    e2800020     ...    ADD      r0,r0,#0x20
        0x00003da4:    e3800102    ....    ORR      r0,r0,#0x80000000
        0x00003da8:    e5840000    ....    STR      r0,[r4,#0]
        0x00003dac:    e3a01b02    ....    MOV      r1,#0x800
        0x00003db0:    ebfff2b9    ....    BL       __aeabi_memclr ; 0x89c
        0x00003db4:    e3a01000    ....    MOV      r1,#0
        0x00003db8:    e59f21dc    .!..    LDR      r2,[pc,#476] ; [0x3f9c] = 0x1d55c
        0x00003dbc:    e3a03f55    U?..    MOV      r3,#0x154
        0x00003dc0:    e1a00001    ....    MOV      r0,r1
        0x00003dc4:    ebfffa28    (...    BL       NAND_ReadPage ; 0x266c
        0x00003dc8:    e3a08000    ....    MOV      r8,#0
        0x00003dcc:    e58d800c    ....    STR      r8,[sp,#0xc]
        0x00003dd0:    e3a00000    ....    MOV      r0,#0
        0x00003dd4:    e59f51c0    .Q..    LDR      r5,[pc,#448] ; [0x3f9c] = 0x1d55c
        0x00003dd8:    e59d100c    ....    LDR      r1,[sp,#0xc]
        0x00003ddc:    e7d52000    . ..    LDRB     r2,[r5,r0]
        0x00003de0:    e0811002    ....    ADD      r1,r1,r2
        0x00003de4:    e58d100c    ....    STR      r1,[sp,#0xc]
        0x00003de8:    e2800001    ....    ADD      r0,r0,#1
        0x00003dec:    e3c00801    ....    BIC      r0,r0,#0x10000
        0x00003df0:    e3500e15    ..P.    CMP      r0,#0x150
        0x00003df4:    3afffff7    ...:    BCC      0x3dd8 ; SDRAM_DATA_INIT + 568
        0x00003df8:    e59f01a0    ....    LDR      r0,[pc,#416] ; [0x3fa0] = 0x9f00
        0x00003dfc:    e5951008    ....    LDR      r1,[r5,#8]
        0x00003e00:    e595200c    . ..    LDR      r2,[r5,#0xc]
        0x00003e04:    eb0012ef    ....    BL       sysprintf ; 0x89c8
        0x00003e08:    e595000c    ....    LDR      r0,[r5,#0xc]
        0x00003e0c:    e3500050    P.P.    CMP      r0,#0x50
        0x00003e10:    2a00000b    ...*    BCS      0x3e44 ; SDRAM_DATA_INIT + 676
        0x00003e14:    e3a04000    .@..    MOV      r4,#0
        0x00003e18:    ea000006    ....    B        0x3e38 ; SDRAM_DATA_INIT + 664
        0x00003e1c:    e0850084    ....    ADD      r0,r5,r4,LSL #1
        0x00003e20:    e1d02bb0    .+..    LDRH     r2,[r0,#0xb0]
        0x00003e24:    e1d011b0    ....    LDRH     r1,[r0,#0x10]
        0x00003e28:    e28f0f5d    ]...    ADR      r0,{pc}+0x17c ; 0x3fa4
        0x00003e2c:    eb0012e5    ....    BL       sysprintf ; 0x89c8
        0x00003e30:    e2840001    ....    ADD      r0,r4,#1
        0x00003e34:    e3c04801    .H..    BIC      r4,r0,#0x10000
        0x00003e38:    e595000c    ....    LDR      r0,[r5,#0xc]
        0x00003e3c:    e1500004    ..P.    CMP      r0,r4
        0x00003e40:    8afffff5    ....    BHI      0x3e1c ; SDRAM_DATA_INIT + 636
        0x00003e44:    e3a01008    ....    MOV      r1,#8
        0x00003e48:    e3a00d07    ....    MOV      r0,#0x1c0
        0x00003e4c:    ebfff832    2...    BL       GPIO_ReadBit ; 0x1f1c
        0x00003e50:    e59f1174    t...    LDR      r1,[pc,#372] ; [0x3fcc] = 0x9f89
        0x00003e54:    e3500000    ..P.    CMP      r0,#0
        0x00003e58:    0a00000d    ....    BEQ      0x3e94 ; SDRAM_DATA_INIT + 756
        0x00003e5c:    e5950008    ....    LDR      r0,[r5,#8]
        0x00003e60:    e59f2168    h!..    LDR      r2,[pc,#360] ; [0x3fd0] = 0x36373839
        0x00003e64:    e1500002    ..P.    CMP      r0,r2
        0x00003e68:    1a000006    ....    BNE      0x3e88 ; SDRAM_DATA_INIT + 744
        0x00003e6c:    e59d000c    ....    LDR      r0,[sp,#0xc]
        0x00003e70:    e5952150    P!..    LDR      r2,[r5,#0x150]
        0x00003e74:    e1500002    ..P.    CMP      r0,r2
        0x00003e78:    1a000002    ....    BNE      0x3e88 ; SDRAM_DATA_INIT + 744
        0x00003e7c:    e595000c    ....    LDR      r0,[r5,#0xc]
        0x00003e80:    e3500050    P.P.    CMP      r0,#0x50
        0x00003e84:    9a000002    ....    BLS      0x3e94 ; SDRAM_DATA_INIT + 756
        0x00003e88:    e5d10000    ....    LDRB     r0,[r1,#0]
        0x00003e8c:    e3500001    ..P.    CMP      r0,#1
        0x00003e90:    0a000003    ....    BEQ      0x3ea4 ; SDRAM_DATA_INIT + 772
        0x00003e94:    e5d10000    ....    LDRB     r0,[r1,#0]
        0x00003e98:    e3500000    ..P.    CMP      r0,#0
        0x00003e9c:    0a00000b    ....    BEQ      0x3ed0 ; SDRAM_DATA_INIT + 816
        0x00003ea0:    ea00000b    ....    B        0x3ed4 ; SDRAM_DATA_INIT + 820
        0x00003ea4:    e3a00006    ....    MOV      r0,#6
        0x00003ea8:    eb000351    Q...    BL       W25Q128_Read ; 0x4bf4
        0x00003eac:    e3a00000    ....    MOV      r0,#0
        0x00003eb0:    ebfff96a    j...    BL       NAND_EraseBlock ; 0x2460
        0x00003eb4:    e3a01000    ....    MOV      r1,#0
        0x00003eb8:    e59f20dc    . ..    LDR      r2,[pc,#220] ; [0x3f9c] = 0x1d55c
        0x00003ebc:    e3a03f55    U?..    MOV      r3,#0x154
        0x00003ec0:    e1a00001    ....    MOV      r0,r1
        0x00003ec4:    ebfffa75    u...    BL       NAND_WritePage ; 0x28a0
        0x00003ec8:    eb000bd9    ....    BL       power_checkreset ; 0x6e34
        0x00003ecc:    eafffffe    ....    B        0x3ecc ; SDRAM_DATA_INIT + 812
        0x00003ed0:    e585800c    ....    STR      r8,[r5,#0xc]
        0x00003ed4:    e5960014    ....    LDR      r0,[r6,#0x14]
        0x00003ed8:    e59f10f4    ....    LDR      r1,[pc,#244] ; [0x3fd4] = 0x17e40
        0x00003edc:    e3a02004    . ..    MOV      r2,#4
        0x00003ee0:    ebfff890    ....    BL       NANDFLASH_TO_SDRAM ; 0x2128
        0x00003ee4:    e59f10ec    ....    LDR      r1,[pc,#236] ; [0x3fd8] = 0x17f40
        0x00003ee8:    e5970008    ....    LDR      r0,[r7,#8]
        0x00003eec:    e3a02001    . ..    MOV      r2,#1
        0x00003ef0:    ebfff88c    ....    BL       NANDFLASH_TO_SDRAM ; 0x2128
        0x00003ef4:    ebfff46e    n...    BL       BASEDATA_RAM_INIT ; 0x10b4
        0x00003ef8:    e59f00dc    ....    LDR      r0,[pc,#220] ; [0x3fdc] = 0x9f88
        0x00003efc:    e5d00000    ....    LDRB     r0,[r0,#0]
        0x00003f00:    e3500000    ..P.    CMP      r0,#0
        0x00003f04:    1a000012    ....    BNE      0x3f54 ; SDRAM_DATA_INIT + 948
        0x00003f08:    e1a0200d    . ..    MOV      r2,sp
        0x00003f0c:    e3a01001    ....    MOV      r1,#1
        0x00003f10:    e3a00000    ....    MOV      r0,#0
        0x00003f14:    ebfffac1    ....    BL       READ_TAB_FROMSDRAM ; 0x2a20
        0x00003f18:    e1a00800    ....    LSL      r0,r0,#16
        0x00003f1c:    e1a00820     ...    LSR      r0,r0,#16
        0x00003f20:    e2401cff    ..@.    SUB      r1,r0,#0xff00
        0x00003f24:    e25110ff    ..Q.    SUBS     r1,r1,#0xff
        0x00003f28:    0a000009    ....    BEQ      0x3f54 ; SDRAM_DATA_INIT + 948
        0x00003f2c:    e59d1000    ....    LDR      r1,[sp,#0]
        0x00003f30:    e3510e32    2.Q.    CMP      r1,#0x320
        0x00003f34:    1a000006    ....    BNE      0x3f54 ; SDRAM_DATA_INIT + 948
        0x00003f38:    e59d1004    ....    LDR      r1,[sp,#4]
        0x00003f3c:    e3510e1e    ..Q.    CMP      r1,#0x1e0
        0x00003f40:    1a000003    ....    BNE      0x3f54 ; SDRAM_DATA_INIT + 948
        0x00003f44:    e5961000    ....    LDR      r1,[r6,#0]
        0x00003f48:    e5963008    .0..    LDR      r3,[r6,#8]
        0x00003f4c:    e1a0200d    . ..    MOV      r2,sp
        0x00003f50:    eb000b3e    >...    BL       nandflash_to_sdram_Q0 ; 0x6c50
        0x00003f54:    e8bd81ff    ....    POP      {r0-r8,pc}
    $d
        0x00003f58:    00080040    @...    DCD    524352
        0x00003f5c:    0000cfc0    ....    DCD    53184
        0x00003f60:    00040040    @...    DCD    262208
        0x00003f64:    000bb840    @...    DCD    768064
        0x00003f68:    0000a080    ....    DCD    41088
        0x00003f6c:    00000604    ....    DCD    1540
        0x00003f70:    0000a084    ....    DCD    41092
        0x00003f74:    000005c4    ....    DCD    1476
        0x00003f78:    00002041    A ..    DCD    8257
        0x00003f7c:    0000a0d0    ....    DCD    41168
        0x00003f80:    00020040    @...    DCD    131136
        0x00003f84:    0000a00c    ....    DCD    40972
        0x00003f88:    0000a838    8...    DCD    43064
        0x00003f8c:    00009fc0    ....    DCD    40896
        0x00003f90:    00009fc4    ....    DCD    40900
        0x00003f94:    00009fec    ....    DCD    40940
        0x00003f98:    00009fbc    ....    DCD    40892
        0x00003f9c:    0001d55c    \...    DCD    120156
        0x00003fa0:    00009f00    ....    DCD    40704
        0x00003fa4:    62727265    errb    DCD    1651667557
        0x00003fa8:    6b636f6c    lock    DCD    1801678700
        0x00003fac:    2578303d    =0x%    DCD    628633661
        0x00003fb0:    2c783830    08x,    DCD    746076208
        0x00003fb4:    6b636162    back    DCD    1801675106
        0x00003fb8:    6c627075    upbl    DCD    1818390645
        0x00003fbc:    3d6b636f    ock=    DCD    1030447983
        0x00003fc0:    30257830    0x%0    DCD    807761968
        0x00003fc4:    0a0d7838    8x..    DCD    168654904
        0x00003fc8:    00000000    ....    DCD    0
        0x00003fcc:    00009f89    ....    DCD    40841
        0x00003fd0:    36373839    9876    DCD    909588537
        0x00003fd4:    00017e40    @~..    DCD    97856
        0x00003fd8:    00017f40    @...    DCD    98112
        0x00003fdc:    00009f88    ....    DCD    40840
    $a
    i.SDRAM_TO_NANDFLASH
    SDRAM_TO_NANDFLASH
        0x00003fe0:    e92d4ff7    .O-.    PUSH     {r0-r2,r4-r11,lr}
        0x00003fe4:    e24dd010    ..M.    SUB      sp,sp,#0x10
        0x00003fe8:    e1a08001    ....    MOV      r8,r1
        0x00003fec:    e1a01328    (...    LSR      r1,r8,#6
        0x00003ff0:    e28f0f86    ....    ADR      r0,{pc}+0x220 ; 0x4210
        0x00003ff4:    eb001273    s...    BL       sysprintf ; 0x89c8
        0x00003ff8:    e59fb224    $...    LDR      r11,[pc,#548] ; [0x4224] = 0xa18a
        0x00003ffc:    e3a09000    ....    MOV      r9,#0
        0x00004000:    e58d9000    ....    STR      r9,[sp,#0]
        0x00004004:    e318003f    ?...    TST      r8,#0x3f
        0x00004008:    0a000002    ....    BEQ      0x4018 ; SDRAM_TO_NANDFLASH + 56
        0x0000400c:    e3a00000    ....    MOV      r0,#0
        0x00004010:    e28dd01c    ....    ADD      sp,sp,#0x1c
        0x00004014:    e8bd8ff0    ....    POP      {r4-r11,pc}
        0x00004018:    e59f0208    ....    LDR      r0,[pc,#520] ; [0x4228] = 0xa05c
        0x0000401c:    e3a01001    ....    MOV      r1,#1
        0x00004020:    e5c01002    ....    STRB     r1,[r0,#2]
        0x00004024:    e3a05000    .P..    MOV      r5,#0
        0x00004028:    ea000071    q...    B        0x41f4 ; SDRAM_TO_NANDFLASH + 532
        0x0000402c:    e58d9004    ....    STR      r9,[sp,#4]
        0x00004030:    e58d9008    ....    STR      r9,[sp,#8]
        0x00004034:    e0887005    .p..    ADD      r7,r8,r5
        0x00004038:    e58d700c    .p..    STR      r7,[sp,#0xc]
        0x0000403c:    e59d000c    ....    LDR      r0,[sp,#0xc]
        0x00004040:    e310003f    ?...    TST      r0,#0x3f
        0x00004044:    1a000002    ....    BNE      0x4054 ; SDRAM_TO_NANDFLASH + 116
        0x00004048:    e59d000c    ....    LDR      r0,[sp,#0xc]
        0x0000404c:    e1a00320     ...    LSR      r0,r0,#6
        0x00004050:    ebfff902    ....    BL       NAND_EraseBlock ; 0x2460
        0x00004054:    e59d0010    ....    LDR      r0,[sp,#0x10]
        0x00004058:    e3a02b02    .+..    MOV      r2,#0x800
        0x0000405c:    e0801585    ....    ADD      r1,r0,r5,LSL #11
        0x00004060:    e59f01c4    ....    LDR      r0,[pc,#452] ; [0x422c] = 0x1d7d0
        0x00004064:    ebfff1ba    ....    BL       __aeabi_memcpy ; 0x754
        0x00004068:    e3a00000    ....    MOV      r0,#0
        0x0000406c:    e59f11b8    ....    LDR      r1,[pc,#440] ; [0x422c] = 0x1d7d0
        0x00004070:    e59d2000    . ..    LDR      r2,[sp,#0]
        0x00004074:    e7d13000    .0..    LDRB     r3,[r1,r0]
        0x00004078:    e0826003    .`..    ADD      r6,r2,r3
        0x0000407c:    e58d6000    .`..    STR      r6,[sp,#0]
        0x00004080:    e2800001    ....    ADD      r0,r0,#1
        0x00004084:    e3500b02    ..P.    CMP      r0,#0x800
        0x00004088:    3afffff8    ...:    BCC      0x4070 ; SDRAM_TO_NANDFLASH + 144
        0x0000408c:    e59f2198    .!..    LDR      r2,[pc,#408] ; [0x422c] = 0x1d7d0
        0x00004090:    e59d000c    ....    LDR      r0,[sp,#0xc]
        0x00004094:    e3a03b02    .;..    MOV      r3,#0x800
        0x00004098:    e3a01000    ....    MOV      r1,#0
        0x0000409c:    ebfff9ff    ....    BL       NAND_WritePage ; 0x28a0
        0x000040a0:    e3500000    ..P.    CMP      r0,#0
        0x000040a4:    0a000005    ....    BEQ      0x40c0 ; SDRAM_TO_NANDFLASH + 224
        0x000040a8:    e59d000c    ....    LDR      r0,[sp,#0xc]
        0x000040ac:    e1a00500    ....    LSL      r0,r0,#10
        0x000040b0:    e1a00820     ...    LSR      r0,r0,#16
        0x000040b4:    ebfff3c1    ....    BL       BAD_BLOCK_CHANGE ; 0xfc0
        0x000040b8:    ebfff3d9    ....    BL       BAD_BLOCK_MARK ; 0x1024
        0x000040bc:    eaffffcf    ....    B        0x4000 ; SDRAM_TO_NANDFLASH + 32
        0x000040c0:    e3a00000    ....    MOV      r0,#0
        0x000040c4:    e2800001    ....    ADD      r0,r0,#1
        0x000040c8:    e3c00801    ....    BIC      r0,r0,#0x10000
        0x000040cc:    e3500b02    ..P.    CMP      r0,#0x800
        0x000040d0:    3afffffb    ...:    BCC      0x40c4 ; SDRAM_TO_NANDFLASH + 228
        0x000040d4:    e59f414c    LA..    LDR      r4,[pc,#332] ; [0x4228] = 0xa05c
        0x000040d8:    e59d000c    ....    LDR      r0,[sp,#0xc]
        0x000040dc:    e5942024    $ ..    LDR      r2,[r4,#0x24]
        0x000040e0:    e3a03b02    .;..    MOV      r3,#0x800
        0x000040e4:    e3a01000    ....    MOV      r1,#0
        0x000040e8:    ebfff95f    _...    BL       NAND_ReadPage ; 0x266c
        0x000040ec:    e59f0138    8...    LDR      r0,[pc,#312] ; [0x422c] = 0x1d7d0
        0x000040f0:    e5941024    $...    LDR      r1,[r4,#0x24]
        0x000040f4:    e3a02b02    .+..    MOV      r2,#0x800
        0x000040f8:    fafff161    a...    BLX      memcmp ; 0x684
        0x000040fc:    e3500000    ..P.    CMP      r0,#0
        0x00004100:    0a000005    ....    BEQ      0x411c ; SDRAM_TO_NANDFLASH + 316
        0x00004104:    e59d000c    ....    LDR      r0,[sp,#0xc]
        0x00004108:    e1a00500    ....    LSL      r0,r0,#10
        0x0000410c:    e1a00820     ...    LSR      r0,r0,#16
        0x00004110:    ebfff3aa    ....    BL       BAD_BLOCK_CHANGE ; 0xfc0
        0x00004114:    ebfff3c2    ....    BL       BAD_BLOCK_MARK ; 0x1024
        0x00004118:    eaffffb8    ....    B        0x4000 ; SDRAM_TO_NANDFLASH + 32
        0x0000411c:    e3a0003f    ?...    MOV      r0,#0x3f
        0x00004120:    e1d00005    ....    BICS     r0,r0,r5
        0x00004124:    1a000031    1...    BNE      0x41f0 ; SDRAM_TO_NANDFLASH + 528
        0x00004128:    e3a04000    .@..    MOV      r4,#0
        0x0000412c:    e59fa0fc    ....    LDR      r10,[pc,#252] ; [0x4230] = 0x9eac
        0x00004130:    e247703f    ?pG.    SUB      r7,r7,#0x3f
        0x00004134:    e79a0104    ....    LDR      r0,[r10,r4,LSL #2]
        0x00004138:    e1570000    ..W.    CMP      r7,r0
        0x0000413c:    1a000027    '...    BNE      0x41e0 ; SDRAM_TO_NANDFLASH + 512
        0x00004140:    e3540006    ..T.    CMP      r4,#6
        0x00004144:    308ff104    ...0    ADDCC    pc,pc,r4,LSL #2
        0x00004148:    ea000020     ...    B        0x41d0 ; SDRAM_TO_NANDFLASH + 496
        0x0000414c:    ea00001d    ....    B        0x41c8 ; SDRAM_TO_NANDFLASH + 488
        0x00004150:    ea000019    ....    B        0x41bc ; SDRAM_TO_NANDFLASH + 476
        0x00004154:    ea000015    ....    B        0x41b0 ; SDRAM_TO_NANDFLASH + 464
        0x00004158:    ea000011    ....    B        0x41a4 ; SDRAM_TO_NANDFLASH + 452
        0x0000415c:    ea000008    ....    B        0x4184 ; SDRAM_TO_NANDFLASH + 420
        0x00004160:    eaffffff    ....    B        0x4164 ; SDRAM_TO_NANDFLASH + 388
        0x00004164:    e5db0000    ....    LDRB     r0,[r11,#0]
        0x00004168:    e3800001    ....    ORR      r0,r0,#1
        0x0000416c:    e5cb0000    ....    STRB     r0,[r11,#0]
        0x00004170:    e59f00bc    ....    LDR      r0,[pc,#188] ; [0x4234] = 0xa3d8
        0x00004174:    e5901000    ....    LDR      r1,[r0,#0]
        0x00004178:    e59f00b8    ....    LDR      r0,[pc,#184] ; [0x4238] = 0xa194
        0x0000417c:    e5801000    ....    STR      r1,[r0,#0]
        0x00004180:    ea000012    ....    B        0x41d0 ; SDRAM_TO_NANDFLASH + 496
        0x00004184:    e5db0000    ....    LDRB     r0,[r11,#0]
        0x00004188:    e3800002    ....    ORR      r0,r0,#2
        0x0000418c:    e5cb0000    ....    STRB     r0,[r11,#0]
        0x00004190:    e59f009c    ....    LDR      r0,[pc,#156] ; [0x4234] = 0xa3d8
        0x00004194:    e5901000    ....    LDR      r1,[r0,#0]
        0x00004198:    e59f0098    ....    LDR      r0,[pc,#152] ; [0x4238] = 0xa194
        0x0000419c:    e5801000    ....    STR      r1,[r0,#0]
        0x000041a0:    ea00000a    ....    B        0x41d0 ; SDRAM_TO_NANDFLASH + 496
        0x000041a4:    e3a00003    ....    MOV      r0,#3
        0x000041a8:    eb0002f0    ....    BL       W25Q128_Write ; 0x4d70
        0x000041ac:    ea000007    ....    B        0x41d0 ; SDRAM_TO_NANDFLASH + 496
        0x000041b0:    e3a00002    ....    MOV      r0,#2
        0x000041b4:    eb0002ed    ....    BL       W25Q128_Write ; 0x4d70
        0x000041b8:    ea000004    ....    B        0x41d0 ; SDRAM_TO_NANDFLASH + 496
        0x000041bc:    e3a00001    ....    MOV      r0,#1
        0x000041c0:    eb0002ea    ....    BL       W25Q128_Write ; 0x4d70
        0x000041c4:    ea000001    ....    B        0x41d0 ; SDRAM_TO_NANDFLASH + 496
        0x000041c8:    e3a00000    ....    MOV      r0,#0
        0x000041cc:    eb0002e7    ....    BL       W25Q128_Write ; 0x4d70
        0x000041d0:    e59f0064    d...    LDR      r0,[pc,#100] ; [0x423c] = 0x1e8a0
        0x000041d4:    e7806104    .a..    STR      r6,[r0,r4,LSL #2]
        0x000041d8:    e3a00007    ....    MOV      r0,#7
        0x000041dc:    eb0002e3    ....    BL       W25Q128_Write ; 0x4d70
        0x000041e0:    e2844001    .@..    ADD      r4,r4,#1
        0x000041e4:    e3540006    ..T.    CMP      r4,#6
        0x000041e8:    3affffd1    ...:    BCC      0x4134 ; SDRAM_TO_NANDFLASH + 340
        0x000041ec:    e58d9000    ....    STR      r9,[sp,#0]
        0x000041f0:    e2855001    .P..    ADD      r5,r5,#1
        0x000041f4:    e59d0018    ....    LDR      r0,[sp,#0x18]
        0x000041f8:    e1550300    ..U.    CMP      r5,r0,LSL #6
        0x000041fc:    3affff8a    ...:    BCC      0x402c ; SDRAM_TO_NANDFLASH + 76
        0x00004200:    e59f0020     ...    LDR      r0,[pc,#32] ; [0x4228] = 0xa05c
        0x00004204:    e5c09002    ....    STRB     r9,[r0,#2]
        0x00004208:    e3a00001    ....    MOV      r0,#1
        0x0000420c:    eaffff7f    ....    B        0x4010 ; SDRAM_TO_NANDFLASH + 48
    $d
        0x00004210:    20524444    DDR     DCD    542262340
        0x00004214:    4e204f54    TO N    DCD    1310740308
        0x00004218:    3d444e41    AND=    DCD    1027886657
        0x0000421c:    58255830    0X%X    DCD    1478842416
        0x00004220:    00000a0d    ....    DCD    2573
        0x00004224:    0000a18a    ....    DCD    41354
        0x00004228:    0000a05c    \...    DCD    41052
        0x0000422c:    0001d7d0    ....    DCD    120784
        0x00004230:    00009eac    ....    DCD    40620
        0x00004234:    0000a3d8    ....    DCD    41944
        0x00004238:    0000a194    ....    DCD    41364
        0x0000423c:    0001e8a0    ....    DCD    125088
    $a
    i.SEND_data
    SEND_data
        0x00004240:    e92d4010    .@-.    PUSH     {r4,lr}
        0x00004244:    eb000212    ....    BL       Touch_int_disable ; 0x4a94
        0x00004248:    e59f40e8    .@..    LDR      r4,[pc,#232] ; [0x4338] = 0x9f8c
        0x0000424c:    e594203c    < ..    LDR      r2,[r4,#0x3c]
        0x00004250:    e5941040    @...    LDR      r1,[r4,#0x40]
        0x00004254:    e3a00000    ....    MOV      r0,#0
        0x00004258:    e1520001    ..R.    CMP      r2,r1
        0x0000425c:    2a00000c    ...*    BCS      0x4294 ; SEND_data + 84
        0x00004260:    e5941040    @...    LDR      r1,[r4,#0x40]
        0x00004264:    e3510000    ..Q.    CMP      r1,#0
        0x00004268:    0a000009    ....    BEQ      0x4294 ; SEND_data + 84
        0x0000426c:    e5941040    @...    LDR      r1,[r4,#0x40]
        0x00004270:    e594203c    < ..    LDR      r2,[r4,#0x3c]
        0x00004274:    e0411002    ..A.    SUB      r1,r1,r2
        0x00004278:    e3510ffa    ..Q.    CMP      r1,#0x3e8
        0x0000427c:    9a000003    ....    BLS      0x4290 ; SEND_data + 80
        0x00004280:    e1d411b0    ....    LDRH     r1,[r4,#0x10]
        0x00004284:    e1c411b2    ....    STRH     r1,[r4,#0x12]
        0x00004288:    e584003c    <...    STR      r0,[r4,#0x3c]
        0x0000428c:    e5840040    @...    STR      r0,[r4,#0x40]
        0x00004290:    e8bd8010    ....    POP      {r4,pc}
        0x00004294:    e594103c    <...    LDR      r1,[r4,#0x3c]
        0x00004298:    e5942040    @ ..    LDR      r2,[r4,#0x40]
        0x0000429c:    e1510002    ..Q.    CMP      r1,r2
        0x000042a0:    3a000004    ...:    BCC      0x42b8 ; SEND_data + 120
        0x000042a4:    e5941040    @...    LDR      r1,[r4,#0x40]
        0x000042a8:    e3510ffa    ..Q.    CMP      r1,#0x3e8
        0x000042ac:    9a000001    ....    BLS      0x42b8 ; SEND_data + 120
        0x000042b0:    e584003c    <...    STR      r0,[r4,#0x3c]
        0x000042b4:    e5840040    @...    STR      r0,[r4,#0x40]
        0x000042b8:    e1d401b0    ....    LDRH     r0,[r4,#0x10]
        0x000042bc:    e1d411b2    ....    LDRH     r1,[r4,#0x12]
        0x000042c0:    e1500001    ..P.    CMP      r0,r1
        0x000042c4:    0a000019    ....    BEQ      0x4330 ; SEND_data + 240
        0x000042c8:    e3a02001    . ..    MOV      r2,#1
        0x000042cc:    e5c42007    . ..    STRB     r2,[r4,#7]
        0x000042d0:    e3a02b02    .+..    MOV      r2,#0x800
        0x000042d4:    ebfff625    %...    BL       GET_READ_RXNUM ; 0x1b70
        0x000042d8:    e1a02000    . ..    MOV      r2,r0
        0x000042dc:    e3a03000    .0..    MOV      r3,#0
        0x000042e0:    e5941038    8...    LDR      r1,[r4,#0x38]
        0x000042e4:    ea000009    ....    B        0x4310 ; SEND_data + 208
        0x000042e8:    e1d4c1b2    ....    LDRH     r12,[r4,#0x12]
        0x000042ec:    e5940030    0...    LDR      r0,[r4,#0x30]
        0x000042f0:    e7d0000c    ....    LDRB     r0,[r0,r12]
        0x000042f4:    e7c10003    ....    STRB     r0,[r1,r3]
        0x000042f8:    e1d401b2    ....    LDRH     r0,[r4,#0x12]
        0x000042fc:    e2800001    ....    ADD      r0,r0,#1
        0x00004300:    e3c00b7e    ~...    BIC      r0,r0,#0x1f800
        0x00004304:    e1c401b2    ....    STRH     r0,[r4,#0x12]
        0x00004308:    e2830001    ....    ADD      r0,r3,#1
        0x0000430c:    e3c03801    .8..    BIC      r3,r0,#0x10000
        0x00004310:    e1530002    ..S.    CMP      r3,r2
        0x00004314:    3afffff3    ...:    BCC      0x42e8 ; SEND_data + 168
        0x00004318:    e5940040    @...    LDR      r0,[r4,#0x40]
        0x0000431c:    e0800002    ....    ADD      r0,r0,r2
        0x00004320:    e5840040    @...    STR      r0,[r4,#0x40]
        0x00004324:    e59f0010    ....    LDR      r0,[pc,#16] ; [0x433c] = 0x1d000
        0x00004328:    e5d00008    ....    LDRB     r0,[r0,#8]
        0x0000432c:    eb0015cf    ....    BL       uartWrite ; 0x9a70
        0x00004330:    e8bd4010    .@..    POP      {r4,lr}
        0x00004334:    ea0001d8    ....    B        Touch_int_enable ; 0x4a9c
    $d
        0x00004338:    00009f8c    ....    DCD    40844
        0x0000433c:    0001d000    ....    DCD    118784
    $a
    i.SYS_Interrupt_Shell
    SYS_Interrupt_Shell
        0x00004340:    e59f0008    ....    LDR      r0,[pc,#8] ; [0x4350] = 0xb8002000
        0x00004344:    e5901120     ...    LDR      r1,[r0,#0x120]
        0x00004348:    e28f0004    ....    ADR      r0,{pc}+0xc ; 0x4354
        0x0000434c:    ea00119d    ....    B        sysprintf ; 0x89c8
    $d
        0x00004350:    b8002000    . ..    DCD    3087015936
        0x00004354:    20525349    ISR     DCD    542266185
        0x00004358:    20746f6e    not     DCD    544501614
        0x0000435c:    6e756f66    foun    DCD    1853189990
        0x00004360:    49202164    d! I    DCD    1226842468
        0x00004364:    3d524e53    SNR=    DCD    1028804179
        0x00004368:    000a6425    %d..    DCD    680997
    $a
    i.SpiFlash_NormalPageProgram
    SpiFlash_NormalPageProgram
        0x0000436c:    e92d4070    p@-.    PUSH     {r4-r6,lr}
        0x00004370:    e1a04000    .@..    MOV      r4,r0
        0x00004374:    e1a05001    .P..    MOV      r5,r1
        0x00004378:    e1a06002    .`..    MOV      r6,r2
        0x0000437c:    e3a03000    .0..    MOV      r3,#0
        0x00004380:    e1a02003    . ..    MOV      r2,r3
        0x00004384:    e3a01009    ....    MOV      r1,#9
        0x00004388:    e1a00003    ....    MOV      r0,r3
        0x0000438c:    eb000c45    E...    BL       spiIoctl ; 0x74a8
        0x00004390:    e3a01000    ....    MOV      r1,#0
        0x00004394:    e3a02006    . ..    MOV      r2,#6
        0x00004398:    e1a00001    ....    MOV      r0,r1
        0x0000439c:    eb000d81    ....    BL       spiWrite ; 0x79a8
        0x000043a0:    e3a03000    .0..    MOV      r3,#0
        0x000043a4:    e1a02003    . ..    MOV      r2,r3
        0x000043a8:    e1a01003    ....    MOV      r1,r3
        0x000043ac:    e1a00003    ....    MOV      r0,r3
        0x000043b0:    eb000c3c    <...    BL       spiIoctl ; 0x74a8
        0x000043b4:    e3a00000    ....    MOV      r0,#0
        0x000043b8:    eb000c0c    ....    BL       spiGetBusyStatus ; 0x73f0
        0x000043bc:    e3500000    ..P.    CMP      r0,#0
        0x000043c0:    1afffffb    ....    BNE      0x43b4 ; SpiFlash_NormalPageProgram + 72
        0x000043c4:    e3a03000    .0..    MOV      r3,#0
        0x000043c8:    e1a02003    . ..    MOV      r2,r3
        0x000043cc:    e3a0100a    ....    MOV      r1,#0xa
        0x000043d0:    e1a00003    ....    MOV      r0,r3
        0x000043d4:    eb000c33    3...    BL       spiIoctl ; 0x74a8
        0x000043d8:    e3a03000    .0..    MOV      r3,#0
        0x000043dc:    e1a02003    . ..    MOV      r2,r3
        0x000043e0:    e3a01009    ....    MOV      r1,#9
        0x000043e4:    e1a00003    ....    MOV      r0,r3
        0x000043e8:    eb000c2e    ....    BL       spiIoctl ; 0x74a8
        0x000043ec:    e3a01000    ....    MOV      r1,#0
        0x000043f0:    e3a02002    . ..    MOV      r2,#2
        0x000043f4:    e1a00001    ....    MOV      r0,r1
        0x000043f8:    eb000d6a    j...    BL       spiWrite ; 0x79a8
        0x000043fc:    e3a03000    .0..    MOV      r3,#0
        0x00004400:    e1a02003    . ..    MOV      r2,r3
        0x00004404:    e1a01003    ....    MOV      r1,r3
        0x00004408:    e1a00003    ....    MOV      r0,r3
        0x0000440c:    eb000c25    %...    BL       spiIoctl ; 0x74a8
        0x00004410:    e3a00000    ....    MOV      r0,#0
        0x00004414:    eb000bf5    ....    BL       spiGetBusyStatus ; 0x73f0
        0x00004418:    e3500000    ..P.    CMP      r0,#0
        0x0000441c:    1afffffb    ....    BNE      0x4410 ; SpiFlash_NormalPageProgram + 164
        0x00004420:    e1a00404    ....    LSL      r0,r4,#8
        0x00004424:    e1a02c20     ,..    LSR      r2,r0,#24
        0x00004428:    e3a01000    ....    MOV      r1,#0
        0x0000442c:    e1a00001    ....    MOV      r0,r1
        0x00004430:    eb000d5c    \...    BL       spiWrite ; 0x79a8
        0x00004434:    e3a03000    .0..    MOV      r3,#0
        0x00004438:    e1a02003    . ..    MOV      r2,r3
        0x0000443c:    e1a01003    ....    MOV      r1,r3
        0x00004440:    e1a00003    ....    MOV      r0,r3
        0x00004444:    eb000c17    ....    BL       spiIoctl ; 0x74a8
        0x00004448:    e3a00000    ....    MOV      r0,#0
        0x0000444c:    eb000be7    ....    BL       spiGetBusyStatus ; 0x73f0
        0x00004450:    e3500000    ..P.    CMP      r0,#0
        0x00004454:    1afffffb    ....    BNE      0x4448 ; SpiFlash_NormalPageProgram + 220
        0x00004458:    e1a00804    ....    LSL      r0,r4,#16
        0x0000445c:    e1a02c20     ,..    LSR      r2,r0,#24
        0x00004460:    e3a01000    ....    MOV      r1,#0
        0x00004464:    e1a00001    ....    MOV      r0,r1
        0x00004468:    eb000d4e    N...    BL       spiWrite ; 0x79a8
        0x0000446c:    e3a03000    .0..    MOV      r3,#0
        0x00004470:    e1a02003    . ..    MOV      r2,r3
        0x00004474:    e1a01003    ....    MOV      r1,r3
        0x00004478:    e1a00003    ....    MOV      r0,r3
        0x0000447c:    eb000c09    ....    BL       spiIoctl ; 0x74a8
        0x00004480:    e3a00000    ....    MOV      r0,#0
        0x00004484:    eb000bd9    ....    BL       spiGetBusyStatus ; 0x73f0
        0x00004488:    e3500000    ..P.    CMP      r0,#0
        0x0000448c:    1afffffb    ....    BNE      0x4480 ; SpiFlash_NormalPageProgram + 276
        0x00004490:    e3a01000    ....    MOV      r1,#0
        0x00004494:    e20420ff    . ..    AND      r2,r4,#0xff
        0x00004498:    e1a00001    ....    MOV      r0,r1
        0x0000449c:    eb000d41    A...    BL       spiWrite ; 0x79a8
        0x000044a0:    e3a03000    .0..    MOV      r3,#0
        0x000044a4:    e1a02003    . ..    MOV      r2,r3
        0x000044a8:    e1a01003    ....    MOV      r1,r3
        0x000044ac:    e1a00003    ....    MOV      r0,r3
        0x000044b0:    eb000bfc    ....    BL       spiIoctl ; 0x74a8
        0x000044b4:    e3a00000    ....    MOV      r0,#0
        0x000044b8:    eb000bcc    ....    BL       spiGetBusyStatus ; 0x73f0
        0x000044bc:    e3500000    ..P.    CMP      r0,#0
        0x000044c0:    1afffffb    ....    BNE      0x44b4 ; SpiFlash_NormalPageProgram + 328
        0x000044c4:    e3a04000    .@..    MOV      r4,#0
        0x000044c8:    ea00000d    ....    B        0x4504 ; SpiFlash_NormalPageProgram + 408
        0x000044cc:    e3a01000    ....    MOV      r1,#0
        0x000044d0:    e7d52004    . ..    LDRB     r2,[r5,r4]
        0x000044d4:    e1a00001    ....    MOV      r0,r1
        0x000044d8:    eb000d32    2...    BL       spiWrite ; 0x79a8
        0x000044dc:    e3a03000    .0..    MOV      r3,#0
        0x000044e0:    e1a02003    . ..    MOV      r2,r3
        0x000044e4:    e1a01003    ....    MOV      r1,r3
        0x000044e8:    e1a00003    ....    MOV      r0,r3
        0x000044ec:    eb000bed    ....    BL       spiIoctl ; 0x74a8
        0x000044f0:    e3a00000    ....    MOV      r0,#0
        0x000044f4:    eb000bbd    ....    BL       spiGetBusyStatus ; 0x73f0
        0x000044f8:    e3500000    ..P.    CMP      r0,#0
        0x000044fc:    1afffffb    ....    BNE      0x44f0 ; SpiFlash_NormalPageProgram + 388
        0x00004500:    e2844001    .@..    ADD      r4,r4,#1
        0x00004504:    e1540006    ..T.    CMP      r4,r6
        0x00004508:    3affffef    ...:    BCC      0x44cc ; SpiFlash_NormalPageProgram + 352
        0x0000450c:    e3a03000    .0..    MOV      r3,#0
        0x00004510:    e1a02003    . ..    MOV      r2,r3
        0x00004514:    e3a0100a    ....    MOV      r1,#0xa
        0x00004518:    e1a00003    ....    MOV      r0,r3
        0x0000451c:    eb000be1    ....    BL       spiIoctl ; 0x74a8
        0x00004520:    e8bd4070    p@..    POP      {r4-r6,lr}
        0x00004524:    ea00014a    J...    B        SpiFlash_WaitReady ; 0x4a54
    i.SpiFlash_NormalPageProgram_16
    SpiFlash_NormalPageProgram_16
        0x00004528:    e92d41f0    .A-.    PUSH     {r4-r8,lr}
        0x0000452c:    e1a06000    .`..    MOV      r6,r0
        0x00004530:    e1a07001    .p..    MOV      r7,r1
        0x00004534:    e1a05002    .P..    MOV      r5,r2
        0x00004538:    e1b00a06    ....    LSLS     r0,r6,#20
        0x0000453c:    1a00001b    ....    BNE      0x45b0 ; SpiFlash_NormalPageProgram_16 + 136
        0x00004540:    e3550a01    ..U.    CMP      r5,#0x1000
        0x00004544:    8a000019    ....    BHI      0x45b0 ; SpiFlash_NormalPageProgram_16 + 136
        0x00004548:    e1a00006    ....    MOV      r0,r6
        0x0000454c:    eb0000e5    ....    BL       SpiFlash_SectorErase ; 0x48e8
        0x00004550:    e3550c01    ..U.    CMP      r5,#0x100
        0x00004554:    9a000001    ....    BLS      0x4560 ; SpiFlash_NormalPageProgram_16 + 56
        0x00004558:    e3a04c01    .L..    MOV      r4,#0x100
        0x0000455c:    ea000011    ....    B        0x45a8 ; SpiFlash_NormalPageProgram_16 + 128
        0x00004560:    e1a04005    .@..    MOV      r4,r5
        0x00004564:    ea00000f    ....    B        0x45a8 ; SpiFlash_NormalPageProgram_16 + 128
        0x00004568:    e1a02004    . ..    MOV      r2,r4
        0x0000456c:    e1a01007    ....    MOV      r1,r7
        0x00004570:    e1a00006    ....    MOV      r0,r6
        0x00004574:    ebffff7c    |...    BL       SpiFlash_NormalPageProgram ; 0x436c
        0x00004578:    e0450004    ..E.    SUB      r0,r5,r4
        0x0000457c:    e1a05800    .X..    LSL      r5,r0,#16
        0x00004580:    e1a05825    %X..    LSR      r5,r5,#16
        0x00004584:    e3550000    ..U.    CMP      r5,#0
        0x00004588:    0a000001    ....    BEQ      0x4594 ; SpiFlash_NormalPageProgram_16 + 108
        0x0000458c:    e0877004    .p..    ADD      r7,r7,r4
        0x00004590:    e0866004    .`..    ADD      r6,r6,r4
        0x00004594:    e3550c01    ..U.    CMP      r5,#0x100
        0x00004598:    9a000001    ....    BLS      0x45a4 ; SpiFlash_NormalPageProgram_16 + 124
        0x0000459c:    e3a04c01    .L..    MOV      r4,#0x100
        0x000045a0:    ea000000    ....    B        0x45a8 ; SpiFlash_NormalPageProgram_16 + 128
        0x000045a4:    e1a04005    .@..    MOV      r4,r5
        0x000045a8:    e3540000    ..T.    CMP      r4,#0
        0x000045ac:    1affffed    ....    BNE      0x4568 ; SpiFlash_NormalPageProgram_16 + 64
        0x000045b0:    e8bd81f0    ....    POP      {r4-r8,pc}
    i.SpiFlash_NormalPageProgram_32
    SpiFlash_NormalPageProgram_32
        0x000045b4:    e92d4070    p@-.    PUSH     {r4-r6,lr}
        0x000045b8:    e1a05000    .P..    MOV      r5,r0
        0x000045bc:    e1a06001    .`..    MOV      r6,r1
        0x000045c0:    e1b00805    ....    LSLS     r0,r5,#16
        0x000045c4:    1a00000e    ....    BNE      0x4604 ; SpiFlash_NormalPageProgram_32 + 80
        0x000045c8:    e3520802    ..R.    CMP      r2,#0x20000
        0x000045cc:    1a00000c    ....    BNE      0x4604 ; SpiFlash_NormalPageProgram_32 + 80
        0x000045d0:    e3a04000    .@..    MOV      r4,#0
        0x000045d4:    e3a02a01    .*..    MOV      r2,#0x1000
        0x000045d8:    e1a01006    ....    MOV      r1,r6
        0x000045dc:    e1a00005    ....    MOV      r0,r5
        0x000045e0:    ebffffd0    ....    BL       SpiFlash_NormalPageProgram_16 ; 0x4528
        0x000045e4:    e354001f    ..T.    CMP      r4,#0x1f
        0x000045e8:    0a000001    ....    BEQ      0x45f4 ; SpiFlash_NormalPageProgram_32 + 64
        0x000045ec:    e2855a01    .Z..    ADD      r5,r5,#0x1000
        0x000045f0:    e2866a01    .j..    ADD      r6,r6,#0x1000
        0x000045f4:    e2840001    ....    ADD      r0,r4,#1
        0x000045f8:    e3c04801    .H..    BIC      r4,r0,#0x10000
        0x000045fc:    e3540020     .T.    CMP      r4,#0x20
        0x00004600:    3afffff3    ...:    BCC      0x45d4 ; SpiFlash_NormalPageProgram_32 + 32
        0x00004604:    e8bd8070    p...    POP      {r4-r6,pc}
    i.SpiFlash_NormalRead
    SpiFlash_NormalRead
        0x00004608:    e92d4070    p@-.    PUSH     {r4-r6,lr}
        0x0000460c:    e1a04000    .@..    MOV      r4,r0
        0x00004610:    e1a05001    .P..    MOV      r5,r1
        0x00004614:    e1a06002    .`..    MOV      r6,r2
        0x00004618:    e3a03000    .0..    MOV      r3,#0
        0x0000461c:    e1a02003    . ..    MOV      r2,r3
        0x00004620:    e3a01009    ....    MOV      r1,#9
        0x00004624:    e1a00003    ....    MOV      r0,r3
        0x00004628:    eb000b9e    ....    BL       spiIoctl ; 0x74a8
        0x0000462c:    e3a01000    ....    MOV      r1,#0
        0x00004630:    e3a02003    . ..    MOV      r2,#3
        0x00004634:    e1a00001    ....    MOV      r0,r1
        0x00004638:    eb000cda    ....    BL       spiWrite ; 0x79a8
        0x0000463c:    e3a03000    .0..    MOV      r3,#0
        0x00004640:    e1a02003    . ..    MOV      r2,r3
        0x00004644:    e1a01003    ....    MOV      r1,r3
        0x00004648:    e1a00003    ....    MOV      r0,r3
        0x0000464c:    eb000b95    ....    BL       spiIoctl ; 0x74a8
        0x00004650:    e3a00000    ....    MOV      r0,#0
        0x00004654:    eb000b65    e...    BL       spiGetBusyStatus ; 0x73f0
        0x00004658:    e3500000    ..P.    CMP      r0,#0
        0x0000465c:    1afffffb    ....    BNE      0x4650 ; SpiFlash_NormalRead + 72
        0x00004660:    e1a00404    ....    LSL      r0,r4,#8
        0x00004664:    e1a02c20     ,..    LSR      r2,r0,#24
        0x00004668:    e3a01000    ....    MOV      r1,#0
        0x0000466c:    e1a00001    ....    MOV      r0,r1
        0x00004670:    eb000ccc    ....    BL       spiWrite ; 0x79a8
        0x00004674:    e3a03000    .0..    MOV      r3,#0
        0x00004678:    e1a02003    . ..    MOV      r2,r3
        0x0000467c:    e1a01003    ....    MOV      r1,r3
        0x00004680:    e1a00003    ....    MOV      r0,r3
        0x00004684:    eb000b87    ....    BL       spiIoctl ; 0x74a8
        0x00004688:    e3a00000    ....    MOV      r0,#0
        0x0000468c:    eb000b57    W...    BL       spiGetBusyStatus ; 0x73f0
        0x00004690:    e3500000    ..P.    CMP      r0,#0
        0x00004694:    1afffffb    ....    BNE      0x4688 ; SpiFlash_NormalRead + 128
        0x00004698:    e1a00804    ....    LSL      r0,r4,#16
        0x0000469c:    e1a02c20     ,..    LSR      r2,r0,#24
        0x000046a0:    e3a01000    ....    MOV      r1,#0
        0x000046a4:    e1a00001    ....    MOV      r0,r1
        0x000046a8:    eb000cbe    ....    BL       spiWrite ; 0x79a8
        0x000046ac:    e3a03000    .0..    MOV      r3,#0
        0x000046b0:    e1a02003    . ..    MOV      r2,r3
        0x000046b4:    e1a01003    ....    MOV      r1,r3
        0x000046b8:    e1a00003    ....    MOV      r0,r3
        0x000046bc:    eb000b79    y...    BL       spiIoctl ; 0x74a8
        0x000046c0:    e3a00000    ....    MOV      r0,#0
        0x000046c4:    eb000b49    I...    BL       spiGetBusyStatus ; 0x73f0
        0x000046c8:    e3500000    ..P.    CMP      r0,#0
        0x000046cc:    1afffffb    ....    BNE      0x46c0 ; SpiFlash_NormalRead + 184
        0x000046d0:    e3a01000    ....    MOV      r1,#0
        0x000046d4:    e20420ff    . ..    AND      r2,r4,#0xff
        0x000046d8:    e1a00001    ....    MOV      r0,r1
        0x000046dc:    eb000cb1    ....    BL       spiWrite ; 0x79a8
        0x000046e0:    e3a03000    .0..    MOV      r3,#0
        0x000046e4:    e1a02003    . ..    MOV      r2,r3
        0x000046e8:    e1a01003    ....    MOV      r1,r3
        0x000046ec:    e1a00003    ....    MOV      r0,r3
        0x000046f0:    eb000b6c    l...    BL       spiIoctl ; 0x74a8
        0x000046f4:    e3a00000    ....    MOV      r0,#0
        0x000046f8:    eb000b3c    <...    BL       spiGetBusyStatus ; 0x73f0
        0x000046fc:    e3500000    ..P.    CMP      r0,#0
        0x00004700:    1afffffb    ....    BNE      0x46f4 ; SpiFlash_NormalRead + 236
        0x00004704:    e3a04000    .@..    MOV      r4,#0
        0x00004708:    ea000011    ....    B        0x4754 ; SpiFlash_NormalRead + 332
        0x0000470c:    e3a02000    . ..    MOV      r2,#0
        0x00004710:    e1a01002    ....    MOV      r1,r2
        0x00004714:    e1a00002    ....    MOV      r0,r2
        0x00004718:    eb000ca2    ....    BL       spiWrite ; 0x79a8
        0x0000471c:    e3a03000    .0..    MOV      r3,#0
        0x00004720:    e1a02003    . ..    MOV      r2,r3
        0x00004724:    e1a01003    ....    MOV      r1,r3
        0x00004728:    e1a00003    ....    MOV      r0,r3
        0x0000472c:    eb000b5d    ]...    BL       spiIoctl ; 0x74a8
        0x00004730:    e3a00000    ....    MOV      r0,#0
        0x00004734:    eb000b2d    -...    BL       spiGetBusyStatus ; 0x73f0
        0x00004738:    e3500000    ..P.    CMP      r0,#0
        0x0000473c:    1afffffb    ....    BNE      0x4730 ; SpiFlash_NormalRead + 296
        0x00004740:    e3a01000    ....    MOV      r1,#0
        0x00004744:    e1a00001    ....    MOV      r0,r1
        0x00004748:    eb000c7e    ~...    BL       spiRead ; 0x7948
        0x0000474c:    e7c50004    ....    STRB     r0,[r5,r4]
        0x00004750:    e2844001    .@..    ADD      r4,r4,#1
        0x00004754:    e1540006    ..T.    CMP      r4,r6
        0x00004758:    3affffeb    ...:    BCC      0x470c ; SpiFlash_NormalRead + 260
        0x0000475c:    e8bd4070    p@..    POP      {r4-r6,lr}
        0x00004760:    ea0000bb    ....    B        SpiFlash_WaitReady ; 0x4a54
    i.SpiFlash_NormalRead_16
    SpiFlash_NormalRead_16
        0x00004764:    e92d41f0    .A-.    PUSH     {r4-r8,lr}
        0x00004768:    e1a06000    .`..    MOV      r6,r0
        0x0000476c:    e1a07001    .p..    MOV      r7,r1
        0x00004770:    e1a05002    .P..    MOV      r5,r2
        0x00004774:    e1b00a06    ....    LSLS     r0,r6,#20
        0x00004778:    1a000019    ....    BNE      0x47e4 ; SpiFlash_NormalRead_16 + 128
        0x0000477c:    e3550a01    ..U.    CMP      r5,#0x1000
        0x00004780:    8a000017    ....    BHI      0x47e4 ; SpiFlash_NormalRead_16 + 128
        0x00004784:    e3550c01    ..U.    CMP      r5,#0x100
        0x00004788:    9a000001    ....    BLS      0x4794 ; SpiFlash_NormalRead_16 + 48
        0x0000478c:    e3a04c01    .L..    MOV      r4,#0x100
        0x00004790:    ea000011    ....    B        0x47dc ; SpiFlash_NormalRead_16 + 120
        0x00004794:    e1a04005    .@..    MOV      r4,r5
        0x00004798:    ea00000f    ....    B        0x47dc ; SpiFlash_NormalRead_16 + 120
        0x0000479c:    e1a02004    . ..    MOV      r2,r4
        0x000047a0:    e1a01007    ....    MOV      r1,r7
        0x000047a4:    e1a00006    ....    MOV      r0,r6
        0x000047a8:    ebffff96    ....    BL       SpiFlash_NormalRead ; 0x4608
        0x000047ac:    e0450004    ..E.    SUB      r0,r5,r4
        0x000047b0:    e1a05800    .X..    LSL      r5,r0,#16
        0x000047b4:    e1a05825    %X..    LSR      r5,r5,#16
        0x000047b8:    e3550000    ..U.    CMP      r5,#0
        0x000047bc:    0a000001    ....    BEQ      0x47c8 ; SpiFlash_NormalRead_16 + 100
        0x000047c0:    e0866004    .`..    ADD      r6,r6,r4
        0x000047c4:    e0877004    .p..    ADD      r7,r7,r4
        0x000047c8:    e3550c01    ..U.    CMP      r5,#0x100
        0x000047cc:    9a000001    ....    BLS      0x47d8 ; SpiFlash_NormalRead_16 + 116
        0x000047d0:    e3a04c01    .L..    MOV      r4,#0x100
        0x000047d4:    ea000000    ....    B        0x47dc ; SpiFlash_NormalRead_16 + 120
        0x000047d8:    e1a04005    .@..    MOV      r4,r5
        0x000047dc:    e3540000    ..T.    CMP      r4,#0
        0x000047e0:    1affffed    ....    BNE      0x479c ; SpiFlash_NormalRead_16 + 56
        0x000047e4:    e8bd81f0    ....    POP      {r4-r8,pc}
    i.SpiFlash_NormalRead_32
    SpiFlash_NormalRead_32
        0x000047e8:    e92d4070    p@-.    PUSH     {r4-r6,lr}
        0x000047ec:    e1a05000    .P..    MOV      r5,r0
        0x000047f0:    e1a06001    .`..    MOV      r6,r1
        0x000047f4:    e1b00805    ....    LSLS     r0,r5,#16
        0x000047f8:    1a00000e    ....    BNE      0x4838 ; SpiFlash_NormalRead_32 + 80
        0x000047fc:    e3520802    ..R.    CMP      r2,#0x20000
        0x00004800:    1a00000c    ....    BNE      0x4838 ; SpiFlash_NormalRead_32 + 80
        0x00004804:    e3a04000    .@..    MOV      r4,#0
        0x00004808:    e3a02a01    .*..    MOV      r2,#0x1000
        0x0000480c:    e1a01006    ....    MOV      r1,r6
        0x00004810:    e1a00005    ....    MOV      r0,r5
        0x00004814:    ebffffd2    ....    BL       SpiFlash_NormalRead_16 ; 0x4764
        0x00004818:    e354001f    ..T.    CMP      r4,#0x1f
        0x0000481c:    0a000001    ....    BEQ      0x4828 ; SpiFlash_NormalRead_32 + 64
        0x00004820:    e2855a01    .Z..    ADD      r5,r5,#0x1000
        0x00004824:    e2866a01    .j..    ADD      r6,r6,#0x1000
        0x00004828:    e2840001    ....    ADD      r0,r4,#1
        0x0000482c:    e3c04801    .H..    BIC      r4,r0,#0x10000
        0x00004830:    e3540020     .T.    CMP      r4,#0x20
        0x00004834:    3afffff3    ...:    BCC      0x4808 ; SpiFlash_NormalRead_32 + 32
        0x00004838:    e8bd8070    p...    POP      {r4-r6,pc}
    i.SpiFlash_ReadStatusReg
    SpiFlash_ReadStatusReg
        0x0000483c:    e92d4010    .@-.    PUSH     {r4,lr}
        0x00004840:    e3a03000    .0..    MOV      r3,#0
        0x00004844:    e1a02003    . ..    MOV      r2,r3
        0x00004848:    e3a01009    ....    MOV      r1,#9
        0x0000484c:    e1a00003    ....    MOV      r0,r3
        0x00004850:    eb000b14    ....    BL       spiIoctl ; 0x74a8
        0x00004854:    e3a01000    ....    MOV      r1,#0
        0x00004858:    e3a02005    . ..    MOV      r2,#5
        0x0000485c:    e1a00001    ....    MOV      r0,r1
        0x00004860:    eb000c50    P...    BL       spiWrite ; 0x79a8
        0x00004864:    e3a03000    .0..    MOV      r3,#0
        0x00004868:    e1a02003    . ..    MOV      r2,r3
        0x0000486c:    e1a01003    ....    MOV      r1,r3
        0x00004870:    e1a00003    ....    MOV      r0,r3
        0x00004874:    eb000b0b    ....    BL       spiIoctl ; 0x74a8
        0x00004878:    e3a00000    ....    MOV      r0,#0
        0x0000487c:    eb000adb    ....    BL       spiGetBusyStatus ; 0x73f0
        0x00004880:    e3500000    ..P.    CMP      r0,#0
        0x00004884:    1afffffb    ....    BNE      0x4878 ; SpiFlash_ReadStatusReg + 60
        0x00004888:    e3a02000    . ..    MOV      r2,#0
        0x0000488c:    e1a01002    ....    MOV      r1,r2
        0x00004890:    e1a00002    ....    MOV      r0,r2
        0x00004894:    eb000c43    C...    BL       spiWrite ; 0x79a8
        0x00004898:    e3a03000    .0..    MOV      r3,#0
        0x0000489c:    e1a02003    . ..    MOV      r2,r3
        0x000048a0:    e1a01003    ....    MOV      r1,r3
        0x000048a4:    e1a00003    ....    MOV      r0,r3
        0x000048a8:    eb000afe    ....    BL       spiIoctl ; 0x74a8
        0x000048ac:    e3a00000    ....    MOV      r0,#0
        0x000048b0:    eb000ace    ....    BL       spiGetBusyStatus ; 0x73f0
        0x000048b4:    e3500000    ..P.    CMP      r0,#0
        0x000048b8:    1afffffb    ....    BNE      0x48ac ; SpiFlash_ReadStatusReg + 112
        0x000048bc:    e3a01000    ....    MOV      r1,#0
        0x000048c0:    e1a00001    ....    MOV      r0,r1
        0x000048c4:    eb000c1f    ....    BL       spiRead ; 0x7948
        0x000048c8:    e20040ff    .@..    AND      r4,r0,#0xff
        0x000048cc:    e3a03000    .0..    MOV      r3,#0
        0x000048d0:    e1a02003    . ..    MOV      r2,r3
        0x000048d4:    e3a0100a    ....    MOV      r1,#0xa
        0x000048d8:    e1a00003    ....    MOV      r0,r3
        0x000048dc:    eb000af1    ....    BL       spiIoctl ; 0x74a8
        0x000048e0:    e1a00004    ....    MOV      r0,r4
        0x000048e4:    e8bd8010    ....    POP      {r4,pc}
    i.SpiFlash_SectorErase
    SpiFlash_SectorErase
        0x000048e8:    e92d4010    .@-.    PUSH     {r4,lr}
        0x000048ec:    e1a04000    .@..    MOV      r4,r0
        0x000048f0:    e3a03000    .0..    MOV      r3,#0
        0x000048f4:    e1a02003    . ..    MOV      r2,r3
        0x000048f8:    e3a01009    ....    MOV      r1,#9
        0x000048fc:    e1a00003    ....    MOV      r0,r3
        0x00004900:    eb000ae8    ....    BL       spiIoctl ; 0x74a8
        0x00004904:    e3a01000    ....    MOV      r1,#0
        0x00004908:    e3a02006    . ..    MOV      r2,#6
        0x0000490c:    e1a00001    ....    MOV      r0,r1
        0x00004910:    eb000c24    $...    BL       spiWrite ; 0x79a8
        0x00004914:    e3a03000    .0..    MOV      r3,#0
        0x00004918:    e1a02003    . ..    MOV      r2,r3
        0x0000491c:    e1a01003    ....    MOV      r1,r3
        0x00004920:    e1a00003    ....    MOV      r0,r3
        0x00004924:    eb000adf    ....    BL       spiIoctl ; 0x74a8
        0x00004928:    e3a00000    ....    MOV      r0,#0
        0x0000492c:    eb000aaf    ....    BL       spiGetBusyStatus ; 0x73f0
        0x00004930:    e3500000    ..P.    CMP      r0,#0
        0x00004934:    1afffffb    ....    BNE      0x4928 ; SpiFlash_SectorErase + 64
        0x00004938:    e3a03000    .0..    MOV      r3,#0
        0x0000493c:    e1a02003    . ..    MOV      r2,r3
        0x00004940:    e3a0100a    ....    MOV      r1,#0xa
        0x00004944:    e1a00003    ....    MOV      r0,r3
        0x00004948:    eb000ad6    ....    BL       spiIoctl ; 0x74a8
        0x0000494c:    e3a03000    .0..    MOV      r3,#0
        0x00004950:    e1a02003    . ..    MOV      r2,r3
        0x00004954:    e3a01009    ....    MOV      r1,#9
        0x00004958:    e1a00003    ....    MOV      r0,r3
        0x0000495c:    eb000ad1    ....    BL       spiIoctl ; 0x74a8
        0x00004960:    e3a01000    ....    MOV      r1,#0
        0x00004964:    e3a02020      ..    MOV      r2,#0x20
        0x00004968:    e1a00001    ....    MOV      r0,r1
        0x0000496c:    eb000c0d    ....    BL       spiWrite ; 0x79a8
        0x00004970:    e3a03000    .0..    MOV      r3,#0
        0x00004974:    e1a02003    . ..    MOV      r2,r3
        0x00004978:    e1a01003    ....    MOV      r1,r3
        0x0000497c:    e1a00003    ....    MOV      r0,r3
        0x00004980:    eb000ac8    ....    BL       spiIoctl ; 0x74a8
        0x00004984:    e3a00000    ....    MOV      r0,#0
        0x00004988:    eb000a98    ....    BL       spiGetBusyStatus ; 0x73f0
        0x0000498c:    e3500000    ..P.    CMP      r0,#0
        0x00004990:    1afffffb    ....    BNE      0x4984 ; SpiFlash_SectorErase + 156
        0x00004994:    e1a00404    ....    LSL      r0,r4,#8
        0x00004998:    e1a02c20     ,..    LSR      r2,r0,#24
        0x0000499c:    e3a01000    ....    MOV      r1,#0
        0x000049a0:    e1a00001    ....    MOV      r0,r1
        0x000049a4:    eb000bff    ....    BL       spiWrite ; 0x79a8
        0x000049a8:    e3a03000    .0..    MOV      r3,#0
        0x000049ac:    e1a02003    . ..    MOV      r2,r3
        0x000049b0:    e1a01003    ....    MOV      r1,r3
        0x000049b4:    e1a00003    ....    MOV      r0,r3
        0x000049b8:    eb000aba    ....    BL       spiIoctl ; 0x74a8
        0x000049bc:    e3a00000    ....    MOV      r0,#0
        0x000049c0:    eb000a8a    ....    BL       spiGetBusyStatus ; 0x73f0
        0x000049c4:    e3500000    ..P.    CMP      r0,#0
        0x000049c8:    1afffffb    ....    BNE      0x49bc ; SpiFlash_SectorErase + 212
        0x000049cc:    e1a00804    ....    LSL      r0,r4,#16
        0x000049d0:    e1a02c20     ,..    LSR      r2,r0,#24
        0x000049d4:    e3a01000    ....    MOV      r1,#0
        0x000049d8:    e1a00001    ....    MOV      r0,r1
        0x000049dc:    eb000bf1    ....    BL       spiWrite ; 0x79a8
        0x000049e0:    e3a03000    .0..    MOV      r3,#0
        0x000049e4:    e1a02003    . ..    MOV      r2,r3
        0x000049e8:    e1a01003    ....    MOV      r1,r3
        0x000049ec:    e1a00003    ....    MOV      r0,r3
        0x000049f0:    eb000aac    ....    BL       spiIoctl ; 0x74a8
        0x000049f4:    e3a00000    ....    MOV      r0,#0
        0x000049f8:    eb000a7c    |...    BL       spiGetBusyStatus ; 0x73f0
        0x000049fc:    e3500000    ..P.    CMP      r0,#0
        0x00004a00:    1afffffb    ....    BNE      0x49f4 ; SpiFlash_SectorErase + 268
        0x00004a04:    e3a01000    ....    MOV      r1,#0
        0x00004a08:    e20420ff    . ..    AND      r2,r4,#0xff
        0x00004a0c:    e1a00001    ....    MOV      r0,r1
        0x00004a10:    eb000be4    ....    BL       spiWrite ; 0x79a8
        0x00004a14:    e3a03000    .0..    MOV      r3,#0
        0x00004a18:    e1a02003    . ..    MOV      r2,r3
        0x00004a1c:    e1a01003    ....    MOV      r1,r3
        0x00004a20:    e1a00003    ....    MOV      r0,r3
        0x00004a24:    eb000a9f    ....    BL       spiIoctl ; 0x74a8
        0x00004a28:    e3a00000    ....    MOV      r0,#0
        0x00004a2c:    eb000a6f    o...    BL       spiGetBusyStatus ; 0x73f0
        0x00004a30:    e3500000    ..P.    CMP      r0,#0
        0x00004a34:    1afffffb    ....    BNE      0x4a28 ; SpiFlash_SectorErase + 320
        0x00004a38:    e3a03000    .0..    MOV      r3,#0
        0x00004a3c:    e1a02003    . ..    MOV      r2,r3
        0x00004a40:    e3a0100a    ....    MOV      r1,#0xa
        0x00004a44:    e1a00003    ....    MOV      r0,r3
        0x00004a48:    eb000a96    ....    BL       spiIoctl ; 0x74a8
        0x00004a4c:    e8bd4010    .@..    POP      {r4,lr}
        0x00004a50:    e1a00000    ....    MOV      r0,r0
    i.SpiFlash_WaitReady
    SpiFlash_WaitReady
        0x00004a54:    e92d4010    .@-.    PUSH     {r4,lr}
        0x00004a58:    ebffff77    w...    BL       SpiFlash_ReadStatusReg ; 0x483c
        0x00004a5c:    e2000001    ....    AND      r0,r0,#1
        0x00004a60:    e3500000    ..P.    CMP      r0,#0
        0x00004a64:    1afffffb    ....    BNE      0x4a58 ; SpiFlash_WaitReady + 4
        0x00004a68:    e8bd8010    ....    POP      {r4,pc}
    i.Timer_1ms_Init
    Timer_1ms_Init
        0x00004a6c:    e92d4010    .@-.    PUSH     {r4,lr}
        0x00004a70:    e59f1018    ....    LDR      r1,[pc,#24] ; [0x4a90] = 0xb71b00
        0x00004a74:    e3a00000    ....    MOV      r0,#0
        0x00004a78:    eb000f04    ....    BL       sysSetTimerReferenceClock ; 0x8690
        0x00004a7c:    e8bd4010    .@..    POP      {r4,lr}
        0x00004a80:    e3a02001    . ..    MOV      r2,#1
        0x00004a84:    e3a01ffa    ....    MOV      r1,#0x3e8
        0x00004a88:    e3a00000    ....    MOV      r0,#0
        0x00004a8c:    ea000f0b    ....    B        sysStartTimer ; 0x86c0
    $d
        0x00004a90:    00b71b00    ....    DCD    12000000
    $a
    i.Touch_int_disable
    Touch_int_disable
        0x00004a94:    e3a00001    ....    MOV      r0,#1
        0x00004a98:    ea000a26    &...    B        set_touchint ; 0x7338
    i.Touch_int_enable
    Touch_int_enable
        0x00004a9c:    e92d4010    .@-.    PUSH     {r4,lr}
        0x00004aa0:    e59f0020     ...    LDR      r0,[pc,#32] ; [0x4ac8] = 0xa034
        0x00004aa4:    e5d00004    ....    LDRB     r0,[r0,#4]
        0x00004aa8:    e3500002    ..P.    CMP      r0,#2
        0x00004aac:    1a000002    ....    BNE      0x4abc ; Touch_int_enable + 32
        0x00004ab0:    e3a00000    ....    MOV      r0,#0
        0x00004ab4:    eb000a1f    ....    BL       set_touchint ; 0x7338
        0x00004ab8:    eb000558    X...    BL       check_tp_send ; 0x6020
        0x00004abc:    e8bd4010    .@..    POP      {r4,lr}
        0x00004ac0:    e3a00000    ....    MOV      r0,#0
        0x00004ac4:    ea000a1b    ....    B        set_touchint ; 0x7338
    $d
        0x00004ac8:    0000a034    4...    DCD    41012
    $a
    i.Touch_tim_init
    Touch_tim_init
        0x00004acc:    e92d4010    .@-.    PUSH     {r4,lr}
        0x00004ad0:    e59f0044    D...    LDR      r0,[pc,#68] ; [0x4b1c] = 0xb0000218
        0x00004ad4:    e3a02001    . ..    MOV      r2,#1
        0x00004ad8:    e3a01040    @...    MOV      r1,#0x40
        0x00004adc:    ebfff7e7    ....    BL       REG_OPERATE ; 0x2a80
        0x00004ae0:    e3a02014    . ..    MOV      r2,#0x14
        0x00004ae4:    e3a01010    ....    MOV      r1,#0x10
        0x00004ae8:    e3a00002    ....    MOV      r0,#2
        0x00004aec:    ebfff32f    /...    BL       ETIMER_Open ; 0x17b0
        0x00004af0:    e3a00002    ....    MOV      r0,#2
        0x00004af4:    ebfff2f6    ....    BL       ETIMER_EnableInt ; 0x16d4
        0x00004af8:    e59f2020      ..    LDR      r2,[pc,#32] ; [0x4b20] = 0x1948
        0x00004afc:    e3a01031    1...    MOV      r1,#0x31
        0x00004b00:    e3a00002    ....    MOV      r0,#2
        0x00004b04:    eb000e10    ....    BL       sysInstallISR ; 0x834c
        0x00004b08:    e3a0007f    ....    MOV      r0,#0x7f
        0x00004b0c:    eb000ec7    ....    BL       sysSetLocalInterrupt ; 0x8630
        0x00004b10:    e8bd4010    .@..    POP      {r4,lr}
        0x00004b14:    e3a00031    1...    MOV      r0,#0x31
        0x00004b18:    ea000bc4    ....    B        sysEnableInterrupt ; 0x7a30
    $d
        0x00004b1c:    b0000218    ....    DCD    2952790552
        0x00004b20:    00001948    H...    DCD    6472
    $a
    i.Touch_tim_stop
    Touch_tim_stop
        0x00004b24:    e3a00002    ....    MOV      r0,#2
        0x00004b28:    eafff368    h...    B        ETIMER_Stop ; 0x18d0
    i.UART_TOIO
    UART_TOIO
        0x00004b2c:    e92d4010    .@-.    PUSH     {r4,lr}
        0x00004b30:    e59f00b0    ....    LDR      r0,[pc,#176] ; [0x4be8] = 0xb0000090
        0x00004b34:    e3a02000    . ..    MOV      r2,#0
        0x00004b38:    e3a01cff    ....    MOV      r1,#0xff00
        0x00004b3c:    ebfff7cf    ....    BL       REG_OPERATE ; 0x2a80
        0x00004b40:    e59f00a4    ....    LDR      r0,[pc,#164] ; [0x4bec] = 0xb00000ac
        0x00004b44:    e3a02000    . ..    MOV      r2,#0
        0x00004b48:    e3a010ff    ....    MOV      r1,#0xff
        0x00004b4c:    ebfff7cb    ....    BL       REG_OPERATE ; 0x2a80
        0x00004b50:    e59f0098    ....    LDR      r0,[pc,#152] ; [0x4bf0] = 0xb00000b0
        0x00004b54:    e3a02000    . ..    MOV      r2,#0
        0x00004b58:    e3a01aff    ....    MOV      r1,#0xff000
        0x00004b5c:    ebfff7c7    ....    BL       REG_OPERATE ; 0x2a80
        0x00004b60:    e3a03001    .0..    MOV      r3,#1
        0x00004b64:    e1a02003    . ..    MOV      r2,r3
        0x00004b68:    e3a0100c    ....    MOV      r1,#0xc
        0x00004b6c:    e3a00c01    ....    MOV      r0,#0x100
        0x00004b70:    ebfff4c9    ....    BL       GPIO_OpenBit ; 0x1e9c
        0x00004b74:    e3a03001    .0..    MOV      r3,#1
        0x00004b78:    e1a02003    . ..    MOV      r2,r3
        0x00004b7c:    e3a01c03    ....    MOV      r1,#0x300
        0x00004b80:    e3a00d07    ....    MOV      r0,#0x1c0
        0x00004b84:    ebfff4c4    ....    BL       GPIO_OpenBit ; 0x1e9c
        0x00004b88:    e3a03001    .0..    MOV      r3,#1
        0x00004b8c:    e1a02003    . ..    MOV      r2,r3
        0x00004b90:    e3a01018    ....    MOV      r1,#0x18
        0x00004b94:    e3a00c02    ....    MOV      r0,#0x200
        0x00004b98:    ebfff4bf    ....    BL       GPIO_OpenBit ; 0x1e9c
        0x00004b9c:    e3a01004    ....    MOV      r1,#4
        0x00004ba0:    e3a00c01    ....    MOV      r0,#0x100
        0x00004ba4:    ebfff442    B...    BL       GPIO_Clr ; 0x1cb4
        0x00004ba8:    e3a01008    ....    MOV      r1,#8
        0x00004bac:    e3a00c01    ....    MOV      r0,#0x100
        0x00004bb0:    ebfff43f    ?...    BL       GPIO_Clr ; 0x1cb4
        0x00004bb4:    e3a01c01    ....    MOV      r1,#0x100
        0x00004bb8:    e3a00d07    ....    MOV      r0,#0x1c0
        0x00004bbc:    ebfff43c    <...    BL       GPIO_Clr ; 0x1cb4
        0x00004bc0:    e3a01c02    ....    MOV      r1,#0x200
        0x00004bc4:    e3a00d07    ....    MOV      r0,#0x1c0
        0x00004bc8:    ebfff439    9...    BL       GPIO_Clr ; 0x1cb4
        0x00004bcc:    e3a01008    ....    MOV      r1,#8
        0x00004bd0:    e3a00c02    ....    MOV      r0,#0x200
        0x00004bd4:    ebfff436    6...    BL       GPIO_Clr ; 0x1cb4
        0x00004bd8:    e8bd4010    .@..    POP      {r4,lr}
        0x00004bdc:    e3a01010    ....    MOV      r1,#0x10
        0x00004be0:    e3a00c02    ....    MOV      r0,#0x200
        0x00004be4:    eafff432    2...    B        GPIO_Clr ; 0x1cb4
    $d
        0x00004be8:    b0000090    ....    DCD    2952790160
        0x00004bec:    b00000ac    ....    DCD    2952790188
        0x00004bf0:    b00000b0    ....    DCD    2952790192
    $a
    i.W25Q128_Read
    W25Q128_Read
        0x00004bf4:    e92d4030    0@-.    PUSH     {r4,r5,lr}
        0x00004bf8:    e24dd024    $.M.    SUB      sp,sp,#0x24
        0x00004bfc:    e1a05000    .P..    MOV      r5,r0
        0x00004c00:    e3a01024    $...    MOV      r1,#0x24
        0x00004c04:    e1a0000d    ....    MOV      r0,sp
        0x00004c08:    ebffef33    3...    BL       __aeabi_memclr4 ; 0x8dc
        0x00004c0c:    e59f0140    @...    LDR      r0,[pc,#320] ; [0x4d54] = 0xcfc0
        0x00004c10:    e59f4138    8A..    LDR      r4,[pc,#312] ; [0x4d50] = 0xa084
        0x00004c14:    e5901014    ....    LDR      r1,[r0,#0x14]
        0x00004c18:    e3550009    ..U.    CMP      r5,#9
        0x00004c1c:    308ff105    ...0    ADDCC    pc,pc,r5,LSL #2
        0x00004c20:    ea000021    !...    B        0x4cac ; W25Q128_Read + 184
        0x00004c24:    ea000045    E...    B        0x4d40 ; W25Q128_Read + 332
        0x00004c28:    ea00003f    ?...    B        0x4d2c ; W25Q128_Read + 312
        0x00004c2c:    ea000039    9...    B        0x4d18 ; W25Q128_Read + 292
        0x00004c30:    ea000033    3...    B        0x4d04 ; W25Q128_Read + 272
        0x00004c34:    ea00002a    *...    B        0x4ce4 ; W25Q128_Read + 240
        0x00004c38:    ea000024    $...    B        0x4cd0 ; W25Q128_Read + 220
        0x00004c3c:    ea00001e    ....    B        0x4cbc ; W25Q128_Read + 200
        0x00004c40:    ea00001b    ....    B        0x4cb4 ; W25Q128_Read + 192
        0x00004c44:    eaffffff    ....    B        0x4c48 ; W25Q128_Read + 84
        0x00004c48:    e59f0108    ....    LDR      r0,[pc,#264] ; [0x4d58] = 0xfff000
        0x00004c4c:    e3a02024    $ ..    MOV      r2,#0x24
        0x00004c50:    e1a0100d    ....    MOV      r1,sp
        0x00004c54:    ebfffe6b    k...    BL       SpiFlash_NormalRead ; 0x4608
        0x00004c58:    e5940000    ....    LDR      r0,[r4,#0]
        0x00004c5c:    e3a02009    . ..    MOV      r2,#9
        0x00004c60:    e1a0100d    ....    MOV      r1,sp
        0x00004c64:    e280001b    ....    ADD      r0,r0,#0x1b
        0x00004c68:    ebffeeb9    ....    BL       __aeabi_memcpy ; 0x754
        0x00004c6c:    e5940000    ....    LDR      r0,[r4,#0]
        0x00004c70:    e3a02009    . ..    MOV      r2,#9
        0x00004c74:    e1a0500d    .P..    MOV      r5,sp
        0x00004c78:    e28d1009    ....    ADD      r1,sp,#9
        0x00004c7c:    e2800024    $...    ADD      r0,r0,#0x24
        0x00004c80:    ebffeeb3    ....    BL       __aeabi_memcpy ; 0x754
        0x00004c84:    e5940000    ....    LDR      r0,[r4,#0]
        0x00004c88:    e3a02009    . ..    MOV      r2,#9
        0x00004c8c:    e2851012    ....    ADD      r1,r5,#0x12
        0x00004c90:    e280006c    l...    ADD      r0,r0,#0x6c
        0x00004c94:    ebffeeae    ....    BL       __aeabi_memcpy ; 0x754
        0x00004c98:    e5940000    ....    LDR      r0,[r4,#0]
        0x00004c9c:    e3a02009    . ..    MOV      r2,#9
        0x00004ca0:    e285101b    ....    ADD      r1,r5,#0x1b
        0x00004ca4:    e2800075    u...    ADD      r0,r0,#0x75
        0x00004ca8:    ebffeea9    ....    BL       __aeabi_memcpy ; 0x754
        0x00004cac:    e28dd024    $...    ADD      sp,sp,#0x24
        0x00004cb0:    e8bd8030    0...    POP      {r4,r5,pc}
        0x00004cb4:    ebfff24f    O...    BL       DATACLASS1_Check_Read ; 0x15f8
        0x00004cb8:    eafffffb    ....    B        0x4cac ; W25Q128_Read + 184
        0x00004cbc:    e59f1098    ....    LDR      r1,[pc,#152] ; [0x4d5c] = 0x1d55c
        0x00004cc0:    e3a02f55    U/..    MOV      r2,#0x154
        0x00004cc4:    e3a008ff    ....    MOV      r0,#0xff0000
        0x00004cc8:    ebfffea5    ....    BL       SpiFlash_NormalRead_16 ; 0x4764
        0x00004ccc:    eafffff6    ....    B        0x4cac ; W25Q128_Read + 184
        0x00004cd0:    e59f2088    . ..    LDR      r2,[pc,#136] ; [0x4d60] = 0x5c4
        0x00004cd4:    e5941000    ....    LDR      r1,[r4,#0]
        0x00004cd8:    e3a008fd    ....    MOV      r0,#0xfd0000
        0x00004cdc:    ebfffea0    ....    BL       SpiFlash_NormalRead_16 ; 0x4764
        0x00004ce0:    eafffff1    ....    B        0x4cac ; W25Q128_Read + 184
        0x00004ce4:    e59f107c    |...    LDR      r1,[pc,#124] ; [0x4d68] = 0xa187
        0x00004ce8:    e59f0074    t...    LDR      r0,[pc,#116] ; [0x4d64] = 0xa838
        0x00004cec:    e5d11000    ....    LDRB     r1,[r1,#0]
        0x00004cf0:    e59f2074    t ..    LDR      r2,[pc,#116] ; [0x4d6c] = 0x3e9
        0x00004cf4:    e7901101    ....    LDR      r1,[r0,r1,LSL #2]
        0x00004cf8:    e3a008fb    ....    MOV      r0,#0xfb0000
        0x00004cfc:    ebfffe98    ....    BL       SpiFlash_NormalRead_16 ; 0x4764
        0x00004d00:    eaffffe9    ....    B        0x4cac ; W25Q128_Read + 184
        0x00004d04:    e2811806    ....    ADD      r1,r1,#0x60000
        0x00004d08:    e3a02802    .(..    MOV      r2,#0x20000
        0x00004d0c:    e3a008f9    ....    MOV      r0,#0xf90000
        0x00004d10:    ebfffeb4    ....    BL       SpiFlash_NormalRead_32 ; 0x47e8
        0x00004d14:    eaffffe4    ....    B        0x4cac ; W25Q128_Read + 184
        0x00004d18:    e2811701    ....    ADD      r1,r1,#0x40000
        0x00004d1c:    e3a02802    .(..    MOV      r2,#0x20000
        0x00004d20:    e3a008f7    ....    MOV      r0,#0xf70000
        0x00004d24:    ebfffeaf    ....    BL       SpiFlash_NormalRead_32 ; 0x47e8
        0x00004d28:    eaffffdf    ....    B        0x4cac ; W25Q128_Read + 184
        0x00004d2c:    e2811802    ....    ADD      r1,r1,#0x20000
        0x00004d30:    e3a02802    .(..    MOV      r2,#0x20000
        0x00004d34:    e3a008f5    ....    MOV      r0,#0xf50000
        0x00004d38:    ebfffeaa    ....    BL       SpiFlash_NormalRead_32 ; 0x47e8
        0x00004d3c:    eaffffda    ....    B        0x4cac ; W25Q128_Read + 184
        0x00004d40:    e3a02802    .(..    MOV      r2,#0x20000
        0x00004d44:    e3a008f3    ....    MOV      r0,#0xf30000
        0x00004d48:    ebfffea6    ....    BL       SpiFlash_NormalRead_32 ; 0x47e8
        0x00004d4c:    eaffffd6    ....    B        0x4cac ; W25Q128_Read + 184
    $d
        0x00004d50:    0000a084    ....    DCD    41092
        0x00004d54:    0000cfc0    ....    DCD    53184
        0x00004d58:    00fff000    ....    DCD    16773120
        0x00004d5c:    0001d55c    \...    DCD    120156
        0x00004d60:    000005c4    ....    DCD    1476
        0x00004d64:    0000a838    8...    DCD    43064
        0x00004d68:    0000a187    ....    DCD    41351
        0x00004d6c:    000003e9    ....    DCD    1001
    $a
    i.W25Q128_Write
    W25Q128_Write
        0x00004d70:    e92d4030    0@-.    PUSH     {r4,r5,lr}
        0x00004d74:    e24dd024    $.M.    SUB      sp,sp,#0x24
        0x00004d78:    e1a05000    .P..    MOV      r5,r0
        0x00004d7c:    e3a01024    $...    MOV      r1,#0x24
        0x00004d80:    e1a0000d    ....    MOV      r0,sp
        0x00004d84:    ebffeed4    ....    BL       __aeabi_memclr4 ; 0x8dc
        0x00004d88:    e59f013c    <...    LDR      r0,[pc,#316] ; [0x4ecc] = 0xa084
        0x00004d8c:    e59f113c    <...    LDR      r1,[pc,#316] ; [0x4ed0] = 0xcfc0
        0x00004d90:    e5904000    .@..    LDR      r4,[r0,#0]
        0x00004d94:    e5911014    ....    LDR      r1,[r1,#0x14]
        0x00004d98:    e3550009    ..U.    CMP      r5,#9
        0x00004d9c:    308ff105    ...0    ADDCC    pc,pc,r5,LSL #2
        0x00004da0:    ea000020     ...    B        0x4e28 ; W25Q128_Write + 184
        0x00004da4:    ea000044    D...    B        0x4ebc ; W25Q128_Write + 332
        0x00004da8:    ea00003e    >...    B        0x4ea8 ; W25Q128_Write + 312
        0x00004dac:    ea000038    8...    B        0x4e94 ; W25Q128_Write + 292
        0x00004db0:    ea000032    2...    B        0x4e80 ; W25Q128_Write + 272
        0x00004db4:    ea000029    )...    B        0x4e60 ; W25Q128_Write + 240
        0x00004db8:    ea000023    #...    B        0x4e4c ; W25Q128_Write + 220
        0x00004dbc:    ea00001d    ....    B        0x4e38 ; W25Q128_Write + 200
        0x00004dc0:    ea00001a    ....    B        0x4e30 ; W25Q128_Write + 192
        0x00004dc4:    eaffffff    ....    B        0x4dc8 ; W25Q128_Write + 88
        0x00004dc8:    e3a02009    . ..    MOV      r2,#9
        0x00004dcc:    e284101b    ....    ADD      r1,r4,#0x1b
        0x00004dd0:    e1a0000d    ....    MOV      r0,sp
        0x00004dd4:    ebffee5e    ^...    BL       __aeabi_memcpy ; 0x754
        0x00004dd8:    e3a02009    . ..    MOV      r2,#9
        0x00004ddc:    e2841024    $...    ADD      r1,r4,#0x24
        0x00004de0:    e1a0500d    .P..    MOV      r5,sp
        0x00004de4:    e28d0009    ....    ADD      r0,sp,#9
        0x00004de8:    ebffee59    Y...    BL       __aeabi_memcpy ; 0x754
        0x00004dec:    e3a02009    . ..    MOV      r2,#9
        0x00004df0:    e284106c    l...    ADD      r1,r4,#0x6c
        0x00004df4:    e2850012    ....    ADD      r0,r5,#0x12
        0x00004df8:    ebffee55    U...    BL       __aeabi_memcpy ; 0x754
        0x00004dfc:    e3a02009    . ..    MOV      r2,#9
        0x00004e00:    e2841075    u...    ADD      r1,r4,#0x75
        0x00004e04:    e285001b    ....    ADD      r0,r5,#0x1b
        0x00004e08:    ebffee51    Q...    BL       __aeabi_memcpy ; 0x754
        0x00004e0c:    e59f40c0    .@..    LDR      r4,[pc,#192] ; [0x4ed4] = 0xfff000
        0x00004e10:    e1a00004    ....    MOV      r0,r4
        0x00004e14:    ebfffeb3    ....    BL       SpiFlash_SectorErase ; 0x48e8
        0x00004e18:    e3a02024    $ ..    MOV      r2,#0x24
        0x00004e1c:    e1a0100d    ....    MOV      r1,sp
        0x00004e20:    e1a00004    ....    MOV      r0,r4
        0x00004e24:    ebfffd50    P...    BL       SpiFlash_NormalPageProgram ; 0x436c
        0x00004e28:    e28dd024    $...    ADD      sp,sp,#0x24
        0x00004e2c:    e8bd8030    0...    POP      {r4,r5,pc}
        0x00004e30:    ebfff20a    ....    BL       DATACLASS1_Check_Write ; 0x1660
        0x00004e34:    eafffffb    ....    B        0x4e28 ; W25Q128_Write + 184
        0x00004e38:    e59f1098    ....    LDR      r1,[pc,#152] ; [0x4ed8] = 0x1d55c
        0x00004e3c:    e3a02f55    U/..    MOV      r2,#0x154
        0x00004e40:    e3a008ff    ....    MOV      r0,#0xff0000
        0x00004e44:    ebfffdb7    ....    BL       SpiFlash_NormalPageProgram_16 ; 0x4528
        0x00004e48:    eafffff6    ....    B        0x4e28 ; W25Q128_Write + 184
        0x00004e4c:    e59f2088    . ..    LDR      r2,[pc,#136] ; [0x4edc] = 0x5c4
        0x00004e50:    e1a01004    ....    MOV      r1,r4
        0x00004e54:    e3a008fd    ....    MOV      r0,#0xfd0000
        0x00004e58:    ebfffdb2    ....    BL       SpiFlash_NormalPageProgram_16 ; 0x4528
        0x00004e5c:    eafffff1    ....    B        0x4e28 ; W25Q128_Write + 184
        0x00004e60:    e59f107c    |...    LDR      r1,[pc,#124] ; [0x4ee4] = 0xa187
        0x00004e64:    e59f0074    t...    LDR      r0,[pc,#116] ; [0x4ee0] = 0xa838
        0x00004e68:    e5d11000    ....    LDRB     r1,[r1,#0]
        0x00004e6c:    e59f2074    t ..    LDR      r2,[pc,#116] ; [0x4ee8] = 0x3e9
        0x00004e70:    e7901101    ....    LDR      r1,[r0,r1,LSL #2]
        0x00004e74:    e3a008fb    ....    MOV      r0,#0xfb0000
        0x00004e78:    ebfffdaa    ....    BL       SpiFlash_NormalPageProgram_16 ; 0x4528
        0x00004e7c:    eaffffe9    ....    B        0x4e28 ; W25Q128_Write + 184
        0x00004e80:    e2811806    ....    ADD      r1,r1,#0x60000
        0x00004e84:    e3a02802    .(..    MOV      r2,#0x20000
        0x00004e88:    e3a008f9    ....    MOV      r0,#0xf90000
        0x00004e8c:    ebfffdc8    ....    BL       SpiFlash_NormalPageProgram_32 ; 0x45b4
        0x00004e90:    eaffffe4    ....    B        0x4e28 ; W25Q128_Write + 184
        0x00004e94:    e2811701    ....    ADD      r1,r1,#0x40000
        0x00004e98:    e3a02802    .(..    MOV      r2,#0x20000
        0x00004e9c:    e3a008f7    ....    MOV      r0,#0xf70000
        0x00004ea0:    ebfffdc3    ....    BL       SpiFlash_NormalPageProgram_32 ; 0x45b4
        0x00004ea4:    eaffffdf    ....    B        0x4e28 ; W25Q128_Write + 184
        0x00004ea8:    e2811802    ....    ADD      r1,r1,#0x20000
        0x00004eac:    e3a02802    .(..    MOV      r2,#0x20000
        0x00004eb0:    e3a008f5    ....    MOV      r0,#0xf50000
        0x00004eb4:    ebfffdbe    ....    BL       SpiFlash_NormalPageProgram_32 ; 0x45b4
        0x00004eb8:    eaffffda    ....    B        0x4e28 ; W25Q128_Write + 184
        0x00004ebc:    e3a02802    .(..    MOV      r2,#0x20000
        0x00004ec0:    e3a008f3    ....    MOV      r0,#0xf30000
        0x00004ec4:    ebfffdba    ....    BL       SpiFlash_NormalPageProgram_32 ; 0x45b4
        0x00004ec8:    eaffffd6    ....    B        0x4e28 ; W25Q128_Write + 184
    $d
        0x00004ecc:    0000a084    ....    DCD    41092
        0x00004ed0:    0000cfc0    ....    DCD    53184
        0x00004ed4:    00fff000    ....    DCD    16773120
        0x00004ed8:    0001d55c    \...    DCD    120156
        0x00004edc:    000005c4    ....    DCD    1476
        0x00004ee0:    0000a838    8...    DCD    43064
        0x00004ee4:    0000a187    ....    DCD    41351
        0x00004ee8:    000003e9    ....    DCD    1001
    $a
    i.W25Q128_init
    W25Q128_init
        0x00004eec:    e92d4010    .@-.    PUSH     {r4,lr}
        0x00004ef0:    e59f40a4    .@..    LDR      r4,[pc,#164] ; [0x4f9c] = 0xb0000078
        0x00004ef4:    e3a02000    . ..    MOV      r2,#0
        0x00004ef8:    e3a014ff    ....    MOV      r1,#0xff000000
        0x00004efc:    e1a00004    ....    MOV      r0,r4
        0x00004f00:    ebfff6de    ....    BL       REG_OPERATE ; 0x2a80
        0x00004f04:    e3a02001    . ..    MOV      r2,#1
        0x00004f08:    e3a014bb    ....    MOV      r1,#0xbb000000
        0x00004f0c:    e1a00004    ....    MOV      r0,r4
        0x00004f10:    ebfff6da    ....    BL       REG_OPERATE ; 0x2a80
        0x00004f14:    e1844d24    $M..    ORR      r4,r4,r4,LSR #26
        0x00004f18:    e59f1080    ....    LDR      r1,[pc,#128] ; [0x4fa0] = 0xfff
        0x00004f1c:    e3a02000    . ..    MOV      r2,#0
        0x00004f20:    e1a00004    ....    MOV      r0,r4
        0x00004f24:    ebfff6d5    ....    BL       REG_OPERATE ; 0x2a80
        0x00004f28:    e59f1074    t...    LDR      r1,[pc,#116] ; [0x4fa4] = 0xbbb
        0x00004f2c:    e3a02001    . ..    MOV      r2,#1
        0x00004f30:    e1a00004    ....    MOV      r0,r4
        0x00004f34:    ebfff6d1    ....    BL       REG_OPERATE ; 0x2a80
        0x00004f38:    e3a00000    ....    MOV      r0,#0
        0x00004f3c:    eb00093c    <...    BL       spiInit ; 0x7434
        0x00004f40:    e3a00000    ....    MOV      r0,#0
        0x00004f44:    eb000a39    9...    BL       spiOpen ; 0x7830
        0x00004f48:    e3a03000    .0..    MOV      r3,#0
        0x00004f4c:    e59f2054    T ..    LDR      r2,[pc,#84] ; [0x4fa8] = 0x1e8480
        0x00004f50:    e3a01002    ....    MOV      r1,#2
        0x00004f54:    e1a00003    ....    MOV      r0,r3
        0x00004f58:    eb000952    R...    BL       spiIoctl ; 0x74a8
        0x00004f5c:    e3a03000    .0..    MOV      r3,#0
        0x00004f60:    e3a02008    . ..    MOV      r2,#8
        0x00004f64:    e3a01007    ....    MOV      r1,#7
        0x00004f68:    e1a00003    ....    MOV      r0,r3
        0x00004f6c:    eb00094d    M...    BL       spiIoctl ; 0x74a8
        0x00004f70:    e3a03000    .0..    MOV      r3,#0
        0x00004f74:    e1a02003    . ..    MOV      r2,r3
        0x00004f78:    e3a01008    ....    MOV      r1,#8
        0x00004f7c:    e1a00003    ....    MOV      r0,r3
        0x00004f80:    eb000948    H...    BL       spiIoctl ; 0x74a8
        0x00004f84:    e3a03000    .0..    MOV      r3,#0
        0x00004f88:    e8bd4010    .@..    POP      {r4,lr}
        0x00004f8c:    e1a02003    . ..    MOV      r2,r3
        0x00004f90:    e3a0100a    ....    MOV      r1,#0xa
        0x00004f94:    e1a00003    ....    MOV      r0,r3
        0x00004f98:    ea000942    B...    B        spiIoctl ; 0x74a8
    $d
        0x00004f9c:    b0000078    x...    DCD    2952790136
        0x00004fa0:    00000fff    ....    DCD    4095
        0x00004fa4:    00000bbb    ....    DCD    3003
        0x00004fa8:    001e8480    ....    DCD    2000000
    $a
    i.WWDT_Open
    WWDT_Open
        0x00004fac:    e3520000    ..R.    CMP      r2,#0
        0x00004fb0:    e1801801    ....    ORR      r1,r0,r1,LSL #16
        0x00004fb4:    0a000001    ....    BEQ      0x4fc0 ; WWDT_Open + 20
        0x00004fb8:    e3a00002    ....    MOV      r0,#2
        0x00004fbc:    ea000000    ....    B        0x4fc4 ; WWDT_Open + 24
        0x00004fc0:    e3a00000    ....    MOV      r0,#0
        0x00004fc4:    e1800001    ....    ORR      r0,r0,r1
        0x00004fc8:    e3800001    ....    ORR      r0,r0,#1
        0x00004fcc:    e59f1004    ....    LDR      r1,[pc,#4] ; [0x4fd8] = 0xb8001904
        0x00004fd0:    e5810000    ....    STR      r0,[r1,#0]
        0x00004fd4:    e12fff1e    ../.    BX       lr
    $d
        0x00004fd8:    b8001904    ....    DCD    3087014148
    $a
    i.WriteAreaConfig_new
    WriteAreaConfig_new
        0x00004fdc:    e92d41f0    .A-.    PUSH     {r4-r8,lr}
        0x00004fe0:    e3a04000    .@..    MOV      r4,#0
        0x00004fe4:    e59f608c    .`..    LDR      r6,[pc,#140] ; [0x5078] = 0xa638
        0x00004fe8:    e59f708c    .p..    LDR      r7,[pc,#140] ; [0x507c] = 0xa084
        0x00004fec:    e2140003    ....    ANDS     r0,r4,#3
        0x00004ff0:    0a000006    ....    BEQ      0x5010 ; WriteAreaConfig_new + 52
        0x00004ff4:    e3500001    ..P.    CMP      r0,#1
        0x00004ff8:    0a000007    ....    BEQ      0x501c ; WriteAreaConfig_new + 64
        0x00004ffc:    e3500002    ..P.    CMP      r0,#2
        0x00005000:    0a000009    ....    BEQ      0x502c ; WriteAreaConfig_new + 80
        0x00005004:    e3500003    ..P.    CMP      r0,#3
        0x00005008:    1a00000e    ....    BNE      0x5048 ; WriteAreaConfig_new + 108
        0x0000500c:    ea00000a    ....    B        0x503c ; WriteAreaConfig_new + 96
        0x00005010:    e1a00124    $...    LSR      r0,r4,#2
        0x00005014:    e7965200    .R..    LDR      r5,[r6,r0,LSL #4]
        0x00005018:    ea00000a    ....    B        0x5048 ; WriteAreaConfig_new + 108
        0x0000501c:    e1a00124    $...    LSR      r0,r4,#2
        0x00005020:    e0860200    ....    ADD      r0,r6,r0,LSL #4
        0x00005024:    e5905004    .P..    LDR      r5,[r0,#4]
        0x00005028:    ea000006    ....    B        0x5048 ; WriteAreaConfig_new + 108
        0x0000502c:    e1a00124    $...    LSR      r0,r4,#2
        0x00005030:    e0860200    ....    ADD      r0,r6,r0,LSL #4
        0x00005034:    e5905008    .P..    LDR      r5,[r0,#8]
        0x00005038:    ea000002    ....    B        0x5048 ; WriteAreaConfig_new + 108
        0x0000503c:    e1a00124    $...    LSR      r0,r4,#2
        0x00005040:    e0860200    ....    ADD      r0,r6,r0,LSL #4
        0x00005044:    e590500c    .P..    LDR      r5,[r0,#0xc]
        0x00005048:    e5971000    ....    LDR      r1,[r7,#0]
        0x0000504c:    e2840020     ...    ADD      r0,r4,#0x20
        0x00005050:    e0800180    ....    ADD      r0,r0,r0,LSL #3
        0x00005054:    e0800001    ....    ADD      r0,r0,r1
        0x00005058:    e1a02005    . ..    MOV      r2,r5
        0x0000505c:    e28f101c    ....    ADR      r1,{pc}+0x24 ; 0x5080
        0x00005060:    faffecad    ....    BLX      __2sprintf ; 0x31c
        0x00005064:    e2840001    ....    ADD      r0,r4,#1
        0x00005068:    e3c04801    .H..    BIC      r4,r0,#0x10000
        0x0000506c:    e3540040    @.T.    CMP      r4,#0x40
        0x00005070:    3affffdd    ...:    BCC      0x4fec ; WriteAreaConfig_new + 16
        0x00005074:    e8bd81f0    ....    POP      {r4-r8,pc}
    $d
        0x00005078:    0000a638    8...    DCD    42552
        0x0000507c:    0000a084    ....    DCD    41092
        0x00005080:    58383025    %08X    DCD    1480077349
        0x00005084:    00000000    ....    DCD    0
    $a
    i._PutChar_f
    _PutChar_f
        0x00005088:    e3a0132e    ....    MOV      r1,#0xb8000000
        0x0000508c:    e5912018    . ..    LDR      r2,[r1,#0x18]
        0x00005090:    e3120502    ....    TST      r2,#0x800000
        0x00005094:    1afffffc    ....    BNE      0x508c ; _PutChar_f + 4
        0x00005098:    e5810000    ....    STR      r0,[r1,#0]
        0x0000509c:    e350000a    ..P.    CMP      r0,#0xa
        0x000050a0:    1a000004    ....    BNE      0x50b8 ; _PutChar_f + 48
        0x000050a4:    e5910018    ....    LDR      r0,[r1,#0x18]
        0x000050a8:    e3100502    ....    TST      r0,#0x800000
        0x000050ac:    1afffffc    ....    BNE      0x50a4 ; _PutChar_f + 28
        0x000050b0:    e3a0000d    ....    MOV      r0,#0xd
        0x000050b4:    e5810000    ....    STR      r0,[r1,#0]
        0x000050b8:    e12fff1e    ../.    BX       lr
    i.__user_setup_stackheap
    __user_setup_stackheap
        0x000050bc:    e92d400f    .@-.    PUSH     {r0-r3,lr}
        0x000050c0:    e59f0010    ....    LDR      r0,[pc,#16] ; [0x50d8] = 0x64304
        0x000050c4:    e58d0000    ....    STR      r0,[sp,#0]
        0x000050c8:    e58d1004    ....    STR      r1,[sp,#4]
        0x000050cc:    e89d000f    ....    LDM      sp,{r0-r3}
        0x000050d0:    e28dd010    ....    ADD      sp,sp,#0x10
        0x000050d4:    e49df004    ....    POP      {pc}
    $d
        0x000050d8:    00064304    .C..    DCD    410372
    $t
    i._is_digit
    _is_digit
        0x000050dc:    3830        08      SUBS     r0,r0,#0x30
        0x000050de:    280a        .(      CMP      r0,#0xa
        0x000050e0:    d201        ..      BCS      0x50e6 ; _is_digit + 10
        0x000050e2:    2001        .       MOVS     r0,#1
        0x000050e4:    4770        pG      BX       lr
        0x000050e6:    2000        .       MOVS     r0,#0
        0x000050e8:    4770        pG      BX       lr
        0x000050ea:    0000        ..      MOVS     r0,r0
    $a
    i._sys_exit
    _sys_exit
        0x000050ec:    eafffffe    ....    B        _sys_exit ; 0x50ec
    i._ttywrch
    _ttywrch
        0x000050f0:    e12fff1e    ../.    BX       lr
    i._uartBUFSpaceAlloc
    _uartBUFSpaceAlloc
        0x000050f4:    e92d41f0    .A-.    PUSH     {r4-r8,lr}
        0x000050f8:    e1a05000    .P..    MOV      r5,r0
        0x000050fc:    e59f10d0    ....    LDR      r1,[pc,#208] ; [0x51d4] = 0x6410c
        0x00005100:    e0850085    ....    ADD      r0,r5,r5,LSL #1
        0x00005104:    e0800185    ....    ADD      r0,r0,r5,LSL #3
        0x00005108:    e0814100    .A..    ADD      r4,r1,r0,LSL #2
        0x0000510c:    e59f60c4    .`..    LDR      r6,[pc,#196] ; [0x51d8] = 0xa584
        0x00005110:    e7960105    ....    LDR      r0,[r6,r5,LSL #2]
        0x00005114:    e2800040    @...    ADD      r0,r0,#0x40
        0x00005118:    faffec51    Q...    BLX      _maybe_terminate_alloc ; 0x264
        0x0000511c:    e5840010    ....    STR      r0,[r4,#0x10]
        0x00005120:    e3500000    ..P.    CMP      r0,#0
        0x00005124:    0a00001e    ....    BEQ      0x51a4 ; _uartBUFSpaceAlloc + 176
        0x00005128:    e286702c    ,p..    ADD      r7,r6,#0x2c
        0x0000512c:    e7970105    ....    LDR      r0,[r7,r5,LSL #2]
        0x00005130:    e2800040    @...    ADD      r0,r0,#0x40
        0x00005134:    faffec4a    J...    BLX      _maybe_terminate_alloc ; 0x264
        0x00005138:    e5840014    ....    STR      r0,[r4,#0x14]
        0x0000513c:    e3500000    ..P.    CMP      r0,#0
        0x00005140:    0a000019    ....    BEQ      0x51ac ; _uartBUFSpaceAlloc + 184
        0x00005144:    e7970105    ....    LDR      r0,[r7,r5,LSL #2]
        0x00005148:    e3a01040    @...    MOV      r1,#0x40
        0x0000514c:    e0810100    ....    ADD      r0,r1,r0,LSL #2
        0x00005150:    faffec43    C...    BLX      _maybe_terminate_alloc ; 0x264
        0x00005154:    e5840020     ...    STR      r0,[r4,#0x20]
        0x00005158:    e3500000    ..P.    CMP      r0,#0
        0x0000515c:    0a000016    ....    BEQ      0x51bc ; _uartBUFSpaceAlloc + 200
        0x00005160:    e7961105    ....    LDR      r1,[r6,r5,LSL #2]
        0x00005164:    e5940010    ....    LDR      r0,[r4,#0x10]
        0x00005168:    ebffedcb    ....    BL       __aeabi_memclr ; 0x89c
        0x0000516c:    e7971105    ....    LDR      r1,[r7,r5,LSL #2]
        0x00005170:    e5940014    ....    LDR      r0,[r4,#0x14]
        0x00005174:    ebffedc8    ....    BL       __aeabi_memclr ; 0x89c
        0x00005178:    e7970105    ....    LDR      r0,[r7,r5,LSL #2]
        0x0000517c:    e1a01100    ....    LSL      r1,r0,#2
        0x00005180:    e5940020     ...    LDR      r0,[r4,#0x20]
        0x00005184:    ebffedd4    ....    BL       __aeabi_memclr4 ; 0x8dc
        0x00005188:    e3a00000    ....    MOV      r0,#0
        0x0000518c:    e5840004    ....    STR      r0,[r4,#4]
        0x00005190:    e5840000    ....    STR      r0,[r4,#0]
        0x00005194:    e584000c    ....    STR      r0,[r4,#0xc]
        0x00005198:    e5840008    ....    STR      r0,[r4,#8]
        0x0000519c:    e3a00001    ....    MOV      r0,#1
        0x000051a0:    e8bd81f0    ....    POP      {r4-r8,pc}
        0x000051a4:    e3a00000    ....    MOV      r0,#0
        0x000051a8:    e8bd81f0    ....    POP      {r4-r8,pc}
        0x000051ac:    e5940010    ....    LDR      r0,[r4,#0x10]
        0x000051b0:    fbffec43    C...    BLX      free ; 0x2c6
        0x000051b4:    e3a00000    ....    MOV      r0,#0
        0x000051b8:    e8bd81f0    ....    POP      {r4-r8,pc}
        0x000051bc:    e5940010    ....    LDR      r0,[r4,#0x10]
        0x000051c0:    fbffec3f    ?...    BLX      free ; 0x2c6
        0x000051c4:    e5940014    ....    LDR      r0,[r4,#0x14]
        0x000051c8:    fbffec3d    =...    BLX      free ; 0x2c6
        0x000051cc:    e3a00000    ....    MOV      r0,#0
        0x000051d0:    e8bd81f0    ....    POP      {r4-r8,pc}
    $d
        0x000051d4:    0006410c    .A..    DCD    409868
        0x000051d8:    0000a584    ....    DCD    42372
    $a
    i._uartCheckModemStatus
    _uartCheckModemStatus
        0x000051dc:    e24dd008    ..M.    SUB      sp,sp,#8
        0x000051e0:    e1a02400    .$..    LSL      r2,r0,#8
        0x000051e4:    e59f307c    |0..    LDR      r3,[pc,#124] ; [0x5268] = 0x6410c
        0x000051e8:    e0801080    ....    ADD      r1,r0,r0,LSL #1
        0x000051ec:    e0811180    ....    ADD      r1,r1,r0,LSL #3
        0x000051f0:    e0831101    ....    ADD      r1,r3,r1,LSL #2
        0x000051f4:    e282232e    .#..    ADD      r2,r2,#0xb8000000
        0x000051f8:    e5922014    . ..    LDR      r2,[r2,#0x14]
        0x000051fc:    e58d2004    . ..    STR      r2,[sp,#4]
        0x00005200:    e59f2064    d ..    LDR      r2,[pc,#100] ; [0x526c] = 0xa56c
        0x00005204:    e5d23016    .0..    LDRB     r3,[r2,#0x16]
        0x00005208:    e3530000    ..S.    CMP      r3,#0
        0x0000520c:    0a00000b    ....    BEQ      0x5240 ; _uartCheckModemStatus + 100
        0x00005210:    e59d3004    .0..    LDR      r3,[sp,#4]
        0x00005214:    e3130010    ....    TST      r3,#0x10
        0x00005218:    1a000010    ....    BNE      0x5260 ; _uartCheckModemStatus + 132
        0x0000521c:    e3a03000    .0..    MOV      r3,#0
        0x00005220:    e5c23016    .0..    STRB     r3,[r2,#0x16]
        0x00005224:    e5912000    . ..    LDR      r2,[r1,#0]
        0x00005228:    e5911004    ....    LDR      r1,[r1,#4]
        0x0000522c:    e1520001    ..R.    CMP      r2,r1
        0x00005230:    0a00000a    ....    BEQ      0x5260 ; _uartCheckModemStatus + 132
        0x00005234:    e3a01002    ....    MOV      r1,#2
        0x00005238:    e28dd008    ....    ADD      sp,sp,#8
        0x0000523c:    ea0000c5    ....    B        _uartEnableInterrupt ; 0x5558
        0x00005240:    e59d1004    ....    LDR      r1,[sp,#4]
        0x00005244:    e3110010    ....    TST      r1,#0x10
        0x00005248:    1a000004    ....    BNE      0x5260 ; _uartCheckModemStatus + 132
        0x0000524c:    e3a01001    ....    MOV      r1,#1
        0x00005250:    e5c21016    ....    STRB     r1,[r2,#0x16]
        0x00005254:    e3a01002    ....    MOV      r1,#2
        0x00005258:    e28dd008    ....    ADD      sp,sp,#8
        0x0000525c:    ea0000b2    ....    B        _uartDisableInterrupt ; 0x552c
        0x00005260:    e28dd008    ....    ADD      sp,sp,#8
        0x00005264:    e12fff1e    ../.    BX       lr
    $d
        0x00005268:    0006410c    .A..    DCD    409868
        0x0000526c:    0000a56c    l...    DCD    42348
    $a
    i._uartCheckTxBufSpace
    _uartCheckTxBufSpace
        0x00005270:    e92d41f0    .A-.    PUSH     {r4-r8,lr}
        0x00005274:    e1a07000    .p..    MOV      r7,r0
        0x00005278:    e1a04001    .@..    MOV      r4,r1
        0x0000527c:    e1a05002    .P..    MOV      r5,r2
        0x00005280:    e1a06003    .`..    MOV      r6,r3
        0x00005284:    e1a01005    ....    MOV      r1,r5
        0x00005288:    e1a00007    ....    MOV      r0,r7
        0x0000528c:    eb000291    ....    BL       _uartTxBufGetNextOne ; 0x5cd8
        0x00005290:    e1500004    ..P.    CMP      r0,r4
        0x00005294:    1a000001    ....    BNE      0x52a0 ; _uartCheckTxBufSpace + 48
        0x00005298:    e3a00000    ....    MOV      r0,#0
        0x0000529c:    e8bd81f0    ....    POP      {r4-r8,pc}
        0x000052a0:    e1540005    ..T.    CMP      r4,r5
        0x000052a4:    1a000001    ....    BNE      0x52b0 ; _uartCheckTxBufSpace + 64
        0x000052a8:    e3a00001    ....    MOV      r0,#1
        0x000052ac:    e8bd81f0    ....    POP      {r4-r8,pc}
        0x000052b0:    e1550004    ..U.    CMP      r5,r4
        0x000052b4:    9a000009    ....    BLS      0x52e0 ; _uartCheckTxBufSpace + 112
        0x000052b8:    e59f003c    <...    LDR      r0,[pc,#60] ; [0x52fc] = 0xa584
        0x000052bc:    e0451004    ..E.    SUB      r1,r5,r4
        0x000052c0:    e7900107    ....    LDR      r0,[r0,r7,LSL #2]
        0x000052c4:    e0400001    ..@.    SUB      r0,r0,r1
        0x000052c8:    e1500006    ..P.    CMP      r0,r6
        0x000052cc:    8a000001    ....    BHI      0x52d8 ; _uartCheckTxBufSpace + 104
        0x000052d0:    e3a00000    ....    MOV      r0,#0
        0x000052d4:    e8bd81f0    ....    POP      {r4-r8,pc}
        0x000052d8:    e3a00001    ....    MOV      r0,#1
        0x000052dc:    e8bd81f0    ....    POP      {r4-r8,pc}
        0x000052e0:    e0440005    ..D.    SUB      r0,r4,r5
        0x000052e4:    e1500006    ..P.    CMP      r0,r6
        0x000052e8:    8a000001    ....    BHI      0x52f4 ; _uartCheckTxBufSpace + 132
        0x000052ec:    e3a00000    ....    MOV      r0,#0
        0x000052f0:    e8bd81f0    ....    POP      {r4-r8,pc}
        0x000052f4:    e3a00001    ....    MOV      r0,#1
        0x000052f8:    e8bd81f0    ....    POP      {r4-r8,pc}
    $d
        0x000052fc:    0000a584    ....    DCD    42372
    $a
    i._uartConfigureUART
    _uartConfigureUART
        0x00005300:    e92d4070    p@-.    PUSH     {r4-r6,lr}
        0x00005304:    e1a04000    .@..    MOV      r4,r0
        0x00005308:    e5d40008    ....    LDRB     r0,[r4,#8]
        0x0000530c:    e1a02400    .$..    LSL      r2,r0,#8
        0x00005310:    e350000a    ..P.    CMP      r0,#0xa
        0x00005314:    9a000001    ....    BLS      0x5320 ; _uartConfigureUART + 32
        0x00005318:    e3e00004    ....    MVN      r0,#4
        0x0000531c:    e8bd8070    p...    POP      {r4-r6,pc}
        0x00005320:    e5d4100b    ....    LDRB     r1,[r4,#0xb]
        0x00005324:    e3510000    ..Q.    CMP      r1,#0
        0x00005328:    0a000009    ....    BEQ      0x5354 ; _uartConfigureUART + 84
        0x0000532c:    e3510018    ..Q.    CMP      r1,#0x18
        0x00005330:    0a000007    ....    BEQ      0x5354 ; _uartConfigureUART + 84
        0x00005334:    e3510008    ..Q.    CMP      r1,#8
        0x00005338:    0a000005    ....    BEQ      0x5354 ; _uartConfigureUART + 84
        0x0000533c:    e3510048    H.Q.    CMP      r1,#0x48
        0x00005340:    0a000003    ....    BEQ      0x5354 ; _uartConfigureUART + 84
        0x00005344:    e3510058    X.Q.    CMP      r1,#0x58
        0x00005348:    0a000001    ....    BEQ      0x5354 ; _uartConfigureUART + 84
        0x0000534c:    e3e00000    ....    MVN      r0,#0
        0x00005350:    e8bd8070    p...    POP      {r4-r6,pc}
        0x00005354:    e5d41009    ....    LDRB     r1,[r4,#9]
        0x00005358:    e3510000    ..Q.    CMP      r1,#0
        0x0000535c:    0a000007    ....    BEQ      0x5380 ; _uartConfigureUART + 128
        0x00005360:    e3510001    ..Q.    CMP      r1,#1
        0x00005364:    0a000005    ....    BEQ      0x5380 ; _uartConfigureUART + 128
        0x00005368:    e3510002    ..Q.    CMP      r1,#2
        0x0000536c:    0a000003    ....    BEQ      0x5380 ; _uartConfigureUART + 128
        0x00005370:    e3510003    ..Q.    CMP      r1,#3
        0x00005374:    0a000001    ....    BEQ      0x5380 ; _uartConfigureUART + 128
        0x00005378:    e3e00001    ....    MVN      r0,#1
        0x0000537c:    e8bd8070    p...    POP      {r4-r6,pc}
        0x00005380:    e5d4100a    ....    LDRB     r1,[r4,#0xa]
        0x00005384:    e3510000    ..Q.    CMP      r1,#0
        0x00005388:    0a000003    ....    BEQ      0x539c ; _uartConfigureUART + 156
        0x0000538c:    e3510004    ..Q.    CMP      r1,#4
        0x00005390:    0a000001    ....    BEQ      0x539c ; _uartConfigureUART + 156
        0x00005394:    e3e00002    ....    MVN      r0,#2
        0x00005398:    e8bd8070    p...    POP      {r4-r6,pc}
        0x0000539c:    e3500001    ..P.    CMP      r0,#1
        0x000053a0:    0a000014    ....    BEQ      0x53f8 ; _uartConfigureUART + 248
        0x000053a4:    e3500002    ..P.    CMP      r0,#2
        0x000053a8:    0a000012    ....    BEQ      0x53f8 ; _uartConfigureUART + 248
        0x000053ac:    e3500004    ..P.    CMP      r0,#4
        0x000053b0:    0a000010    ....    BEQ      0x53f8 ; _uartConfigureUART + 248
        0x000053b4:    e3500006    ..P.    CMP      r0,#6
        0x000053b8:    0a00000e    ....    BEQ      0x53f8 ; _uartConfigureUART + 248
        0x000053bc:    e3500008    ..P.    CMP      r0,#8
        0x000053c0:    0a00000c    ....    BEQ      0x53f8 ; _uartConfigureUART + 248
        0x000053c4:    e350000a    ..P.    CMP      r0,#0xa
        0x000053c8:    0a00000a    ....    BEQ      0x53f8 ; _uartConfigureUART + 248
        0x000053cc:    e5d4100c    ....    LDRB     r1,[r4,#0xc]
        0x000053d0:    e3510000    ..Q.    CMP      r1,#0
        0x000053d4:    0a000018    ....    BEQ      0x543c ; _uartConfigureUART + 316
        0x000053d8:    e3510010    ..Q.    CMP      r1,#0x10
        0x000053dc:    0a000016    ....    BEQ      0x543c ; _uartConfigureUART + 316
        0x000053e0:    e3510020     .Q.    CMP      r1,#0x20
        0x000053e4:    0a000014    ....    BEQ      0x543c ; _uartConfigureUART + 316
        0x000053e8:    e3510040    @.Q.    CMP      r1,#0x40
        0x000053ec:    0a000012    ....    BEQ      0x543c ; _uartConfigureUART + 316
        0x000053f0:    e3e00003    ....    MVN      r0,#3
        0x000053f4:    e8bd8070    p...    POP      {r4-r6,pc}
        0x000053f8:    e5d4100c    ....    LDRB     r1,[r4,#0xc]
        0x000053fc:    e3510000    ..Q.    CMP      r1,#0
        0x00005400:    0a00000d    ....    BEQ      0x543c ; _uartConfigureUART + 316
        0x00005404:    e3510010    ..Q.    CMP      r1,#0x10
        0x00005408:    0a00000b    ....    BEQ      0x543c ; _uartConfigureUART + 316
        0x0000540c:    e3510020     .Q.    CMP      r1,#0x20
        0x00005410:    0a000009    ....    BEQ      0x543c ; _uartConfigureUART + 316
        0x00005414:    e3510030    0.Q.    CMP      r1,#0x30
        0x00005418:    0a000007    ....    BEQ      0x543c ; _uartConfigureUART + 316
        0x0000541c:    e3510040    @.Q.    CMP      r1,#0x40
        0x00005420:    0a000005    ....    BEQ      0x543c ; _uartConfigureUART + 316
        0x00005424:    e3510050    P.Q.    CMP      r1,#0x50
        0x00005428:    0a000003    ....    BEQ      0x543c ; _uartConfigureUART + 316
        0x0000542c:    e3510060    `.Q.    CMP      r1,#0x60
        0x00005430:    0a000001    ....    BEQ      0x543c ; _uartConfigureUART + 316
        0x00005434:    e3e00003    ....    MVN      r0,#3
        0x00005438:    e8bd8070    p...    POP      {r4-r6,pc}
        0x0000543c:    e3a0120b    ....    MOV      r1,#0xb0000000
        0x00005440:    e5913218    .2..    LDR      r3,[r1,#0x218]
        0x00005444:    e2800010    ....    ADD      r0,r0,#0x10
        0x00005448:    e3a06001    .`..    MOV      r6,#1
        0x0000544c:    e1830016    ....    ORR      r0,r3,r6,LSL r0
        0x00005450:    e5810218    ....    STR      r0,[r1,#0x218]
        0x00005454:    e282532e    .S..    ADD      r5,r2,#0xb8000000
        0x00005458:    e5950008    ....    LDR      r0,[r5,#8]
        0x0000545c:    e3800006    ....    ORR      r0,r0,#6
        0x00005460:    e5850008    ....    STR      r0,[r5,#8]
        0x00005464:    e5d40008    ....    LDRB     r0,[r4,#8]
        0x00005468:    e1a01004    ....    MOV      r1,r4
        0x0000546c:    eb0001d8    ....    BL       _uartSetBaudRate ; 0x5bd4
        0x00005470:    e3500000    ..P.    CMP      r0,#0
        0x00005474:    aa000001    ....    BGE      0x5480 ; _uartConfigureUART + 384
        0x00005478:    e3e0000c    ....    MVN      r0,#0xc
        0x0000547c:    e8bd8070    p...    POP      {r4-r6,pc}
        0x00005480:    e5d4000b    ....    LDRB     r0,[r4,#0xb]
        0x00005484:    e5d41009    ....    LDRB     r1,[r4,#9]
        0x00005488:    e1800001    ....    ORR      r0,r0,r1
        0x0000548c:    e5d4100a    ....    LDRB     r1,[r4,#0xa]
        0x00005490:    e1800001    ....    ORR      r0,r0,r1
        0x00005494:    e585000c    ....    STR      r0,[r5,#0xc]
        0x00005498:    e3a000a0    ....    MOV      r0,#0xa0
        0x0000549c:    e5850020     ...    STR      r0,[r5,#0x20]
        0x000054a0:    e5d4000c    ....    LDRB     r0,[r4,#0xc]
        0x000054a4:    e5850008    ....    STR      r0,[r5,#8]
        0x000054a8:    e5d40008    ....    LDRB     r0,[r4,#8]
        0x000054ac:    e59f5074    tP..    LDR      r5,[pc,#116] ; [0x5528] = 0x6410c
        0x000054b0:    e0801080    ....    ADD      r1,r0,r0,LSL #1
        0x000054b4:    e0811180    ....    ADD      r1,r1,r0,LSL #3
        0x000054b8:    e0851101    ....    ADD      r1,r5,r1,LSL #2
        0x000054bc:    e5d1101e    ....    LDRB     r1,[r1,#0x1e]
        0x000054c0:    e3510000    ..Q.    CMP      r1,#0
        0x000054c4:    1a000010    ....    BNE      0x550c ; _uartConfigureUART + 524
        0x000054c8:    ebffff09    ....    BL       _uartBUFSpaceAlloc ; 0x50f4
        0x000054cc:    e3500000    ..P.    CMP      r0,#0
        0x000054d0:    0a000009    ....    BEQ      0x54fc ; _uartConfigureUART + 508
        0x000054d4:    e5d40008    ....    LDRB     r0,[r4,#8]
        0x000054d8:    eb000080    ....    BL       _uartInstallISR ; 0x56e0
        0x000054dc:    e5d40008    ....    LDRB     r0,[r4,#8]
        0x000054e0:    e0801080    ....    ADD      r1,r0,r0,LSL #1
        0x000054e4:    e0811180    ....    ADD      r1,r1,r0,LSL #3
        0x000054e8:    e0851101    ....    ADD      r1,r5,r1,LSL #2
        0x000054ec:    e5d1101d    ....    LDRB     r1,[r1,#0x1d]
        0x000054f0:    e3510001    ..Q.    CMP      r1,#1
        0x000054f4:    0a000002    ....    BEQ      0x5504 ; _uartConfigureUART + 516
        0x000054f8:    ea000003    ....    B        0x550c ; _uartConfigureUART + 524
        0x000054fc:    e3e00005    ....    MVN      r0,#5
        0x00005500:    e8bd8070    p...    POP      {r4-r6,pc}
        0x00005504:    e3a01001    ....    MOV      r1,#1
        0x00005508:    eb000012    ....    BL       _uartEnableInterrupt ; 0x5558
        0x0000550c:    e5d40008    ....    LDRB     r0,[r4,#8]
        0x00005510:    e0801080    ....    ADD      r1,r0,r0,LSL #1
        0x00005514:    e0810180    ....    ADD      r0,r1,r0,LSL #3
        0x00005518:    e0850100    ....    ADD      r0,r5,r0,LSL #2
        0x0000551c:    e5c0601e    .`..    STRB     r6,[r0,#0x1e]
        0x00005520:    e3a00000    ....    MOV      r0,#0
        0x00005524:    e8bd8070    p...    POP      {r4-r6,pc}
    $d
        0x00005528:    0006410c    .A..    DCD    409868
    $a
    i._uartDisableInterrupt
    _uartDisableInterrupt
        0x0000552c:    e1a00400    ....    LSL      r0,r0,#8
        0x00005530:    e3510000    ..Q.    CMP      r1,#0
        0x00005534:    e280032e    ....    ADD      r0,r0,#0xb8000000
        0x00005538:    0a000003    ....    BEQ      0x554c ; _uartDisableInterrupt + 32
        0x0000553c:    e5902004    . ..    LDR      r2,[r0,#4]
        0x00005540:    e1c21001    ....    BIC      r1,r2,r1
        0x00005544:    e5801004    ....    STR      r1,[r0,#4]
        0x00005548:    e12fff1e    ../.    BX       lr
        0x0000554c:    e3a01000    ....    MOV      r1,#0
        0x00005550:    e5801004    ....    STR      r1,[r0,#4]
        0x00005554:    e12fff1e    ../.    BX       lr
    i._uartEnableInterrupt
    _uartEnableInterrupt
        0x00005558:    e1a00400    ....    LSL      r0,r0,#8
        0x0000555c:    e280032e    ....    ADD      r0,r0,#0xb8000000
        0x00005560:    e5902004    . ..    LDR      r2,[r0,#4]
        0x00005564:    e1811002    ....    ORR      r1,r1,r2
        0x00005568:    e5801004    ....    STR      r1,[r0,#4]
        0x0000556c:    e12fff1e    ../.    BX       lr
    i._uartGetRegisterValue
    _uartGetRegisterValue
        0x00005570:    e92d4070    p@-.    PUSH     {r4-r6,lr}
        0x00005574:    e1a04001    .@..    MOV      r4,r1
        0x00005578:    e1a05400    .T..    LSL      r5,r0,#8
        0x0000557c:    e3a01070    p...    MOV      r1,#0x70
        0x00005580:    e1a00004    ....    MOV      r0,r4
        0x00005584:    ebffecd4    ....    BL       __aeabi_memclr4 ; 0x8dc
        0x00005588:    e3e003ee    ....    MVN      r0,#0xb8000003
        0x0000558c:    e0450000    ..E.    SUB      r0,r5,r0
        0x00005590:    e5840000    ....    STR      r0,[r4,#0]
        0x00005594:    e285032e    ....    ADD      r0,r5,#0xb8000000
        0x00005598:    e5901004    ....    LDR      r1,[r0,#4]
        0x0000559c:    e5841004    ....    STR      r1,[r4,#4]
        0x000055a0:    e59f1104    ....    LDR      r1,[pc,#260] ; [0x56ac] = 0xb8000008
        0x000055a4:    e0811005    ....    ADD      r1,r1,r5
        0x000055a8:    e5841008    ....    STR      r1,[r4,#8]
        0x000055ac:    e5901008    ....    LDR      r1,[r0,#8]
        0x000055b0:    e584100c    ....    STR      r1,[r4,#0xc]
        0x000055b4:    e59f10f4    ....    LDR      r1,[pc,#244] ; [0x56b0] = 0xb800000c
        0x000055b8:    e0811005    ....    ADD      r1,r1,r5
        0x000055bc:    e5841010    ....    STR      r1,[r4,#0x10]
        0x000055c0:    e590100c    ....    LDR      r1,[r0,#0xc]
        0x000055c4:    e5841014    ....    STR      r1,[r4,#0x14]
        0x000055c8:    e59f10e4    ....    LDR      r1,[pc,#228] ; [0x56b4] = 0xb8000010
        0x000055cc:    e0811005    ....    ADD      r1,r1,r5
        0x000055d0:    e5841018    ....    STR      r1,[r4,#0x18]
        0x000055d4:    e5901010    ....    LDR      r1,[r0,#0x10]
        0x000055d8:    e584101c    ....    STR      r1,[r4,#0x1c]
        0x000055dc:    e59f10d4    ....    LDR      r1,[pc,#212] ; [0x56b8] = 0xb8000014
        0x000055e0:    e0811005    ....    ADD      r1,r1,r5
        0x000055e4:    e5841020     ...    STR      r1,[r4,#0x20]
        0x000055e8:    e5901014    ....    LDR      r1,[r0,#0x14]
        0x000055ec:    e5841024    $...    STR      r1,[r4,#0x24]
        0x000055f0:    e59f10c4    ....    LDR      r1,[pc,#196] ; [0x56bc] = 0xb8000018
        0x000055f4:    e0811005    ....    ADD      r1,r1,r5
        0x000055f8:    e5841028    (...    STR      r1,[r4,#0x28]
        0x000055fc:    e5901018    ....    LDR      r1,[r0,#0x18]
        0x00005600:    e584102c    ,...    STR      r1,[r4,#0x2c]
        0x00005604:    e59f10b4    ....    LDR      r1,[pc,#180] ; [0x56c0] = 0xb800001c
        0x00005608:    e0811005    ....    ADD      r1,r1,r5
        0x0000560c:    e5841030    0...    STR      r1,[r4,#0x30]
        0x00005610:    e590101c    ....    LDR      r1,[r0,#0x1c]
        0x00005614:    e5841034    4...    STR      r1,[r4,#0x34]
        0x00005618:    e59f10a4    ....    LDR      r1,[pc,#164] ; [0x56c4] = 0xb8000020
        0x0000561c:    e0811005    ....    ADD      r1,r1,r5
        0x00005620:    e5841038    8...    STR      r1,[r4,#0x38]
        0x00005624:    e5901020     ...    LDR      r1,[r0,#0x20]
        0x00005628:    e584103c    <...    STR      r1,[r4,#0x3c]
        0x0000562c:    e59f1094    ....    LDR      r1,[pc,#148] ; [0x56c8] = 0xb8000024
        0x00005630:    e0811005    ....    ADD      r1,r1,r5
        0x00005634:    e5841040    @...    STR      r1,[r4,#0x40]
        0x00005638:    e5901024    $...    LDR      r1,[r0,#0x24]
        0x0000563c:    e5841044    D...    STR      r1,[r4,#0x44]
        0x00005640:    e59f1084    ....    LDR      r1,[pc,#132] ; [0x56cc] = 0xb8000028
        0x00005644:    e0811005    ....    ADD      r1,r1,r5
        0x00005648:    e5841048    H...    STR      r1,[r4,#0x48]
        0x0000564c:    e5901028    (...    LDR      r1,[r0,#0x28]
        0x00005650:    e584104c    L...    STR      r1,[r4,#0x4c]
        0x00005654:    e59f1074    t...    LDR      r1,[pc,#116] ; [0x56d0] = 0xb800002c
        0x00005658:    e0811005    ....    ADD      r1,r1,r5
        0x0000565c:    e5841050    P...    STR      r1,[r4,#0x50]
        0x00005660:    e590102c    ,...    LDR      r1,[r0,#0x2c]
        0x00005664:    e5841054    T...    STR      r1,[r4,#0x54]
        0x00005668:    e59f1064    d...    LDR      r1,[pc,#100] ; [0x56d4] = 0xb8000030
        0x0000566c:    e0811005    ....    ADD      r1,r1,r5
        0x00005670:    e5841058    X...    STR      r1,[r4,#0x58]
        0x00005674:    e5901030    0...    LDR      r1,[r0,#0x30]
        0x00005678:    e584105c    \...    STR      r1,[r4,#0x5c]
        0x0000567c:    e59f1054    T...    LDR      r1,[pc,#84] ; [0x56d8] = 0xb8000034
        0x00005680:    e0811005    ....    ADD      r1,r1,r5
        0x00005684:    e5841060    `...    STR      r1,[r4,#0x60]
        0x00005688:    e5901034    4...    LDR      r1,[r0,#0x34]
        0x0000568c:    e5841064    d...    STR      r1,[r4,#0x64]
        0x00005690:    e59f1044    D...    LDR      r1,[pc,#68] ; [0x56dc] = 0xb8000038
        0x00005694:    e0811005    ....    ADD      r1,r1,r5
        0x00005698:    e5841068    h...    STR      r1,[r4,#0x68]
        0x0000569c:    e5901038    8...    LDR      r1,[r0,#0x38]
        0x000056a0:    e3a0000e    ....    MOV      r0,#0xe
        0x000056a4:    e584106c    l...    STR      r1,[r4,#0x6c]
        0x000056a8:    e8bd8070    p...    POP      {r4-r6,pc}
    $d
        0x000056ac:    b8000008    ....    DCD    3087007752
        0x000056b0:    b800000c    ....    DCD    3087007756
        0x000056b4:    b8000010    ....    DCD    3087007760
        0x000056b8:    b8000014    ....    DCD    3087007764
        0x000056bc:    b8000018    ....    DCD    3087007768
        0x000056c0:    b800001c    ....    DCD    3087007772
        0x000056c4:    b8000020     ...    DCD    3087007776
        0x000056c8:    b8000024    $...    DCD    3087007780
        0x000056cc:    b8000028    (...    DCD    3087007784
        0x000056d0:    b800002c    ,...    DCD    3087007788
        0x000056d4:    b8000030    0...    DCD    3087007792
        0x000056d8:    b8000034    4...    DCD    3087007796
        0x000056dc:    b8000038    8...    DCD    3087007800
    $a
    i._uartInstallISR
    _uartInstallISR
        0x000056e0:    e92d4070    p@-.    PUSH     {r4-r6,lr}
        0x000056e4:    e59f21a8    .!..    LDR      r2,[pc,#424] ; [0x5894] = 0x6410c
        0x000056e8:    e0801080    ....    ADD      r1,r0,r0,LSL #1
        0x000056ec:    e0811180    ....    ADD      r1,r1,r0,LSL #3
        0x000056f0:    e0824101    .A..    ADD      r4,r2,r1,LSL #2
        0x000056f4:    e3500000    ..P.    CMP      r0,#0
        0x000056f8:    0a00001e    ....    BEQ      0x5778 ; _uartInstallISR + 152
        0x000056fc:    e3500001    ..P.    CMP      r0,#1
        0x00005700:    0a000023    #...    BEQ      0x5794 ; _uartInstallISR + 180
        0x00005704:    e3500002    ..P.    CMP      r0,#2
        0x00005708:    0a000028    (...    BEQ      0x57b0 ; _uartInstallISR + 208
        0x0000570c:    e3500003    ..P.    CMP      r0,#3
        0x00005710:    0a00002d    -...    BEQ      0x57cc ; _uartInstallISR + 236
        0x00005714:    e3500004    ..P.    CMP      r0,#4
        0x00005718:    0a000032    2...    BEQ      0x57e8 ; _uartInstallISR + 264
        0x0000571c:    e3500005    ..P.    CMP      r0,#5
        0x00005720:    0a000037    7...    BEQ      0x5804 ; _uartInstallISR + 292
        0x00005724:    e3500006    ..P.    CMP      r0,#6
        0x00005728:    0a00003c    <...    BEQ      0x5820 ; _uartInstallISR + 320
        0x0000572c:    e3500007    ..P.    CMP      r0,#7
        0x00005730:    0a000041    A...    BEQ      0x583c ; _uartInstallISR + 348
        0x00005734:    e3500008    ..P.    CMP      r0,#8
        0x00005738:    0a000046    F...    BEQ      0x5858 ; _uartInstallISR + 376
        0x0000573c:    e3500009    ..P.    CMP      r0,#9
        0x00005740:    0a00004b    K...    BEQ      0x5874 ; _uartInstallISR + 404
        0x00005744:    e350000a    ..P.    CMP      r0,#0xa
        0x00005748:    1a000050    P...    BNE      0x5890 ; _uartInstallISR + 432
        0x0000574c:    e3a0502a    *P..    MOV      r5,#0x2a
        0x00005750:    e59f2140    @!..    LDR      r2,[pc,#320] ; [0x5898] = 0x8a88
        0x00005754:    e1a01005    ....    MOV      r1,r5
        0x00005758:    e3a00043    C...    MOV      r0,#0x43
        0x0000575c:    eb000afa    ....    BL       sysInstallISR ; 0x834c
        0x00005760:    e5840018    ....    STR      r0,[r4,#0x18]
        0x00005764:    e3a0007f    ....    MOV      r0,#0x7f
        0x00005768:    eb000bb0    ....    BL       sysSetLocalInterrupt ; 0x8630
        0x0000576c:    e1a00005    ....    MOV      r0,r5
        0x00005770:    e8bd4070    p@..    POP      {r4-r6,lr}
        0x00005774:    ea0008ad    ....    B        sysEnableInterrupt ; 0x7a30
        0x00005778:    e3a05024    $P..    MOV      r5,#0x24
        0x0000577c:    e59f2118    .!..    LDR      r2,[pc,#280] ; [0x589c] = 0x8a18
        0x00005780:    e1a01005    ....    MOV      r1,r5
        0x00005784:    e3a00043    C...    MOV      r0,#0x43
        0x00005788:    eb000aef    ....    BL       sysInstallISR ; 0x834c
        0x0000578c:    e5840018    ....    STR      r0,[r4,#0x18]
        0x00005790:    eafffff3    ....    B        0x5764 ; _uartInstallISR + 132
        0x00005794:    e3a05025    %P..    MOV      r5,#0x25
        0x00005798:    e59f2100    .!..    LDR      r2,[pc,#256] ; [0x58a0] = 0x8b88
        0x0000579c:    e1a01005    ....    MOV      r1,r5
        0x000057a0:    e3a00043    C...    MOV      r0,#0x43
        0x000057a4:    eb000ae8    ....    BL       sysInstallISR ; 0x834c
        0x000057a8:    e5840018    ....    STR      r0,[r4,#0x18]
        0x000057ac:    eaffffec    ....    B        0x5764 ; _uartInstallISR + 132
        0x000057b0:    e3a05026    &P..    MOV      r5,#0x26
        0x000057b4:    e59f20e8    . ..    LDR      r2,[pc,#232] ; [0x58a4] = 0x8c6c
        0x000057b8:    e1a01005    ....    MOV      r1,r5
        0x000057bc:    e3a00043    C...    MOV      r0,#0x43
        0x000057c0:    eb000ae1    ....    BL       sysInstallISR ; 0x834c
        0x000057c4:    e5840018    ....    STR      r0,[r4,#0x18]
        0x000057c8:    eaffffe5    ....    B        0x5764 ; _uartInstallISR + 132
        0x000057cc:    e3a0502b    +P..    MOV      r5,#0x2b
        0x000057d0:    e59f20d0    . ..    LDR      r2,[pc,#208] ; [0x58a8] = 0x8d74
        0x000057d4:    e1a01005    ....    MOV      r1,r5
        0x000057d8:    e3a00043    C...    MOV      r0,#0x43
        0x000057dc:    eb000ada    ....    BL       sysInstallISR ; 0x834c
        0x000057e0:    e5840018    ....    STR      r0,[r4,#0x18]
        0x000057e4:    eaffffde    ....    B        0x5764 ; _uartInstallISR + 132
        0x000057e8:    e3a05027    'P..    MOV      r5,#0x27
        0x000057ec:    e59f20b8    . ..    LDR      r2,[pc,#184] ; [0x58ac] = 0x8e58
        0x000057f0:    e1a01005    ....    MOV      r1,r5
        0x000057f4:    e3a00043    C...    MOV      r0,#0x43
        0x000057f8:    eb000ad3    ....    BL       sysInstallISR ; 0x834c
        0x000057fc:    e5840018    ....    STR      r0,[r4,#0x18]
        0x00005800:    eaffffd7    ....    B        0x5764 ; _uartInstallISR + 132
        0x00005804:    e3a0502c    ,P..    MOV      r5,#0x2c
        0x00005808:    e59f20a0    . ..    LDR      r2,[pc,#160] ; [0x58b0] = 0x8f58
        0x0000580c:    e1a01005    ....    MOV      r1,r5
        0x00005810:    e3a00043    C...    MOV      r0,#0x43
        0x00005814:    eb000acc    ....    BL       sysInstallISR ; 0x834c
        0x00005818:    e5840018    ....    STR      r0,[r4,#0x18]
        0x0000581c:    eaffffd0    ....    B        0x5764 ; _uartInstallISR + 132
        0x00005820:    e3a05028    (P..    MOV      r5,#0x28
        0x00005824:    e59f2088    . ..    LDR      r2,[pc,#136] ; [0x58b4] = 0x9058
        0x00005828:    e1a01005    ....    MOV      r1,r5
        0x0000582c:    e3a00043    C...    MOV      r0,#0x43
        0x00005830:    eb000ac5    ....    BL       sysInstallISR ; 0x834c
        0x00005834:    e5840018    ....    STR      r0,[r4,#0x18]
        0x00005838:    eaffffc9    ....    B        0x5764 ; _uartInstallISR + 132
        0x0000583c:    e3a0502d    -P..    MOV      r5,#0x2d
        0x00005840:    e59f2070    p ..    LDR      r2,[pc,#112] ; [0x58b8] = 0x9158
        0x00005844:    e1a01005    ....    MOV      r1,r5
        0x00005848:    e3a00043    C...    MOV      r0,#0x43
        0x0000584c:    eb000abe    ....    BL       sysInstallISR ; 0x834c
        0x00005850:    e5840018    ....    STR      r0,[r4,#0x18]
        0x00005854:    eaffffc2    ....    B        0x5764 ; _uartInstallISR + 132
        0x00005858:    e3a05029    )P..    MOV      r5,#0x29
        0x0000585c:    e59f2058    X ..    LDR      r2,[pc,#88] ; [0x58bc] = 0x9258
        0x00005860:    e1a01005    ....    MOV      r1,r5
        0x00005864:    e3a00043    C...    MOV      r0,#0x43
        0x00005868:    eb000ab7    ....    BL       sysInstallISR ; 0x834c
        0x0000586c:    e5840018    ....    STR      r0,[r4,#0x18]
        0x00005870:    eaffffbb    ....    B        0x5764 ; _uartInstallISR + 132
        0x00005874:    e3a0502e    .P..    MOV      r5,#0x2e
        0x00005878:    e59f2040    @ ..    LDR      r2,[pc,#64] ; [0x58c0] = 0x9358
        0x0000587c:    e1a01005    ....    MOV      r1,r5
        0x00005880:    e3a00043    C...    MOV      r0,#0x43
        0x00005884:    eb000ab0    ....    BL       sysInstallISR ; 0x834c
        0x00005888:    e5840018    ....    STR      r0,[r4,#0x18]
        0x0000588c:    eaffffb4    ....    B        0x5764 ; _uartInstallISR + 132
        0x00005890:    e8bd8070    p...    POP      {r4-r6,pc}
    $d
        0x00005894:    0006410c    .A..    DCD    409868
        0x00005898:    00008a88    ....    DCD    35464
        0x0000589c:    00008a18    ....    DCD    35352
        0x000058a0:    00008b88    ....    DCD    35720
        0x000058a4:    00008c6c    l...    DCD    35948
        0x000058a8:    00008d74    t...    DCD    36212
        0x000058ac:    00008e58    X...    DCD    36440
        0x000058b0:    00008f58    X...    DCD    36696
        0x000058b4:    00009058    X...    DCD    36952
        0x000058b8:    00009158    X...    DCD    37208
        0x000058bc:    00009258    X...    DCD    37464
        0x000058c0:    00009358    X...    DCD    37720
    $a
    i._uartPerformIrDA
    _uartPerformIrDA
        0x000058c4:    e1a00400    ....    LSL      r0,r0,#8
        0x000058c8:    e3510000    ..Q.    CMP      r1,#0
        0x000058cc:    e3a03000    .0..    MOV      r3,#0
        0x000058d0:    e280032e    ....    ADD      r0,r0,#0xb8000000
        0x000058d4:    0a000016    ....    BEQ      0x5934 ; _uartPerformIrDA + 112
        0x000058d8:    e3510001    ..Q.    CMP      r1,#1
        0x000058dc:    0a000001    ....    BEQ      0x58e8 ; _uartPerformIrDA + 36
        0x000058e0:    e3e00009    ....    MVN      r0,#9
        0x000058e4:    e12fff1e    ../.    BX       lr
        0x000058e8:    e5901024    $...    LDR      r1,[r0,#0x24]
        0x000058ec:    e1a01801    ....    LSL      r1,r1,#16
        0x000058f0:    e1a01821    !...    LSR      r1,r1,#16
        0x000058f4:    e2811002    ....    ADD      r1,r1,#2
        0x000058f8:    e1a01221    !...    LSR      r1,r1,#4
        0x000058fc:    e2411002    ..A.    SUB      r1,r1,#2
        0x00005900:    e5801024    $...    STR      r1,[r0,#0x24]
        0x00005904:    e3520000    ..R.    CMP      r2,#0
        0x00005908:    e3a01002    ....    MOV      r1,#2
        0x0000590c:    0a000003    ....    BEQ      0x5920 ; _uartPerformIrDA + 92
        0x00005910:    e3520001    ..R.    CMP      r2,#1
        0x00005914:    0a000003    ....    BEQ      0x5928 ; _uartPerformIrDA + 100
        0x00005918:    e3e00009    ....    MVN      r0,#9
        0x0000591c:    e12fff1e    ../.    BX       lr
        0x00005920:    e5801028    (...    STR      r1,[r0,#0x28]
        0x00005924:    ea000000    ....    B        0x592c ; _uartPerformIrDA + 104
        0x00005928:    e5803028    (0..    STR      r3,[r0,#0x28]
        0x0000592c:    e5801030    0...    STR      r1,[r0,#0x30]
        0x00005930:    ea000002    ....    B        0x5940 ; _uartPerformIrDA + 124
        0x00005934:    e3a01040    @...    MOV      r1,#0x40
        0x00005938:    e5801028    (...    STR      r1,[r0,#0x28]
        0x0000593c:    e5803030    00..    STR      r3,[r0,#0x30]
        0x00005940:    e3a00000    ....    MOV      r0,#0
        0x00005944:    e12fff1e    ../.    BX       lr
    i._uartReceiveChars
    _uartReceiveChars
        0x00005948:    e92d47f0    .G-.    PUSH     {r4-r10,lr}
        0x0000594c:    e24dd020     .M.    SUB      sp,sp,#0x20
        0x00005950:    e1a0a000    ....    MOV      r10,r0
        0x00005954:    e3a09000    ....    MOV      r9,#0
        0x00005958:    e58d9004    ....    STR      r9,[sp,#4]
        0x0000595c:    e1a0040a    ....    LSL      r0,r10,#8
        0x00005960:    e58d0000    ....    STR      r0,[sp,#0]
        0x00005964:    e3a06c01    .l..    MOV      r6,#0x100
        0x00005968:    e59f1230    0...    LDR      r1,[pc,#560] ; [0x5ba0] = 0x6410c
        0x0000596c:    e08a008a    ....    ADD      r0,r10,r10,LSL #1
        0x00005970:    e080018a    ....    ADD      r0,r0,r10,LSL #3
        0x00005974:    e0814100    .A..    ADD      r4,r1,r0,LSL #2
        0x00005978:    e59d0000    ....    LDR      r0,[sp,#0]
        0x0000597c:    e280532e    .S..    ADD      r5,r0,#0xb8000000
        0x00005980:    e5950030    0...    LDR      r0,[r5,#0x30]
        0x00005984:    e58d0014    ....    STR      r0,[sp,#0x14]
        0x00005988:    e3a08001    ....    MOV      r8,#1
        0x0000598c:    e59d0000    ....    LDR      r0,[sp,#0]
        0x00005990:    e280132e    ....    ADD      r1,r0,#0xb8000000
        0x00005994:    e5910018    ....    LDR      r0,[r1,#0x18]
        0x00005998:    e58d001c    ....    STR      r0,[sp,#0x1c]
        0x0000599c:    e5910038    8...    LDR      r0,[r1,#0x38]
        0x000059a0:    e58d000c    ....    STR      r0,[sp,#0xc]
        0x000059a4:    e591001c    ....    LDR      r0,[r1,#0x1c]
        0x000059a8:    e58d0008    ....    STR      r0,[sp,#8]
        0x000059ac:    e5d17000    .p..    LDRB     r7,[r1,#0]
        0x000059b0:    e59d001c    ....    LDR      r0,[sp,#0x1c]
        0x000059b4:    e3100008    ....    TST      r0,#8
        0x000059b8:    0a000011    ....    BEQ      0x5a04 ; _uartReceiveChars + 188
        0x000059bc:    e59d0014    ....    LDR      r0,[sp,#0x14]
        0x000059c0:    e3500003    ..P.    CMP      r0,#3
        0x000059c4:    1a00000e    ....    BNE      0x5a04 ; _uartReceiveChars + 188
        0x000059c8:    e595002c    ,...    LDR      r0,[r5,#0x2c]
        0x000059cc:    e58d0018    ....    STR      r0,[sp,#0x18]
        0x000059d0:    e5950008    ....    LDR      r0,[r5,#8]
        0x000059d4:    e58d0010    ....    STR      r0,[sp,#0x10]
        0x000059d8:    e59d0018    ....    LDR      r0,[sp,#0x18]
        0x000059dc:    e3100c01    ....    TST      r0,#0x100
        0x000059e0:    0a000007    ....    BEQ      0x5a04 ; _uartReceiveChars + 188
        0x000059e4:    e59d0018    ....    LDR      r0,[sp,#0x18]
        0x000059e8:    e1570c20     .W.    CMP      r7,r0,LSR #24
        0x000059ec:    1a000010    ....    BNE      0x5a34 ; _uartReceiveChars + 236
        0x000059f0:    e59d0010    ....    LDR      r0,[sp,#0x10]
        0x000059f4:    e3c00c01    ....    BIC      r0,r0,#0x100
        0x000059f8:    e58d0010    ....    STR      r0,[sp,#0x10]
        0x000059fc:    e59d0010    ....    LDR      r0,[sp,#0x10]
        0x00005a00:    e5850008    ....    STR      r0,[r5,#8]
        0x00005a04:    e594100c    ....    LDR      r1,[r4,#0xc]
        0x00005a08:    e1a0000a    ....    MOV      r0,r10
        0x00005a0c:    eb000066    f...    BL       _uartRxBufGetNextOne ; 0x5bac
        0x00005a10:    e58d0004    ....    STR      r0,[sp,#4]
        0x00005a14:    e5940008    ....    LDR      r0,[r4,#8]
        0x00005a18:    e59d1004    ....    LDR      r1,[sp,#4]
        0x00005a1c:    e1500001    ..P.    CMP      r0,r1
        0x00005a20:    1a00000c    ....    BNE      0x5a58 ; _uartReceiveChars + 272
        0x00005a24:    e59f0178    x...    LDR      r0,[pc,#376] ; [0x5ba4] = 0xa56c
        0x00005a28:    e5d00017    ....    LDRB     r0,[r0,#0x17]
        0x00005a2c:    e28dd020     ...    ADD      sp,sp,#0x20
        0x00005a30:    e8bd87f0    ....    POP      {r4-r10,pc}
        0x00005a34:    e59d0010    ....    LDR      r0,[sp,#0x10]
        0x00005a38:    e3800c01    ....    ORR      r0,r0,#0x100
        0x00005a3c:    e58d0010    ....    STR      r0,[sp,#0x10]
        0x00005a40:    e59d0010    ....    LDR      r0,[sp,#0x10]
        0x00005a44:    e3800002    ....    ORR      r0,r0,#2
        0x00005a48:    e58d0010    ....    STR      r0,[sp,#0x10]
        0x00005a4c:    e59d0010    ....    LDR      r0,[sp,#0x10]
        0x00005a50:    e5850008    ....    STR      r0,[r5,#8]
        0x00005a54:    eafffff4    ....    B        0x5a2c ; _uartReceiveChars + 228
        0x00005a58:    e5940014    ....    LDR      r0,[r4,#0x14]
        0x00005a5c:    e594100c    ....    LDR      r1,[r4,#0xc]
        0x00005a60:    e7c07001    .p..    STRB     r7,[r0,r1]
        0x00005a64:    e5940020     ...    LDR      r0,[r4,#0x20]
        0x00005a68:    e594100c    ....    LDR      r1,[r4,#0xc]
        0x00005a6c:    e7809101    ....    STR      r9,[r0,r1,LSL #2]
        0x00005a70:    e59d001c    ....    LDR      r0,[sp,#0x1c]
        0x00005a74:    e3100040    @...    TST      r0,#0x40
        0x00005a78:    0a000004    ....    BEQ      0x5a90 ; _uartReceiveChars + 328
        0x00005a7c:    e5941020     ...    LDR      r1,[r4,#0x20]
        0x00005a80:    e594200c    . ..    LDR      r2,[r4,#0xc]
        0x00005a84:    e3a00040    @...    MOV      r0,#0x40
        0x00005a88:    e7810102    ....    STR      r0,[r1,r2,LSL #2]
        0x00005a8c:    ea00001d    ....    B        0x5b08 ; _uartReceiveChars + 448
        0x00005a90:    e59d001c    ....    LDR      r0,[sp,#0x1c]
        0x00005a94:    e3100020     ...    TST      r0,#0x20
        0x00005a98:    0a000004    ....    BEQ      0x5ab0 ; _uartReceiveChars + 360
        0x00005a9c:    e5941020     ...    LDR      r1,[r4,#0x20]
        0x00005aa0:    e594200c    . ..    LDR      r2,[r4,#0xc]
        0x00005aa4:    e3a00020     ...    MOV      r0,#0x20
        0x00005aa8:    e7810102    ....    STR      r0,[r1,r2,LSL #2]
        0x00005aac:    ea000015    ....    B        0x5b08 ; _uartReceiveChars + 448
        0x00005ab0:    e59d001c    ....    LDR      r0,[sp,#0x1c]
        0x00005ab4:    e3100010    ....    TST      r0,#0x10
        0x00005ab8:    0a000004    ....    BEQ      0x5ad0 ; _uartReceiveChars + 392
        0x00005abc:    e5941020     ...    LDR      r1,[r4,#0x20]
        0x00005ac0:    e594200c    . ..    LDR      r2,[r4,#0xc]
        0x00005ac4:    e3a00010    ....    MOV      r0,#0x10
        0x00005ac8:    e7810102    ....    STR      r0,[r1,r2,LSL #2]
        0x00005acc:    ea00000d    ....    B        0x5b08 ; _uartReceiveChars + 448
        0x00005ad0:    e59d001c    ....    LDR      r0,[sp,#0x1c]
        0x00005ad4:    e3100001    ....    TST      r0,#1
        0x00005ad8:    0a000003    ....    BEQ      0x5aec ; _uartReceiveChars + 420
        0x00005adc:    e5940020     ...    LDR      r0,[r4,#0x20]
        0x00005ae0:    e594100c    ....    LDR      r1,[r4,#0xc]
        0x00005ae4:    e7808101    ....    STR      r8,[r0,r1,LSL #2]
        0x00005ae8:    ea000006    ....    B        0x5b08 ; _uartReceiveChars + 448
        0x00005aec:    e59d001c    ....    LDR      r0,[sp,#0x1c]
        0x00005af0:    e3100008    ....    TST      r0,#8
        0x00005af4:    0a000003    ....    BEQ      0x5b08 ; _uartReceiveChars + 448
        0x00005af8:    e5941020     ...    LDR      r1,[r4,#0x20]
        0x00005afc:    e594200c    . ..    LDR      r2,[r4,#0xc]
        0x00005b00:    e3a00008    ....    MOV      r0,#8
        0x00005b04:    e7810102    ....    STR      r0,[r1,r2,LSL #2]
        0x00005b08:    e59d0014    ....    LDR      r0,[sp,#0x14]
        0x00005b0c:    e3500001    ..P.    CMP      r0,#1
        0x00005b10:    1a00000b    ....    BNE      0x5b44 ; _uartReceiveChars + 508
        0x00005b14:    e59d0008    ....    LDR      r0,[sp,#8]
        0x00005b18:    e3100080    ....    TST      r0,#0x80
        0x00005b1c:    0a000008    ....    BEQ      0x5b44 ; _uartReceiveChars + 508
        0x00005b20:    e59d000c    ....    LDR      r0,[sp,#0xc]
        0x00005b24:    e5941024    $...    LDR      r1,[r4,#0x24]
        0x00005b28:    e594200c    . ..    LDR      r2,[r4,#0xc]
        0x00005b2c:    e7810102    ....    STR      r0,[r1,r2,LSL #2]
        0x00005b30:    e3a01080    ....    MOV      r1,#0x80
        0x00005b34:    e3a0032e    ....    MOV      r0,#0xb8000000
        0x00005b38:    e580101c    ....    STR      r1,[r0,#0x1c]
        0x00005b3c:    e59f1064    d...    LDR      r1,[pc,#100] ; [0x5ba8] = 0x30f
        0x00005b40:    e5801038    8...    STR      r1,[r0,#0x38]
        0x00005b44:    e594100c    ....    LDR      r1,[r4,#0xc]
        0x00005b48:    e1a0000a    ....    MOV      r0,r10
        0x00005b4c:    eb000016    ....    BL       _uartRxBufGetNextOne ; 0x5bac
        0x00005b50:    e584000c    ....    STR      r0,[r4,#0xc]
        0x00005b54:    e59d001c    ....    LDR      r0,[sp,#0x1c]
        0x00005b58:    e3100001    ....    TST      r0,#1
        0x00005b5c:    0a000006    ....    BEQ      0x5b7c ; _uartReceiveChars + 564
        0x00005b60:    e5940020     ...    LDR      r0,[r4,#0x20]
        0x00005b64:    e594100c    ....    LDR      r1,[r4,#0xc]
        0x00005b68:    e7808101    ....    STR      r8,[r0,r1,LSL #2]
        0x00005b6c:    e594100c    ....    LDR      r1,[r4,#0xc]
        0x00005b70:    e1a0000a    ....    MOV      r0,r10
        0x00005b74:    eb00000c    ....    BL       _uartRxBufGetNextOne ; 0x5bac
        0x00005b78:    e584000c    ....    STR      r0,[r4,#0xc]
        0x00005b7c:    e5950018    ....    LDR      r0,[r5,#0x18]
        0x00005b80:    e58d001c    ....    STR      r0,[sp,#0x1c]
        0x00005b84:    e59d001c    ....    LDR      r0,[sp,#0x1c]
        0x00005b88:    e3100901    ....    TST      r0,#0x4000
        0x00005b8c:    1affffa6    ....    BNE      0x5a2c ; _uartReceiveChars + 228
        0x00005b90:    e2560000    ..V.    SUBS     r0,r6,#0
        0x00005b94:    e2466001    .`F.    SUB      r6,r6,#1
        0x00005b98:    caffff7b    {...    BGT      0x598c ; _uartReceiveChars + 68
        0x00005b9c:    eaffffa2    ....    B        0x5a2c ; _uartReceiveChars + 228
    $d
        0x00005ba0:    0006410c    .A..    DCD    409868
        0x00005ba4:    0000a56c    l...    DCD    42348
        0x00005ba8:    0000030f    ....    DCD    783
    $a
    i._uartRxBufGetNextOne
    _uartRxBufGetNextOne
        0x00005bac:    e59f201c    . ..    LDR      r2,[pc,#28] ; [0x5bd0] = 0xa5b0
        0x00005bb0:    e7920100    ....    LDR      r0,[r2,r0,LSL #2]
        0x00005bb4:    e2812001    . ..    ADD      r2,r1,#1
        0x00005bb8:    e1500002    ..P.    CMP      r0,r2
        0x00005bbc:    1a000001    ....    BNE      0x5bc8 ; _uartRxBufGetNextOne + 28
        0x00005bc0:    e3a00000    ....    MOV      r0,#0
        0x00005bc4:    e12fff1e    ../.    BX       lr
        0x00005bc8:    e2810001    ....    ADD      r0,r1,#1
        0x00005bcc:    e12fff1e    ../.    BX       lr
    $d
        0x00005bd0:    0000a5b0    ....    DCD    42416
    $a
    i._uartSetBaudRate
    _uartSetBaudRate
        0x00005bd4:    e92d4070    p@-.    PUSH     {r4-r6,lr}
        0x00005bd8:    e1a06400    .d..    LSL      r6,r0,#8
        0x00005bdc:    e5915000    .P..    LDR      r5,[r1,#0]
        0x00005be0:    e5914004    .@..    LDR      r4,[r1,#4]
        0x00005be4:    e08500a4    ....    ADD      r0,r5,r4,LSR #1
        0x00005be8:    e1a01004    ....    MOV      r1,r4
        0x00005bec:    ebffec78    x...    BL       __aeabi_uidiv ; 0xdd4
        0x00005bf0:    e2400002    ..@.    SUB      r0,r0,#2
        0x00005bf4:    e3500801    ..P.    CMP      r0,#0x10000
        0x00005bf8:    3a000005    ...:    BCC      0x5c14 ; _uartSetBaudRate + 64
        0x00005bfc:    e0850184    ....    ADD      r0,r5,r4,LSL #3
        0x00005c00:    e1a01004    ....    MOV      r1,r4
        0x00005c04:    ebffec72    r...    BL       __aeabi_uidiv ; 0xdd4
        0x00005c08:    e3e01001    ....    MVN      r1,#1
        0x00005c0c:    e0810220     ...    ADD      r0,r1,r0,LSR #4
        0x00005c10:    ea000000    ....    B        0x5c18 ; _uartSetBaudRate + 68
        0x00005c14:    e3800203    ....    ORR      r0,r0,#0x30000000
        0x00005c18:    e286132e    ....    ADD      r1,r6,#0xb8000000
        0x00005c1c:    e5810024    $...    STR      r0,[r1,#0x24]
        0x00005c20:    e3a00000    ....    MOV      r0,#0
        0x00005c24:    e8bd8070    p...    POP      {r4-r6,pc}
    i._uartTransmitChars
    _uartTransmitChars
        0x00005c28:    e92d40f8    .@-.    PUSH     {r3-r7,lr}
        0x00005c2c:    e1a07000    .p..    MOV      r7,r0
        0x00005c30:    e59f1098    ....    LDR      r1,[pc,#152] ; [0x5cd0] = 0x6410c
        0x00005c34:    e0870087    ....    ADD      r0,r7,r7,LSL #1
        0x00005c38:    e0800187    ....    ADD      r0,r0,r7,LSL #3
        0x00005c3c:    e0814100    .A..    ADD      r4,r1,r0,LSL #2
        0x00005c40:    e5940000    ....    LDR      r0,[r4,#0]
        0x00005c44:    e5941004    ....    LDR      r1,[r4,#4]
        0x00005c48:    e1500001    ..P.    CMP      r0,r1
        0x00005c4c:    0a000017    ....    BEQ      0x5cb0 ; _uartTransmitChars + 136
        0x00005c50:    e3a00000    ....    MOV      r0,#0
        0x00005c54:    e58d0000    ....    STR      r0,[sp,#0]
        0x00005c58:    e1a00407    ....    LSL      r0,r7,#8
        0x00005c5c:    e59f5070    pP..    LDR      r5,[pc,#112] ; [0x5cd4] = 0x9fc8
        0x00005c60:    e280632e    .c..    ADD      r6,r0,#0xb8000000
        0x00005c64:    ea000015    ....    B        0x5cc0 ; _uartTransmitChars + 152
        0x00005c68:    e5940010    ....    LDR      r0,[r4,#0x10]
        0x00005c6c:    e5941000    ....    LDR      r1,[r4,#0]
        0x00005c70:    e7d00001    ....    LDRB     r0,[r0,r1]
        0x00005c74:    e5860000    ....    STR      r0,[r6,#0]
        0x00005c78:    e5941000    ....    LDR      r1,[r4,#0]
        0x00005c7c:    e1a00007    ....    MOV      r0,r7
        0x00005c80:    eb000014    ....    BL       _uartTxBufGetNextOne ; 0x5cd8
        0x00005c84:    e5840000    ....    STR      r0,[r4,#0]
        0x00005c88:    e5950000    ....    LDR      r0,[r5,#0]
        0x00005c8c:    e2800001    ....    ADD      r0,r0,#1
        0x00005c90:    e5850000    ....    STR      r0,[r5,#0]
        0x00005c94:    e5940000    ....    LDR      r0,[r4,#0]
        0x00005c98:    e5941004    ....    LDR      r1,[r4,#4]
        0x00005c9c:    e1500001    ..P.    CMP      r0,r1
        0x00005ca0:    1a000003    ....    BNE      0x5cb4 ; _uartTransmitChars + 140
        0x00005ca4:    e3a01002    ....    MOV      r1,#2
        0x00005ca8:    e1a00007    ....    MOV      r0,r7
        0x00005cac:    ebfffe1e    ....    BL       _uartDisableInterrupt ; 0x552c
        0x00005cb0:    e8bd80f8    ....    POP      {r3-r7,pc}
        0x00005cb4:    e59d0000    ....    LDR      r0,[sp,#0]
        0x00005cb8:    e2800001    ....    ADD      r0,r0,#1
        0x00005cbc:    e58d0000    ....    STR      r0,[sp,#0]
        0x00005cc0:    e59d0000    ....    LDR      r0,[sp,#0]
        0x00005cc4:    e3500008    ..P.    CMP      r0,#8
        0x00005cc8:    3affffe6    ...:    BCC      0x5c68 ; _uartTransmitChars + 64
        0x00005ccc:    e8bd80f8    ....    POP      {r3-r7,pc}
    $d
        0x00005cd0:    0006410c    .A..    DCD    409868
        0x00005cd4:    00009fc8    ....    DCD    40904
    $a
    i._uartTxBufGetNextOne
    _uartTxBufGetNextOne
        0x00005cd8:    e59f201c    . ..    LDR      r2,[pc,#28] ; [0x5cfc] = 0xa584
        0x00005cdc:    e7920100    ....    LDR      r0,[r2,r0,LSL #2]
        0x00005ce0:    e2812001    . ..    ADD      r2,r1,#1
        0x00005ce4:    e1500002    ..P.    CMP      r0,r2
        0x00005ce8:    1a000001    ....    BNE      0x5cf4 ; _uartTxBufGetNextOne + 28
        0x00005cec:    e3a00000    ....    MOV      r0,#0
        0x00005cf0:    e12fff1e    ../.    BX       lr
        0x00005cf4:    e2810001    ....    ADD      r0,r1,#1
        0x00005cf8:    e12fff1e    ../.    BX       lr
    $d
        0x00005cfc:    0000a584    ....    DCD    42372
    $a
    i._uartWriteTxBuf
    _uartWriteTxBuf
        0x00005d00:    e92d41f0    .A-.    PUSH     {r4-r8,lr}
        0x00005d04:    e1a08000    ....    MOV      r8,r0
        0x00005d08:    e1a04001    .@..    MOV      r4,r1
        0x00005d0c:    e1a06002    .`..    MOV      r6,r2
        0x00005d10:    e1a07408    .t..    LSL      r7,r8,#8
        0x00005d14:    e59f109c    ....    LDR      r1,[pc,#156] ; [0x5db8] = 0x6410c
        0x00005d18:    e0880088    ....    ADD      r0,r8,r8,LSL #1
        0x00005d1c:    e0800188    ....    ADD      r0,r0,r8,LSL #3
        0x00005d20:    e0815100    .Q..    ADD      r5,r1,r0,LSL #2
        0x00005d24:    e5d5001c    ....    LDRB     r0,[r5,#0x1c]
        0x00005d28:    e3500001    ..P.    CMP      r0,#1
        0x00005d2c:    0a00000b    ....    BEQ      0x5d60 ; _uartWriteTxBuf + 96
        0x00005d30:    e3a00000    ....    MOV      r0,#0
        0x00005d34:    e59f3080    .0..    LDR      r3,[pc,#128] ; [0x5dbc] = 0x9fc8
        0x00005d38:    e287132e    ....    ADD      r1,r7,#0xb8000000
        0x00005d3c:    ea00001a    ....    B        0x5dac ; _uartWriteTxBuf + 172
        0x00005d40:    e4d40001    ....    LDRB     r0,[r4],#1
        0x00005d44:    e5951010    ....    LDR      r1,[r5,#0x10]
        0x00005d48:    e5952004    . ..    LDR      r2,[r5,#4]
        0x00005d4c:    e7c10002    ....    STRB     r0,[r1,r2]
        0x00005d50:    e5951004    ....    LDR      r1,[r5,#4]
        0x00005d54:    e1a00008    ....    MOV      r0,r8
        0x00005d58:    ebffffde    ....    BL       _uartTxBufGetNextOne ; 0x5cd8
        0x00005d5c:    e5850004    ....    STR      r0,[r5,#4]
        0x00005d60:    e2566001    .`V.    SUBS     r6,r6,#1
        0x00005d64:    2afffff5    ...*    BCS      0x5d40 ; _uartWriteTxBuf + 64
        0x00005d68:    e287032e    ....    ADD      r0,r7,#0xb8000000
        0x00005d6c:    e5900004    ....    LDR      r0,[r0,#4]
        0x00005d70:    e3100002    ....    TST      r0,#2
        0x00005d74:    1a00000e    ....    BNE      0x5db4 ; _uartWriteTxBuf + 180
        0x00005d78:    e1a00008    ....    MOV      r0,r8
        0x00005d7c:    e8bd41f0    .A..    POP      {r4-r8,lr}
        0x00005d80:    e3a01002    ....    MOV      r1,#2
        0x00005d84:    eafffdf3    ....    B        _uartEnableInterrupt ; 0x5558
        0x00005d88:    e5912018    . ..    LDR      r2,[r1,#0x18]
        0x00005d8c:    e3120201    ....    TST      r2,#0x10000000
        0x00005d90:    0afffffc    ....    BEQ      0x5d88 ; _uartWriteTxBuf + 136
        0x00005d94:    e4d42001    . ..    LDRB     r2,[r4],#1
        0x00005d98:    e5812000    . ..    STR      r2,[r1,#0]
        0x00005d9c:    e5932000    . ..    LDR      r2,[r3,#0]
        0x00005da0:    e2822001    . ..    ADD      r2,r2,#1
        0x00005da4:    e5832000    . ..    STR      r2,[r3,#0]
        0x00005da8:    e2800001    ....    ADD      r0,r0,#1
        0x00005dac:    e1500006    ..P.    CMP      r0,r6
        0x00005db0:    3afffff4    ...:    BCC      0x5d88 ; _uartWriteTxBuf + 136
        0x00005db4:    e8bd81f0    ....    POP      {r4-r8,pc}
    $d
        0x00005db8:    0006410c    .A..    DCD    409868
        0x00005dbc:    00009fc8    ....    DCD    40904
    $a
    i.adcOpen
    adcOpen
        0x00005dc0:    e3a00ffa    ....    MOV      r0,#0x3e8
        0x00005dc4:    e1a00000    ....    MOV      r0,r0
    i.adcOpen2
    adcOpen2
        0x00005dc8:    e92d4010    .@-.    PUSH     {r4,lr}
        0x00005dcc:    e3a02401    .$..    MOV      r2,#0x1000000
        0x00005dd0:    e3a0120b    ....    MOV      r1,#0xb0000000
        0x00005dd4:    e5812068    h ..    STR      r2,[r1,#0x68]
        0x00005dd8:    e3a02000    . ..    MOV      r2,#0
        0x00005ddc:    e5812068    h ..    STR      r2,[r1,#0x68]
        0x00005de0:    e59f1044    D...    LDR      r1,[pc,#68] ; [0x5e2c] = 0xbb8
        0x00005de4:    e1500001    ..P.    CMP      r0,r1
        0x00005de8:    9a000000    ....    BLS      0x5df0 ; adcOpen2 + 40
        0x00005dec:    e1a00001    ....    MOV      r0,r1
        0x00005df0:    e59f4038    8@..    LDR      r4,[pc,#56] ; [0x5e30] = 0xb000023c
        0x00005df4:    e3a02000    . ..    MOV      r2,#0
        0x00005df8:    e3e01000    ....    MVN      r1,#0
        0x00005dfc:    e1a00004    ....    MOV      r0,r4
        0x00005e00:    ebfff31e    ....    BL       REG_OPERATE ; 0x2a80
        0x00005e04:    e59f1028    (...    LDR      r1,[pc,#40] ; [0x5e34] = 0x631a0000
        0x00005e08:    e3a02001    . ..    MOV      r2,#1
        0x00005e0c:    e1a00004    ....    MOV      r0,r4
        0x00005e10:    ebfff31a    ....    BL       REG_OPERATE ; 0x2a80
        0x00005e14:    e3a01401    ....    MOV      r1,#0x1000000
        0x00005e18:    e3a02001    . ..    MOV      r2,#1
        0x00005e1c:    e1c409c1    ....    BIC      r0,r4,r1,ASR #19
        0x00005e20:    ebfff316    ....    BL       REG_OPERATE ; 0x2a80
        0x00005e24:    e3a00000    ....    MOV      r0,#0
        0x00005e28:    e8bd8010    ....    POP      {r4,pc}
    $d
        0x00005e2c:    00000bb8    ....    DCD    3000
        0x00005e30:    b000023c    <...    DCD    2952790588
        0x00005e34:    631a0000    ...c    DCD    1662648320
    $a
    i.basedata_ram_to_sdram
    basedata_ram_to_sdram
        0x00005e38:    e92d4070    p@-.    PUSH     {r4-r6,lr}
        0x00005e3c:    e59f4094    .@..    LDR      r4,[pc,#148] ; [0x5ed8] = 0xa084
        0x00005e40:    e5940000    ....    LDR      r0,[r4,#0]
        0x00005e44:    e1a0c000    ....    MOV      r12,r0
        0x00005e48:    e3a02000    . ..    MOV      r2,#0
        0x00005e4c:    e3a01000    ....    MOV      r1,#0
        0x00005e50:    e59f3084    .0..    LDR      r3,[pc,#132] ; [0x5edc] = 0x5bb
        0x00005e54:    e5d05000    .P..    LDRB     r5,[r0,#0]
        0x00005e58:    e0822005    . ..    ADD      r2,r2,r5
        0x00005e5c:    e2800001    ....    ADD      r0,r0,#1
        0x00005e60:    e2811001    ....    ADD      r1,r1,#1
        0x00005e64:    e3c11801    ....    BIC      r1,r1,#0x10000
        0x00005e68:    e1510003    ..Q.    CMP      r1,r3
        0x00005e6c:    3afffff8    ...:    BCC      0x5e54 ; basedata_ram_to_sdram + 28
        0x00005e70:    e28c0c05    ....    ADD      r0,r12,#0x500
        0x00005e74:    e28f1064    d...    ADR      r1,{pc}+0x6c ; 0x5ee0
        0x00005e78:    e28000bb    ....    ADD      r0,r0,#0xbb
        0x00005e7c:    faffe926    &...    BLX      __2sprintf ; 0x31c
        0x00005e80:    e59f6060    ``..    LDR      r6,[pc,#96] ; [0x5ee8] = 0x5c4
        0x00005e84:    e59f5060    `P..    LDR      r5,[pc,#96] ; [0x5eec] = 0xa014
        0x00005e88:    e5941000    ....    LDR      r1,[r4,#0]
        0x00005e8c:    e5950000    ....    LDR      r0,[r5,#0]
        0x00005e90:    e1a02006    . ..    MOV      r2,r6
        0x00005e94:    ebffea2e    ....    BL       __aeabi_memcpy ; 0x754
        0x00005e98:    e5950000    ....    LDR      r0,[r5,#0]
        0x00005e9c:    e5941000    ....    LDR      r1,[r4,#0]
        0x00005ea0:    e1a02006    . ..    MOV      r2,r6
        0x00005ea4:    e2800a05    ....    ADD      r0,r0,#0x5000
        0x00005ea8:    ebffea29    )...    BL       __aeabi_memcpy ; 0x754
        0x00005eac:    e5950000    ....    LDR      r0,[r5,#0]
        0x00005eb0:    e5941000    ....    LDR      r1,[r4,#0]
        0x00005eb4:    e1a02006    . ..    MOV      r2,r6
        0x00005eb8:    e2800801    ....    ADD      r0,r0,#0x10000
        0x00005ebc:    ebffea24    $...    BL       __aeabi_memcpy ; 0x754
        0x00005ec0:    e5950000    ....    LDR      r0,[r5,#0]
        0x00005ec4:    e5941000    ....    LDR      r1,[r4,#0]
        0x00005ec8:    e1a02006    . ..    MOV      r2,r6
        0x00005ecc:    e8bd4070    p@..    POP      {r4-r6,lr}
        0x00005ed0:    e2800a15    ....    ADD      r0,r0,#0x15000
        0x00005ed4:    eaffea1e    ....    B        __aeabi_memcpy ; 0x754
    $d
        0x00005ed8:    0000a084    ....    DCD    41092
        0x00005edc:    000005bb    ....    DCD    1467
        0x00005ee0:    58383025    %08X    DCD    1480077349
        0x00005ee4:    00000000    ....    DCD    0
        0x00005ee8:    000005c4    ....    DCD    1476
        0x00005eec:    0000a014    ....    DCD    40980
    $a
    i.board_nand_init
    board_nand_init
        0x00005ef0:    e92d4010    .@-.    PUSH     {r4,lr}
        0x00005ef4:    e3a0020b    ....    MOV      r0,#0xb0000000
        0x00005ef8:    e5901210    ....    LDR      r1,[r0,#0x210]
        0x00005efc:    e3811603    ....    ORR      r1,r1,#0x300000
        0x00005f00:    e5801210    ....    STR      r1,[r0,#0x210]
        0x00005f04:    e59f1078    x...    LDR      r1,[pc,#120] ; [0x5f84] = 0x55555555
        0x00005f08:    e5801080    ....    STR      r1,[r0,#0x80]
        0x00005f0c:    e59f1074    t...    LDR      r1,[pc,#116] ; [0x5f88] = 0x5055555
        0x00005f10:    e5801084    ....    STR      r1,[r0,#0x84]
        0x00005f14:    e3a03000    .0..    MOV      r3,#0
        0x00005f18:    e1a02003    . ..    MOV      r2,r3
        0x00005f1c:    e3a01a02    ....    MOV      r1,#0x2000
        0x00005f20:    e3a00080    ....    MOV      r0,#0x80
        0x00005f24:    ebffefdc    ....    BL       GPIO_OpenBit ; 0x1e9c
        0x00005f28:    e59f005c    \...    LDR      r0,[pc,#92] ; [0x5f8c] = 0xb000d800
        0x00005f2c:    e3a02001    . ..    MOV      r2,#1
        0x00005f30:    e3a01008    ....    MOV      r1,#8
        0x00005f34:    ebfff2d1    ....    BL       REG_OPERATE ; 0x2a80
        0x00005f38:    e59f0050    P...    LDR      r0,[pc,#80] ; [0x5f90] = 0x20305
        0x00005f3c:    e59f1050    P...    LDR      r1,[pc,#80] ; [0x5f94] = 0xb000d8a4
        0x00005f40:    e5810000    ....    STR      r0,[r1,#0]
        0x00005f44:    e1c10000    ....    BIC      r0,r1,r0
        0x00005f48:    e5901000    ....    LDR      r1,[r0,#0]
        0x00005f4c:    e3c11406    ....    BIC      r1,r1,#0x6000000
        0x00005f50:    e3811301    ....    ORR      r1,r1,#0x4000000
        0x00005f54:    e5801000    ....    STR      r1,[r0,#0]
        0x00005f58:    e3a01001    ....    MOV      r1,#1
        0x00005f5c:    e2802020      ..    ADD      r2,r0,#0x20
        0x00005f60:    e5821000    ....    STR      r1,[r2,#0]
        0x00005f64:    e5901000    ....    LDR      r1,[r0,#0]
        0x00005f68:    e3811001    ....    ORR      r1,r1,#1
        0x00005f6c:    e5801000    ....    STR      r1,[r0,#0]
        0x00005f70:    e5901000    ....    LDR      r1,[r0,#0]
        0x00005f74:    e3110001    ....    TST      r1,#1
        0x00005f78:    1afffffc    ....    BNE      0x5f70 ; board_nand_init + 128
        0x00005f7c:    e3a00000    ....    MOV      r0,#0
        0x00005f80:    e8bd8010    ....    POP      {r4,pc}
    $d
        0x00005f84:    55555555    UUUU    DCD    1431655765
        0x00005f88:    05055555    UU..    DCD    84235605
        0x00005f8c:    b000d800    ....    DCD    2952845312
        0x00005f90:    00020305    ....    DCD    131845
        0x00005f94:    b000d8a4    ....    DCD    2952845476
    $a
    i.check_io_state
    check_io_state
        0x00005f98:    e92d4070    p@-.    PUSH     {r4-r6,lr}
        0x00005f9c:    e1a06000    .`..    MOV      r6,r0
        0x00005fa0:    e3a04000    .@..    MOV      r4,#0
        0x00005fa4:    e3a05000    .P..    MOV      r5,#0
        0x00005fa8:    e3560000    ..V.    CMP      r6,#0
        0x00005fac:    0a000002    ....    BEQ      0x5fbc ; check_io_state + 36
        0x00005fb0:    e3560001    ..V.    CMP      r6,#1
        0x00005fb4:    1a00000b    ....    BNE      0x5fe8 ; check_io_state + 80
        0x00005fb8:    ea000005    ....    B        0x5fd4 ; check_io_state + 60
        0x00005fbc:    e3a01080    ....    MOV      r1,#0x80
        0x00005fc0:    e3a000c0    ....    MOV      r0,#0xc0
        0x00005fc4:    ebffefd4    ....    BL       GPIO_ReadBit ; 0x1f1c
        0x00005fc8:    e0800004    ....    ADD      r0,r0,r4
        0x00005fcc:    e20040ff    .@..    AND      r4,r0,#0xff
        0x00005fd0:    ea000004    ....    B        0x5fe8 ; check_io_state + 80
        0x00005fd4:    e3a01a01    ....    MOV      r1,#0x1000
        0x00005fd8:    e3a00040    @...    MOV      r0,#0x40
        0x00005fdc:    ebffefce    ....    BL       GPIO_ReadBit ; 0x1f1c
        0x00005fe0:    e0800004    ....    ADD      r0,r0,r4
        0x00005fe4:    e20040ff    .@..    AND      r4,r0,#0xff
        0x00005fe8:    e2850001    ....    ADD      r0,r5,#1
        0x00005fec:    e20050ff    .P..    AND      r5,r0,#0xff
        0x00005ff0:    e3550032    2.U.    CMP      r5,#0x32
        0x00005ff4:    3affffeb    ...:    BCC      0x5fa8 ; check_io_state + 16
        0x00005ff8:    e3540000    ..T.    CMP      r4,#0
        0x00005ffc:    0a000003    ....    BEQ      0x6010 ; check_io_state + 120
        0x00006000:    e3540032    2.T.    CMP      r4,#0x32
        0x00006004:    0a000003    ....    BEQ      0x6018 ; check_io_state + 128
        0x00006008:    e3a00002    ....    MOV      r0,#2
        0x0000600c:    e8bd8070    p...    POP      {r4-r6,pc}
        0x00006010:    e3a00000    ....    MOV      r0,#0
        0x00006014:    e8bd8070    p...    POP      {r4-r6,pc}
        0x00006018:    e3a00001    ....    MOV      r0,#1
        0x0000601c:    e8bd8070    p...    POP      {r4-r6,pc}
    i.check_tp_send
    check_tp_send
        0x00006020:    e92d47f0    .G-.    PUSH     {r4-r10,lr}
        0x00006024:    e59f42d0    .B..    LDR      r4,[pc,#720] ; [0x62fc] = 0xa034
        0x00006028:    e5d40004    ....    LDRB     r0,[r4,#4]
        0x0000602c:    e3500001    ..P.    CMP      r0,#1
        0x00006030:    0a000018    ....    BEQ      0x6098 ; check_tp_send + 120
        0x00006034:    e59f02c4    ....    LDR      r0,[pc,#708] ; [0x6300] = 0xcf70
        0x00006038:    e5d41001    ....    LDRB     r1,[r4,#1]
        0x0000603c:    e5d02000    . ..    LDRB     r2,[r0,#0]
        0x00006040:    e3510000    ..Q.    CMP      r1,#0
        0x00006044:    0a000007    ....    BEQ      0x6068 ; check_tp_send + 72
        0x00006048:    e5d40000    ....    LDRB     r0,[r4,#0]
        0x0000604c:    e2800001    ....    ADD      r0,r0,#1
        0x00006050:    e20000ff    ....    AND      r0,r0,#0xff
        0x00006054:    e5c40000    ....    STRB     r0,[r4,#0]
        0x00006058:    e1520000    ..R.    CMP      r2,r0
        0x0000605c:    8a000001    ....    BHI      0x6068 ; check_tp_send + 72
        0x00006060:    e2820001    ....    ADD      r0,r2,#1
        0x00006064:    e5c40000    ....    STRB     r0,[r4,#0]
        0x00006068:    e3a06000    .`..    MOV      r6,#0
        0x0000606c:    e5c46005    .`..    STRB     r6,[r4,#5]
        0x00006070:    e5c46006    .`..    STRB     r6,[r4,#6]
        0x00006074:    e5c46007    .`..    STRB     r6,[r4,#7]
        0x00006078:    e59f8284    ....    LDR      r8,[pc,#644] ; [0x6304] = 0x1d3cc
        0x0000607c:    e2485f79    y_H.    SUB      r5,r8,#0x1e4
        0x00006080:    e5d43007    .0..    LDRB     r3,[r4,#7]
        0x00006084:    e0850203    ....    ADD      r0,r5,r3,LSL #4
        0x00006088:    e1d010b0    ....    LDRH     r1,[r0,#0]
        0x0000608c:    e3510000    ..Q.    CMP      r1,#0
        0x00006090:    0a000003    ....    BEQ      0x60a4 ; check_tp_send + 132
        0x00006094:    ea000017    ....    B        0x60f8 ; check_tp_send + 216
        0x00006098:    e8bd47f0    .G..    POP      {r4-r10,lr}
        0x0000609c:    e3a00002    ....    MOV      r0,#2
        0x000060a0:    ea0004a4    ....    B        set_touchint ; 0x7338
        0x000060a4:    e5901008    ....    LDR      r1,[r0,#8]
        0x000060a8:    e3510002    ..Q.    CMP      r1,#2
        0x000060ac:    aa000011    ....    BGE      0x60f8 ; check_tp_send + 216
        0x000060b0:    e5d0c00c    ....    LDRB     r12,[r0,#0xc]
        0x000060b4:    e35c0001    ..\.    CMP      r12,#1
        0x000060b8:    1a00000e    ....    BNE      0x60f8 ; check_tp_send + 216
        0x000060bc:    e281c001    ....    ADD      r12,r1,#1
        0x000060c0:    e580c008    ....    STR      r12,[r0,#8]
        0x000060c4:    e5d47005    .p..    LDRB     r7,[r4,#5]
        0x000060c8:    e3a09052    R...    MOV      r9,#0x52
        0x000060cc:    e0881187    ....    ADD      r1,r8,r7,LSL #3
        0x000060d0:    e5819004    ....    STR      r9,[r1,#4]
        0x000060d4:    e1d090b2    ....    LDRH     r9,[r0,#2]
        0x000060d8:    e1c190b0    ....    STRH     r9,[r1,#0]
        0x000060dc:    e1d090b4    ....    LDRH     r9,[r0,#4]
        0x000060e0:    e1c190b2    ....    STRH     r9,[r1,#2]
        0x000060e4:    e2871001    ....    ADD      r1,r7,#1
        0x000060e8:    e5c41005    ....    STRB     r1,[r4,#5]
        0x000060ec:    e35c0002    ..\.    CMP      r12,#2
        0x000060f0:    1a000000    ....    BNE      0x60f8 ; check_tp_send + 216
        0x000060f4:    e5c0600c    .`..    STRB     r6,[r0,#0xc]
        0x000060f8:    e2830001    ....    ADD      r0,r3,#1
        0x000060fc:    e20000ff    ....    AND      r0,r0,#0xff
        0x00006100:    e5c40007    ....    STRB     r0,[r4,#7]
        0x00006104:    e350000a    ..P.    CMP      r0,#0xa
        0x00006108:    3affffdc    ...:    BCC      0x6080 ; check_tp_send + 96
        0x0000610c:    e5d40005    ....    LDRB     r0,[r4,#5]
        0x00006110:    e3500003    ..P.    CMP      r0,#3
        0x00006114:    0a000008    ....    BEQ      0x613c ; check_tp_send + 284
        0x00006118:    e5c46007    .`..    STRB     r6,[r4,#7]
        0x0000611c:    e5d43007    .0..    LDRB     r3,[r4,#7]
        0x00006120:    e0850203    ....    ADD      r0,r5,r3,LSL #4
        0x00006124:    e1d010f0    ....    LDRSH    r1,[r0,#0]
        0x00006128:    e3510001    ..Q.    CMP      r1,#1
        0x0000612c:    0a000005    ....    BEQ      0x6148 ; check_tp_send + 296
        0x00006130:    e3510002    ..Q.    CMP      r1,#2
        0x00006134:    0a000003    ....    BEQ      0x6148 ; check_tp_send + 296
        0x00006138:    ea000014    ....    B        0x6190 ; check_tp_send + 368
        0x0000613c:    e3a000ff    ....    MOV      r0,#0xff
        0x00006140:    e5c40007    ....    STRB     r0,[r4,#7]
        0x00006144:    ea000016    ....    B        0x61a4 ; check_tp_send + 388
        0x00006148:    e5806008    .`..    STR      r6,[r0,#8]
        0x0000614c:    e5d4c005    ....    LDRB     r12,[r4,#5]
        0x00006150:    e3a07054    Tp..    MOV      r7,#0x54
        0x00006154:    e088118c    ....    ADD      r1,r8,r12,LSL #3
        0x00006158:    e5817004    .p..    STR      r7,[r1,#4]
        0x0000615c:    e1d070b2    .p..    LDRH     r7,[r0,#2]
        0x00006160:    e1c170b0    .p..    STRH     r7,[r1,#0]
        0x00006164:    e1d070b4    .p..    LDRH     r7,[r0,#4]
        0x00006168:    e1c170b2    .p..    STRH     r7,[r1,#2]
        0x0000616c:    e28c1001    ....    ADD      r1,r12,#1
        0x00006170:    e20110ff    ....    AND      r1,r1,#0xff
        0x00006174:    e5c41005    ....    STRB     r1,[r4,#5]
        0x00006178:    e3a0c002    ....    MOV      r12,#2
        0x0000617c:    e1c0c0b0    ....    STRH     r12,[r0,#0]
        0x00006180:    e3a0c001    ....    MOV      r12,#1
        0x00006184:    e5c0c00c    ....    STRB     r12,[r0,#0xc]
        0x00006188:    e3510003    ..Q.    CMP      r1,#3
        0x0000618c:    2a000004    ...*    BCS      0x61a4 ; check_tp_send + 388
        0x00006190:    e2830001    ....    ADD      r0,r3,#1
        0x00006194:    e20000ff    ....    AND      r0,r0,#0xff
        0x00006198:    e5c40007    ....    STRB     r0,[r4,#7]
        0x0000619c:    e350000a    ..P.    CMP      r0,#0xa
        0x000061a0:    3affffdd    ...:    BCC      0x611c ; check_tp_send + 252
        0x000061a4:    e5d40007    ....    LDRB     r0,[r4,#7]
        0x000061a8:    e2800001    ....    ADD      r0,r0,#1
        0x000061ac:    e5c40007    ....    STRB     r0,[r4,#7]
        0x000061b0:    e3a0c003    ....    MOV      r12,#3
        0x000061b4:    ea00000a    ....    B        0x61e4 ; check_tp_send + 452
        0x000061b8:    e0850201    ....    ADD      r0,r5,r1,LSL #4
        0x000061bc:    e1d030f0    .0..    LDRSH    r3,[r0,#0]
        0x000061c0:    e3530001    ..S.    CMP      r3,#1
        0x000061c4:    0a000001    ....    BEQ      0x61d0 ; check_tp_send + 432
        0x000061c8:    e3530002    ..S.    CMP      r3,#2
        0x000061cc:    1a000002    ....    BNE      0x61dc ; check_tp_send + 444
        0x000061d0:    e5806008    .`..    STR      r6,[r0,#8]
        0x000061d4:    e1c0c0b0    ....    STRH     r12,[r0,#0]
        0x000061d8:    e5c0600c    .`..    STRB     r6,[r0,#0xc]
        0x000061dc:    e2810001    ....    ADD      r0,r1,#1
        0x000061e0:    e5c40007    ....    STRB     r0,[r4,#7]
        0x000061e4:    e5d41007    ....    LDRB     r1,[r4,#7]
        0x000061e8:    e351000a    ..Q.    CMP      r1,#0xa
        0x000061ec:    3afffff1    ...:    BCC      0x61b8 ; check_tp_send + 408
        0x000061f0:    e5d41005    ....    LDRB     r1,[r4,#5]
        0x000061f4:    e3510000    ..Q.    CMP      r1,#0
        0x000061f8:    0a00003a    :...    BEQ      0x62e8 ; check_tp_send + 712
        0x000061fc:    e5d40000    ....    LDRB     r0,[r4,#0]
        0x00006200:    e1520000    ..R.    CMP      r2,r0
        0x00006204:    8a000001    ....    BHI      0x6210 ; check_tp_send + 496
        0x00006208:    e59f00f4    ....    LDR      r0,[pc,#244] ; [0x6304] = 0x1d3cc
        0x0000620c:    eb0003f9    ....    BL       send_tcp_xy_mul ; 0x71f8
        0x00006210:    e5c46007    .`..    STRB     r6,[r4,#7]
        0x00006214:    e59f70ec    .p..    LDR      r7,[pc,#236] ; [0x6308] = 0x1d44c
        0x00006218:    e5d4c007    ....    LDRB     r12,[r4,#7]
        0x0000621c:    e085020c    ....    ADD      r0,r5,r12,LSL #4
        0x00006220:    e5d0200c    . ..    LDRB     r2,[r0,#0xc]
        0x00006224:    e3520001    ..R.    CMP      r2,#1
        0x00006228:    1a00000c    ....    BNE      0x6260 ; check_tp_send + 576
        0x0000622c:    e5d43006    .0..    LDRB     r3,[r4,#6]
        0x00006230:    e5908008    ....    LDR      r8,[r0,#8]
        0x00006234:    e0871203    ....    ADD      r1,r7,r3,LSL #4
        0x00006238:    e5818008    ....    STR      r8,[r1,#8]
        0x0000623c:    e1d080b0    ....    LDRH     r8,[r0,#0]
        0x00006240:    e1c180b0    ....    STRH     r8,[r1,#0]
        0x00006244:    e5c1200c    . ..    STRB     r2,[r1,#0xc]
        0x00006248:    e1d020b2    . ..    LDRH     r2,[r0,#2]
        0x0000624c:    e1c120b2    . ..    STRH     r2,[r1,#2]
        0x00006250:    e1d000b4    ....    LDRH     r0,[r0,#4]
        0x00006254:    e1c100b4    ....    STRH     r0,[r1,#4]
        0x00006258:    e2830001    ....    ADD      r0,r3,#1
        0x0000625c:    e5c40006    ....    STRB     r0,[r4,#6]
        0x00006260:    e28c0001    ....    ADD      r0,r12,#1
        0x00006264:    e20000ff    ....    AND      r0,r0,#0xff
        0x00006268:    e5c40007    ....    STRB     r0,[r4,#7]
        0x0000626c:    e350000a    ..P.    CMP      r0,#0xa
        0x00006270:    3affffe8    ...:    BCC      0x6218 ; check_tp_send + 504
        0x00006274:    e5c46007    .`..    STRB     r6,[r4,#7]
        0x00006278:    e5d4c007    ....    LDRB     r12,[r4,#7]
        0x0000627c:    e085020c    ....    ADD      r0,r5,r12,LSL #4
        0x00006280:    e5d0200c    . ..    LDRB     r2,[r0,#0xc]
        0x00006284:    e3520000    ..R.    CMP      r2,#0
        0x00006288:    1a00000c    ....    BNE      0x62c0 ; check_tp_send + 672
        0x0000628c:    e5d43006    .0..    LDRB     r3,[r4,#6]
        0x00006290:    e5906008    .`..    LDR      r6,[r0,#8]
        0x00006294:    e0871203    ....    ADD      r1,r7,r3,LSL #4
        0x00006298:    e5816008    .`..    STR      r6,[r1,#8]
        0x0000629c:    e1d060b0    .`..    LDRH     r6,[r0,#0]
        0x000062a0:    e1c160b0    .`..    STRH     r6,[r1,#0]
        0x000062a4:    e5c1200c    . ..    STRB     r2,[r1,#0xc]
        0x000062a8:    e1d020b2    . ..    LDRH     r2,[r0,#2]
        0x000062ac:    e1c120b2    . ..    STRH     r2,[r1,#2]
        0x000062b0:    e1d000b4    ....    LDRH     r0,[r0,#4]
        0x000062b4:    e1c100b4    ....    STRH     r0,[r1,#4]
        0x000062b8:    e2830001    ....    ADD      r0,r3,#1
        0x000062bc:    e5c40006    ....    STRB     r0,[r4,#6]
        0x000062c0:    e28c0001    ....    ADD      r0,r12,#1
        0x000062c4:    e20000ff    ....    AND      r0,r0,#0xff
        0x000062c8:    e5c40007    ....    STRB     r0,[r4,#7]
        0x000062cc:    e350000a    ..P.    CMP      r0,#0xa
        0x000062d0:    3affffe8    ...:    BCC      0x6278 ; check_tp_send + 600
        0x000062d4:    e8bd47f0    .G..    POP      {r4-r10,lr}
        0x000062d8:    e59f1028    (...    LDR      r1,[pc,#40] ; [0x6308] = 0x1d44c
        0x000062dc:    e3a020a0    . ..    MOV      r2,#0xa0
        0x000062e0:    e2410f99    ..A.    SUB      r0,r1,#0x264
        0x000062e4:    eaffe94f    O...    B        __aeabi_memcpy4 ; 0x828
        0x000062e8:    ebfffa0d    ....    BL       Touch_tim_stop ; 0x4b24
        0x000062ec:    e5c46000    .`..    STRB     r6,[r4,#0]
        0x000062f0:    e5c46001    .`..    STRB     r6,[r4,#1]
        0x000062f4:    e5c46003    .`..    STRB     r6,[r4,#3]
        0x000062f8:    e8bd87f0    ....    POP      {r4-r10,pc}
    $d
        0x000062fc:    0000a034    4...    DCD    41012
        0x00006300:    0000cf70    p...    DCD    53104
        0x00006304:    0001d3cc    ....    DCD    119756
        0x00006308:    0001d44c    L...    DCD    119884
    $a
    i.delay_ms
    delay_ms
        0x0000630c:    e3500000    ..P.    CMP      r0,#0
        0x00006310:    0a000007    ....    BEQ      0x6334 ; delay_ms + 40
        0x00006314:    e59f201c    . ..    LDR      r2,[pc,#28] ; [0x6338] = 0xc350
        0x00006318:    e1a01002    ....    MOV      r1,r2
        0x0000631c:    e2411001    ..A.    SUB      r1,r1,#1
        0x00006320:    e3510000    ..Q.    CMP      r1,#0
        0x00006324:    1afffffc    ....    BNE      0x631c ; delay_ms + 16
        0x00006328:    e2400001    ..@.    SUB      r0,r0,#1
        0x0000632c:    e3500000    ..P.    CMP      r0,#0
        0x00006330:    1afffff8    ....    BNE      0x6318 ; delay_ms + 12
        0x00006334:    e12fff1e    ../.    BX       lr
    $d
        0x00006338:    0000c350    P...    DCD    50000
    $a
    i.delay_us
    delay_us
        0x0000633c:    e92d4008    .@-.    PUSH     {r3,lr}
        0x00006340:    e3a01f4b    K...    MOV      r1,#0x12c
        0x00006344:    e0000091    ....    MUL      r0,r1,r0
        0x00006348:    e58d0000    ....    STR      r0,[sp,#0]
        0x0000634c:    ea000002    ....    B        0x635c ; delay_us + 32
        0x00006350:    e59d0000    ....    LDR      r0,[sp,#0]
        0x00006354:    e2400001    ..@.    SUB      r0,r0,#1
        0x00006358:    e58d0000    ....    STR      r0,[sp,#0]
        0x0000635c:    e59d0000    ....    LDR      r0,[sp,#0]
        0x00006360:    e3500000    ..P.    CMP      r0,#0
        0x00006364:    cafffff9    ....    BGT      0x6350 ; delay_us + 20
        0x00006368:    e8bd8008    ....    POP      {r3,pc}
    i.display_init
    display_init
        0x0000636c:    e92d407c    |@-.    PUSH     {r2-r6,lr}
        0x00006370:    e3a0020b    ....    MOV      r0,#0xb0000000
        0x00006374:    e59010a0    ....    LDR      r1,[r0,#0xa0]
        0x00006378:    e3c114ff    ....    BIC      r1,r1,#0xff000000
        0x0000637c:    e3811422    "...    ORR      r1,r1,#0x22000000
        0x00006380:    e58010a0    ....    STR      r1,[r0,#0xa0]
        0x00006384:    e59010a4    ....    LDR      r1,[r0,#0xa4]
        0x00006388:    e3c110ff    ....    BIC      r1,r1,#0xff
        0x0000638c:    e3811022    "...    ORR      r1,r1,#0x22
        0x00006390:    e58010a4    ....    STR      r1,[r0,#0xa4]
        0x00006394:    e59f1158    X...    LDR      r1,[pc,#344] ; [0x64f4] = 0x22222222
        0x00006398:    e5801070    p...    STR      r1,[r0,#0x70]
        0x0000639c:    e5801074    t...    STR      r1,[r0,#0x74]
        0x000063a0:    e580108c    ....    STR      r1,[r0,#0x8c]
        0x000063a4:    e5901224    $...    LDR      r1,[r0,#0x224]
        0x000063a8:    e3c11cff    ....    BIC      r1,r1,#0xff00
        0x000063ac:    e3c1101f    ....    BIC      r1,r1,#0x1f
        0x000063b0:    e3811b02    ....    ORR      r1,r1,#0x800
        0x000063b4:    e3811f46    F...    ORR      r1,r1,#0x118
        0x000063b8:    e5801224    $...    STR      r1,[r0,#0x224]
        0x000063bc:    e3a00000    ....    MOV      r0,#0
        0x000063c0:    eb000e20     ...    BL       vpostLCMInit ; 0x9c48
        0x000063c4:    e3a00000    ....    MOV      r0,#0
        0x000063c8:    e1a03000    .0..    MOV      r3,r0
        0x000063cc:    e3a02001    . ..    MOV      r2,#1
        0x000063d0:    e1a01000    ....    MOV      r1,r0
        0x000063d4:    e58d0000    ....    STR      r0,[sp,#0]
        0x000063d8:    e1a00002    ....    MOV      r0,r2
        0x000063dc:    eb000e85    ....    BL       vpostVAScalingCtrl ; 0x9df8
        0x000063e0:    e3a00b01    ....    MOV      r0,#0x400
        0x000063e4:    eb000e43    C...    BL       vpostSetVASrc ; 0x9cf8
        0x000063e8:    eb000de9    ....    BL       vpostGetFrameBuffer ; 0x9b94
        0x000063ec:    e59f4104    .A..    LDR      r4,[pc,#260] ; [0x64f8] = 0xcfc0
        0x000063f0:    e5840000    ....    STR      r0,[r4,#0]
        0x000063f4:    e59f5100    .Q..    LDR      r5,[pc,#256] ; [0x64fc] = 0xbb840
        0x000063f8:    e1a00005    ....    MOV      r0,r5
        0x000063fc:    faffe798    ....    BLX      _maybe_terminate_alloc ; 0x264
        0x00006400:    e5840004    ....    STR      r0,[r4,#4]
        0x00006404:    e3a01020     ...    MOV      r1,#0x20
        0x00006408:    eb0003d5    ....    BL       shift_pointer ; 0x7364
        0x0000640c:    e2800020     ...    ADD      r0,r0,#0x20
        0x00006410:    e5840004    ....    STR      r0,[r4,#4]
        0x00006414:    e1a00005    ....    MOV      r0,r5
        0x00006418:    faffe791    ....    BLX      _maybe_terminate_alloc ; 0x264
        0x0000641c:    e5840008    ....    STR      r0,[r4,#8]
        0x00006420:    e3a01020     ...    MOV      r1,#0x20
        0x00006424:    eb0003ce    ....    BL       shift_pointer ; 0x7364
        0x00006428:    e2800020     ...    ADD      r0,r0,#0x20
        0x0000642c:    e5840008    ....    STR      r0,[r4,#8]
        0x00006430:    e1a00005    ....    MOV      r0,r5
        0x00006434:    faffe78a    ....    BLX      _maybe_terminate_alloc ; 0x264
        0x00006438:    e584000c    ....    STR      r0,[r4,#0xc]
        0x0000643c:    e3a01020     ...    MOV      r1,#0x20
        0x00006440:    eb0003c7    ....    BL       shift_pointer ; 0x7364
        0x00006444:    e2800020     ...    ADD      r0,r0,#0x20
        0x00006448:    e584000c    ....    STR      r0,[r4,#0xc]
        0x0000644c:    e1a00005    ....    MOV      r0,r5
        0x00006450:    faffe783    ....    BLX      _maybe_terminate_alloc ; 0x264
        0x00006454:    e5840010    ....    STR      r0,[r4,#0x10]
        0x00006458:    e3a01020     ...    MOV      r1,#0x20
        0x0000645c:    eb0003c0    ....    BL       shift_pointer ; 0x7364
        0x00006460:    e2801020     ...    ADD      r1,r0,#0x20
        0x00006464:    e5940000    ....    LDR      r0,[r4,#0]
        0x00006468:    e3800102    ....    ORR      r0,r0,#0x80000000
        0x0000646c:    e5840000    ....    STR      r0,[r4,#0]
        0x00006470:    e5940004    ....    LDR      r0,[r4,#4]
        0x00006474:    e3800102    ....    ORR      r0,r0,#0x80000000
        0x00006478:    e5840004    ....    STR      r0,[r4,#4]
        0x0000647c:    e5942008    . ..    LDR      r2,[r4,#8]
        0x00006480:    e3822102    .!..    ORR      r2,r2,#0x80000000
        0x00006484:    e5842008    . ..    STR      r2,[r4,#8]
        0x00006488:    e594200c    . ..    LDR      r2,[r4,#0xc]
        0x0000648c:    e3822102    .!..    ORR      r2,r2,#0x80000000
        0x00006490:    e584200c    . ..    STR      r2,[r4,#0xc]
        0x00006494:    e3811102    ....    ORR      r1,r1,#0x80000000
        0x00006498:    e5841010    ....    STR      r1,[r4,#0x10]
        0x0000649c:    e2455040    @PE.    SUB      r5,r5,#0x40
        0x000064a0:    e1a01005    ....    MOV      r1,r5
        0x000064a4:    ebffe8fc    ....    BL       __aeabi_memclr ; 0x89c
        0x000064a8:    e5940008    ....    LDR      r0,[r4,#8]
        0x000064ac:    e1a01005    ....    MOV      r1,r5
        0x000064b0:    ebffe8f9    ....    BL       __aeabi_memclr ; 0x89c
        0x000064b4:    e594000c    ....    LDR      r0,[r4,#0xc]
        0x000064b8:    e1a01005    ....    MOV      r1,r5
        0x000064bc:    ebffe8f6    ....    BL       __aeabi_memclr ; 0x89c
        0x000064c0:    e5940010    ....    LDR      r0,[r4,#0x10]
        0x000064c4:    e1a01005    ....    MOV      r1,r5
        0x000064c8:    ebffe8f3    ....    BL       __aeabi_memclr ; 0x89c
        0x000064cc:    eb000e56    V...    BL       vpostVAStartTrigger ; 0x9e2c
        0x000064d0:    e5940004    ....    LDR      r0,[r4,#4]
        0x000064d4:    e5941000    ....    LDR      r1,[r4,#0]
        0x000064d8:    e1cd00f0    ....    STRD     r0,r1,[sp,#0]
        0x000064dc:    e3a01000    ....    MOV      r1,#0
        0x000064e0:    e3a03e1e    .>..    MOV      r3,#0x1e0
        0x000064e4:    e3a02e32    2...    MOV      r2,#0x320
        0x000064e8:    e1a00001    ....    MOV      r0,r1
        0x000064ec:    eb000039    9...    BL       ge2dSpriteBlt_Screen ; 0x65d8
        0x000064f0:    e8bd807c    |...    POP      {r2-r6,pc}
    $d
        0x000064f4:    22222222    """"    DCD    572662306
        0x000064f8:    0000cfc0    ....    DCD    53184
        0x000064fc:    000bb840    @...    DCD    768064
    $a
    i.download_gpio_set_input
    download_gpio_set_input
        0x00006500:    e92d4010    .@-.    PUSH     {r4,lr}
        0x00006504:    e3a01a06    ....    MOV      r1,#0x6000
        0x00006508:    e3a00d05    ....    MOV      r0,#0x140
        0x0000650c:    ebffedd7    ....    BL       GPIO_CloseBit ; 0x1c70
        0x00006510:    e59f0020     ...    LDR      r0,[pc,#32] ; [0x6538] = 0xb000009c
        0x00006514:    e3a02000    . ..    MOV      r2,#0
        0x00006518:    e3a016ff    ....    MOV      r1,#0xff00000
        0x0000651c:    ebfff157    W...    BL       REG_OPERATE ; 0x2a80
        0x00006520:    e8bd4010    .@..    POP      {r4,lr}
        0x00006524:    e3a03001    .0..    MOV      r3,#1
        0x00006528:    e3a02000    . ..    MOV      r2,#0
        0x0000652c:    e3a01a06    ....    MOV      r1,#0x6000
        0x00006530:    e3a00d05    ....    MOV      r0,#0x140
        0x00006534:    eaffee58    X...    B        GPIO_OpenBit ; 0x1e9c
    $d
        0x00006538:    b000009c    ....    DCD    2952790172
    $a
    i.field_info_save
    field_info_save
        0x0000653c:    e92d41f0    .A-.    PUSH     {r4-r8,lr}
        0x00006540:    e3a04000    .@..    MOV      r4,#0
        0x00006544:    e59f607c    |`..    LDR      r6,[pc,#124] ; [0x65c8] = 0x1e7e0
        0x00006548:    e59f707c    |p..    LDR      r7,[pc,#124] ; [0x65cc] = 0xa084
        0x0000654c:    e3a01003    ....    MOV      r1,#3
        0x00006550:    e1a00004    ....    MOV      r0,r4
        0x00006554:    ebffea1e    ....    BL       __aeabi_uidiv ; 0xdd4
        0x00006558:    e3510000    ..Q.    CMP      r1,#0
        0x0000655c:    0a000004    ....    BEQ      0x6574 ; field_info_save + 56
        0x00006560:    e3510001    ..Q.    CMP      r1,#1
        0x00006564:    0a000005    ....    BEQ      0x6580 ; field_info_save + 68
        0x00006568:    e3510002    ..Q.    CMP      r1,#2
        0x0000656c:    1a00000a    ....    BNE      0x659c ; field_info_save + 96
        0x00006570:    ea000006    ....    B        0x6590 ; field_info_save + 84
        0x00006574:    e0800080    ....    ADD      r0,r0,r0,LSL #1
        0x00006578:    e7965100    .Q..    LDR      r5,[r6,r0,LSL #2]
        0x0000657c:    ea000006    ....    B        0x659c ; field_info_save + 96
        0x00006580:    e0800080    ....    ADD      r0,r0,r0,LSL #1
        0x00006584:    e0860100    ....    ADD      r0,r6,r0,LSL #2
        0x00006588:    e5905004    .P..    LDR      r5,[r0,#4]
        0x0000658c:    ea000002    ....    B        0x659c ; field_info_save + 96
        0x00006590:    e0800080    ....    ADD      r0,r0,r0,LSL #1
        0x00006594:    e0860100    ....    ADD      r0,r6,r0,LSL #2
        0x00006598:    e5905008    .P..    LDR      r5,[r0,#8]
        0x0000659c:    e5971000    ....    LDR      r1,[r7,#0]
        0x000065a0:    e2840070    p...    ADD      r0,r4,#0x70
        0x000065a4:    e0800180    ....    ADD      r0,r0,r0,LSL #3
        0x000065a8:    e0800001    ....    ADD      r0,r0,r1
        0x000065ac:    e1a02005    . ..    MOV      r2,r5
        0x000065b0:    e28f1018    ....    ADR      r1,{pc}+0x20 ; 0x65d0
        0x000065b4:    faffe758    X...    BLX      __2sprintf ; 0x31c
        0x000065b8:    e2844001    .@..    ADD      r4,r4,#1
        0x000065bc:    e3540030    0.T.    CMP      r4,#0x30
        0x000065c0:    3affffe1    ...:    BCC      0x654c ; field_info_save + 16
        0x000065c4:    e8bd81f0    ....    POP      {r4-r8,pc}
    $d
        0x000065c8:    0001e7e0    ....    DCD    124896
        0x000065cc:    0000a084    ....    DCD    41092
        0x000065d0:    58383025    %08X    DCD    1480077349
        0x000065d4:    00000000    ....    DCD    0
    $a
    i.ge2dSpriteBlt_Screen
    ge2dSpriteBlt_Screen
        0x000065d8:    e92d5ff0    ._-.    PUSH     {r4-r12,lr}
        0x000065dc:    e59d9028    (...    LDR      r9,[sp,#0x28]
        0x000065e0:    e59da02c    ,...    LDR      r10,[sp,#0x2c]
        0x000065e4:    e1a06000    .`..    MOV      r6,r0
        0x000065e8:    e1a05001    .P..    MOV      r5,r1
        0x000065ec:    e1a0b002    ....    MOV      r11,r2
        0x000065f0:    e59f007c    |...    LDR      r0,[pc,#124] ; [0x6674] = 0xa520
        0x000065f4:    e1a0708b    .p..    LSL      r7,r11,#1
        0x000065f8:    e5d00000    ....    LDRB     r0,[r0,#0]
        0x000065fc:    e0858003    ....    ADD      r8,r5,r3
        0x00006600:    e3500000    ..P.    CMP      r0,#0
        0x00006604:    1a000017    ....    BNE      0x6668 ; ge2dSpriteBlt_Screen + 144
        0x00006608:    e1a04005    .@..    MOV      r4,r5
        0x0000660c:    ea000009    ....    B        0x6638 ; ge2dSpriteBlt_Screen + 96
        0x00006610:    e0441005    ..D.    SUB      r1,r4,r5
        0x00006614:    e0840184    ....    ADD      r0,r4,r4,LSL #3
        0x00006618:    e001019b    ....    MUL      r1,r11,r1
        0x0000661c:    e0800204    ....    ADD      r0,r0,r4,LSL #4
        0x00006620:    e08a0300    ....    ADD      r0,r10,r0,LSL #6
        0x00006624:    e0800086    ....    ADD      r0,r0,r6,LSL #1
        0x00006628:    e1a02007    . ..    MOV      r2,r7
        0x0000662c:    e0891081    ....    ADD      r1,r9,r1,LSL #1
        0x00006630:    ebffe847    G...    BL       __aeabi_memcpy ; 0x754
        0x00006634:    e2844001    .@..    ADD      r4,r4,#1
        0x00006638:    e1580004    ..X.    CMP      r8,r4
        0x0000663c:    8afffff3    ....    BHI      0x6610 ; ge2dSpriteBlt_Screen + 56
        0x00006640:    e8bd9ff0    ....    POP      {r4-r12,pc}
        0x00006644:    e0850185    ....    ADD      r0,r5,r5,LSL #3
        0x00006648:    e0800205    ....    ADD      r0,r0,r5,LSL #4
        0x0000664c:    e0891300    ....    ADD      r1,r9,r0,LSL #6
        0x00006650:    e08a0300    ....    ADD      r0,r10,r0,LSL #6
        0x00006654:    e0811086    ....    ADD      r1,r1,r6,LSL #1
        0x00006658:    e0800086    ....    ADD      r0,r0,r6,LSL #1
        0x0000665c:    e1a02007    . ..    MOV      r2,r7
        0x00006660:    ebffe83b    ;...    BL       __aeabi_memcpy ; 0x754
        0x00006664:    e2855001    .P..    ADD      r5,r5,#1
        0x00006668:    e1580005    ..X.    CMP      r8,r5
        0x0000666c:    8afffff4    ....    BHI      0x6644 ; ge2dSpriteBlt_Screen + 108
        0x00006670:    e8bd9ff0    ....    POP      {r4-r12,pc}
    $d
        0x00006674:    0000a520     ...    DCD    42272
    $a
    i.get_bad_block
    get_bad_block
        0x00006678:    e59f0004    ....    LDR      r0,[pc,#4] ; [0x6684] = 0x1d55c
        0x0000667c:    e5d0000c    ....    LDRB     r0,[r0,#0xc]
        0x00006680:    e12fff1e    ../.    BX       lr
    $d
        0x00006684:    0001d55c    \...    DCD    120156
    $a
    i.get_main_pwr_ad_value
    get_main_pwr_ad_value
        0x00006688:    e92d4070    p@-.    PUSH     {r4-r6,lr}
        0x0000668c:    e59f50b8    .P..    LDR      r5,[pc,#184] ; [0x674c] = 0xa1a4
        0x00006690:    e3a00000    ....    MOV      r0,#0
        0x00006694:    e5c50003    ....    STRB     r0,[r5,#3]
        0x00006698:    e59f40b0    .@..    LDR      r4,[pc,#176] ; [0x6750] = 0xb800a000
        0x0000669c:    e3a06001    .`..    MOV      r6,#1
        0x000066a0:    e3a02001    . ..    MOV      r2,#1
        0x000066a4:    e3a01c01    ....    MOV      r1,#0x100
        0x000066a8:    e1a00004    ....    MOV      r0,r4
        0x000066ac:    ebfff0f3    ....    BL       REG_OPERATE ; 0x2a80
        0x000066b0:    e3a01000    ....    MOV      r1,#0
        0x000066b4:    ea000002    ....    B        0x66c4 ; get_main_pwr_ad_value + 60
        0x000066b8:    e2811001    ....    ADD      r1,r1,#1
        0x000066bc:    e3510c02    ..Q.    CMP      r1,#0x200
        0x000066c0:    8a000002    ....    BHI      0x66d0 ; get_main_pwr_ad_value + 72
        0x000066c4:    e594200c    . ..    LDR      r2,[r4,#0xc]
        0x000066c8:    e3120001    ....    TST      r2,#1
        0x000066cc:    0afffff9    ....    BEQ      0x66b8 ; get_main_pwr_ad_value + 48
        0x000066d0:    e584600c    .`..    STR      r6,[r4,#0xc]
        0x000066d4:    e594000c    ....    LDR      r0,[r4,#0xc]
        0x000066d8:    e3100b01    ....    TST      r0,#0x400
        0x000066dc:    0a00000e    ....    BEQ      0x671c ; get_main_pwr_ad_value + 148
        0x000066e0:    e5d50002    ....    LDRB     r0,[r5,#2]
        0x000066e4:    e3500000    ..P.    CMP      r0,#0
        0x000066e8:    0a000008    ....    BEQ      0x6710 ; get_main_pwr_ad_value + 136
        0x000066ec:    e5940028    (...    LDR      r0,[r4,#0x28]
        0x000066f0:    e5951010    ....    LDR      r1,[r5,#0x10]
        0x000066f4:    e0800001    ....    ADD      r0,r0,r1
        0x000066f8:    e1a000a0    ....    LSR      r0,r0,#1
        0x000066fc:    e5850010    ....    STR      r0,[r5,#0x10]
        0x00006700:    e5c56002    .`..    STRB     r6,[r5,#2]
        0x00006704:    e3a00b01    ....    MOV      r0,#0x400
        0x00006708:    e584000c    ....    STR      r0,[r4,#0xc]
        0x0000670c:    ea000004    ....    B        0x6724 ; get_main_pwr_ad_value + 156
        0x00006710:    e5940028    (...    LDR      r0,[r4,#0x28]
        0x00006714:    e5850010    ....    STR      r0,[r5,#0x10]
        0x00006718:    eafffff8    ....    B        0x6700 ; get_main_pwr_ad_value + 120
        0x0000671c:    e594000c    ....    LDR      r0,[r4,#0xc]
        0x00006720:    e584000c    ....    STR      r0,[r4,#0xc]
        0x00006724:    e5d50003    ....    LDRB     r0,[r5,#3]
        0x00006728:    e2800001    ....    ADD      r0,r0,#1
        0x0000672c:    e20010ff    ....    AND      r1,r0,#0xff
        0x00006730:    e5c51003    ....    STRB     r1,[r5,#3]
        0x00006734:    e3510064    d.Q.    CMP      r1,#0x64
        0x00006738:    3affffd8    ...:    BCC      0x66a0 ; get_main_pwr_ad_value + 24
        0x0000673c:    e1d501b0    ....    LDRH     r0,[r5,#0x10]
        0x00006740:    e1a00800    ....    LSL      r0,r0,#16
        0x00006744:    e1a00820     ...    LSR      r0,r0,#16
        0x00006748:    e8bd8070    p...    POP      {r4-r6,pc}
    $d
        0x0000674c:    0000a1a4    ....    DCD    41380
        0x00006750:    b800a000    ....    DCD    3087048704
    $a
    i.init_gpio
    init_gpio
        0x00006754:    e92d4070    p@-.    PUSH     {r4-r6,lr}
        0x00006758:    e59f42c8    .B..    LDR      r4,[pc,#712] ; [0x6a28] = 0xb00000b4
        0x0000675c:    e3a02000    . ..    MOV      r2,#0
        0x00006760:    e3a0100f    ....    MOV      r1,#0xf
        0x00006764:    e1a00004    ....    MOV      r0,r4
        0x00006768:    ebfff0c4    ....    BL       REG_OPERATE ; 0x2a80
        0x0000676c:    e3a02000    . ..    MOV      r2,#0
        0x00006770:    e2421601    ..B.    SUB      r1,r2,#0x100000
        0x00006774:    e0040841    A...    AND      r0,r4,r1,ASR #16
        0x00006778:    ebfff0c0    ....    BL       REG_OPERATE ; 0x2a80
        0x0000677c:    e3a03001    .0..    MOV      r3,#1
        0x00006780:    e1a02003    . ..    MOV      r2,r3
        0x00006784:    e3a01e1e    ....    MOV      r1,#0x1e0
        0x00006788:    e3a00c02    ....    MOV      r0,#0x200
        0x0000678c:    ebffedc2    ....    BL       GPIO_OpenBit ; 0x1e9c
        0x00006790:    e3a0120b    ....    MOV      r1,#0xb0000000
        0x00006794:    e591106c    l...    LDR      r1,[r1,#0x6c]
        0x00006798:    e3110020     ...    TST      r1,#0x20
        0x0000679c:    0a00000c    ....    BEQ      0x67d4 ; init_gpio + 128
        0x000067a0:    e3a01020     ...    MOV      r1,#0x20
        0x000067a4:    e3a00c02    ....    MOV      r0,#0x200
        0x000067a8:    ebffede5    ....    BL       GPIO_Set ; 0x1f44
        0x000067ac:    e3a01c01    ....    MOV      r1,#0x100
        0x000067b0:    e3a00c02    ....    MOV      r0,#0x200
        0x000067b4:    ebffede2    ....    BL       GPIO_Set ; 0x1f44
        0x000067b8:    e3a01080    ....    MOV      r1,#0x80
        0x000067bc:    e3a00c02    ....    MOV      r0,#0x200
        0x000067c0:    ebffed3b    ;...    BL       GPIO_Clr ; 0x1cb4
        0x000067c4:    e3a01040    @...    MOV      r1,#0x40
        0x000067c8:    e3a00c02    ....    MOV      r0,#0x200
        0x000067cc:    ebffeddc    ....    BL       GPIO_Set ; 0x1f44
        0x000067d0:    ea00000b    ....    B        0x6804 ; init_gpio + 176
        0x000067d4:    e3a01020     ...    MOV      r1,#0x20
        0x000067d8:    e3a00c02    ....    MOV      r0,#0x200
        0x000067dc:    ebffed34    4...    BL       GPIO_Clr ; 0x1cb4
        0x000067e0:    e3a01c01    ....    MOV      r1,#0x100
        0x000067e4:    e3a00c02    ....    MOV      r0,#0x200
        0x000067e8:    ebffedd5    ....    BL       GPIO_Set ; 0x1f44
        0x000067ec:    e3a01080    ....    MOV      r1,#0x80
        0x000067f0:    e3a00c02    ....    MOV      r0,#0x200
        0x000067f4:    ebffedd2    ....    BL       GPIO_Set ; 0x1f44
        0x000067f8:    e3a01040    @...    MOV      r1,#0x40
        0x000067fc:    e3a00c02    ....    MOV      r0,#0x200
        0x00006800:    ebffedcf    ....    BL       GPIO_Set ; 0x1f44
        0x00006804:    e59f1220     ...    LDR      r1,[pc,#544] ; [0x6a2c] = 0xffff00
        0x00006808:    e59f0220     ...    LDR      r0,[pc,#544] ; [0x6a30] = 0xb0000094
        0x0000680c:    e3a02000    . ..    MOV      r2,#0
        0x00006810:    ebfff09a    ....    BL       REG_OPERATE ; 0x2a80
        0x00006814:    e3a03001    .0..    MOV      r3,#1
        0x00006818:    e3a02000    . ..    MOV      r2,#0
        0x0000681c:    e3a01b0f    ....    MOV      r1,#0x3c00
        0x00006820:    e3a00c01    ....    MOV      r0,#0x100
        0x00006824:    ebffed9c    ....    BL       GPIO_OpenBit ; 0x1e9c
        0x00006828:    e59f0204    ....    LDR      r0,[pc,#516] ; [0x6a34] = 0xb00000a8
        0x0000682c:    e3a02000    . ..    MOV      r2,#0
        0x00006830:    e3a01cff    ....    MOV      r1,#0xff00
        0x00006834:    ebfff091    ....    BL       REG_OPERATE ; 0x2a80
        0x00006838:    e3a03001    .0..    MOV      r3,#1
        0x0000683c:    e3a02000    . ..    MOV      r2,#0
        0x00006840:    e3a0100c    ....    MOV      r1,#0xc
        0x00006844:    e3a00d07    ....    MOV      r0,#0x1c0
        0x00006848:    ebffed93    ....    BL       GPIO_OpenBit ; 0x1e9c
        0x0000684c:    e59f01e4    ....    LDR      r0,[pc,#484] ; [0x6a38] = 0xb000009c
        0x00006850:    e3a02000    . ..    MOV      r2,#0
        0x00006854:    e3a0180f    ....    MOV      r1,#0xf0000
        0x00006858:    ebfff088    ....    BL       REG_OPERATE ; 0x2a80
        0x0000685c:    e3a03001    .0..    MOV      r3,#1
        0x00006860:    e1a02003    . ..    MOV      r2,r3
        0x00006864:    e3a01a01    ....    MOV      r1,#0x1000
        0x00006868:    e3a00d05    ....    MOV      r0,#0x140
        0x0000686c:    ebffed8a    ....    BL       GPIO_OpenBit ; 0x1e9c
        0x00006870:    e59f51c4    .Q..    LDR      r5,[pc,#452] ; [0x6a3c] = 0xb0000078
        0x00006874:    e3a02000    . ..    MOV      r2,#0
        0x00006878:    e3a0180f    ....    MOV      r1,#0xf0000
        0x0000687c:    e1a00005    ....    MOV      r0,r5
        0x00006880:    ebfff07e    ~...    BL       REG_OPERATE ; 0x2a80
        0x00006884:    e3a03001    .0..    MOV      r3,#1
        0x00006888:    e1a02003    . ..    MOV      r2,r3
        0x0000688c:    e3a01010    ....    MOV      r1,#0x10
        0x00006890:    e3a00040    @...    MOV      r0,#0x40
        0x00006894:    ebffed80    ....    BL       GPIO_OpenBit ; 0x1e9c
        0x00006898:    e3a01010    ....    MOV      r1,#0x10
        0x0000689c:    e3a00040    @...    MOV      r0,#0x40
        0x000068a0:    ebffed03    ....    BL       GPIO_Clr ; 0x1cb4
        0x000068a4:    e3a02000    . ..    MOV      r2,#0
        0x000068a8:    e3a010ff    ....    MOV      r1,#0xff
        0x000068ac:    e1a00005    ....    MOV      r0,r5
        0x000068b0:    ebfff072    r...    BL       REG_OPERATE ; 0x2a80
        0x000068b4:    e3a03001    .0..    MOV      r3,#1
        0x000068b8:    e1a02003    . ..    MOV      r2,r3
        0x000068bc:    e3a01003    ....    MOV      r1,#3
        0x000068c0:    e3a00040    @...    MOV      r0,#0x40
        0x000068c4:    ebffed74    t...    BL       GPIO_OpenBit ; 0x1e9c
        0x000068c8:    e3a02000    . ..    MOV      r2,#0
        0x000068cc:    e3a0160f    ....    MOV      r1,#0xf00000
        0x000068d0:    e1a00004    ....    MOV      r0,r4
        0x000068d4:    ebfff069    i...    BL       REG_OPERATE ; 0x2a80
        0x000068d8:    e3a03000    .0..    MOV      r3,#0
        0x000068dc:    e3a02001    . ..    MOV      r2,#1
        0x000068e0:    e3a01a02    ....    MOV      r1,#0x2000
        0x000068e4:    e3a00c02    ....    MOV      r0,#0x200
        0x000068e8:    ebffed6b    k...    BL       GPIO_OpenBit ; 0x1e9c
        0x000068ec:    e3a01a02    ....    MOV      r1,#0x2000
        0x000068f0:    e3a00c02    ....    MOV      r0,#0x200
        0x000068f4:    ebffecee    ....    BL       GPIO_Clr ; 0x1cb4
        0x000068f8:    e3a02000    . ..    MOV      r2,#0
        0x000068fc:    e3a01a0f    ....    MOV      r1,#0xf000
        0x00006900:    e1a00004    ....    MOV      r0,r4
        0x00006904:    ebfff05d    ]...    BL       REG_OPERATE ; 0x2a80
        0x00006908:    e3a03001    .0..    MOV      r3,#1
        0x0000690c:    e1a02003    . ..    MOV      r2,r3
        0x00006910:    e3a01b02    ....    MOV      r1,#0x800
        0x00006914:    e3a00c02    ....    MOV      r0,#0x200
        0x00006918:    ebffed5f    _...    BL       GPIO_OpenBit ; 0x1e9c
        0x0000691c:    e3a01b02    ....    MOV      r1,#0x800
        0x00006920:    e3a00c02    ....    MOV      r0,#0x200
        0x00006924:    ebffece2    ....    BL       GPIO_Clr ; 0x1cb4
        0x00006928:    e3a01b02    ....    MOV      r1,#0x800
        0x0000692c:    e3a00c02    ....    MOV      r0,#0x200
        0x00006930:    ebffed83    ....    BL       GPIO_Set ; 0x1f44
        0x00006934:    e3a0120f    ....    MOV      r1,#0xf0000000
        0x00006938:    e3a02000    . ..    MOV      r2,#0
        0x0000693c:    e0450c41    A.E.    SUB      r0,r5,r1,ASR #24
        0x00006940:    ebfff04e    N...    BL       REG_OPERATE ; 0x2a80
        0x00006944:    e3a03001    .0..    MOV      r3,#1
        0x00006948:    e3a02000    . ..    MOV      r2,#0
        0x0000694c:    e3a01080    ....    MOV      r1,#0x80
        0x00006950:    e3a000c0    ....    MOV      r0,#0xc0
        0x00006954:    ebffed50    P...    BL       GPIO_OpenBit ; 0x1e9c
        0x00006958:    e3a0180f    ....    MOV      r1,#0xf0000
        0x0000695c:    e3a02000    . ..    MOV      r2,#0
        0x00006960:    e1850741    A...    ORR      r0,r5,r1,ASR #14
        0x00006964:    ebfff045    E...    BL       REG_OPERATE ; 0x2a80
        0x00006968:    e3a03001    .0..    MOV      r3,#1
        0x0000696c:    e3a02000    . ..    MOV      r2,#0
        0x00006970:    e3a01a01    ....    MOV      r1,#0x1000
        0x00006974:    e3a00040    @...    MOV      r0,#0x40
        0x00006978:    ebffed47    G...    BL       GPIO_OpenBit ; 0x1e9c
        0x0000697c:    e3a02000    . ..    MOV      r2,#0
        0x00006980:    e3a0140f    ....    MOV      r1,#0xf000000
        0x00006984:    e1a00004    ....    MOV      r0,r4
        0x00006988:    ebfff03c    <...    BL       REG_OPERATE ; 0x2a80
        0x0000698c:    e3a03000    .0..    MOV      r3,#0
        0x00006990:    e3a02001    . ..    MOV      r2,#1
        0x00006994:    e3a01901    ....    MOV      r1,#0x4000
        0x00006998:    e3a00c02    ....    MOV      r0,#0x200
        0x0000699c:    ebffed3e    >...    BL       GPIO_OpenBit ; 0x1e9c
        0x000069a0:    e3a01901    ....    MOV      r1,#0x4000
        0x000069a4:    e3a00c02    ....    MOV      r0,#0x200
        0x000069a8:    ebffecc1    ....    BL       GPIO_Clr ; 0x1cb4
        0x000069ac:    e3a02000    . ..    MOV      r2,#0
        0x000069b0:    e3a0180f    ....    MOV      r1,#0xf0000
        0x000069b4:    e1a00004    ....    MOV      r0,r4
        0x000069b8:    ebfff030    0...    BL       REG_OPERATE ; 0x2a80
        0x000069bc:    e3a03000    .0..    MOV      r3,#0
        0x000069c0:    e1a02003    . ..    MOV      r2,r3
        0x000069c4:    e3a01a01    ....    MOV      r1,#0x1000
        0x000069c8:    e3a00c02    ....    MOV      r0,#0x200
        0x000069cc:    ebffed32    2...    BL       GPIO_OpenBit ; 0x1e9c
        0x000069d0:    e3a02004    . ..    MOV      r2,#4
        0x000069d4:    e3a01a01    ....    MOV      r1,#0x1000
        0x000069d8:    e3a00c02    ....    MOV      r0,#0x200
        0x000069dc:    ebffecd6    ....    BL       GPIO_EnableTriggerType ; 0x1d3c
        0x000069e0:    e59f1058    X...    LDR      r1,[pc,#88] ; [0x6a40] = 0x1bdc
        0x000069e4:    e3a02000    . ..    MOV      r2,#0
        0x000069e8:    e3a00c02    ....    MOV      r0,#0x200
        0x000069ec:    ebffecbe    ....    BL       GPIO_EnableInt ; 0x1cec
        0x000069f0:    ebfffec2    ....    BL       download_gpio_set_input ; 0x6500
        0x000069f4:    e3a02000    . ..    MOV      r2,#0
        0x000069f8:    e3a0140f    ....    MOV      r1,#0xf000000
        0x000069fc:    e285000c    ....    ADD      r0,r5,#0xc
        0x00006a00:    ebfff01e    ....    BL       REG_OPERATE ; 0x2a80
        0x00006a04:    e3a03001    .0..    MOV      r3,#1
        0x00006a08:    e1a02003    . ..    MOV      r2,r3
        0x00006a0c:    e3a01901    ....    MOV      r1,#0x4000
        0x00006a10:    e3a00080    ....    MOV      r0,#0x80
        0x00006a14:    ebffed20     ...    BL       GPIO_OpenBit ; 0x1e9c
        0x00006a18:    e8bd4070    p@..    POP      {r4-r6,lr}
        0x00006a1c:    e3a01010    ....    MOV      r1,#0x10
        0x00006a20:    e3a00080    ....    MOV      r0,#0x80
        0x00006a24:    eaffeca2    ....    B        GPIO_Clr ; 0x1cb4
    $d
        0x00006a28:    b00000b4    ....    DCD    2952790196
        0x00006a2c:    00ffff00    ....    DCD    16776960
        0x00006a30:    b0000094    ....    DCD    2952790164
        0x00006a34:    b00000a8    ....    DCD    2952790184
        0x00006a38:    b000009c    ....    DCD    2952790172
        0x00006a3c:    b0000078    x...    DCD    2952790136
        0x00006a40:    00001bdc    ....    DCD    7132
    $a
    i.main
    main
        0x00006a44:    e59f1150    P...    LDR      r1,[pc,#336] ; [0x6b9c] = 0xb8002000
        0x00006a48:    e3e00000    ....    MVN      r0,#0
        0x00006a4c:    e5810138    8...    STR      r0,[r1,#0x138]
        0x00006a50:    e581013c    <...    STR      r0,[r1,#0x13c]
        0x00006a54:    eb0003da    ....    BL       sysDisableCache ; 0x79c4
        0x00006a58:    e3a00008    ....    MOV      r0,#8
        0x00006a5c:    eb00041f    ....    BL       sysFlushCache ; 0x7ae0
        0x00006a60:    e3a00000    ....    MOV      r0,#0
        0x00006a64:    eb0003e6    ....    BL       sysEnableCache ; 0x7a04
        0x00006a68:    e59f1130    0...    LDR      r1,[pc,#304] ; [0x6ba0] = 0x123c0000
        0x00006a6c:    e59f0130    0...    LDR      r0,[pc,#304] ; [0x6ba4] = 0xb0000210
        0x00006a70:    e3a02000    . ..    MOV      r2,#0
        0x00006a74:    ebfff001    ....    BL       REG_OPERATE ; 0x2a80
        0x00006a78:    e3a05000    .P..    MOV      r5,#0
        0x00006a7c:    e3a0020b    ....    MOV      r0,#0xb0000000
        0x00006a80:    e5805218    .R..    STR      r5,[r0,#0x218]
        0x00006a84:    e580521c    .R..    STR      r5,[r0,#0x21c]
        0x00006a88:    e3a02001    . ..    MOV      r2,#1
        0x00006a8c:    e3e01000    ....    MVN      r1,#0
        0x00006a90:    e2800060    `...    ADD      r0,r0,#0x60
        0x00006a94:    ebffeff9    ....    BL       REG_OPERATE ; 0x2a80
        0x00006a98:    e59f0108    ....    LDR      r0,[pc,#264] ; [0x6ba8] = 0xb0000064
        0x00006a9c:    e3a02001    . ..    MOV      r2,#1
        0x00006aa0:    e3e01000    ....    MVN      r1,#0
        0x00006aa4:    ebffeff5    ....    BL       REG_OPERATE ; 0x2a80
        0x00006aa8:    e59f00fc    ....    LDR      r0,[pc,#252] ; [0x6bac] = 0xb0000068
        0x00006aac:    e3a02001    . ..    MOV      r2,#1
        0x00006ab0:    e3e01000    ....    MVN      r1,#0
        0x00006ab4:    ebffeff1    ....    BL       REG_OPERATE ; 0x2a80
        0x00006ab8:    eb000612    ....    BL       sysInitializeUART ; 0x8308
        0x00006abc:    ebffff24    $...    BL       init_gpio ; 0x6754
        0x00006ac0:    ebfff819    ....    BL       UART_TOIO ; 0x4b2c
        0x00006ac4:    ebffefc2    ....    BL       POWER_5V_SETTING_initstart ; 0x29d4
        0x00006ac8:    eb0000c8    ....    BL       power_checkon ; 0x6df0
        0x00006acc:    ebfff7e6    ....    BL       Timer_1ms_Init ; 0x4a6c
        0x00006ad0:    ebfffe25    %...    BL       display_init ; 0x636c
        0x00006ad4:    ebffeba2    ....    BL       FT5x06_Init ; 0x1964
        0x00006ad8:    ebfff7fb    ....    BL       Touch_tim_init ; 0x4acc
        0x00006adc:    eb000c23    #...    BL       usb_deinit ; 0x9b70
        0x00006ae0:    eb0000fe    ....    BL       protocol_uart_init ; 0x6ee0
        0x00006ae4:    eb000191    ....    BL       rtc_init ; 0x7130
        0x00006ae8:    ebffe8ce    ....    BL       AD_init_8V ; 0xe28
        0x00006aec:    e59f40bc    .@..    LDR      r4,[pc,#188] ; [0x6bb0] = 0x9f88
        0x00006af0:    e3a00000    ....    MOV      r0,#0
        0x00006af4:    ebfffd27    '...    BL       check_io_state ; 0x5f98
        0x00006af8:    e5c40000    ....    STRB     r0,[r4,#0]
        0x00006afc:    e3500002    ..P.    CMP      r0,#2
        0x00006b00:    0afffffa    ....    BEQ      0x6af0 ; main + 172
        0x00006b04:    e3a00001    ....    MOV      r0,#1
        0x00006b08:    ebfffd22    "...    BL       check_io_state ; 0x5f98
        0x00006b0c:    e5c40001    ....    STRB     r0,[r4,#1]
        0x00006b10:    e3500002    ..P.    CMP      r0,#2
        0x00006b14:    0afffffa    ....    BEQ      0x6b04 ; main + 192
        0x00006b18:    e5c45000    .P..    STRB     r5,[r4,#0]
        0x00006b1c:    e3a00001    ....    MOV      r0,#1
        0x00006b20:    e5c40001    ....    STRB     r0,[r4,#1]
        0x00006b24:    ebfffed7    ....    BL       get_main_pwr_ad_value ; 0x6688
        0x00006b28:    e5d41000    ....    LDRB     r1,[r4,#0]
        0x00006b2c:    e3510000    ..Q.    CMP      r1,#0
        0x00006b30:    0a000017    ....    BEQ      0x6b94 ; main + 336
        0x00006b34:    e3a01000    ....    MOV      r1,#0
        0x00006b38:    e3e020e0    . ..    MVN      r2,#0xe0
        0x00006b3c:    e0010192    ....    MUL      r1,r2,r1
        0x00006b40:    e2811b02    ....    ADD      r1,r1,#0x800
        0x00006b44:    e281106c    l...    ADD      r1,r1,#0x6c
        0x00006b48:    e1500001    ..P.    CMP      r0,r1
        0x00006b4c:    3afffff4    ...:    BCC      0x6b24 ; main + 224
        0x00006b50:    e3a01020     ...    MOV      r1,#0x20
        0x00006b54:    e3a00c02    ....    MOV      r0,#0x200
        0x00006b58:    ebffec55    U...    BL       GPIO_Clr ; 0x1cb4
        0x00006b5c:    e3a01080    ....    MOV      r1,#0x80
        0x00006b60:    e3a00c02    ....    MOV      r0,#0x200
        0x00006b64:    ebffecf6    ....    BL       GPIO_Set ; 0x1f44
        0x00006b68:    ebffe8e3    ....    BL       AD_init_vbat ; 0xefc
        0x00006b6c:    e59f0040    @...    LDR      r0,[pc,#64] ; [0x6bb4] = 0xb0000020
        0x00006b70:    e3a02000    . ..    MOV      r2,#0
        0x00006b74:    e3a01001    ....    MOV      r1,#1
        0x00006b78:    ebffefc0    ....    BL       REG_OPERATE ; 0x2a80
        0x00006b7c:    ebfff8da    ....    BL       W25Q128_init ; 0x4eec
        0x00006b80:    eb00000d    ....    BL       nandflash_init ; 0x6bbc
        0x00006b84:    ebfff405    ....    BL       SDRAM_DATA_INIT ; 0x3ba0
        0x00006b88:    e59f0028    (...    LDR      r0,[pc,#40] ; [0x6bb8] = 0x5fe
        0x00006b8c:    ebffee33    3...    BL       NAND_EraseBlock ; 0x2460
        0x00006b90:    eafffffe    ....    B        0x6b90 ; main + 332
        0x00006b94:    e3a01001    ....    MOV      r1,#1
        0x00006b98:    eaffffe6    ....    B        0x6b38 ; main + 244
    $d
        0x00006b9c:    b8002000    . ..    DCD    3087015936
        0x00006ba0:    123c0000    ..<.    DCD    305922048
        0x00006ba4:    b0000210    ....    DCD    2952790544
        0x00006ba8:    b0000064    d...    DCD    2952790116
        0x00006bac:    b0000068    h...    DCD    2952790120
        0x00006bb0:    00009f88    ....    DCD    40840
        0x00006bb4:    b0000020     ...    DCD    2952790048
        0x00006bb8:    000005fe    ....    DCD    1534
    $a
    i.nandflash_init
    nandflash_init
        0x00006bbc:    e92d4030    0@-.    PUSH     {r4,r5,lr}
        0x00006bc0:    e24dd03c    <.M.    SUB      sp,sp,#0x3c
        0x00006bc4:    e59f5070    pP..    LDR      r5,[pc,#112] ; [0x6c3c] = 0x1d010
        0x00006bc8:    e28540b0    .@..    ADD      r4,r5,#0xb0
        0x00006bcc:    e3a01032    2...    MOV      r1,#0x32
        0x00006bd0:    e28d0008    ....    ADD      r0,sp,#8
        0x00006bd4:    ebffe740    @...    BL       __aeabi_memclr4 ; 0x8dc
        0x00006bd8:    e59f0060    `...    LDR      r0,[pc,#96] ; [0x6c40] = 0x9ea8
        0x00006bdc:    e5900000    ....    LDR      r0,[r0,#0]
        0x00006be0:    e58d0004    ....    STR      r0,[sp,#4]
        0x00006be4:    e3a0020b    ....    MOV      r0,#0xb0000000
        0x00006be8:    e5901210    ....    LDR      r1,[r0,#0x210]
        0x00006bec:    e3811603    ....    ORR      r1,r1,#0x300000
        0x00006bf0:    e5801210    ....    STR      r1,[r0,#0x210]
        0x00006bf4:    e59f1048    H...    LDR      r1,[pc,#72] ; [0x6c44] = 0x55555555
        0x00006bf8:    e5801080    ....    STR      r1,[r0,#0x80]
        0x00006bfc:    e0811000    ....    ADD      r1,r1,r0
        0x00006c00:    e5801084    ....    STR      r1,[r0,#0x84]
        0x00006c04:    e5854094    .@..    STR      r4,[r5,#0x94]
        0x00006c08:    e59f0038    8...    LDR      r0,[pc,#56] ; [0x6c48] = 0xb000d8b8
        0x00006c0c:    e5840004    ....    STR      r0,[r4,#4]
        0x00006c10:    e5840000    ....    STR      r0,[r4,#0]
        0x00006c14:    e1a00004    ....    MOV      r0,r4
        0x00006c18:    ebfffcb4    ....    BL       board_nand_init ; 0x5ef0
        0x00006c1c:    e3500000    ..P.    CMP      r0,#0
        0x00006c20:    1a000003    ....    BNE      0x6c34 ; nandflash_init + 120
        0x00006c24:    ebffee75    u...    BL       NAND_ReadID ; 0x2600
        0x00006c28:    e1a01006    ....    MOV      r1,r6
        0x00006c2c:    e28f0018    ....    ADR      r0,{pc}+0x20 ; 0x6c4c
        0x00006c30:    eb000764    d...    BL       sysprintf ; 0x89c8
        0x00006c34:    e28dd03c    <...    ADD      sp,sp,#0x3c
        0x00006c38:    e8bd8030    0...    POP      {r4,r5,pc}
    $d
        0x00006c3c:    0001d010    ....    DCD    118800
        0x00006c40:    00009ea8    ....    DCD    40616
        0x00006c44:    55555555    UUUU    DCD    1431655765
        0x00006c48:    b000d8b8    ....    DCD    2952845496
        0x00006c4c:    000a7825    %x..    DCD    686117
    $a
    i.nandflash_to_sdram_Q0
    nandflash_to_sdram_Q0
        0x00006c50:    e92d4070    p@-.    PUSH     {r4-r6,lr}
        0x00006c54:    e1a0c000    ....    MOV      r12,r0
        0x00006c58:    e1a05001    .P..    MOV      r5,r1
        0x00006c5c:    e1a04002    .@..    MOV      r4,r2
        0x00006c60:    e5940000    ....    LDR      r0,[r4,#0]
        0x00006c64:    e5941004    ....    LDR      r1,[r4,#4]
        0x00006c68:    e1a00080    ....    LSL      r0,r0,#1
        0x00006c6c:    e0225190    .Q".    MLA      r2,r0,r1,r5
        0x00006c70:    e1520003    ..R.    CMP      r2,r3
        0x00006c74:    9a000001    ....    BLS      0x6c80 ; nandflash_to_sdram_Q0 + 48
        0x00006c78:    e3e00000    ....    MVN      r0,#0
        0x00006c7c:    e8bd8070    p...    POP      {r4-r6,pc}
        0x00006c80:    e59f3044    D0..    LDR      r3,[pc,#68] ; [0x6ccc] = 0x17e40
        0x00006c84:    e15c0003    ..\.    CMP      r12,r3
        0x00006c88:    9a000001    ....    BLS      0x6c94 ; nandflash_to_sdram_Q0 + 68
        0x00006c8c:    e3e00000    ....    MVN      r0,#0
        0x00006c90:    e8bd8070    p...    POP      {r4-r6,pc}
        0x00006c94:    e0020190    ....    MUL      r2,r0,r1
        0x00006c98:    e043300c    .0C.    SUB      r3,r3,r12
        0x00006c9c:    e1a0100c    ....    MOV      r1,r12
        0x00006ca0:    e1a00005    ....    MOV      r0,r5
        0x00006ca4:    ebffeda6    ....    BL       NANDFLASH_TO_SDRAM_RANDOM ; 0x2344
        0x00006ca8:    e3500000    ..P.    CMP      r0,#0
        0x00006cac:    0a000004    ....    BEQ      0x6cc4 ; nandflash_to_sdram_Q0 + 116
        0x00006cb0:    e5940000    ....    LDR      r0,[r4,#0]
        0x00006cb4:    e5941004    ....    LDR      r1,[r4,#4]
        0x00006cb8:    e1a00080    ....    LSL      r0,r0,#1
        0x00006cbc:    e0205091    .P .    MLA      r0,r1,r0,r5
        0x00006cc0:    e8bd8070    p...    POP      {r4-r6,pc}
        0x00006cc4:    e3e00000    ....    MVN      r0,#0
        0x00006cc8:    e8bd8070    p...    POP      {r4-r6,pc}
    $d
        0x00006ccc:    00017e40    @~..    DCD    97856
    $a
    i.nuc970_dev_ready
    nuc970_dev_ready
        0x00006cd0:    e59f000c    ....    LDR      r0,[pc,#12] ; [0x6ce4] = 0xb8003000
        0x00006cd4:    e5900088    ....    LDR      r0,[r0,#0x88]
        0x00006cd8:    e2000a02    ....    AND      r0,r0,#0x2000
        0x00006cdc:    e1a006a0    ....    LSR      r0,r0,#13
        0x00006ce0:    e12fff1e    ../.    BX       lr
    $d
        0x00006ce4:    b8003000    .0..    DCD    3087020032
    $a
    i.para_default
    para_default
        0x00006ce8:    e92d4070    p@-.    PUSH     {r4-r6,lr}
        0x00006cec:    e59f00c4    ....    LDR      r0,[pc,#196] ; [0x6db8] = 0xcf70
        0x00006cf0:    e3a0100c    ....    MOV      r1,#0xc
        0x00006cf4:    ebffe6e8    ....    BL       __aeabi_memclr ; 0x89c
        0x00006cf8:    e59f40b8    .@..    LDR      r4,[pc,#184] ; [0x6db8] = 0xcf70
        0x00006cfc:    e3a02001    . ..    MOV      r2,#1
        0x00006d00:    e5c42000    . ..    STRB     r2,[r4,#0]
        0x00006d04:    e3a00080    ....    MOV      r0,#0x80
        0x00006d08:    e1c400b8    ....    STRH     r0,[r4,#8]
        0x00006d0c:    e3a00000    ....    MOV      r0,#0
        0x00006d10:    e5c40006    ....    STRB     r0,[r4,#6]
        0x00006d14:    e5c40001    ....    STRB     r0,[r4,#1]
        0x00006d18:    e5c40002    ....    STRB     r0,[r4,#2]
        0x00006d1c:    e3a000a5    ....    MOV      r0,#0xa5
        0x00006d20:    e5c4000a    ....    STRB     r0,[r4,#0xa]
        0x00006d24:    e59f5098    .P..    LDR      r5,[pc,#152] ; [0x6dc4] = 0xa084
        0x00006d28:    e28f108c    ....    ADR      r1,{pc}+0x94 ; 0x6dbc
        0x00006d2c:    e5950000    ....    LDR      r0,[r5,#0]
        0x00006d30:    e2800c03    ....    ADD      r0,r0,#0x300
        0x00006d34:    e280007b    {...    ADD      r0,r0,#0x7b
        0x00006d38:    faffe577    w...    BLX      __2sprintf ; 0x31c
        0x00006d3c:    e5950000    ....    LDR      r0,[r5,#0]
        0x00006d40:    e1d420b8    . ..    LDRH     r2,[r4,#8]
        0x00006d44:    e2800c03    ....    ADD      r0,r0,#0x300
        0x00006d48:    e28f106c    l...    ADR      r1,{pc}+0x74 ; 0x6dbc
        0x00006d4c:    e2800072    r...    ADD      r0,r0,#0x72
        0x00006d50:    faffe571    q...    BLX      __2sprintf ; 0x31c
        0x00006d54:    e5d40006    ....    LDRB     r0,[r4,#6]
        0x00006d58:    e28f105c    \...    ADR      r1,{pc}+0x64 ; 0x6dbc
        0x00006d5c:    e2002001    . ..    AND      r2,r0,#1
        0x00006d60:    e5950000    ....    LDR      r0,[r5,#0]
        0x00006d64:    e2800c03    ....    ADD      r0,r0,#0x300
        0x00006d68:    e280009f    ....    ADD      r0,r0,#0x9f
        0x00006d6c:    faffe56a    j...    BLX      __2sprintf ; 0x31c
        0x00006d70:    e5950000    ....    LDR      r0,[r5,#0]
        0x00006d74:    e5d42001    . ..    LDRB     r2,[r4,#1]
        0x00006d78:    e2800c03    ....    ADD      r0,r0,#0x300
        0x00006d7c:    e28f1038    8...    ADR      r1,{pc}+0x40 ; 0x6dbc
        0x00006d80:    e2800096    ....    ADD      r0,r0,#0x96
        0x00006d84:    faffe564    d...    BLX      __2sprintf ; 0x31c
        0x00006d88:    e5950000    ....    LDR      r0,[r5,#0]
        0x00006d8c:    e5d42002    . ..    LDRB     r2,[r4,#2]
        0x00006d90:    e2800c05    ....    ADD      r0,r0,#0x500
        0x00006d94:    e28f1020     ...    ADR      r1,{pc}+0x28 ; 0x6dbc
        0x00006d98:    e28000a9    ....    ADD      r0,r0,#0xa9
        0x00006d9c:    faffe55e    ^...    BLX      __2sprintf ; 0x31c
        0x00006da0:    e5950000    ....    LDR      r0,[r5,#0]
        0x00006da4:    e5d4200a    . ..    LDRB     r2,[r4,#0xa]
        0x00006da8:    e8bd4070    p@..    POP      {r4-r6,lr}
        0x00006dac:    e28f1008    ....    ADR      r1,{pc}+0x10 ; 0x6dbc
        0x00006db0:    e2800fea    ....    ADD      r0,r0,#0x3a8
        0x00006db4:    eaffe556    V...    B        $Ven$AT$I$$__2sprintf ; 0x314
    $d
        0x00006db8:    0000cf70    p...    DCD    53104
        0x00006dbc:    58383025    %08X    DCD    1480077349
        0x00006dc0:    00000000    ....    DCD    0
        0x00006dc4:    0000a084    ....    DCD    41092
    $a
    i.para_init
    para_init
        0x00006dc8:    e92d4010    .@-.    PUSH     {r4,lr}
        0x00006dcc:    eb0000a7    ....    BL       read_para_new ; 0x7070
        0x00006dd0:    e59f0014    ....    LDR      r0,[pc,#20] ; [0x6dec] = 0xcf70
        0x00006dd4:    e5d0000a    ....    LDRB     r0,[r0,#0xa]
        0x00006dd8:    e35000a5    ..P.    CMP      r0,#0xa5
        0x00006ddc:    0a000001    ....    BEQ      0x6de8 ; para_init + 32
        0x00006de0:    e8bd4010    .@..    POP      {r4,lr}
        0x00006de4:    eaffffbf    ....    B        para_default ; 0x6ce8
        0x00006de8:    e8bd8010    ....    POP      {r4,pc}
    $d
        0x00006dec:    0000cf70    p...    DCD    53104
    $a
    i.power_checkon
    power_checkon
        0x00006df0:    e92d4010    .@-.    PUSH     {r4,lr}
        0x00006df4:    e59f0034    4...    LDR      r0,[pc,#52] ; [0x6e30] = 0xb00000a8
        0x00006df8:    e3a02000    . ..    MOV      r2,#0
        0x00006dfc:    e3a0160f    ....    MOV      r1,#0xf00000
        0x00006e00:    ebffef1e    ....    BL       REG_OPERATE ; 0x2a80
        0x00006e04:    e3a03001    .0..    MOV      r3,#1
        0x00006e08:    e3a02000    . ..    MOV      r2,#0
        0x00006e0c:    e3a01020     ...    MOV      r1,#0x20
        0x00006e10:    e3a00d07    ....    MOV      r0,#0x1c0
        0x00006e14:    ebffec20     ...    BL       GPIO_OpenBit ; 0x1e9c
        0x00006e18:    e3a01020     ...    MOV      r1,#0x20
        0x00006e1c:    e3a00d07    ....    MOV      r0,#0x1c0
        0x00006e20:    ebffec3d    =...    BL       GPIO_ReadBit ; 0x1f1c
        0x00006e24:    e3500000    ..P.    CMP      r0,#0
        0x00006e28:    0afffffa    ....    BEQ      0x6e18 ; power_checkon + 40
        0x00006e2c:    e8bd8010    ....    POP      {r4,pc}
    $d
        0x00006e30:    b00000a8    ....    DCD    2952790184
    $a
    i.power_checkreset
    power_checkreset
        0x00006e34:    e92d4010    .@-.    PUSH     {r4,lr}
        0x00006e38:    e59f001c    ....    LDR      r0,[pc,#28] ; [0x6e5c] = 0xb0000218
        0x00006e3c:    e3a02001    . ..    MOV      r2,#1
        0x00006e40:    e3a01002    ....    MOV      r1,#2
        0x00006e44:    ebffef0d    ....    BL       REG_OPERATE ; 0x2a80
        0x00006e48:    e8bd4010    .@..    POP      {r4,lr}
        0x00006e4c:    e3a02001    . ..    MOV      r2,#1
        0x00006e50:    e3a0101f    ....    MOV      r1,#0x1f
        0x00006e54:    e3a00c0f    ....    MOV      r0,#0xf00
        0x00006e58:    eafff853    S...    B        WWDT_Open ; 0x4fac
    $d
        0x00006e5c:    b0000218    ....    DCD    2952790552
    $a
    i.protocol_D8_D9_command_time_dealwith
    protocol_D8_D9_command_time_dealwith
        0x00006e60:    e59f0068    h...    LDR      r0,[pc,#104] ; [0x6ed0] = 0x9f8c
        0x00006e64:    e5d01006    ....    LDRB     r1,[r0,#6]
        0x00006e68:    e3510000    ..Q.    CMP      r1,#0
        0x00006e6c:    1a000016    ....    BNE      0x6ecc ; protocol_D8_D9_command_time_dealwith + 108
        0x00006e70:    e1d011b6    ....    LDRH     r1,[r0,#0x16]
        0x00006e74:    e3510000    ..Q.    CMP      r1,#0
        0x00006e78:    0a000013    ....    BEQ      0x6ecc ; protocol_D8_D9_command_time_dealwith + 108
        0x00006e7c:    e1d011b6    ....    LDRH     r1,[r0,#0x16]
        0x00006e80:    e2411001    ..A.    SUB      r1,r1,#1
        0x00006e84:    e1c011b6    ....    STRH     r1,[r0,#0x16]
        0x00006e88:    e1d011b6    ....    LDRH     r1,[r0,#0x16]
        0x00006e8c:    e3510000    ..Q.    CMP      r1,#0
        0x00006e90:    1a00000d    ....    BNE      0x6ecc ; protocol_D8_D9_command_time_dealwith + 108
        0x00006e94:    e59f1038    8...    LDR      r1,[pc,#56] ; [0x6ed4] = 0xaeb8
        0x00006e98:    e1d110b0    ....    LDRH     r1,[r1,#0]
        0x00006e9c:    e3510000    ..Q.    CMP      r1,#0
        0x00006ea0:    1a000007    ....    BNE      0x6ec4 ; protocol_D8_D9_command_time_dealwith + 100
        0x00006ea4:    e59f102c    ,...    LDR      r1,[pc,#44] ; [0x6ed8] = 0xb4b8
        0x00006ea8:    e1d110b2    ....    LDRH     r1,[r1,#2]
        0x00006eac:    e3510000    ..Q.    CMP      r1,#0
        0x00006eb0:    1a000003    ....    BNE      0x6ec4 ; protocol_D8_D9_command_time_dealwith + 100
        0x00006eb4:    e59f1020     ...    LDR      r1,[pc,#32] ; [0x6edc] = 0xbab8
        0x00006eb8:    e1d110b4    ....    LDRH     r1,[r1,#4]
        0x00006ebc:    e3510000    ..Q.    CMP      r1,#0
        0x00006ec0:    0a000001    ....    BEQ      0x6ecc ; protocol_D8_D9_command_time_dealwith + 108
        0x00006ec4:    e3a01001    ....    MOV      r1,#1
        0x00006ec8:    e5c01008    ....    STRB     r1,[r0,#8]
        0x00006ecc:    e12fff1e    ../.    BX       lr
    $d
        0x00006ed0:    00009f8c    ....    DCD    40844
        0x00006ed4:    0000aeb8    ....    DCD    44728
        0x00006ed8:    0000b4b8    ....    DCD    46264
        0x00006edc:    0000bab8    ....    DCD    47800
    $a
    i.protocol_uart_init
    protocol_uart_init
        0x00006ee0:    e92d4010    .@-.    PUSH     {r4,lr}
        0x00006ee4:    e59f3104    .1..    LDR      r3,[pc,#260] ; [0x6ff0] = 0xb0000064
        0x00006ee8:    e3a02001    . ..    MOV      r2,#1
        0x00006eec:    e3a01802    ....    MOV      r1,#0x20000
        0x00006ef0:    e1a00003    ....    MOV      r0,r3
        0x00006ef4:    ebffeee1    ....    BL       REG_OPERATE ; 0x2a80
        0x00006ef8:    e2834f6d    mO..    ADD      r4,r3,#0x1b4
        0x00006efc:    e3a02000    . ..    MOV      r2,#0
        0x00006f00:    e3a01802    ....    MOV      r1,#0x20000
        0x00006f04:    e1a00004    ....    MOV      r0,r4
        0x00006f08:    ebffeedc    ....    BL       REG_OPERATE ; 0x2a80
        0x00006f0c:    e3a02000    . ..    MOV      r2,#0
        0x00006f10:    e3a01802    ....    MOV      r1,#0x20000
        0x00006f14:    e1a00003    ....    MOV      r0,r3
        0x00006f18:    ebffeed8    ....    BL       REG_OPERATE ; 0x2a80
        0x00006f1c:    e3a02001    . ..    MOV      r2,#1
        0x00006f20:    e3a01802    ....    MOV      r1,#0x20000
        0x00006f24:    e1a00004    ....    MOV      r0,r4
        0x00006f28:    ebffeed4    ....    BL       REG_OPERATE ; 0x2a80
        0x00006f2c:    e283302c    ,0..    ADD      r3,r3,#0x2c
        0x00006f30:    e3a02000    . ..    MOV      r2,#0
        0x00006f34:    e3a01cff    ....    MOV      r1,#0xff00
        0x00006f38:    e1a00003    ....    MOV      r0,r3
        0x00006f3c:    ebffeecf    ....    BL       REG_OPERATE ; 0x2a80
        0x00006f40:    e3a02001    . ..    MOV      r2,#1
        0x00006f44:    e3a01c99    ....    MOV      r1,#0x9900
        0x00006f48:    e1a00003    ....    MOV      r0,r3
        0x00006f4c:    ebffeecb    ....    BL       REG_OPERATE ; 0x2a80
        0x00006f50:    e59f009c    ....    LDR      r0,[pc,#156] ; [0x6ff4] = 0xb71b00
        0x00006f54:    e59f409c    .@..    LDR      r4,[pc,#156] ; [0x6ff8] = 0x1d000
        0x00006f58:    e5840000    ....    STR      r0,[r4,#0]
        0x00006f5c:    e3a00c96    ....    MOV      r0,#0x9600
        0x00006f60:    e5840004    ....    STR      r0,[r4,#4]
        0x00006f64:    e3a00001    ....    MOV      r0,#1
        0x00006f68:    e5c40008    ....    STRB     r0,[r4,#8]
        0x00006f6c:    e3a00003    ....    MOV      r0,#3
        0x00006f70:    e5c40009    ....    STRB     r0,[r4,#9]
        0x00006f74:    e3a00000    ....    MOV      r0,#0
        0x00006f78:    e5c4000a    ....    STRB     r0,[r4,#0xa]
        0x00006f7c:    e3a01018    ....    MOV      r1,#0x18
        0x00006f80:    e5c4100b    ....    STRB     r1,[r4,#0xb]
        0x00006f84:    e5c4000c    ....    STRB     r0,[r4,#0xc]
        0x00006f88:    e2840000    ....    ADD      r0,r4,#0
        0x00006f8c:    eb000a9e    ....    BL       uartOpen ; 0x9a0c
        0x00006f90:    e3500000    ..P.    CMP      r0,#0
        0x00006f94:    0a000001    ....    BEQ      0x6fa0 ; protocol_uart_init + 192
        0x00006f98:    e28f005c    \...    ADR      r0,{pc}+0x64 ; 0x6ffc
        0x00006f9c:    eb000689    ....    BL       sysprintf ; 0x89c8
        0x00006fa0:    e5d40008    ....    LDRB     r0,[r4,#8]
        0x00006fa4:    e3a03000    .0..    MOV      r3,#0
        0x00006fa8:    e3a02001    . ..    MOV      r2,#1
        0x00006fac:    e3a01002    ....    MOV      r1,#2
        0x00006fb0:    eb000928    (...    BL       uartIoctl ; 0x9458
        0x00006fb4:    e3500000    ..P.    CMP      r0,#0
        0x00006fb8:    0a000001    ....    BEQ      0x6fc4 ; protocol_uart_init + 228
        0x00006fbc:    e28f0054    T...    ADR      r0,{pc}+0x5c ; 0x7018
        0x00006fc0:    eb000680    ....    BL       sysprintf ; 0x89c8
        0x00006fc4:    e3a03000    .0..    MOV      r3,#0
        0x00006fc8:    e5d40008    ....    LDRB     r0,[r4,#8]
        0x00006fcc:    e1a02003    . ..    MOV      r2,r3
        0x00006fd0:    e3a01001    ....    MOV      r1,#1
        0x00006fd4:    eb00091f    ....    BL       uartIoctl ; 0x9458
        0x00006fd8:    e3500000    ..P.    CMP      r0,#0
        0x00006fdc:    0a000002    ....    BEQ      0x6fec ; protocol_uart_init + 268
        0x00006fe0:    e8bd4010    .@..    POP      {r4,lr}
        0x00006fe4:    e28f0058    X...    ADR      r0,{pc}+0x60 ; 0x7044
        0x00006fe8:    ea000676    v...    B        sysprintf ; 0x89c8
        0x00006fec:    e8bd8010    ....    POP      {r4,pc}
    $d
        0x00006ff0:    b0000064    d...    DCD    2952790116
        0x00006ff4:    00b71b00    ....    DCD    12000000
        0x00006ff8:    0001d000    ....    DCD    118784
        0x00006ffc:    efbdbfef    ....    DCD    4022190063
        0x00007000:    bfefbdbf    ....    DCD    3220159935
        0x00007004:    efb4dabd    ....    DCD    4021607101
        0x00007008:    a7cabdbf    ....    DCD    2815081919
        0x0000700c:    efbdbfef    ....    DCD    4022190063
        0x00007010:    0a21bdbf    ..!.    DCD    169983423
        0x00007014:    00000000    ....    DCD    0
        0x00007018:    efbdbfef    ....    DCD    4022190063
        0x0000701c:    bfefbdbf    ....    DCD    3220159935
        0x00007020:    efbdc3bd    ....    DCD    4022191037
        0x00007024:    bfefbdbf    ....    DCD    3220159935
        0x00007028:    bdbfefbd    ....    DCD    3183472573
        0x0000702c:    d0bdbfef    ....    DCD    3502096367
        0x00007030:    bdbfefb6    ....    DCD    3183472566
        0x00007034:    bdcaa3c4    ....    DCD    3184174020
        0x00007038:    bfefa7ca    ....    DCD    3220154314
        0x0000703c:    bdbfefbd    ....    DCD    3183472573
        0x00007040:    00000a21    !...    DCD    2593
        0x00007044:    efbdbfef    ....    DCD    4022190063
        0x00007048:    bfefbdbf    ....    DCD    3220159935
        0x0000704c:    efb7c3bd    ....    DCD    4021797821
        0x00007050:    bfefbdbf    ....    DCD    3220159935
        0x00007054:    bdbfefbd    ....    DCD    3183472573
        0x00007058:    d0bdbfef    ....    DCD    3502096367
        0x0000705c:    bdbfefb6    ....    DCD    3183472566
        0x00007060:    bdcaa3c4    ....    DCD    3184174020
        0x00007064:    bfefa7ca    ....    DCD    3220154314
        0x00007068:    bdbfefbd    ....    DCD    3183472573
        0x0000706c:    00000a21    !...    DCD    2593
    $a
    i.read_para_new
    read_para_new
        0x00007070:    e92d4070    p@-.    PUSH     {r4-r6,lr}
        0x00007074:    e59f40ac    .@..    LDR      r4,[pc,#172] ; [0x7128] = 0xa084
        0x00007078:    e5940000    ....    LDR      r0,[r4,#0]
        0x0000707c:    e2800c03    ....    ADD      r0,r0,#0x300
        0x00007080:    e280007b    {...    ADD      r0,r0,#0x7b
        0x00007084:    ebffe8d1    ....    BL       CharToHex ; 0x13d0
        0x00007088:    e59f509c    .P..    LDR      r5,[pc,#156] ; [0x712c] = 0xcf70
        0x0000708c:    e5c50000    ....    STRB     r0,[r5,#0]
        0x00007090:    e5940000    ....    LDR      r0,[r4,#0]
        0x00007094:    e2800c03    ....    ADD      r0,r0,#0x300
        0x00007098:    e2800072    r...    ADD      r0,r0,#0x72
        0x0000709c:    ebffe8cb    ....    BL       CharToHex ; 0x13d0
        0x000070a0:    e1c500b8    ....    STRH     r0,[r5,#8]
        0x000070a4:    e5940000    ....    LDR      r0,[r4,#0]
        0x000070a8:    e2800c03    ....    ADD      r0,r0,#0x300
        0x000070ac:    e280009f    ....    ADD      r0,r0,#0x9f
        0x000070b0:    ebffe8c6    ....    BL       CharToHex ; 0x13d0
        0x000070b4:    e5c50006    ....    STRB     r0,[r5,#6]
        0x000070b8:    e5940000    ....    LDR      r0,[r4,#0]
        0x000070bc:    e2800c03    ....    ADD      r0,r0,#0x300
        0x000070c0:    e2800096    ....    ADD      r0,r0,#0x96
        0x000070c4:    ebffe8c1    ....    BL       CharToHex ; 0x13d0
        0x000070c8:    e5c50001    ....    STRB     r0,[r5,#1]
        0x000070cc:    e5940000    ....    LDR      r0,[r4,#0]
        0x000070d0:    e2800c05    ....    ADD      r0,r0,#0x500
        0x000070d4:    e28000a9    ....    ADD      r0,r0,#0xa9
        0x000070d8:    ebffe8bc    ....    BL       CharToHex ; 0x13d0
        0x000070dc:    e5c50002    ....    STRB     r0,[r5,#2]
        0x000070e0:    e5940000    ....    LDR      r0,[r4,#0]
        0x000070e4:    e3e01fda    ....    MVN      r1,#0x368
        0x000070e8:    e0400001    ..@.    SUB      r0,r0,r1
        0x000070ec:    ebffe8b7    ....    BL       CharToHex ; 0x13d0
        0x000070f0:    e5c50003    ....    STRB     r0,[r5,#3]
        0x000070f4:    e5940000    ....    LDR      r0,[r4,#0]
        0x000070f8:    e2800fea    ....    ADD      r0,r0,#0x3a8
        0x000070fc:    ebffe8b3    ....    BL       CharToHex ; 0x13d0
        0x00007100:    e5c5000a    ....    STRB     r0,[r5,#0xa]
        0x00007104:    e5940000    ....    LDR      r0,[r4,#0]
        0x00007108:    e2800e36    6...    ADD      r0,r0,#0x360
        0x0000710c:    ebffe8af    ....    BL       CharToHex ; 0x13d0
        0x00007110:    e5c50004    ....    STRB     r0,[r5,#4]
        0x00007114:    e5940000    ....    LDR      r0,[r4,#0]
        0x00007118:    e2800fe1    ....    ADD      r0,r0,#0x384
        0x0000711c:    ebffe8ab    ....    BL       CharToHex ; 0x13d0
        0x00007120:    e5c50005    ....    STRB     r0,[r5,#5]
        0x00007124:    e8bd8070    p...    POP      {r4-r6,pc}
    $d
        0x00007128:    0000a084    ....    DCD    41092
        0x0000712c:    0000cf70    p...    DCD    53104
    $a
    i.rtc_init
    rtc_init
        0x00007130:    e92d4010    .@-.    PUSH     {r4,lr}
        0x00007134:    e3a00001    ....    MOV      r0,#1
        0x00007138:    ebffeeb1    ....    BL       RTC_EnableClock ; 0x2c04
        0x0000713c:    ebffeeff    ....    BL       RTC_Init ; 0x2d40
        0x00007140:    e59f1060    `...    LDR      r1,[pc,#96] ; [0x71a8] = 0xcf88
        0x00007144:    e3a00000    ....    MOV      r0,#0
        0x00007148:    ebfff06b    k...    BL       RTC_Read ; 0x32fc
        0x0000714c:    e59f0054    T...    LDR      r0,[pc,#84] ; [0x71a8] = 0xcf88
        0x00007150:    e590101c    ....    LDR      r1,[r0,#0x1c]
        0x00007154:    e2412c07    .,A.    SUB      r2,r1,#0x700
        0x00007158:    e25220d5    . R.    SUBS     r2,r2,#0xd5
        0x0000715c:    1a000010    ....    BNE      0x71a4 ; rtc_init + 116
        0x00007160:    e5901018    ....    LDR      r1,[r0,#0x18]
        0x00007164:    e3510001    ..Q.    CMP      r1,#1
        0x00007168:    1a00000d    ....    BNE      0x71a4 ; rtc_init + 116
        0x0000716c:    e5901014    ....    LDR      r1,[r0,#0x14]
        0x00007170:    e3510001    ..Q.    CMP      r1,#1
        0x00007174:    1a00000a    ....    BNE      0x71a4 ; rtc_init + 116
        0x00007178:    e590100c    ....    LDR      r1,[r0,#0xc]
        0x0000717c:    e3510000    ..Q.    CMP      r1,#0
        0x00007180:    1a000007    ....    BNE      0x71a4 ; rtc_init + 116
        0x00007184:    e5901008    ....    LDR      r1,[r0,#8]
        0x00007188:    e3510000    ..Q.    CMP      r1,#0
        0x0000718c:    1a000004    ....    BNE      0x71a4 ; rtc_init + 116
        0x00007190:    e5900004    ....    LDR      r0,[r0,#4]
        0x00007194:    e3500000    ..P.    CMP      r0,#0
        0x00007198:    1a000001    ....    BNE      0x71a4 ; rtc_init + 116
        0x0000719c:    e8bd4010    .@..    POP      {r4,lr}
        0x000071a0:    ea000001    ....    B        rtc_time_deinit ; 0x71ac
        0x000071a4:    e8bd8010    ....    POP      {r4,pc}
    $d
        0x000071a8:    0000cf88    ....    DCD    53128
    $a
    i.rtc_time_deinit
    rtc_time_deinit
        0x000071ac:    e92d4010    .@-.    PUSH     {r4,lr}
        0x000071b0:    e59f003c    <...    LDR      r0,[pc,#60] ; [0x71f4] = 0xcf88
        0x000071b4:    e3a01e7d    }...    MOV      r1,#0x7d0
        0x000071b8:    e580101c    ....    STR      r1,[r0,#0x1c]
        0x000071bc:    e3a01001    ....    MOV      r1,#1
        0x000071c0:    e5801018    ....    STR      r1,[r0,#0x18]
        0x000071c4:    e5801014    ....    STR      r1,[r0,#0x14]
        0x000071c8:    e3a01000    ....    MOV      r1,#0
        0x000071cc:    e580100c    ....    STR      r1,[r0,#0xc]
        0x000071d0:    e5801008    ....    STR      r1,[r0,#8]
        0x000071d4:    e5801004    ....    STR      r1,[r0,#4]
        0x000071d8:    e2801000    ....    ADD      r1,r0,#0
        0x000071dc:    e3a00000    ....    MOV      r0,#0
        0x000071e0:    ebfff0e0    ....    BL       RTC_Write ; 0x3568
        0x000071e4:    e8bd4010    .@..    POP      {r4,lr}
        0x000071e8:    e59f1004    ....    LDR      r1,[pc,#4] ; [0x71f4] = 0xcf88
        0x000071ec:    e3a00000    ....    MOV      r0,#0
        0x000071f0:    eafff041    A...    B        RTC_Read ; 0x32fc
    $d
        0x000071f4:    0000cf88    ....    DCD    53128
    $a
    i.send_tcp_xy_mul
    send_tcp_xy_mul
        0x000071f8:    e92d40f8    .@-.    PUSH     {r3-r7,lr}
        0x000071fc:    e1a04000    .@..    MOV      r4,r0
        0x00007200:    e1a06001    .`..    MOV      r6,r1
        0x00007204:    e3560000    ..V.    CMP      r6,#0
        0x00007208:    0a000039    9...    BEQ      0x72f4 ; send_tcp_xy_mul + 252
        0x0000720c:    e59f00e4    ....    LDR      r0,[pc,#228] ; [0x72f8] = 0x1d368
        0x00007210:    e3a01054    T...    MOV      r1,#0x54
        0x00007214:    ebffe5b0    ....    BL       __aeabi_memclr4 ; 0x8dc
        0x00007218:    e59f00d8    ....    LDR      r0,[pc,#216] ; [0x72f8] = 0x1d368
        0x0000721c:    e1a02186    .!..    LSL      r2,r6,#3
        0x00007220:    e28f10d4    ....    ADR      r1,{pc}+0xdc ; 0x72fc
        0x00007224:    faffe43c    <...    BLX      __2sprintf ; 0x31c
        0x00007228:    e3a05000    .P..    MOV      r5,#0
        0x0000722c:    e2467001    .pF.    SUB      r7,r6,#1
        0x00007230:    ea000010    ....    B        0x7278 ; send_tcp_xy_mul + 128
        0x00007234:    e1d400f2    ....    LDRSH    r0,[r4,#2]
        0x00007238:    e28f10c4    ....    ADR      r1,{pc}+0xcc ; 0x7304
        0x0000723c:    e58d0000    ....    STR      r0,[sp,#0]
        0x00007240:    e1d430f0    .0..    LDRSH    r3,[r4,#0]
        0x00007244:    e59f00c4    ....    LDR      r0,[pc,#196] ; [0x7310] = 0x1d3bc
        0x00007248:    e5942004    . ..    LDR      r2,[r4,#4]
        0x0000724c:    faffe432    2...    BLX      __2sprintf ; 0x31c
        0x00007250:    e59f10b8    ....    LDR      r1,[pc,#184] ; [0x7310] = 0x1d3bc
        0x00007254:    e2410054    T.A.    SUB      r0,r1,#0x54
        0x00007258:    faffe537    7...    BLX      strcat ; 0x73c
        0x0000725c:    e1550007    ..U.    CMP      r5,r7
        0x00007260:    0a000002    ....    BEQ      0x7270 ; send_tcp_xy_mul + 120
        0x00007264:    e59f008c    ....    LDR      r0,[pc,#140] ; [0x72f8] = 0x1d368
        0x00007268:    e28f10a4    ....    ADR      r1,{pc}+0xac ; 0x7314
        0x0000726c:    faffe532    2...    BLX      strcat ; 0x73c
        0x00007270:    e2844008    .@..    ADD      r4,r4,#8
        0x00007274:    e2855001    .P..    ADD      r5,r5,#1
        0x00007278:    e1550006    ..U.    CMP      r5,r6
        0x0000727c:    baffffec    ....    BLT      0x7234 ; send_tcp_xy_mul + 60
        0x00007280:    e59f0070    p...    LDR      r0,[pc,#112] ; [0x72f8] = 0x1d368
        0x00007284:    e28f108c    ....    ADR      r1,{pc}+0x94 ; 0x7318
        0x00007288:    faffe52b    +...    BLX      strcat ; 0x73c
        0x0000728c:    e59f1088    ....    LDR      r1,[pc,#136] ; [0x731c] = 0x9f9c
        0x00007290:    e59f2088    . ..    LDR      r2,[pc,#136] ; [0x7320] = 0x9f9e
        0x00007294:    e1d100b0    ....    LDRH     r0,[r1,#0]
        0x00007298:    e1d220b0    . ..    LDRH     r2,[r2,#0]
        0x0000729c:    e1500002    ..P.    CMP      r0,r2
        0x000072a0:    1a000012    ....    BNE      0x72f0 ; send_tcp_xy_mul + 248
        0x000072a4:    e3a00000    ....    MOV      r0,#0
        0x000072a8:    e59f2074    t ..    LDR      r2,[pc,#116] ; [0x7324] = 0x9fbc
        0x000072ac:    e59f4044    D@..    LDR      r4,[pc,#68] ; [0x72f8] = 0x1d368
        0x000072b0:    e5923000    .0..    LDR      r3,[r2,#0]
        0x000072b4:    e3a02003    . ..    MOV      r2,#3
        0x000072b8:    e0822186    .!..    ADD      r2,r2,r6,LSL #3
        0x000072bc:    e1a0c802    ....    LSL      r12,r2,#16
        0x000072c0:    e1a0c82c    ,...    LSR      r12,r12,#16
        0x000072c4:    ea000007    ....    B        0x72e8 ; send_tcp_xy_mul + 240
        0x000072c8:    e7d42000    . ..    LDRB     r2,[r4,r0]
        0x000072cc:    e1d150b0    .P..    LDRH     r5,[r1,#0]
        0x000072d0:    e7c32005    . ..    STRB     r2,[r3,r5]
        0x000072d4:    e1d120b0    . ..    LDRH     r2,[r1,#0]
        0x000072d8:    e2822001    . ..    ADD      r2,r2,#1
        0x000072dc:    e3c22b3e    >+..    BIC      r2,r2,#0xf800
        0x000072e0:    e1c120b0    . ..    STRH     r2,[r1,#0]
        0x000072e4:    e2800001    ....    ADD      r0,r0,#1
        0x000072e8:    e15c0000    ..\.    CMP      r12,r0
        0x000072ec:    cafffff5    ....    BGT      0x72c8 ; send_tcp_xy_mul + 208
        0x000072f0:    ebfff3d2    ....    BL       SEND_data ; 0x4240
        0x000072f4:    e8bd80f8    ....    POP      {r3-r7,pc}
    $d
        0x000072f8:    0001d368    h...    DCD    119656
        0x000072fc:    32302540    @%02    DCD    842016064
        0x00007300:    00000058    X...    DCD    88
        0x00007304:    30256325    %c%0    DCD    807756581
        0x00007308:    30256433    3d%0    DCD    807756851
        0x0000730c:    00006433    3d..    DCD    25651
        0x00007310:    0001d3bc    ....    DCD    119740
        0x00007314:    0000002c    ,...    DCD    44
        0x00007318:    0000002a    *...    DCD    42
        0x0000731c:    00009f9c    ....    DCD    40860
        0x00007320:    00009f9e    ....    DCD    40862
        0x00007324:    00009fbc    ....    DCD    40892
    $a
    i.set_tim1msint
    set_tim1msint
        0x00007328:    e59f1004    ....    LDR      r1,[pc,#4] ; [0x7334] = 0xa040
        0x0000732c:    e5c10003    ....    STRB     r0,[r1,#3]
        0x00007330:    e12fff1e    ../.    BX       lr
    $d
        0x00007334:    0000a040    @...    DCD    41024
    $a
    i.set_touchint
    set_touchint
        0x00007338:    e59f1004    ....    LDR      r1,[pc,#4] ; [0x7344] = 0xa034
        0x0000733c:    e5c10004    ....    STRB     r0,[r1,#4]
        0x00007340:    e12fff1e    ../.    BX       lr
    $d
        0x00007344:    0000a034    4...    DCD    41012
    $a
    i.set_wt588h_voice_state
    set_wt588h_voice_state
        0x00007348:    e59f1010    ....    LDR      r1,[pc,#16] ; [0x7360] = 0xa0a8
        0x0000734c:    e5d12001    . ..    LDRB     r2,[r1,#1]
        0x00007350:    e3520000    ..R.    CMP      r2,#0
        0x00007354:    1a000000    ....    BNE      0x735c ; set_wt588h_voice_state + 20
        0x00007358:    e5c10007    ....    STRB     r0,[r1,#7]
        0x0000735c:    e12fff1e    ../.    BX       lr
    $d
        0x00007360:    0000a0a8    ....    DCD    41128
    $a
    i.shift_pointer
    shift_pointer
        0x00007364:    e92d4070    p@-.    PUSH     {r4-r6,lr}
        0x00007368:    e1a05000    .P..    MOV      r5,r0
        0x0000736c:    e1a04001    .@..    MOV      r4,r1
        0x00007370:    e1a01004    ....    MOV      r1,r4
        0x00007374:    e1a00005    ....    MOV      r0,r5
        0x00007378:    ebffe695    ....    BL       __aeabi_uidiv ; 0xdd4
        0x0000737c:    e3510000    ..Q.    CMP      r1,#0
        0x00007380:    0a000002    ....    BEQ      0x7390 ; shift_pointer + 44
        0x00007384:    e0440001    ..D.    SUB      r0,r4,r1
        0x00007388:    e0800005    ....    ADD      r0,r0,r5
        0x0000738c:    e8bd8070    p...    POP      {r4-r6,pc}
        0x00007390:    e1a00005    ....    MOV      r0,r5
        0x00007394:    e8bd8070    p...    POP      {r4-r6,pc}
    i.spi0ISR
    spi0ISR
        0x00007398:    e59f001c    ....    LDR      r0,[pc,#28] ; [0x73bc] = 0x642f0
        0x0000739c:    e5901000    ....    LDR      r1,[r0,#0]
        0x000073a0:    e5911000    ....    LDR      r1,[r1,#0]
        0x000073a4:    e59f2014    . ..    LDR      r2,[pc,#20] ; [0x73c0] = 0xb8006000
        0x000073a8:    e3811801    ....    ORR      r1,r1,#0x10000
        0x000073ac:    e5821200    ....    STR      r1,[r2,#0x200]
        0x000073b0:    e3a01001    ....    MOV      r1,#1
        0x000073b4:    e5c01005    ....    STRB     r1,[r0,#5]
        0x000073b8:    e12fff1e    ../.    BX       lr
    $d
        0x000073bc:    000642f0    .B..    DCD    410352
        0x000073c0:    b8006000    .`..    DCD    3087032320
    $a
    i.spi1ISR
    spi1ISR
        0x000073c4:    e59f001c    ....    LDR      r0,[pc,#28] ; [0x73e8] = 0x642f0
        0x000073c8:    e5901008    ....    LDR      r1,[r0,#8]
        0x000073cc:    e5911000    ....    LDR      r1,[r1,#0]
        0x000073d0:    e59f2014    . ..    LDR      r2,[pc,#20] ; [0x73ec] = 0xb8006000
        0x000073d4:    e3811801    ....    ORR      r1,r1,#0x10000
        0x000073d8:    e5821300    ....    STR      r1,[r2,#0x300]
        0x000073dc:    e3a01001    ....    MOV      r1,#1
        0x000073e0:    e5c0100d    ....    STRB     r1,[r0,#0xd]
        0x000073e4:    e12fff1e    ../.    BX       lr
    $d
        0x000073e8:    000642f0    .B..    DCD    410352
        0x000073ec:    b8006000    .`..    DCD    3087032320
    $a
    i.spiGetBusyStatus
    spiGetBusyStatus
        0x000073f0:    e59f1038    8...    LDR      r1,[pc,#56] ; [0x7430] = 0x642f0
        0x000073f4:    e0810180    ....    ADD      r0,r1,r0,LSL #3
        0x000073f8:    e5901000    ....    LDR      r1,[r0,#0]
        0x000073fc:    e5912000    . ..    LDR      r2,[r1,#0]
        0x00007400:    e3120802    ....    TST      r2,#0x20000
        0x00007404:    0a000006    ....    BEQ      0x7424 ; spiGetBusyStatus + 52
        0x00007408:    e5d00005    ....    LDRB     r0,[r0,#5]
        0x0000740c:    e3500000    ..P.    CMP      r0,#0
        0x00007410:    0a000001    ....    BEQ      0x741c ; spiGetBusyStatus + 44
        0x00007414:    e3a00000    ....    MOV      r0,#0
        0x00007418:    e12fff1e    ../.    BX       lr
        0x0000741c:    e3a00001    ....    MOV      r0,#1
        0x00007420:    e12fff1e    ../.    BX       lr
        0x00007424:    e5910000    ....    LDR      r0,[r1,#0]
        0x00007428:    e2000001    ....    AND      r0,r0,#1
        0x0000742c:    e12fff1e    ../.    BX       lr
    $d
        0x00007430:    000642f0    .B..    DCD    410352
    $a
    i.spiInit
    spiInit
        0x00007434:    e92d4070    p@-.    PUSH     {r4-r6,lr}
        0x00007438:    e59f505c    \P..    LDR      r5,[pc,#92] ; [0x749c] = 0x642f0
        0x0000743c:    e3500000    ..P.    CMP      r0,#0
        0x00007440:    e3a04000    .@..    MOV      r4,#0
        0x00007444:    0a00000b    ....    BEQ      0x7478 ; spiInit + 68
        0x00007448:    e59f2050    P ..    LDR      r2,[pc,#80] ; [0x74a0] = 0x73c4
        0x0000744c:    e3a01034    4...    MOV      r1,#0x34
        0x00007450:    e3a00005    ....    MOV      r0,#5
        0x00007454:    eb0003bc    ....    BL       sysInstallISR ; 0x834c
        0x00007458:    e3a00034    4...    MOV      r0,#0x34
        0x0000745c:    eb000173    s...    BL       sysEnableInterrupt ; 0x7a30
        0x00007460:    e5854008    .@..    STR      r4,[r5,#8]
        0x00007464:    e585400c    .@..    STR      r4,[r5,#0xc]
        0x00007468:    e3a0007f    ....    MOV      r0,#0x7f
        0x0000746c:    eb00046f    o...    BL       sysSetLocalInterrupt ; 0x8630
        0x00007470:    e3a00000    ....    MOV      r0,#0
        0x00007474:    e8bd8070    p...    POP      {r4-r6,pc}
        0x00007478:    e59f2024    $ ..    LDR      r2,[pc,#36] ; [0x74a4] = 0x7398
        0x0000747c:    e3a01033    3...    MOV      r1,#0x33
        0x00007480:    e3a00005    ....    MOV      r0,#5
        0x00007484:    eb0003b0    ....    BL       sysInstallISR ; 0x834c
        0x00007488:    e3a00033    3...    MOV      r0,#0x33
        0x0000748c:    eb000167    g...    BL       sysEnableInterrupt ; 0x7a30
        0x00007490:    e5854000    .@..    STR      r4,[r5,#0]
        0x00007494:    e5854004    .@..    STR      r4,[r5,#4]
        0x00007498:    eafffff2    ....    B        0x7468 ; spiInit + 52
    $d
        0x0000749c:    000642f0    .B..    DCD    410352
        0x000074a0:    000073c4    .s..    DCD    29636
        0x000074a4:    00007398    .s..    DCD    29592
    $a
    i.spiIoctl
    spiIoctl
        0x000074a8:    e1a03001    .0..    MOV      r3,r1
        0x000074ac:    e92d4010    .@-.    PUSH     {r4,lr}
        0x000074b0:    e1a01002    ....    MOV      r1,r2
        0x000074b4:    e3500000    ..P.    CMP      r0,#0
        0x000074b8:    0a000003    ....    BEQ      0x74cc ; spiIoctl + 36
        0x000074bc:    e3500001    ..P.    CMP      r0,#1
        0x000074c0:    0a000001    ....    BEQ      0x74cc ; spiIoctl + 36
        0x000074c4:    e3e00000    ....    MVN      r0,#0
        0x000074c8:    e8bd8010    ....    POP      {r4,pc}
        0x000074cc:    e59f2358    X#..    LDR      r2,[pc,#856] ; [0x782c] = 0x642f0
        0x000074d0:    e0820180    ....    ADD      r0,r2,r0,LSL #3
        0x000074d4:    e5d02004    . ..    LDRB     r2,[r0,#4]
        0x000074d8:    e3520000    ..R.    CMP      r2,#0
        0x000074dc:    0a00000f    ....    BEQ      0x7520 ; spiIoctl + 120
        0x000074e0:    e353000d    ..S.    CMP      r3,#0xd
        0x000074e4:    308ff103    ...0    ADDCC    pc,pc,r3,LSL #2
        0x000074e8:    ea0000c8    ....    B        0x7810 ; spiIoctl + 872
        0x000074ec:    ea00000d    ....    B        0x7528 ; spiIoctl + 128
        0x000074f0:    ea000013    ....    B        0x7544 ; spiIoctl + 156
        0x000074f4:    ea00001e    ....    B        0x7574 ; spiIoctl + 204
        0x000074f8:    ea00001f    ....    B        0x757c ; spiIoctl + 212
        0x000074fc:    ea000033    3...    B        0x75d0 ; spiIoctl + 296
        0x00007500:    ea00003e    >...    B        0x7600 ; spiIoctl + 344
        0x00007504:    ea000049    I...    B        0x7630 ; spiIoctl + 392
        0x00007508:    ea000052    R...    B        0x7658 ; spiIoctl + 432
        0x0000750c:    ea00005b    [...    B        0x7680 ; spiIoctl + 472
        0x00007510:    ea00007c    |...    B        0x7708 ; spiIoctl + 608
        0x00007514:    ea000094    ....    B        0x776c ; spiIoctl + 708
        0x00007518:    ea0000aa    ....    B        0x77c8 ; spiIoctl + 800
        0x0000751c:    ea0000b5    ....    B        0x77f8 ; spiIoctl + 848
        0x00007520:    e3e00002    ....    MVN      r0,#2
        0x00007524:    e8bd8010    ....    POP      {r4,pc}
        0x00007528:    e3a01000    ....    MOV      r1,#0
        0x0000752c:    e5c01005    ....    STRB     r1,[r0,#5]
        0x00007530:    e5900000    ....    LDR      r0,[r0,#0]
        0x00007534:    e5901000    ....    LDR      r1,[r0,#0]
        0x00007538:    e3811001    ....    ORR      r1,r1,#1
        0x0000753c:    e5801000    ....    STR      r1,[r0,#0]
        0x00007540:    ea0000b2    ....    B        0x7810 ; spiIoctl + 872
        0x00007544:    e3510001    ..Q.    CMP      r1,#1
        0x00007548:    0a000004    ....    BEQ      0x7560 ; spiIoctl + 184
        0x0000754c:    e5900000    ....    LDR      r0,[r0,#0]
        0x00007550:    e5901000    ....    LDR      r1,[r0,#0]
        0x00007554:    e3c11802    ....    BIC      r1,r1,#0x20000
        0x00007558:    e5801000    ....    STR      r1,[r0,#0]
        0x0000755c:    ea0000ab    ....    B        0x7810 ; spiIoctl + 872
        0x00007560:    e5900000    ....    LDR      r0,[r0,#0]
        0x00007564:    e5901000    ....    LDR      r1,[r0,#0]
        0x00007568:    e3811802    ....    ORR      r1,r1,#0x20000
        0x0000756c:    e5801000    ....    STR      r1,[r0,#0]
        0x00007570:    ea0000a6    ....    B        0x7810 ; spiIoctl + 872
        0x00007574:    eb0000fa    ....    BL       spiSetSpeed ; 0x7964
        0x00007578:    ea0000a4    ....    B        0x7810 ; spiIoctl + 872
        0x0000757c:    e3510000    ..Q.    CMP      r1,#0
        0x00007580:    0a000007    ....    BEQ      0x75a4 ; spiIoctl + 252
        0x00007584:    e3510001    ..Q.    CMP      r1,#1
        0x00007588:    0a00000a    ....    BEQ      0x75b8 ; spiIoctl + 272
        0x0000758c:    e5900000    ....    LDR      r0,[r0,#0]
        0x00007590:    e5901000    ....    LDR      r1,[r0,#0]
        0x00007594:    e3c11606    ....    BIC      r1,r1,#0x600000
        0x00007598:    e3811602    ....    ORR      r1,r1,#0x200000
        0x0000759c:    e5801000    ....    STR      r1,[r0,#0]
        0x000075a0:    ea00009a    ....    B        0x7810 ; spiIoctl + 872
        0x000075a4:    e5900000    ....    LDR      r0,[r0,#0]
        0x000075a8:    e5901000    ....    LDR      r1,[r0,#0]
        0x000075ac:    e3c11606    ....    BIC      r1,r1,#0x600000
        0x000075b0:    e5801000    ....    STR      r1,[r0,#0]
        0x000075b4:    ea000095    ....    B        0x7810 ; spiIoctl + 872
        0x000075b8:    e5900000    ....    LDR      r0,[r0,#0]
        0x000075bc:    e5901000    ....    LDR      r1,[r0,#0]
        0x000075c0:    e3c11606    ....    BIC      r1,r1,#0x600000
        0x000075c4:    e3811501    ....    ORR      r1,r1,#0x400000
        0x000075c8:    e5801000    ....    STR      r1,[r0,#0]
        0x000075cc:    ea00008f    ....    B        0x7810 ; spiIoctl + 872
        0x000075d0:    e3510000    ..Q.    CMP      r1,#0
        0x000075d4:    0a000004    ....    BEQ      0x75ec ; spiIoctl + 324
        0x000075d8:    e5900000    ....    LDR      r0,[r0,#0]
        0x000075dc:    e5901000    ....    LDR      r1,[r0,#0]
        0x000075e0:    e3811601    ....    ORR      r1,r1,#0x100000
        0x000075e4:    e5801000    ....    STR      r1,[r0,#0]
        0x000075e8:    ea000088    ....    B        0x7810 ; spiIoctl + 872
        0x000075ec:    e5900000    ....    LDR      r0,[r0,#0]
        0x000075f0:    e5901000    ....    LDR      r1,[r0,#0]
        0x000075f4:    e3c11601    ....    BIC      r1,r1,#0x100000
        0x000075f8:    e5801000    ....    STR      r1,[r0,#0]
        0x000075fc:    ea000083    ....    B        0x7810 ; spiIoctl + 872
        0x00007600:    e3510000    ..Q.    CMP      r1,#0
        0x00007604:    0a000004    ....    BEQ      0x761c ; spiIoctl + 372
        0x00007608:    e5900000    ....    LDR      r0,[r0,#0]
        0x0000760c:    e5901000    ....    LDR      r1,[r0,#0]
        0x00007610:    e3811b01    ....    ORR      r1,r1,#0x400
        0x00007614:    e5801000    ....    STR      r1,[r0,#0]
        0x00007618:    ea00007c    |...    B        0x7810 ; spiIoctl + 872
        0x0000761c:    e5900000    ....    LDR      r0,[r0,#0]
        0x00007620:    e5901000    ....    LDR      r1,[r0,#0]
        0x00007624:    e3c11b01    ....    BIC      r1,r1,#0x400
        0x00007628:    e5801000    ....    STR      r1,[r0,#0]
        0x0000762c:    ea000077    w...    B        0x7810 ; spiIoctl + 872
        0x00007630:    e3510004    ..Q.    CMP      r1,#4
        0x00007634:    2a000005    ...*    BCS      0x7650 ; spiIoctl + 424
        0x00007638:    e5900000    ....    LDR      r0,[r0,#0]
        0x0000763c:    e5902000    . ..    LDR      r2,[r0,#0]
        0x00007640:    e3c22c03    .,..    BIC      r2,r2,#0x300
        0x00007644:    e1821401    ....    ORR      r1,r2,r1,LSL #8
        0x00007648:    e5801000    ....    STR      r1,[r0,#0]
        0x0000764c:    ea00006f    o...    B        0x7810 ; spiIoctl + 872
        0x00007650:    e3e00003    ....    MVN      r0,#3
        0x00007654:    e8bd8010    ....    POP      {r4,pc}
        0x00007658:    e3510020     .Q.    CMP      r1,#0x20
        0x0000765c:    2a000005    ...*    BCS      0x7678 ; spiIoctl + 464
        0x00007660:    e5900000    ....    LDR      r0,[r0,#0]
        0x00007664:    e5902000    . ..    LDR      r2,[r0,#0]
        0x00007668:    e3c220f8    . ..    BIC      r2,r2,#0xf8
        0x0000766c:    e1821181    ....    ORR      r1,r2,r1,LSL #3
        0x00007670:    e5801000    ....    STR      r1,[r0,#0]
        0x00007674:    ea000065    e...    B        0x7810 ; spiIoctl + 872
        0x00007678:    e3e00003    ....    MVN      r0,#3
        0x0000767c:    e8bd8010    ....    POP      {r4,pc}
        0x00007680:    e3510003    ..Q.    CMP      r1,#3
        0x00007684:    9a000001    ....    BLS      0x7690 ; spiIoctl + 488
        0x00007688:    e3e00003    ....    MVN      r0,#3
        0x0000768c:    e8bd8010    ....    POP      {r4,pc}
        0x00007690:    e3510000    ..Q.    CMP      r1,#0
        0x00007694:    0a000009    ....    BEQ      0x76c0 ; spiIoctl + 536
        0x00007698:    e3510001    ..Q.    CMP      r1,#1
        0x0000769c:    0a00000d    ....    BEQ      0x76d8 ; spiIoctl + 560
        0x000076a0:    e3510002    ..Q.    CMP      r1,#2
        0x000076a4:    0a000011    ....    BEQ      0x76f0 ; spiIoctl + 584
        0x000076a8:    e5900000    ....    LDR      r0,[r0,#0]
        0x000076ac:    e5901000    ....    LDR      r1,[r0,#0]
        0x000076b0:    e3c1111a    ....    BIC      r1,r1,#0x80000006
        0x000076b4:    e381110a    ....    ORR      r1,r1,#0x80000002
        0x000076b8:    e5801000    ....    STR      r1,[r0,#0]
        0x000076bc:    ea000053    S...    B        0x7810 ; spiIoctl + 872
        0x000076c0:    e5900000    ....    LDR      r0,[r0,#0]
        0x000076c4:    e5901000    ....    LDR      r1,[r0,#0]
        0x000076c8:    e3c1111a    ....    BIC      r1,r1,#0x80000006
        0x000076cc:    e3811004    ....    ORR      r1,r1,#4
        0x000076d0:    e5801000    ....    STR      r1,[r0,#0]
        0x000076d4:    ea00004d    M...    B        0x7810 ; spiIoctl + 872
        0x000076d8:    e5900000    ....    LDR      r0,[r0,#0]
        0x000076dc:    e5901000    ....    LDR      r1,[r0,#0]
        0x000076e0:    e3c1111a    ....    BIC      r1,r1,#0x80000006
        0x000076e4:    e3811002    ....    ORR      r1,r1,#2
        0x000076e8:    e5801000    ....    STR      r1,[r0,#0]
        0x000076ec:    ea000047    G...    B        0x7810 ; spiIoctl + 872
        0x000076f0:    e5900000    ....    LDR      r0,[r0,#0]
        0x000076f4:    e5901000    ....    LDR      r1,[r0,#0]
        0x000076f8:    e3c1111a    ....    BIC      r1,r1,#0x80000006
        0x000076fc:    e3811112    ....    ORR      r1,r1,#0x80000004
        0x00007700:    e5801000    ....    STR      r1,[r0,#0]
        0x00007704:    ea000041    A...    B        0x7810 ; spiIoctl + 872
        0x00007708:    e3510000    ..Q.    CMP      r1,#0
        0x0000770c:    0a000005    ....    BEQ      0x7728 ; spiIoctl + 640
        0x00007710:    e3510001    ..Q.    CMP      r1,#1
        0x00007714:    0a000009    ....    BEQ      0x7740 ; spiIoctl + 664
        0x00007718:    e3510002    ..Q.    CMP      r1,#2
        0x0000771c:    0a00000d    ....    BEQ      0x7758 ; spiIoctl + 688
        0x00007720:    e3e00003    ....    MVN      r0,#3
        0x00007724:    e8bd8010    ....    POP      {r4,pc}
        0x00007728:    e5900000    ....    LDR      r0,[r0,#0]
        0x0000772c:    e5901008    ....    LDR      r1,[r0,#8]
        0x00007730:    e3c11003    ....    BIC      r1,r1,#3
        0x00007734:    e3811001    ....    ORR      r1,r1,#1
        0x00007738:    e5801008    ....    STR      r1,[r0,#8]
        0x0000773c:    ea000033    3...    B        0x7810 ; spiIoctl + 872
        0x00007740:    e5900000    ....    LDR      r0,[r0,#0]
        0x00007744:    e5901008    ....    LDR      r1,[r0,#8]
        0x00007748:    e3c11003    ....    BIC      r1,r1,#3
        0x0000774c:    e3811002    ....    ORR      r1,r1,#2
        0x00007750:    e5801008    ....    STR      r1,[r0,#8]
        0x00007754:    ea00002d    -...    B        0x7810 ; spiIoctl + 872
        0x00007758:    e5900000    ....    LDR      r0,[r0,#0]
        0x0000775c:    e5901008    ....    LDR      r1,[r0,#8]
        0x00007760:    e3811003    ....    ORR      r1,r1,#3
        0x00007764:    e5801008    ....    STR      r1,[r0,#8]
        0x00007768:    ea000028    (...    B        0x7810 ; spiIoctl + 872
        0x0000776c:    e3510000    ..Q.    CMP      r1,#0
        0x00007770:    0a000005    ....    BEQ      0x778c ; spiIoctl + 740
        0x00007774:    e3510001    ..Q.    CMP      r1,#1
        0x00007778:    0a000008    ....    BEQ      0x77a0 ; spiIoctl + 760
        0x0000777c:    e3510002    ..Q.    CMP      r1,#2
        0x00007780:    0a00000b    ....    BEQ      0x77b4 ; spiIoctl + 780
        0x00007784:    e3e00003    ....    MVN      r0,#3
        0x00007788:    e8bd8010    ....    POP      {r4,pc}
        0x0000778c:    e5900000    ....    LDR      r0,[r0,#0]
        0x00007790:    e5901008    ....    LDR      r1,[r0,#8]
        0x00007794:    e3c11001    ....    BIC      r1,r1,#1
        0x00007798:    e5801008    ....    STR      r1,[r0,#8]
        0x0000779c:    ea00001b    ....    B        0x7810 ; spiIoctl + 872
        0x000077a0:    e5900000    ....    LDR      r0,[r0,#0]
        0x000077a4:    e5901008    ....    LDR      r1,[r0,#8]
        0x000077a8:    e3c11002    ....    BIC      r1,r1,#2
        0x000077ac:    e5801008    ....    STR      r1,[r0,#8]
        0x000077b0:    ea000016    ....    B        0x7810 ; spiIoctl + 872
        0x000077b4:    e5900000    ....    LDR      r0,[r0,#0]
        0x000077b8:    e5901008    ....    LDR      r1,[r0,#8]
        0x000077bc:    e3c11003    ....    BIC      r1,r1,#3
        0x000077c0:    e5801008    ....    STR      r1,[r0,#8]
        0x000077c4:    ea000011    ....    B        0x7810 ; spiIoctl + 872
        0x000077c8:    e3510000    ..Q.    CMP      r1,#0
        0x000077cc:    0a000004    ....    BEQ      0x77e4 ; spiIoctl + 828
        0x000077d0:    e5900000    ....    LDR      r0,[r0,#0]
        0x000077d4:    e5901008    ....    LDR      r1,[r0,#8]
        0x000077d8:    e3811008    ....    ORR      r1,r1,#8
        0x000077dc:    e5801008    ....    STR      r1,[r0,#8]
        0x000077e0:    ea00000a    ....    B        0x7810 ; spiIoctl + 872
        0x000077e4:    e5900000    ....    LDR      r0,[r0,#0]
        0x000077e8:    e5901008    ....    LDR      r1,[r0,#8]
        0x000077ec:    e3c11008    ....    BIC      r1,r1,#8
        0x000077f0:    e5801008    ....    STR      r1,[r0,#8]
        0x000077f4:    ea000005    ....    B        0x7810 ; spiIoctl + 872
        0x000077f8:    e3510000    ..Q.    CMP      r1,#0
        0x000077fc:    0a000005    ....    BEQ      0x7818 ; spiIoctl + 880
        0x00007800:    e5900000    ....    LDR      r0,[r0,#0]
        0x00007804:    e5901008    ....    LDR      r1,[r0,#8]
        0x00007808:    e3811004    ....    ORR      r1,r1,#4
        0x0000780c:    e5801008    ....    STR      r1,[r0,#8]
        0x00007810:    e3a00000    ....    MOV      r0,#0
        0x00007814:    e8bd8010    ....    POP      {r4,pc}
        0x00007818:    e5900000    ....    LDR      r0,[r0,#0]
        0x0000781c:    e5901008    ....    LDR      r1,[r0,#8]
        0x00007820:    e3c11004    ....    BIC      r1,r1,#4
        0x00007824:    e5801008    ....    STR      r1,[r0,#8]
        0x00007828:    eafffff8    ....    B        0x7810 ; spiIoctl + 872
    $d
        0x0000782c:    000642f0    .B..    DCD    410352
    $a
    i.spiOpen
    spiOpen
        0x00007830:    e92d4030    0@-.    PUSH     {r4,r5,lr}
        0x00007834:    e3500002    ..P.    CMP      r0,#2
        0x00007838:    3a000001    ...:    BCC      0x7844 ; spiOpen + 20
        0x0000783c:    e3e00000    ....    MVN      r0,#0
        0x00007840:    e8bd8030    0...    POP      {r4,r5,pc}
        0x00007844:    e59f10f0    ....    LDR      r1,[pc,#240] ; [0x793c] = 0x642f0
        0x00007848:    e0811180    ....    ADD      r1,r1,r0,LSL #3
        0x0000784c:    e5d12004    . ..    LDRB     r2,[r1,#4]
        0x00007850:    e3520000    ..R.    CMP      r2,#0
        0x00007854:    0a000001    ....    BEQ      0x7860 ; spiOpen + 48
        0x00007858:    e3e00001    ....    MVN      r0,#1
        0x0000785c:    e8bd8030    0...    POP      {r4,r5,pc}
        0x00007860:    e3500000    ..P.    CMP      r0,#0
        0x00007864:    e3a0220b    ."..    MOV      r2,#0xb0000000
        0x00007868:    0a00001e    ....    BEQ      0x78e8 ; spiOpen + 184
        0x0000786c:    e592321c    .2..    LDR      r3,[r2,#0x21c]
        0x00007870:    e3833020     0..    ORR      r3,r3,#0x20
        0x00007874:    e582321c    .2..    STR      r3,[r2,#0x21c]
        0x00007878:    e3a03059    Y0..    MOV      r3,#0x59
        0x0000787c:    e3a0c016    ....    MOV      r12,#0x16
        0x00007880:    e3a04088    .@..    MOV      r4,#0x88
        0x00007884:    e58231fc    .1..    STR      r3,[r2,#0x1fc]
        0x00007888:    e582c1fc    ....    STR      r12,[r2,#0x1fc]
        0x0000788c:    e58241fc    .A..    STR      r4,[r2,#0x1fc]
        0x00007890:    e59251fc    .Q..    LDR      r5,[r2,#0x1fc]
        0x00007894:    e3550001    ..U.    CMP      r5,#1
        0x00007898:    1afffff9    ....    BNE      0x7884 ; spiOpen + 84
        0x0000789c:    e3500000    ..P.    CMP      r0,#0
        0x000078a0:    0a000014    ....    BEQ      0x78f8 ; spiOpen + 200
        0x000078a4:    e5923068    h0..    LDR      r3,[r2,#0x68]
        0x000078a8:    e3833020     0..    ORR      r3,r3,#0x20
        0x000078ac:    e5823068    h0..    STR      r3,[r2,#0x68]
        0x000078b0:    e5923068    h0..    LDR      r3,[r2,#0x68]
        0x000078b4:    e3c33020     0..    BIC      r3,r3,#0x20
        0x000078b8:    e5823068    h0..    STR      r3,[r2,#0x68]
        0x000078bc:    e5923068    h0..    LDR      r3,[r2,#0x68]
        0x000078c0:    e3130020     ...    TST      r3,#0x20
        0x000078c4:    1afffffc    ....    BNE      0x78bc ; spiOpen + 140
        0x000078c8:    e3a03000    .0..    MOV      r3,#0
        0x000078cc:    e58231fc    .1..    STR      r3,[r2,#0x1fc]
        0x000078d0:    e5813000    .0..    STR      r3,[r1,#0]
        0x000078d4:    e5813004    .0..    STR      r3,[r1,#4]
        0x000078d8:    e3500000    ..P.    CMP      r0,#0
        0x000078dc:    0a00000f    ....    BEQ      0x7920 ; spiOpen + 240
        0x000078e0:    e59f0058    X...    LDR      r0,[pc,#88] ; [0x7940] = 0xb8006300
        0x000078e4:    ea00000e    ....    B        0x7924 ; spiOpen + 244
        0x000078e8:    e592321c    .2..    LDR      r3,[r2,#0x21c]
        0x000078ec:    e3833010    .0..    ORR      r3,r3,#0x10
        0x000078f0:    e582321c    .2..    STR      r3,[r2,#0x21c]
        0x000078f4:    eaffffdf    ....    B        0x7878 ; spiOpen + 72
        0x000078f8:    e5923068    h0..    LDR      r3,[r2,#0x68]
        0x000078fc:    e3833010    .0..    ORR      r3,r3,#0x10
        0x00007900:    e5823068    h0..    STR      r3,[r2,#0x68]
        0x00007904:    e5923068    h0..    LDR      r3,[r2,#0x68]
        0x00007908:    e3c33010    .0..    BIC      r3,r3,#0x10
        0x0000790c:    e5823068    h0..    STR      r3,[r2,#0x68]
        0x00007910:    e5923068    h0..    LDR      r3,[r2,#0x68]
        0x00007914:    e3130010    ....    TST      r3,#0x10
        0x00007918:    1afffffc    ....    BNE      0x7910 ; spiOpen + 224
        0x0000791c:    eaffffe9    ....    B        0x78c8 ; spiOpen + 152
        0x00007920:    e59f001c    ....    LDR      r0,[pc,#28] ; [0x7944] = 0xb8006200
        0x00007924:    e5810000    ....    STR      r0,[r1,#0]
        0x00007928:    e3a00001    ....    MOV      r0,#1
        0x0000792c:    e5c10004    ....    STRB     r0,[r1,#4]
        0x00007930:    e5c13005    .0..    STRB     r3,[r1,#5]
        0x00007934:    e3a00000    ....    MOV      r0,#0
        0x00007938:    e8bd8030    0...    POP      {r4,r5,pc}
    $d
        0x0000793c:    000642f0    .B..    DCD    410352
        0x00007940:    b8006300    .c..    DCD    3087033088
        0x00007944:    b8006200    .b..    DCD    3087032832
    $a
    i.spiRead
    spiRead
        0x00007948:    e59f2010    . ..    LDR      r2,[pc,#16] ; [0x7960] = 0x642f0
        0x0000794c:    e0820180    ....    ADD      r0,r2,r0,LSL #3
        0x00007950:    e5900000    ....    LDR      r0,[r0,#0]
        0x00007954:    e0800101    ....    ADD      r0,r0,r1,LSL #2
        0x00007958:    e5900010    ....    LDR      r0,[r0,#0x10]
        0x0000795c:    e12fff1e    ../.    BX       lr
    $d
        0x00007960:    000642f0    .B..    DCD    410352
    $a
    i.spiSetSpeed
    spiSetSpeed
        0x00007964:    e92d4070    p@-.    PUSH     {r4-r6,lr}
        0x00007968:    e1a04000    .@..    MOV      r4,r0
        0x0000796c:    e59f5030    0P..    LDR      r5,[pc,#48] ; [0x79a4] = 0x47868c0
        0x00007970:    e1a01081    ....    LSL      r1,r1,#1
        0x00007974:    e1a00005    ....    MOV      r0,r5
        0x00007978:    ebffe515    ....    BL       __aeabi_uidiv ; 0xdd4
        0x0000797c:    e2400001    ..@.    SUB      r0,r0,#1
        0x00007980:    e1a01800    ....    LSL      r1,r0,#16
        0x00007984:    e1a01821    !...    LSR      r1,r1,#16
        0x00007988:    e5940000    ....    LDR      r0,[r4,#0]
        0x0000798c:    e5801004    ....    STR      r1,[r0,#4]
        0x00007990:    e2810001    ....    ADD      r0,r1,#1
        0x00007994:    e1a01080    ....    LSL      r1,r0,#1
        0x00007998:    e1a00005    ....    MOV      r0,r5
        0x0000799c:    ebffe50c    ....    BL       __aeabi_uidiv ; 0xdd4
        0x000079a0:    e8bd8070    p...    POP      {r4-r6,pc}
    $d
        0x000079a4:    047868c0    .hx.    DCD    75000000
    $a
    i.spiWrite
    spiWrite
        0x000079a8:    e59f3010    .0..    LDR      r3,[pc,#16] ; [0x79c0] = 0x642f0
        0x000079ac:    e0830180    ....    ADD      r0,r3,r0,LSL #3
        0x000079b0:    e5900000    ....    LDR      r0,[r0,#0]
        0x000079b4:    e0800101    ....    ADD      r0,r0,r1,LSL #2
        0x000079b8:    e5802010    . ..    STR      r2,[r0,#0x10]
        0x000079bc:    e12fff1e    ../.    BX       lr
    $d
        0x000079c0:    000642f0    .B..    DCD    410352
    $a
    i.sysDisableCache
    sysDisableCache
        0x000079c4:    e92d4010    .@-.    PUSH     {r4,lr}
        0x000079c8:    ebffe513    ....    BL       sys_flush_and_clean_dcache ; 0xe1c
        0x000079cc:    e3a00000    ....    MOV      r0,#0
        0x000079d0:    ee070f15    ....    MCR      p15,#0x0,r0,c7,c5,#0
        0x000079d4:    ee070f16    ....    MCR      p15,#0x0,r0,c7,c6,#0
        0x000079d8:    ee070f9a    ....    MCR      p15,#0x0,r0,c7,c10,#4
        0x000079dc:    ee110f10    ....    MRC      p15,#0x0,r0,c1,c0,#0
        0x000079e0:    e3c00001    ....    BIC      r0,r0,#1
        0x000079e4:    ee010f10    ....    MCR      p15,#0x0,r0,c1,c0,#0
        0x000079e8:    e59f0010    ....    LDR      r0,[pc,#16] ; [0x7a00] = 0xa414
        0x000079ec:    e3a01000    ....    MOV      r1,#0
        0x000079f0:    e5c01000    ....    STRB     r1,[r0,#0]
        0x000079f4:    e3e01000    ....    MVN      r1,#0
        0x000079f8:    e5801008    ....    STR      r1,[r0,#8]
        0x000079fc:    e8bd8010    ....    POP      {r4,pc}
    $d
        0x00007a00:    0000a414    ....    DCD    42004
    $a
    i.sysEnableCache
    sysEnableCache
        0x00007a04:    e92d4010    .@-.    PUSH     {r4,lr}
        0x00007a08:    e1a04000    .@..    MOV      r4,r0
        0x00007a0c:    e1a00004    ....    MOV      r0,r4
        0x00007a10:    eb00014f    O...    BL       sysInitMMUTable ; 0x7f54
        0x00007a14:    e59f1010    ....    LDR      r1,[pc,#16] ; [0x7a2c] = 0xa414
        0x00007a18:    e3a02001    . ..    MOV      r2,#1
        0x00007a1c:    e5c12000    . ..    STRB     r2,[r1,#0]
        0x00007a20:    e5814008    .@..    STR      r4,[r1,#8]
        0x00007a24:    e3a00000    ....    MOV      r0,#0
        0x00007a28:    e8bd8010    ....    POP      {r4,pc}
    $d
        0x00007a2c:    0000a414    ....    DCD    42004
    $a
    i.sysEnableInterrupt
    sysEnableInterrupt
        0x00007a30:    e2401001    ..@.    SUB      r1,r0,#1
        0x00007a34:    e351003e    >.Q.    CMP      r1,#0x3e
        0x00007a38:    3a000001    ...:    BCC      0x7a44 ; sysEnableInterrupt + 20
        0x00007a3c:    e3a00001    ....    MOV      r0,#1
        0x00007a40:    e12fff1e    ../.    BX       lr
        0x00007a44:    e59f1028    (...    LDR      r1,[pc,#40] ; [0x7a74] = 0xb8002000
        0x00007a48:    e3500020     .P.    CMP      r0,#0x20
        0x00007a4c:    e3a02001    . ..    MOV      r2,#1
        0x00007a50:    2a000002    ...*    BCS      0x7a60 ; sysEnableInterrupt + 48
        0x00007a54:    e1a00012    ....    LSL      r0,r2,r0
        0x00007a58:    e5810130    0...    STR      r0,[r1,#0x130]
        0x00007a5c:    ea000002    ....    B        0x7a6c ; sysEnableInterrupt + 60
        0x00007a60:    e2400020     .@.    SUB      r0,r0,#0x20
        0x00007a64:    e1a00012    ....    LSL      r0,r2,r0
        0x00007a68:    e5810134    4...    STR      r0,[r1,#0x134]
        0x00007a6c:    e3a00000    ....    MOV      r0,#0
        0x00007a70:    e12fff1e    ../.    BX       lr
    $d
        0x00007a74:    b8002000    . ..    DCD    3087015936
    $a
    i.sysFiqHandler
    sysFiqHandler
        0x00007a78:    e92d501f    .P-.    PUSH     {r0-r4,r12,lr}
        0x00007a7c:    e24dd00c    ..M.    SUB      sp,sp,#0xc
        0x00007a80:    e59f4050    P@..    LDR      r4,[pc,#80] ; [0x7ad8] = 0xb8002000
        0x00007a84:    e5940118    ....    LDR      r0,[r4,#0x118]
        0x00007a88:    e1a00c00    ....    LSL      r0,r0,#24
        0x00007a8c:    e1a00d20     ...    LSR      r0,r0,#26
        0x00007a90:    e58d0008    ....    STR      r0,[sp,#8]
        0x00007a94:    e5940120     ...    LDR      r0,[r4,#0x120]
        0x00007a98:    e58d0004    ....    STR      r0,[sp,#4]
        0x00007a9c:    e59d0008    ....    LDR      r0,[sp,#8]
        0x00007aa0:    e3500000    ..P.    CMP      r0,#0
        0x00007aa4:    0a000008    ....    BEQ      0x7acc ; sysFiqHandler + 84
        0x00007aa8:    e59d0004    ....    LDR      r0,[sp,#4]
        0x00007aac:    e3500000    ..P.    CMP      r0,#0
        0x00007ab0:    0a000003    ....    BEQ      0x7ac4 ; sysFiqHandler + 76
        0x00007ab4:    e59f0020     ...    LDR      r0,[pc,#32] ; [0x7adc] = 0xa2b8
        0x00007ab8:    e59d1008    ....    LDR      r1,[sp,#8]
        0x00007abc:    e7900101    ....    LDR      r0,[r0,r1,LSL #2]
        0x00007ac0:    e12fff30    0./.    BLX      r0
        0x00007ac4:    e3a00001    ....    MOV      r0,#1
        0x00007ac8:    e5840150    P...    STR      r0,[r4,#0x150]
        0x00007acc:    e28dd00c    ....    ADD      sp,sp,#0xc
        0x00007ad0:    e8bd501f    .P..    POP      {r0-r4,r12,lr}
        0x00007ad4:    e25ef004    ..^.    SUBS     pc,lr,#4
    $d
        0x00007ad8:    b8002000    . ..    DCD    3087015936
        0x00007adc:    0000a2b8    ....    DCD    41656
    $a
    i.sysFlushCache
    sysFlushCache
        0x00007ae0:    e92d4010    .@-.    PUSH     {r4,lr}
        0x00007ae4:    e3500006    ..P.    CMP      r0,#6
        0x00007ae8:    0a000008    ....    BEQ      0x7b10 ; sysFlushCache + 48
        0x00007aec:    e3500007    ..P.    CMP      r0,#7
        0x00007af0:    0a000009    ....    BEQ      0x7b1c ; sysFlushCache + 60
        0x00007af4:    e3500008    ..P.    CMP      r0,#8
        0x00007af8:    1a000003    ....    BNE      0x7b0c ; sysFlushCache + 44
        0x00007afc:    ebffe4c6    ....    BL       sys_flush_and_clean_dcache ; 0xe1c
        0x00007b00:    e3a00000    ....    MOV      r0,#0
        0x00007b04:    ee070f15    ....    MCR      p15,#0x0,r0,c7,c5,#0
        0x00007b08:    ee070f9a    ....    MCR      p15,#0x0,r0,c7,c10,#4
        0x00007b0c:    e8bd8010    ....    POP      {r4,pc}
        0x00007b10:    e3a00000    ....    MOV      r0,#0
        0x00007b14:    ee070f15    ....    MCR      p15,#0x0,r0,c7,c5,#0
        0x00007b18:    e8bd8010    ....    POP      {r4,pc}
        0x00007b1c:    ebffe4be    ....    BL       sys_flush_and_clean_dcache ; 0xe1c
        0x00007b20:    e3a00000    ....    MOV      r0,#0
        0x00007b24:    ee070f9a    ....    MCR      p15,#0x0,r0,c7,c10,#4
        0x00007b28:    e8bd8010    ....    POP      {r4,pc}
    i.sysGetCacheState
    sysGetCacheState
        0x00007b2c:    e59f0004    ....    LDR      r0,[pc,#4] ; [0x7b38] = 0xa414
        0x00007b30:    e5d00000    ....    LDRB     r0,[r0,#0]
        0x00007b34:    e12fff1e    ../.    BX       lr
    $d
        0x00007b38:    0000a414    ....    DCD    42004
    $a
    i.sysGetClock
    sysGetClock
        0x00007b3c:    e92d4070    p@-.    PUSH     {r4-r6,lr}
        0x00007b40:    e1a03000    .0..    MOV      r3,r0
        0x00007b44:    e59f0258    X...    LDR      r0,[pc,#600] ; [0x7da4] = 0xb0000264
        0x00007b48:    e3530008    ..S.    CMP      r3,#8
        0x00007b4c:    e3a05001    .P..    MOV      r5,#1
        0x00007b50:    e2402004    . @.    SUB      r2,r0,#4
        0x00007b54:    e3a0120b    ....    MOV      r1,#0xb0000000
        0x00007b58:    308ff103    ...0    ADDCC    pc,pc,r3,LSL #2
        0x00007b5c:    ea00008e    ....    B        0x7d9c ; sysGetClock + 608
        0x00007b60:    ea00008d    ....    B        0x7d9c ; sysGetClock + 608
        0x00007b64:    ea000005    ....    B        0x7b80 ; sysGetClock + 68
        0x00007b68:    ea000006    ....    B        0x7b88 ; sysGetClock + 76
        0x00007b6c:    ea000008    ....    B        0x7b94 ; sysGetClock + 88
        0x00007b70:    ea00001e    ....    B        0x7bf0 ; sysGetClock + 180
        0x00007b74:    ea000035    5...    B        0x7c50 ; sysGetClock + 276
        0x00007b78:    ea000050    P...    B        0x7cc0 ; sysGetClock + 388
        0x00007b7c:    ea00006b    k...    B        0x7d30 ; sysGetClock + 500
        0x00007b80:    e8bd4070    p@..    POP      {r4-r6,lr}
        0x00007b84:    ea000087    ....    B        sysGetPLL ; 0x7da8
        0x00007b88:    e8bd4070    p@..    POP      {r4-r6,lr}
        0x00007b8c:    e1a00002    ....    MOV      r0,r2
        0x00007b90:    ea000084    ....    B        sysGetPLL ; 0x7da8
        0x00007b94:    e5914220     B..    LDR      r4,[r1,#0x220]
        0x00007b98:    e2141018    ....    ANDS     r1,r4,#0x18
        0x00007b9c:    0a000005    ....    BEQ      0x7bb8 ; sysGetClock + 124
        0x00007ba0:    e3510010    ..Q.    CMP      r1,#0x10
        0x00007ba4:    0a000005    ....    BEQ      0x7bc0 ; sysGetClock + 132
        0x00007ba8:    e3510018    ..Q.    CMP      r1,#0x18
        0x00007bac:    0a000006    ....    BEQ      0x7bcc ; sysGetClock + 144
        0x00007bb0:    e3a00000    ....    MOV      r0,#0
        0x00007bb4:    e8bd8070    p...    POP      {r4-r6,pc}
        0x00007bb8:    e3a0000c    ....    MOV      r0,#0xc
        0x00007bbc:    ea000003    ....    B        0x7bd0 ; sysGetClock + 148
        0x00007bc0:    e1a00002    ....    MOV      r0,r2
        0x00007bc4:    eb000077    w...    BL       sysGetPLL ; 0x7da8
        0x00007bc8:    ea000000    ....    B        0x7bd0 ; sysGetClock + 148
        0x00007bcc:    eb000075    u...    BL       sysGetPLL ; 0x7da8
        0x00007bd0:    e2041007    ....    AND      r1,r4,#7
        0x00007bd4:    e2811001    ....    ADD      r1,r1,#1
        0x00007bd8:    e2042c0f    .,..    AND      r2,r4,#0xf00
        0x00007bdc:    e0854422    "D..    ADD      r4,r5,r2,LSR #8
        0x00007be0:    ebffe47b    {...    BL       __aeabi_uidiv ; 0xdd4
        0x00007be4:    e1a01004    ....    MOV      r1,r4
        0x00007be8:    ebffe479    y...    BL       __aeabi_uidiv ; 0xdd4
        0x00007bec:    e8bd8070    p...    POP      {r4-r6,pc}
        0x00007bf0:    e5914220     B..    LDR      r4,[r1,#0x220]
        0x00007bf4:    e2141018    ....    ANDS     r1,r4,#0x18
        0x00007bf8:    0a000005    ....    BEQ      0x7c14 ; sysGetClock + 216
        0x00007bfc:    e3510010    ..Q.    CMP      r1,#0x10
        0x00007c00:    0a000005    ....    BEQ      0x7c1c ; sysGetClock + 224
        0x00007c04:    e3510018    ..Q.    CMP      r1,#0x18
        0x00007c08:    0a000006    ....    BEQ      0x7c28 ; sysGetClock + 236
        0x00007c0c:    e3a00000    ....    MOV      r0,#0
        0x00007c10:    e8bd8070    p...    POP      {r4-r6,pc}
        0x00007c14:    e3a0000c    ....    MOV      r0,#0xc
        0x00007c18:    ea000003    ....    B        0x7c2c ; sysGetClock + 240
        0x00007c1c:    e1a00002    ....    MOV      r0,r2
        0x00007c20:    eb000060    `...    BL       sysGetPLL ; 0x7da8
        0x00007c24:    ea000000    ....    B        0x7c2c ; sysGetClock + 240
        0x00007c28:    eb00005e    ^...    BL       sysGetPLL ; 0x7da8
        0x00007c2c:    e2041007    ....    AND      r1,r4,#7
        0x00007c30:    e2811001    ....    ADD      r1,r1,#1
        0x00007c34:    e2042c0f    .,..    AND      r2,r4,#0xf00
        0x00007c38:    e0854422    "D..    ADD      r4,r5,r2,LSR #8
        0x00007c3c:    ebffe464    d...    BL       __aeabi_uidiv ; 0xdd4
        0x00007c40:    e1a01004    ....    MOV      r1,r4
        0x00007c44:    ebffe462    b...    BL       __aeabi_uidiv ; 0xdd4
        0x00007c48:    e1a000a0    ....    LSR      r0,r0,#1
        0x00007c4c:    e8bd8070    p...    POP      {r4-r6,pc}
        0x00007c50:    e5914220     B..    LDR      r4,[r1,#0x220]
        0x00007c54:    e2141018    ....    ANDS     r1,r4,#0x18
        0x00007c58:    0a000005    ....    BEQ      0x7c74 ; sysGetClock + 312
        0x00007c5c:    e3510010    ..Q.    CMP      r1,#0x10
        0x00007c60:    0a000005    ....    BEQ      0x7c7c ; sysGetClock + 320
        0x00007c64:    e3510018    ..Q.    CMP      r1,#0x18
        0x00007c68:    0a000006    ....    BEQ      0x7c88 ; sysGetClock + 332
        0x00007c6c:    e3a00000    ....    MOV      r0,#0
        0x00007c70:    e8bd8070    p...    POP      {r4-r6,pc}
        0x00007c74:    e3a0000c    ....    MOV      r0,#0xc
        0x00007c78:    ea000003    ....    B        0x7c8c ; sysGetClock + 336
        0x00007c7c:    e1a00002    ....    MOV      r0,r2
        0x00007c80:    eb000048    H...    BL       sysGetPLL ; 0x7da8
        0x00007c84:    ea000000    ....    B        0x7c8c ; sysGetClock + 336
        0x00007c88:    eb000046    F...    BL       sysGetPLL ; 0x7da8
        0x00007c8c:    e2041007    ....    AND      r1,r4,#7
        0x00007c90:    e2811001    ....    ADD      r1,r1,#1
        0x00007c94:    e2042c0f    .,..    AND      r2,r4,#0xf00
        0x00007c98:    e0856422    "d..    ADD      r6,r5,r2,LSR #8
        0x00007c9c:    e204260f    .&..    AND      r2,r4,#0xf00000
        0x00007ca0:    e0854a22    "J..    ADD      r4,r5,r2,LSR #20
        0x00007ca4:    ebffe44a    J...    BL       __aeabi_uidiv ; 0xdd4
        0x00007ca8:    e1a01006    ....    MOV      r1,r6
        0x00007cac:    ebffe448    H...    BL       __aeabi_uidiv ; 0xdd4
        0x00007cb0:    e1a000a0    ....    LSR      r0,r0,#1
        0x00007cb4:    e1a01004    ....    MOV      r1,r4
        0x00007cb8:    ebffe445    E...    BL       __aeabi_uidiv ; 0xdd4
        0x00007cbc:    e8bd8070    p...    POP      {r4-r6,pc}
        0x00007cc0:    e5914220     B..    LDR      r4,[r1,#0x220]
        0x00007cc4:    e2141018    ....    ANDS     r1,r4,#0x18
        0x00007cc8:    0a000005    ....    BEQ      0x7ce4 ; sysGetClock + 424
        0x00007ccc:    e3510010    ..Q.    CMP      r1,#0x10
        0x00007cd0:    0a000005    ....    BEQ      0x7cec ; sysGetClock + 432
        0x00007cd4:    e3510018    ..Q.    CMP      r1,#0x18
        0x00007cd8:    0a000006    ....    BEQ      0x7cf8 ; sysGetClock + 444
        0x00007cdc:    e3a00000    ....    MOV      r0,#0
        0x00007ce0:    e8bd8070    p...    POP      {r4-r6,pc}
        0x00007ce4:    e3a0000c    ....    MOV      r0,#0xc
        0x00007ce8:    ea000003    ....    B        0x7cfc ; sysGetClock + 448
        0x00007cec:    e1a00002    ....    MOV      r0,r2
        0x00007cf0:    eb00002c    ,...    BL       sysGetPLL ; 0x7da8
        0x00007cf4:    ea000000    ....    B        0x7cfc ; sysGetClock + 448
        0x00007cf8:    eb00002a    *...    BL       sysGetPLL ; 0x7da8
        0x00007cfc:    e2041007    ....    AND      r1,r4,#7
        0x00007d00:    e2811001    ....    ADD      r1,r1,#1
        0x00007d04:    e2042c0f    .,..    AND      r2,r4,#0xf00
        0x00007d08:    e0856422    "d..    ADD      r6,r5,r2,LSR #8
        0x00007d0c:    e204240f    .$..    AND      r2,r4,#0xf000000
        0x00007d10:    e0854c22    "L..    ADD      r4,r5,r2,LSR #24
        0x00007d14:    ebffe42e    ....    BL       __aeabi_uidiv ; 0xdd4
        0x00007d18:    e1a01006    ....    MOV      r1,r6
        0x00007d1c:    ebffe42c    ,...    BL       __aeabi_uidiv ; 0xdd4
        0x00007d20:    e1a000a0    ....    LSR      r0,r0,#1
        0x00007d24:    e1a01004    ....    MOV      r1,r4
        0x00007d28:    ebffe429    )...    BL       __aeabi_uidiv ; 0xdd4
        0x00007d2c:    e8bd8070    p...    POP      {r4-r6,pc}
        0x00007d30:    e5914220     B..    LDR      r4,[r1,#0x220]
        0x00007d34:    e2141018    ....    ANDS     r1,r4,#0x18
        0x00007d38:    0a000005    ....    BEQ      0x7d54 ; sysGetClock + 536
        0x00007d3c:    e3510010    ..Q.    CMP      r1,#0x10
        0x00007d40:    0a000005    ....    BEQ      0x7d5c ; sysGetClock + 544
        0x00007d44:    e3510018    ..Q.    CMP      r1,#0x18
        0x00007d48:    0a000006    ....    BEQ      0x7d68 ; sysGetClock + 556
        0x00007d4c:    e3a00000    ....    MOV      r0,#0
        0x00007d50:    e8bd8070    p...    POP      {r4-r6,pc}
        0x00007d54:    e3a0000c    ....    MOV      r0,#0xc
        0x00007d58:    ea000003    ....    B        0x7d6c ; sysGetClock + 560
        0x00007d5c:    e1a00002    ....    MOV      r0,r2
        0x00007d60:    eb000010    ....    BL       sysGetPLL ; 0x7da8
        0x00007d64:    ea000000    ....    B        0x7d6c ; sysGetClock + 560
        0x00007d68:    eb00000e    ....    BL       sysGetPLL ; 0x7da8
        0x00007d6c:    e2041007    ....    AND      r1,r4,#7
        0x00007d70:    e2811001    ....    ADD      r1,r1,#1
        0x00007d74:    e2042c0f    .,..    AND      r2,r4,#0xf00
        0x00007d78:    e0856422    "d..    ADD      r6,r5,r2,LSR #8
        0x00007d7c:    e204280f    .(..    AND      r2,r4,#0xf0000
        0x00007d80:    e0854822    "H..    ADD      r4,r5,r2,LSR #16
        0x00007d84:    ebffe412    ....    BL       __aeabi_uidiv ; 0xdd4
        0x00007d88:    e1a01006    ....    MOV      r1,r6
        0x00007d8c:    ebffe410    ....    BL       __aeabi_uidiv ; 0xdd4
        0x00007d90:    e1a01004    ....    MOV      r1,r4
        0x00007d94:    ebffe40e    ....    BL       __aeabi_uidiv ; 0xdd4
        0x00007d98:    e8bd8070    p...    POP      {r4-r6,pc}
        0x00007d9c:    e3a00000    ....    MOV      r0,#0
        0x00007da0:    e8bd8070    p...    POP      {r4-r6,pc}
    $d
        0x00007da4:    b0000264    d...    DCD    2952790628
    $a
    i.sysGetPLL
    sysGetPLL
        0x00007da8:    e92d4010    .@-.    PUSH     {r4,lr}
        0x00007dac:    e5901000    ....    LDR      r1,[r0,#0]
        0x00007db0:    e201107f    ....    AND      r1,r1,#0x7f
        0x00007db4:    e2812001    . ..    ADD      r2,r1,#1
        0x00007db8:    e5901000    ....    LDR      r1,[r0,#0]
        0x00007dbc:    e3a03001    .0..    MOV      r3,#1
        0x00007dc0:    e2011d7e    ~...    AND      r1,r1,#0x1f80
        0x00007dc4:    e08313a1    ....    ADD      r1,r3,r1,LSR #7
        0x00007dc8:    e5900000    ....    LDR      r0,[r0,#0]
        0x00007dcc:    e2000a0e    ....    AND      r0,r0,#0xe000
        0x00007dd0:    e08306a0    ....    ADD      r0,r3,r0,LSR #13
        0x00007dd4:    e1610081    ..a.    SMULBB   r1,r1,r0
        0x00007dd8:    e0820082    ....    ADD      r0,r2,r2,LSL #1
        0x00007ddc:    e1a00100    ....    LSL      r0,r0,#2
        0x00007de0:    ebffe3fb    ....    BL       __aeabi_uidiv ; 0xdd4
        0x00007de4:    e8bd8010    ....    POP      {r4,pc}
    i.sysGetSdramSizebyMB
    sysGetSdramSizebyMB
        0x00007de8:    e92d400c    .@-.    PUSH     {r2,r3,lr}
        0x00007dec:    e3a00000    ....    MOV      r0,#0
        0x00007df0:    e58d0000    ....    STR      r0,[sp,#0]
        0x00007df4:    e59f0150    P...    LDR      r0,[pc,#336] ; [0x7f4c] = 0xb0001810
        0x00007df8:    e5900000    ....    LDR      r0,[r0,#0]
        0x00007dfc:    e2000007    ....    AND      r0,r0,#7
        0x00007e00:    e58d0004    ....    STR      r0,[sp,#4]
        0x00007e04:    e59d0004    ....    LDR      r0,[sp,#4]
        0x00007e08:    e3500008    ..P.    CMP      r0,#8
        0x00007e0c:    308ff100    ...0    ADDCC    pc,pc,r0,LSL #2
        0x00007e10:    ea00001b    ....    B        0x7e84 ; sysGetSdramSizebyMB + 156
        0x00007e14:    ea00001a    ....    B        0x7e84 ; sysGetSdramSizebyMB + 156
        0x00007e18:    ea000005    ....    B        0x7e34 ; sysGetSdramSizebyMB + 76
        0x00007e1c:    ea000007    ....    B        0x7e40 ; sysGetSdramSizebyMB + 88
        0x00007e20:    ea000009    ....    B        0x7e4c ; sysGetSdramSizebyMB + 100
        0x00007e24:    ea00000b    ....    B        0x7e58 ; sysGetSdramSizebyMB + 112
        0x00007e28:    ea00000d    ....    B        0x7e64 ; sysGetSdramSizebyMB + 124
        0x00007e2c:    ea00000f    ....    B        0x7e70 ; sysGetSdramSizebyMB + 136
        0x00007e30:    ea000011    ....    B        0x7e7c ; sysGetSdramSizebyMB + 148
        0x00007e34:    e3a00002    ....    MOV      r0,#2
        0x00007e38:    e58d0000    ....    STR      r0,[sp,#0]
        0x00007e3c:    ea000010    ....    B        0x7e84 ; sysGetSdramSizebyMB + 156
        0x00007e40:    e3a00004    ....    MOV      r0,#4
        0x00007e44:    e58d0000    ....    STR      r0,[sp,#0]
        0x00007e48:    ea00000d    ....    B        0x7e84 ; sysGetSdramSizebyMB + 156
        0x00007e4c:    e3a00008    ....    MOV      r0,#8
        0x00007e50:    e58d0000    ....    STR      r0,[sp,#0]
        0x00007e54:    ea00000a    ....    B        0x7e84 ; sysGetSdramSizebyMB + 156
        0x00007e58:    e3a00010    ....    MOV      r0,#0x10
        0x00007e5c:    e58d0000    ....    STR      r0,[sp,#0]
        0x00007e60:    ea000007    ....    B        0x7e84 ; sysGetSdramSizebyMB + 156
        0x00007e64:    e3a00020     ...    MOV      r0,#0x20
        0x00007e68:    e58d0000    ....    STR      r0,[sp,#0]
        0x00007e6c:    ea000004    ....    B        0x7e84 ; sysGetSdramSizebyMB + 156
        0x00007e70:    e3a00040    @...    MOV      r0,#0x40
        0x00007e74:    e58d0000    ....    STR      r0,[sp,#0]
        0x00007e78:    ea000001    ....    B        0x7e84 ; sysGetSdramSizebyMB + 156
        0x00007e7c:    e3a00080    ....    MOV      r0,#0x80
        0x00007e80:    e58d0000    ....    STR      r0,[sp,#0]
        0x00007e84:    e59f00c4    ....    LDR      r0,[pc,#196] ; [0x7f50] = 0xb0001814
        0x00007e88:    e5900000    ....    LDR      r0,[r0,#0]
        0x00007e8c:    e2000007    ....    AND      r0,r0,#7
        0x00007e90:    e58d0004    ....    STR      r0,[sp,#4]
        0x00007e94:    e59d0004    ....    LDR      r0,[sp,#4]
        0x00007e98:    e3500008    ..P.    CMP      r0,#8
        0x00007e9c:    308ff100    ...0    ADDCC    pc,pc,r0,LSL #2
        0x00007ea0:    ea000022    "...    B        0x7f30 ; sysGetSdramSizebyMB + 328
        0x00007ea4:    ea000021    !...    B        0x7f30 ; sysGetSdramSizebyMB + 328
        0x00007ea8:    ea000005    ....    B        0x7ec4 ; sysGetSdramSizebyMB + 220
        0x00007eac:    ea000008    ....    B        0x7ed4 ; sysGetSdramSizebyMB + 236
        0x00007eb0:    ea00000b    ....    B        0x7ee4 ; sysGetSdramSizebyMB + 252
        0x00007eb4:    ea00000e    ....    B        0x7ef4 ; sysGetSdramSizebyMB + 268
        0x00007eb8:    ea000011    ....    B        0x7f04 ; sysGetSdramSizebyMB + 284
        0x00007ebc:    ea000014    ....    B        0x7f14 ; sysGetSdramSizebyMB + 300
        0x00007ec0:    ea000017    ....    B        0x7f24 ; sysGetSdramSizebyMB + 316
        0x00007ec4:    e59d0000    ....    LDR      r0,[sp,#0]
        0x00007ec8:    e2800002    ....    ADD      r0,r0,#2
        0x00007ecc:    e58d0000    ....    STR      r0,[sp,#0]
        0x00007ed0:    ea000016    ....    B        0x7f30 ; sysGetSdramSizebyMB + 328
        0x00007ed4:    e59d0000    ....    LDR      r0,[sp,#0]
        0x00007ed8:    e2800004    ....    ADD      r0,r0,#4
        0x00007edc:    e58d0000    ....    STR      r0,[sp,#0]
        0x00007ee0:    ea000012    ....    B        0x7f30 ; sysGetSdramSizebyMB + 328
        0x00007ee4:    e59d0000    ....    LDR      r0,[sp,#0]
        0x00007ee8:    e2800008    ....    ADD      r0,r0,#8
        0x00007eec:    e58d0000    ....    STR      r0,[sp,#0]
        0x00007ef0:    ea00000e    ....    B        0x7f30 ; sysGetSdramSizebyMB + 328
        0x00007ef4:    e59d0000    ....    LDR      r0,[sp,#0]
        0x00007ef8:    e2800010    ....    ADD      r0,r0,#0x10
        0x00007efc:    e58d0000    ....    STR      r0,[sp,#0]
        0x00007f00:    ea00000a    ....    B        0x7f30 ; sysGetSdramSizebyMB + 328
        0x00007f04:    e59d0000    ....    LDR      r0,[sp,#0]
        0x00007f08:    e2800020     ...    ADD      r0,r0,#0x20
        0x00007f0c:    e58d0000    ....    STR      r0,[sp,#0]
        0x00007f10:    ea000006    ....    B        0x7f30 ; sysGetSdramSizebyMB + 328
        0x00007f14:    e59d0000    ....    LDR      r0,[sp,#0]
        0x00007f18:    e2800040    @...    ADD      r0,r0,#0x40
        0x00007f1c:    e58d0000    ....    STR      r0,[sp,#0]
        0x00007f20:    ea000002    ....    B        0x7f30 ; sysGetSdramSizebyMB + 328
        0x00007f24:    e59d0000    ....    LDR      r0,[sp,#0]
        0x00007f28:    e2800080    ....    ADD      r0,r0,#0x80
        0x00007f2c:    e58d0000    ....    STR      r0,[sp,#0]
        0x00007f30:    e59d0000    ....    LDR      r0,[sp,#0]
        0x00007f34:    e3500000    ..P.    CMP      r0,#0
        0x00007f38:    0a000001    ....    BEQ      0x7f44 ; sysGetSdramSizebyMB + 348
        0x00007f3c:    e59d0000    ....    LDR      r0,[sp,#0]
        0x00007f40:    e8bd800c    ....    POP      {r2,r3,pc}
        0x00007f44:    e3a00001    ....    MOV      r0,#1
        0x00007f48:    e8bd800c    ....    POP      {r2,r3,pc}
    $d
        0x00007f4c:    b0001810    ....    DCD    2952796176
        0x00007f50:    b0001814    ....    DCD    2952796180
    $a
    i.sysInitMMUTable
    sysInitMMUTable
        0x00007f54:    e92d4ff1    .O-.    PUSH     {r0,r4-r11,lr}
        0x00007f58:    e24dd008    ..M.    SUB      sp,sp,#8
        0x00007f5c:    e59f9218    ....    LDR      r9,[pc,#536] ; [0x817c] = 0xa414
        0x00007f60:    e5d90001    ....    LDRB     r0,[r9,#1]
        0x00007f64:    e3500000    ..P.    CMP      r0,#0
        0x00007f68:    1a000078    x...    BNE      0x8150 ; sysInitMMUTable + 508
        0x00007f6c:    ebffff9d    ....    BL       sysGetSdramSizebyMB ; 0x7de8
        0x00007f70:    e59f1208    ....    LDR      r1,[pc,#520] ; [0x8180] = 0xdf2
        0x00007f74:    e58d1004    ....    STR      r1,[sp,#4]
        0x00007f78:    e3a01000    ....    MOV      r1,#0
        0x00007f7c:    e59f6200    .b..    LDR      r6,[pc,#512] ; [0x8184] = 0x20000
        0x00007f80:    e59d2004    . ..    LDR      r2,[sp,#4]
        0x00007f84:    e1822a01    .*..    ORR      r2,r2,r1,LSL #20
        0x00007f88:    e7862101    .!..    STR      r2,[r6,r1,LSL #2]
        0x00007f8c:    e2811001    ....    ADD      r1,r1,#1
        0x00007f90:    e3510a01    ..Q.    CMP      r1,#0x1000
        0x00007f94:    bafffff9    ....    BLT      0x7f80 ; sysInitMMUTable + 44
        0x00007f98:    e3500080    ..P.    CMP      r0,#0x80
        0x00007f9c:    da000001    ....    BLE      0x7fa8 ; sysInitMMUTable + 84
        0x00007fa0:    e3a05080    .P..    MOV      r5,#0x80
        0x00007fa4:    ea000000    ....    B        0x7fac ; sysInitMMUTable + 88
        0x00007fa8:    e1a05000    .P..    MOV      r5,r0
        0x00007fac:    e3a07000    .p..    MOV      r7,#0
        0x00007fb0:    e59d3008    .0..    LDR      r3,[sp,#8]
        0x00007fb4:    e3a02601    .&..    MOV      r2,#0x100000
        0x00007fb8:    e1a01007    ....    MOV      r1,r7
        0x00007fbc:    e1a00007    ....    MOV      r0,r7
        0x00007fc0:    e58d7000    .p..    STR      r7,[sp,#0]
        0x00007fc4:    eb000070    p...    BL       sysInitPageTable ; 0x818c
        0x00007fc8:    e59fb1b8    ....    LDR      r11,[pc,#440] ; [0x8188] = 0x24000
        0x00007fcc:    e58db004    ....    STR      r11,[sp,#4]
        0x00007fd0:    e59d0004    ....    LDR      r0,[sp,#4]
        0x00007fd4:    e3800e1e    ....    ORR      r0,r0,#0x1e0
        0x00007fd8:    e58d0004    ....    STR      r0,[sp,#4]
        0x00007fdc:    e59d0004    ....    LDR      r0,[sp,#4]
        0x00007fe0:    e3800010    ....    ORR      r0,r0,#0x10
        0x00007fe4:    e58d0004    ....    STR      r0,[sp,#4]
        0x00007fe8:    e59d0004    ....    LDR      r0,[sp,#4]
        0x00007fec:    e3800001    ....    ORR      r0,r0,#1
        0x00007ff0:    e58d0004    ....    STR      r0,[sp,#4]
        0x00007ff4:    e59d0004    ....    LDR      r0,[sp,#4]
        0x00007ff8:    e5860000    ....    STR      r0,[r6,#0]
        0x00007ffc:    e3e03000    .0..    MVN      r3,#0
        0x00008000:    e3a02601    .&..    MOV      r2,#0x100000
        0x00008004:    e3a01000    ....    MOV      r1,#0
        0x00008008:    e3a00102    ....    MOV      r0,#0x80000000
        0x0000800c:    e58d7000    .p..    STR      r7,[sp,#0]
        0x00008010:    eb00005d    ]...    BL       sysInitPageTable ; 0x818c
        0x00008014:    e28ba802    ....    ADD      r10,r11,#0x20000
        0x00008018:    e58da004    ....    STR      r10,[sp,#4]
        0x0000801c:    e59d0004    ....    LDR      r0,[sp,#4]
        0x00008020:    e3800e1e    ....    ORR      r0,r0,#0x1e0
        0x00008024:    e58d0004    ....    STR      r0,[sp,#4]
        0x00008028:    e59d0004    ....    LDR      r0,[sp,#4]
        0x0000802c:    e3800010    ....    ORR      r0,r0,#0x10
        0x00008030:    e58d0004    ....    STR      r0,[sp,#4]
        0x00008034:    e59d0004    ....    LDR      r0,[sp,#4]
        0x00008038:    e3800001    ....    ORR      r0,r0,#1
        0x0000803c:    e58d0004    ....    STR      r0,[sp,#4]
        0x00008040:    e59d0004    ....    LDR      r0,[sp,#4]
        0x00008044:    e24b1a02    ..K.    SUB      r1,r11,#0x2000
        0x00008048:    e5810000    ....    STR      r0,[r1,#0]
        0x0000804c:    e3a04001    .@..    MOV      r4,#1
        0x00008050:    e3a08001    ....    MOV      r8,#1
        0x00008054:    ea000016    ....    B        0x80b4 ; sysInitMMUTable + 352
        0x00008058:    e08b0504    ....    ADD      r0,r11,r4,LSL #10
        0x0000805c:    e58d0004    ....    STR      r0,[sp,#4]
        0x00008060:    e59d0004    ....    LDR      r0,[sp,#4]
        0x00008064:    e3800e1e    ....    ORR      r0,r0,#0x1e0
        0x00008068:    e58d0004    ....    STR      r0,[sp,#4]
        0x0000806c:    e59d0004    ....    LDR      r0,[sp,#4]
        0x00008070:    e3800010    ....    ORR      r0,r0,#0x10
        0x00008074:    e58d0004    ....    STR      r0,[sp,#4]
        0x00008078:    e59d0004    ....    LDR      r0,[sp,#4]
        0x0000807c:    e3800001    ....    ORR      r0,r0,#1
        0x00008080:    e58d0004    ....    STR      r0,[sp,#4]
        0x00008084:    e5990004    ....    LDR      r0,[r9,#4]
        0x00008088:    e3500000    ..P.    CMP      r0,#0
        0x0000808c:    0a00000d    ....    BEQ      0x80c8 ; sysInitMMUTable + 372
        0x00008090:    e1a00a04    ....    LSL      r0,r4,#20
        0x00008094:    e59d3008    .0..    LDR      r3,[sp,#8]
        0x00008098:    e3a02601    .&..    MOV      r2,#0x100000
        0x0000809c:    e1a01000    ....    MOV      r1,r0
        0x000080a0:    e58d8000    ....    STR      r8,[sp,#0]
        0x000080a4:    eb000038    8...    BL       sysInitPageTable ; 0x818c
        0x000080a8:    e59d0004    ....    LDR      r0,[sp,#4]
        0x000080ac:    e7860104    ....    STR      r0,[r6,r4,LSL #2]
        0x000080b0:    e2844001    .@..    ADD      r4,r4,#1
        0x000080b4:    e1540005    ..T.    CMP      r4,r5
        0x000080b8:    baffffe6    ....    BLT      0x8058 ; sysInitMMUTable + 260
        0x000080bc:    e3a04001    .@..    MOV      r4,#1
        0x000080c0:    e3a0b102    ....    MOV      r11,#0x80000000
        0x000080c4:    ea00001e    ....    B        0x8144 ; sysInitMMUTable + 496
        0x000080c8:    e1a00a04    ....    LSL      r0,r4,#20
        0x000080cc:    e59d3008    .0..    LDR      r3,[sp,#8]
        0x000080d0:    e3a02601    .&..    MOV      r2,#0x100000
        0x000080d4:    e1a01000    ....    MOV      r1,r0
        0x000080d8:    e58d7000    .p..    STR      r7,[sp,#0]
        0x000080dc:    eb00002a    *...    BL       sysInitPageTable ; 0x818c
        0x000080e0:    eafffff0    ....    B        0x80a8 ; sysInitMMUTable + 340
        0x000080e4:    e08a0504    ....    ADD      r0,r10,r4,LSL #10
        0x000080e8:    e58d0004    ....    STR      r0,[sp,#4]
        0x000080ec:    e59d0004    ....    LDR      r0,[sp,#4]
        0x000080f0:    e3800e1e    ....    ORR      r0,r0,#0x1e0
        0x000080f4:    e58d0004    ....    STR      r0,[sp,#4]
        0x000080f8:    e59d0004    ....    LDR      r0,[sp,#4]
        0x000080fc:    e3800010    ....    ORR      r0,r0,#0x10
        0x00008100:    e58d0004    ....    STR      r0,[sp,#4]
        0x00008104:    e59d0004    ....    LDR      r0,[sp,#4]
        0x00008108:    e3800001    ....    ORR      r0,r0,#1
        0x0000810c:    e58d0004    ....    STR      r0,[sp,#4]
        0x00008110:    e5990004    ....    LDR      r0,[r9,#4]
        0x00008114:    e3500000    ..P.    CMP      r0,#0
        0x00008118:    0a000010    ....    BEQ      0x8160 ; sysInitMMUTable + 524
        0x0000811c:    e1a01a04    ....    LSL      r1,r4,#20
        0x00008120:    e18b0a04    ....    ORR      r0,r11,r4,LSL #20
        0x00008124:    e3e03000    .0..    MVN      r3,#0
        0x00008128:    e3a02601    .&..    MOV      r2,#0x100000
        0x0000812c:    e58d8000    ....    STR      r8,[sp,#0]
        0x00008130:    eb000015    ....    BL       sysInitPageTable ; 0x818c
        0x00008134:    e59d0004    ....    LDR      r0,[sp,#4]
        0x00008138:    e2841b02    ....    ADD      r1,r4,#0x800
        0x0000813c:    e7860101    ....    STR      r0,[r6,r1,LSL #2]
        0x00008140:    e2844001    .@..    ADD      r4,r4,#1
        0x00008144:    e1540005    ..T.    CMP      r4,r5
        0x00008148:    baffffe5    ....    BLT      0x80e4 ; sysInitMMUTable + 400
        0x0000814c:    e5c98001    ....    STRB     r8,[r9,#1]
        0x00008150:    e59f002c    ,...    LDR      r0,[pc,#44] ; [0x8184] = 0x20000
        0x00008154:    ebffe327    '...    BL       sysSetupCP15 ; 0xdf8
        0x00008158:    e3a00000    ....    MOV      r0,#0
        0x0000815c:    e8bd8ffe    ....    POP      {r1-r11,pc}
        0x00008160:    e1a01a04    ....    LSL      r1,r4,#20
        0x00008164:    e18b0a04    ....    ORR      r0,r11,r4,LSL #20
        0x00008168:    e3e03000    .0..    MVN      r3,#0
        0x0000816c:    e3a02601    .&..    MOV      r2,#0x100000
        0x00008170:    e58d7000    .p..    STR      r7,[sp,#0]
        0x00008174:    eb000004    ....    BL       sysInitPageTable ; 0x818c
        0x00008178:    eaffffed    ....    B        0x8134 ; sysInitMMUTable + 480
    $d
        0x0000817c:    0000a414    ....    DCD    42004
        0x00008180:    00000df2    ....    DCD    3570
        0x00008184:    00020000    ....    DCD    131072
        0x00008188:    00024000    .@..    DCD    147456
    $a
    i.sysInitPageTable
    sysInitPageTable
        0x0000818c:    e92d41fe    .A-.    PUSH     {r1-r8,lr}
        0x00008190:    e59d6024    $`..    LDR      r6,[sp,#0x24]
        0x00008194:    e1a05000    .P..    MOV      r5,r0
        0x00008198:    e3150102    ....    TST      r5,#0x80000000
        0x0000819c:    0a000001    ....    BEQ      0x81a8 ; sysInitPageTable + 28
        0x000081a0:    e59f4138    8A..    LDR      r4,[pc,#312] ; [0x82e0] = 0x44000
        0x000081a4:    ea000000    ....    B        0x81ac ; sysInitPageTable + 32
        0x000081a8:    e59f4134    4A..    LDR      r4,[pc,#308] ; [0x82e4] = 0x24000
        0x000081ac:    ebfffe5e    ^...    BL       sysGetCacheState ; 0x7b2c
        0x000081b0:    e3500001    ..P.    CMP      r0,#1
        0x000081b4:    1a000000    ....    BNE      0x81bc ; sysInitPageTable + 48
        0x000081b8:    e3844102    .A..    ORR      r4,r4,#0x80000000
        0x000081bc:    e3c5c102    ....    BIC      r12,r5,#0x80000000
        0x000081c0:    e08c0002    ....    ADD      r0,r12,r2
        0x000081c4:    e3500302    ..P.    CMP      r0,#0x8000000
        0x000081c8:    9a000001    ....    BLS      0x81d4 ; sysInitPageTable + 72
        0x000081cc:    e3e00000    ....    MVN      r0,#0
        0x000081d0:    e8bd81fe    ....    POP      {r1-r8,pc}
        0x000081d4:    e1b0060c    ....    LSLS     r0,r12,#12
        0x000081d8:    0a000001    ....    BEQ      0x81e4 ; sysInitPageTable + 88
        0x000081dc:    e3e00000    ....    MVN      r0,#0
        0x000081e0:    e8bd81fe    ....    POP      {r1-r8,pc}
        0x000081e4:    e1b00a02    ....    LSLS     r0,r2,#20
        0x000081e8:    0a000001    ....    BEQ      0x81f4 ; sysInitPageTable + 104
        0x000081ec:    e3e00000    ....    MVN      r0,#0
        0x000081f0:    e8bd81fe    ....    POP      {r1-r8,pc}
        0x000081f4:    e1a00fc2    ....    ASR      r0,r2,#31
        0x000081f8:    e0820a20     ...    ADD      r0,r2,r0,LSR #20
        0x000081fc:    e1a07640    @v..    ASR      r7,r0,#12
        0x00008200:    e3530000    ..S.    CMP      r3,#0
        0x00008204:    0a00000a    ....    BEQ      0x8234 ; sysInitPageTable + 168
        0x00008208:    e3530001    ..S.    CMP      r3,#1
        0x0000820c:    0a00000a    ....    BEQ      0x823c ; sysInitPageTable + 176
        0x00008210:    e3a03000    .0..    MOV      r3,#0
        0x00008214:    e3560000    ..V.    CMP      r6,#0
        0x00008218:    0a000009    ....    BEQ      0x8244 ; sysInitPageTable + 184
        0x0000821c:    e0810002    ....    ADD      r0,r1,r2
        0x00008220:    e2400a01    ..@.    SUB      r0,r0,#0x1000
        0x00008224:    e58d0008    ....    STR      r0,[sp,#8]
        0x00008228:    e3a01a01    ....    MOV      r1,#0x1000
        0x0000822c:    e3a00000    ....    MOV      r0,#0
        0x00008230:    ea000022    "...    B        0x82c0 ; sysInitPageTable + 308
        0x00008234:    e3a0300c    .0..    MOV      r3,#0xc
        0x00008238:    eafffff5    ....    B        0x8214 ; sysInitPageTable + 136
        0x0000823c:    e3a03008    .0..    MOV      r3,#8
        0x00008240:    eafffff3    ....    B        0x8214 ; sysInitPageTable + 136
        0x00008244:    e58d1008    ....    STR      r1,[sp,#8]
        0x00008248:    eafffff6    ....    B        0x8228 ; sysInitPageTable + 156
        0x0000824c:    e08c2600    .&..    ADD      r2,r12,r0,LSL #12
        0x00008250:    e58d2004    . ..    STR      r2,[sp,#4]
        0x00008254:    e59d2004    . ..    LDR      r2,[sp,#4]
        0x00008258:    e1a02a22    "*..    LSR      r2,r2,#20
        0x0000825c:    e59d5004    .P..    LDR      r5,[sp,#4]
        0x00008260:    e2055aff    .Z..    AND      r5,r5,#0xff000
        0x00008264:    e1a05625    %V..    LSR      r5,r5,#12
        0x00008268:    e59d8008    ....    LDR      r8,[sp,#8]
        0x0000826c:    e1a08628    (...    LSR      r8,r8,#12
        0x00008270:    e1a08608    ....    LSL      r8,r8,#12
        0x00008274:    e58d8000    ....    STR      r8,[sp,#0]
        0x00008278:    e59d8000    ....    LDR      r8,[sp,#0]
        0x0000827c:    e3888eff    ....    ORR      r8,r8,#0xff0
        0x00008280:    e58d8000    ....    STR      r8,[sp,#0]
        0x00008284:    e59d8000    ....    LDR      r8,[sp,#0]
        0x00008288:    e1888003    ....    ORR      r8,r8,r3
        0x0000828c:    e58d8000    ....    STR      r8,[sp,#0]
        0x00008290:    e59d8000    ....    LDR      r8,[sp,#0]
        0x00008294:    e3888002    ....    ORR      r8,r8,#2
        0x00008298:    e58d8000    ....    STR      r8,[sp,#0]
        0x0000829c:    e59d8000    ....    LDR      r8,[sp,#0]
        0x000082a0:    e0842502    .%..    ADD      r2,r4,r2,LSL #10
        0x000082a4:    e7828105    ....    STR      r8,[r2,r5,LSL #2]
        0x000082a8:    e3560000    ..V.    CMP      r6,#0
        0x000082ac:    0a000007    ....    BEQ      0x82d0 ; sysInitPageTable + 324
        0x000082b0:    e59d2008    . ..    LDR      r2,[sp,#8]
        0x000082b4:    e0422001    . B.    SUB      r2,r2,r1
        0x000082b8:    e58d2008    . ..    STR      r2,[sp,#8]
        0x000082bc:    e2800001    ....    ADD      r0,r0,#1
        0x000082c0:    e1500007    ..P.    CMP      r0,r7
        0x000082c4:    baffffe0    ....    BLT      0x824c ; sysInitPageTable + 192
        0x000082c8:    e3a00000    ....    MOV      r0,#0
        0x000082cc:    e8bd81fe    ....    POP      {r1-r8,pc}
        0x000082d0:    e59d2008    . ..    LDR      r2,[sp,#8]
        0x000082d4:    e0822001    . ..    ADD      r2,r2,r1
        0x000082d8:    e58d2008    . ..    STR      r2,[sp,#8]
        0x000082dc:    eafffff6    ....    B        0x82bc ; sysInitPageTable + 304
    $d
        0x000082e0:    00044000    .@..    DCD    278528
        0x000082e4:    00024000    .@..    DCD    147456
    $a
    i.sysInitializeAIC
    sysInitializeAIC
        0x000082e8:    e59f1010    ....    LDR      r1,[pc,#16] ; [0x8300] = 0x83d8
        0x000082ec:    e3a00000    ....    MOV      r0,#0
        0x000082f0:    e5801038    8...    STR      r1,[r0,#0x38]
        0x000082f4:    e59f1008    ....    LDR      r1,[pc,#8] ; [0x8304] = 0x7a78
        0x000082f8:    e580103c    <...    STR      r1,[r0,#0x3c]
        0x000082fc:    e12fff1e    ../.    BX       lr
    $d
        0x00008300:    000083d8    ....    DCD    33752
        0x00008304:    00007a78    xz..    DCD    31352
    $a
    i.sysInitializeUART
    sysInitializeUART
        0x00008308:    e3a0020b    ....    MOV      r0,#0xb0000000
        0x0000830c:    e5901218    ....    LDR      r1,[r0,#0x218]
        0x00008310:    e3811801    ....    ORR      r1,r1,#0x10000
        0x00008314:    e5801218    ....    STR      r1,[r0,#0x218]
        0x00008318:    e5901090    ....    LDR      r1,[r0,#0x90]
        0x0000831c:    e3c110ff    ....    BIC      r1,r1,#0xff
        0x00008320:    e3811099    ....    ORR      r1,r1,#0x99
        0x00008324:    e5801090    ....    STR      r1,[r0,#0x90]
        0x00008328:    e3a0032e    ....    MOV      r0,#0xb8000000
        0x0000832c:    e590100c    ....    LDR      r1,[r0,#0xc]
        0x00008330:    e3811007    ....    ORR      r1,r1,#7
        0x00008334:    e580100c    ....    STR      r1,[r0,#0xc]
        0x00008338:    e59f1008    ....    LDR      r1,[pc,#8] ; [0x8348] = 0x30000066
        0x0000833c:    e5801024    $...    STR      r1,[r0,#0x24]
        0x00008340:    e3a00000    ....    MOV      r0,#0
        0x00008344:    e12fff1e    ../.    BX       lr
    $d
        0x00008348:    30000066    f..0    DCD    805306470
    $a
    i.sysInstallISR
    sysInstallISR
        0x0000834c:    e92d4030    0@-.    PUSH     {r4,r5,lr}
        0x00008350:    e1a04000    .@..    MOV      r4,r0
        0x00008354:    e1a03001    .0..    MOV      r3,r1
        0x00008358:    e59f5068    hP..    LDR      r5,[pc,#104] ; [0x83c8] = 0xa1bc
        0x0000835c:    e5d50000    ....    LDRB     r0,[r5,#0]
        0x00008360:    e3500000    ..P.    CMP      r0,#0
        0x00008364:    1a000002    ....    BNE      0x8374 ; sysInstallISR + 40
        0x00008368:    ebffffde    ....    BL       sysInitializeAIC ; 0x82e8
        0x0000836c:    e3a00001    ....    MOV      r0,#1
        0x00008370:    e5c50000    ....    STRB     r0,[r5,#0]
        0x00008374:    e59f1050    P...    LDR      r1,[pc,#80] ; [0x83cc] = 0xb8002000
        0x00008378:    e3c30003    ....    BIC      r0,r3,#3
        0x0000837c:    e0811000    ....    ADD      r1,r1,r0
        0x00008380:    e1a00f03    ....    LSL      r0,r3,#30
        0x00008384:    e1a0cda0    ....    LSR      r12,r0,#27
        0x00008388:    e20400ff    ....    AND      r0,r4,#0xff
        0x0000838c:    e5914000    .@..    LDR      r4,[r1,#0]
        0x00008390:    e3a05007    .P..    MOV      r5,#7
        0x00008394:    e1c44c15    .L..    BIC      r4,r4,r5,LSL r12
        0x00008398:    e184cc10    ....    ORR      r12,r4,r0,LSL r12
        0x0000839c:    e581c000    ....    STR      r12,[r1,#0]
        0x000083a0:    e3100007    ....    TST      r0,#7
        0x000083a4:    0a000003    ....    BEQ      0x83b8 ; sysInstallISR + 108
        0x000083a8:    e59f1020     ...    LDR      r1,[pc,#32] ; [0x83d0] = 0xa1c0
        0x000083ac:    e7910103    ....    LDR      r0,[r1,r3,LSL #2]
        0x000083b0:    e7812103    .!..    STR      r2,[r1,r3,LSL #2]
        0x000083b4:    e8bd8030    0...    POP      {r4,r5,pc}
        0x000083b8:    e59f1014    ....    LDR      r1,[pc,#20] ; [0x83d4] = 0xa2b8
        0x000083bc:    e7910103    ....    LDR      r0,[r1,r3,LSL #2]
        0x000083c0:    e7812103    .!..    STR      r2,[r1,r3,LSL #2]
        0x000083c4:    e8bd8030    0...    POP      {r4,r5,pc}
    $d
        0x000083c8:    0000a1bc    ....    DCD    41404
        0x000083cc:    b8002000    . ..    DCD    3087015936
        0x000083d0:    0000a1c0    ....    DCD    41408
        0x000083d4:    0000a2b8    ....    DCD    41656
    $a
    i.sysIrqHandler
    sysIrqHandler
        0x000083d8:    e92d501f    .P-.    PUSH     {r0-r4,r12,lr}
        0x000083dc:    e24dd00c    ..M.    SUB      sp,sp,#0xc
        0x000083e0:    e59f4050    P@..    LDR      r4,[pc,#80] ; [0x8438] = 0xb8002000
        0x000083e4:    e5940118    ....    LDR      r0,[r4,#0x118]
        0x000083e8:    e1a00c00    ....    LSL      r0,r0,#24
        0x000083ec:    e1a00d20     ...    LSR      r0,r0,#26
        0x000083f0:    e58d0008    ....    STR      r0,[sp,#8]
        0x000083f4:    e5940120     ...    LDR      r0,[r4,#0x120]
        0x000083f8:    e58d0004    ....    STR      r0,[sp,#4]
        0x000083fc:    e59d0008    ....    LDR      r0,[sp,#8]
        0x00008400:    e3500000    ..P.    CMP      r0,#0
        0x00008404:    0a000008    ....    BEQ      0x842c ; sysIrqHandler + 84
        0x00008408:    e59d0004    ....    LDR      r0,[sp,#4]
        0x0000840c:    e3500000    ..P.    CMP      r0,#0
        0x00008410:    0a000003    ....    BEQ      0x8424 ; sysIrqHandler + 76
        0x00008414:    e59f0020     ...    LDR      r0,[pc,#32] ; [0x843c] = 0xa1c0
        0x00008418:    e59d1008    ....    LDR      r1,[sp,#8]
        0x0000841c:    e7900101    ....    LDR      r0,[r0,r1,LSL #2]
        0x00008420:    e12fff30    0./.    BLX      r0
        0x00008424:    e3a00001    ....    MOV      r0,#1
        0x00008428:    e5840150    P...    STR      r0,[r4,#0x150]
        0x0000842c:    e28dd00c    ....    ADD      sp,sp,#0xc
        0x00008430:    e8bd501f    .P..    POP      {r0-r4,r12,lr}
        0x00008434:    e25ef004    ..^.    SUBS     pc,lr,#4
    $d
        0x00008438:    b8002000    . ..    DCD    3087015936
        0x0000843c:    0000a1c0    ....    DCD    41408
    $a
    i.sysPutNumber
    sysPutNumber
        0x00008440:    e92d47f0    .G-.    PUSH     {r4-r10,lr}
        0x00008444:    e24dd028    (.M.    SUB      sp,sp,#0x28
        0x00008448:    e1a06001    .`..    MOV      r6,r1
        0x0000844c:    e1a05002    .P..    MOV      r5,r2
        0x00008450:    e1a0a003    ....    MOV      r10,r3
        0x00008454:    e3a04000    .@..    MOV      r4,#0
        0x00008458:    e3a07000    .p..    MOV      r7,#0
        0x0000845c:    e3a08000    ....    MOV      r8,#0
        0x00008460:    e35a0000    ..Z.    CMP      r10,#0
        0x00008464:    1a000000    ....    BNE      0x846c ; sysPutNumber + 44
        0x00008468:    e3a0a020     ...    MOV      r10,#0x20
        0x0000846c:    e3550000    ..U.    CMP      r5,#0
        0x00008470:    aa000001    ....    BGE      0x847c ; sysPutNumber + 60
        0x00008474:    e2655000    .Pe.    RSB      r5,r5,#0
        0x00008478:    e3a07001    .p..    MOV      r7,#1
        0x0000847c:    e3550051    Q.U.    CMP      r5,#0x51
        0x00008480:    3a000000    ...:    BCC      0x8488 ; sysPutNumber + 72
        0x00008484:    e3a05000    .P..    MOV      r5,#0
        0x00008488:    e3560000    ..V.    CMP      r6,#0
        0x0000848c:    aa000004    ....    BGE      0x84a4 ; sysPutNumber + 100
        0x00008490:    e2666000    .`f.    RSB      r6,r6,#0
        0x00008494:    e3500000    ..P.    CMP      r0,#0
        0x00008498:    aa000001    ....    BGE      0x84a4 ; sysPutNumber + 100
        0x0000849c:    e3a08001    ....    MOV      r8,#1
        0x000084a0:    e2600000    ..`.    RSB      r0,r0,#0
        0x000084a4:    e1a0900d    ....    MOV      r9,sp
        0x000084a8:    e3560010    ..V.    CMP      r6,#0x10
        0x000084ac:    0a000004    ....    BEQ      0x84c4 ; sysPutNumber + 132
        0x000084b0:    e1a01006    ....    MOV      r1,r6
        0x000084b4:    ebffe246    F...    BL       __aeabi_uidiv ; 0xdd4
        0x000084b8:    e1a01801    ....    LSL      r1,r1,#16
        0x000084bc:    e1a01821    !...    LSR      r1,r1,#16
        0x000084c0:    ea000001    ....    B        0x84cc ; sysPutNumber + 140
        0x000084c4:    e200100f    ....    AND      r1,r0,#0xf
        0x000084c8:    e1a00220     ...    LSR      r0,r0,#4
        0x000084cc:    e3510009    ..Q.    CMP      r1,#9
        0x000084d0:    8a000001    ....    BHI      0x84dc ; sysPutNumber + 156
        0x000084d4:    e3a02030    0 ..    MOV      r2,#0x30
        0x000084d8:    ea000000    ....    B        0x84e0 ; sysPutNumber + 160
        0x000084dc:    e3a02037    7 ..    MOV      r2,#0x37
        0x000084e0:    e0811002    ....    ADD      r1,r1,r2
        0x000084e4:    e7c91004    ....    STRB     r1,[r9,r4]
        0x000084e8:    e2844001    .@..    ADD      r4,r4,#1
        0x000084ec:    e3500000    ..P.    CMP      r0,#0
        0x000084f0:    0a000013    ....    BEQ      0x8544 ; sysPutNumber + 260
        0x000084f4:    e356000a    ..V.    CMP      r6,#0xa
        0x000084f8:    1a000011    ....    BNE      0x8544 ; sysPutNumber + 260
        0x000084fc:    e3540003    ..T.    CMP      r4,#3
        0x00008500:    0a00000b    ....    BEQ      0x8534 ; sysPutNumber + 244
        0x00008504:    e3540007    ..T.    CMP      r4,#7
        0x00008508:    0a000009    ....    BEQ      0x8534 ; sysPutNumber + 244
        0x0000850c:    e354000b    ..T.    CMP      r4,#0xb
        0x00008510:    0a000003    ....    BEQ      0x8524 ; sysPutNumber + 228
        0x00008514:    e354000f    ..T.    CMP      r4,#0xf
        0x00008518:    e3a01000    ....    MOV      r1,#0
        0x0000851c:    0a000016    ....    BEQ      0x857c ; sysPutNumber + 316
        0x00008520:    ea000000    ....    B        0x8528 ; sysPutNumber + 232
        0x00008524:    e3a01001    ....    MOV      r1,#1
        0x00008528:    e3a02000    . ..    MOV      r2,#0
        0x0000852c:    e1911002    ....    ORRS     r1,r1,r2
        0x00008530:    0a000003    ....    BEQ      0x8544 ; sysPutNumber + 260
        0x00008534:    e1a01004    ....    MOV      r1,r4
        0x00008538:    e3a0202c    , ..    MOV      r2,#0x2c
        0x0000853c:    e2844001    .@..    ADD      r4,r4,#1
        0x00008540:    e7c92001    . ..    STRB     r2,[r9,r1]
        0x00008544:    e3500000    ..P.    CMP      r0,#0
        0x00008548:    1affffd6    ....    BNE      0x84a8 ; sysPutNumber + 104
        0x0000854c:    e3580000    ..X.    CMP      r8,#0
        0x00008550:    0a000002    ....    BEQ      0x8560 ; sysPutNumber + 288
        0x00008554:    e3a0002d    -...    MOV      r0,#0x2d
        0x00008558:    e7c90004    ....    STRB     r0,[r9,r4]
        0x0000855c:    e2844001    .@..    ADD      r4,r4,#1
        0x00008560:    e1550004    ..U.    CMP      r5,r4
        0x00008564:    ca000006    ....    BGT      0x8584 ; sysPutNumber + 324
        0x00008568:    e1a01004    ....    MOV      r1,r4
        0x0000856c:    e1a0000d    ....    MOV      r0,sp
        0x00008570:    eb000024    $...    BL       sysPutStringReverse ; 0x8608
        0x00008574:    e28dd028    (...    ADD      sp,sp,#0x28
        0x00008578:    e8bd87f0    ....    POP      {r4-r10,pc}
        0x0000857c:    e3a02001    . ..    MOV      r2,#1
        0x00008580:    eaffffe9    ....    B        0x852c ; sysPutNumber + 236
        0x00008584:    e0455004    .PE.    SUB      r5,r5,r4
        0x00008588:    e3570000    ..W.    CMP      r7,#0
        0x0000858c:    1a000002    ....    BNE      0x859c ; sysPutNumber + 348
        0x00008590:    e1a01005    ....    MOV      r1,r5
        0x00008594:    e1a0000a    ....    MOV      r0,r10
        0x00008598:    eb000008    ....    BL       sysPutRepChar ; 0x85c0
        0x0000859c:    e1a01004    ....    MOV      r1,r4
        0x000085a0:    e1a0000d    ....    MOV      r0,sp
        0x000085a4:    eb000017    ....    BL       sysPutStringReverse ; 0x8608
        0x000085a8:    e3570000    ..W.    CMP      r7,#0
        0x000085ac:    0afffff0    ....    BEQ      0x8574 ; sysPutNumber + 308
        0x000085b0:    e1a01005    ....    MOV      r1,r5
        0x000085b4:    e1a0000a    ....    MOV      r0,r10
        0x000085b8:    eb000000    ....    BL       sysPutRepChar ; 0x85c0
        0x000085bc:    eaffffec    ....    B        0x8574 ; sysPutNumber + 308
    i.sysPutRepChar
    sysPutRepChar
        0x000085c0:    e92d4010    .@-.    PUSH     {r4,lr}
        0x000085c4:    e1a04000    .@..    MOV      r4,r0
        0x000085c8:    e1a03001    .0..    MOV      r3,r1
        0x000085cc:    ea000001    ....    B        0x85d8 ; sysPutRepChar + 24
        0x000085d0:    e1a00004    ....    MOV      r0,r4
        0x000085d4:    ebfff2ab    ....    BL       _PutChar_f ; 0x5088
        0x000085d8:    e2533001    .0S.    SUBS     r3,r3,#1
        0x000085dc:    2afffffb    ...*    BCS      0x85d0 ; sysPutRepChar + 16
        0x000085e0:    e8bd8010    ....    POP      {r4,pc}
    i.sysPutString
    sysPutString
        0x000085e4:    e1a03000    .0..    MOV      r3,r0
        0x000085e8:    e52de004    ..-.    PUSH     {lr}
        0x000085ec:    ea000001    ....    B        0x85f8 ; sysPutString + 20
        0x000085f0:    ebfff2a4    ....    BL       _PutChar_f ; 0x5088
        0x000085f4:    e2833001    .0..    ADD      r3,r3,#1
        0x000085f8:    e5d30000    ....    LDRB     r0,[r3,#0]
        0x000085fc:    e3500000    ..P.    CMP      r0,#0
        0x00008600:    1afffffa    ....    BNE      0x85f0 ; sysPutString + 12
        0x00008604:    e49df004    ....    POP      {pc}
    i.sysPutStringReverse
    sysPutStringReverse
        0x00008608:    e92d4010    .@-.    PUSH     {r4,lr}
        0x0000860c:    e1a04000    .@..    MOV      r4,r0
        0x00008610:    e1a03001    .0..    MOV      r3,r1
        0x00008614:    ea000001    ....    B        0x8620 ; sysPutStringReverse + 24
        0x00008618:    e7d40003    ....    LDRB     r0,[r4,r3]
        0x0000861c:    ebfff299    ....    BL       _PutChar_f ; 0x5088
        0x00008620:    e2530000    ..S.    SUBS     r0,r3,#0
        0x00008624:    e2433001    .0C.    SUB      r3,r3,#1
        0x00008628:    cafffffa    ....    BGT      0x8618 ; sysPutStringReverse + 16
        0x0000862c:    e8bd8010    ....    POP      {r4,pc}
    i.sysSetLocalInterrupt
    sysSetLocalInterrupt
        0x00008630:    e3500080    ..P.    CMP      r0,#0x80
        0x00008634:    0a000010    ....    BEQ      0x867c ; sysSetLocalInterrupt + 76
        0x00008638:    ca000006    ....    BGT      0x8658 ; sysSetLocalInterrupt + 40
        0x0000863c:    e350003f    ?.P.    CMP      r0,#0x3f
        0x00008640:    0a000009    ....    BEQ      0x866c ; sysSetLocalInterrupt + 60
        0x00008644:    e3500040    @.P.    CMP      r0,#0x40
        0x00008648:    0a00000b    ....    BEQ      0x867c ; sysSetLocalInterrupt + 76
        0x0000864c:    e350007f    ..P.    CMP      r0,#0x7f
        0x00008650:    1a00000c    ....    BNE      0x8688 ; sysSetLocalInterrupt + 88
        0x00008654:    ea000004    ....    B        0x866c ; sysSetLocalInterrupt + 60
        0x00008658:    e35000bf    ..P.    CMP      r0,#0xbf
        0x0000865c:    0a000002    ....    BEQ      0x866c ; sysSetLocalInterrupt + 60
        0x00008660:    e35000c0    ..P.    CMP      r0,#0xc0
        0x00008664:    1a000007    ....    BNE      0x8688 ; sysSetLocalInterrupt + 88
        0x00008668:    ea000003    ....    B        0x867c ; sysSetLocalInterrupt + 76
        0x0000866c:    e10f1000    ....    MRS      r1,APSR ; formerly CPSR
        0x00008670:    e0010000    ....    AND      r0,r1,r0
        0x00008674:    e121f000    ..!.    MSR      CPSR_c,r0
        0x00008678:    ea000002    ....    B        0x8688 ; sysSetLocalInterrupt + 88
        0x0000867c:    e10f1000    ....    MRS      r1,APSR ; formerly CPSR
        0x00008680:    e1810000    ....    ORR      r0,r1,r0
        0x00008684:    e121f000    ..!.    MSR      CPSR_c,r0
        0x00008688:    e3a00000    ....    MOV      r0,#0
        0x0000868c:    e12fff1e    ../.    BX       lr
    i.sysSetTimerReferenceClock
    sysSetTimerReferenceClock
        0x00008690:    e59f2024    $ ..    LDR      r2,[pc,#36] ; [0x86bc] = 0xa3b0
        0x00008694:    e3500000    ..P.    CMP      r0,#0
        0x00008698:    0a000002    ....    BEQ      0x86a8 ; sysSetTimerReferenceClock + 24
        0x0000869c:    e3500001    ..P.    CMP      r0,#1
        0x000086a0:    1a000003    ....    BNE      0x86b4 ; sysSetTimerReferenceClock + 36
        0x000086a4:    ea000001    ....    B        0x86b0 ; sysSetTimerReferenceClock + 32
        0x000086a8:    e5821004    ....    STR      r1,[r2,#4]
        0x000086ac:    ea000000    ....    B        0x86b4 ; sysSetTimerReferenceClock + 36
        0x000086b0:    e5821008    ....    STR      r1,[r2,#8]
        0x000086b4:    e3a00000    ....    MOV      r0,#0
        0x000086b8:    e12fff1e    ../.    BX       lr
    $d
        0x000086bc:    0000a3b0    ....    DCD    41904
    $a
    i.sysStartTimer
    sysStartTimer
        0x000086c0:    e92d43f8    .C-.    PUSH     {r3-r9,lr}
        0x000086c4:    e1a06001    .`..    MOV      r6,r1
        0x000086c8:    e3a01206    ....    MOV      r1,#0x60000000
        0x000086cc:    e1815d82    .]..    ORR      r5,r1,r2,LSL #27
        0x000086d0:    e59f8128    (...    LDR      r8,[pc,#296] ; [0x8800] = 0xa3b0
        0x000086d4:    e59f7128    (q..    LDR      r7,[pc,#296] ; [0x8804] = 0xb8001000
        0x000086d8:    e3500000    ..P.    CMP      r0,#0
        0x000086dc:    e3a0120b    ....    MOV      r1,#0xb0000000
        0x000086e0:    e3a04000    .@..    MOV      r4,#0
        0x000086e4:    0a000002    ....    BEQ      0x86f4 ; sysStartTimer + 52
        0x000086e8:    e3500001    ..P.    CMP      r0,#1
        0x000086ec:    1a00003f    ?...    BNE      0x87f0 ; sysStartTimer + 304
        0x000086f0:    ea000020     ...    B        0x8778 ; sysStartTimer + 184
        0x000086f4:    e5910218    ....    LDR      r0,[r1,#0x218]
        0x000086f8:    e3800c01    ....    ORR      r0,r0,#0x100
        0x000086fc:    e5810218    ....    STR      r0,[r1,#0x218]
        0x00008700:    e3a00001    ....    MOV      r0,#1
        0x00008704:    e5c80002    ....    STRB     r0,[r8,#2]
        0x00008708:    e588602c    ,`..    STR      r6,[r8,#0x2c]
        0x0000870c:    e5874000    .@..    STR      r4,[r7,#0]
        0x00008710:    e5870060    `...    STR      r0,[r7,#0x60]
        0x00008714:    e58d4000    .@..    STR      r4,[sp,#0]
        0x00008718:    e59f00e8    ....    LDR      r0,[pc,#232] ; [0x8808] = 0x1e8b8
        0x0000871c:    ea000004    ....    B        0x8734 ; sysStartTimer + 116
        0x00008720:    e59d1000    ....    LDR      r1,[sp,#0]
        0x00008724:    e7804201    .B..    STR      r4,[r0,r1,LSL #4]
        0x00008728:    e59d1000    ....    LDR      r1,[sp,#0]
        0x0000872c:    e2811001    ....    ADD      r1,r1,#1
        0x00008730:    e58d1000    ....    STR      r1,[sp,#0]
        0x00008734:    e59d1000    ....    LDR      r1,[sp,#0]
        0x00008738:    e351000a    ..Q.    CMP      r1,#0xa
        0x0000873c:    bafffff7    ....    BLT      0x8720 ; sysStartTimer + 96
        0x00008740:    e59f20c4    . ..    LDR      r2,[pc,#196] ; [0x880c] = 0x8818
        0x00008744:    e3a01010    ....    MOV      r1,#0x10
        0x00008748:    e3a00044    D...    MOV      r0,#0x44
        0x0000874c:    ebfffefe    ....    BL       sysInstallISR ; 0x834c
        0x00008750:    e5880020     ...    STR      r0,[r8,#0x20]
        0x00008754:    e3a00010    ....    MOV      r0,#0x10
        0x00008758:    ebfffcb4    ....    BL       sysEnableInterrupt ; 0x7a30
        0x0000875c:    e588400c    .@..    STR      r4,[r8,#0xc]
        0x00008760:    e5980004    ....    LDR      r0,[r8,#4]
        0x00008764:    e1a01006    ....    MOV      r1,r6
        0x00008768:    ebffe199    ....    BL       __aeabi_uidiv ; 0xdd4
        0x0000876c:    e5870004    ....    STR      r0,[r7,#4]
        0x00008770:    e5875000    .P..    STR      r5,[r7,#0]
        0x00008774:    ea00001d    ....    B        0x87f0 ; sysStartTimer + 304
        0x00008778:    e5910218    ....    LDR      r0,[r1,#0x218]
        0x0000877c:    e3800c02    ....    ORR      r0,r0,#0x200
        0x00008780:    e5810218    ....    STR      r0,[r1,#0x218]
        0x00008784:    e5874010    .@..    STR      r4,[r7,#0x10]
        0x00008788:    e3a00002    ....    MOV      r0,#2
        0x0000878c:    e5870060    `...    STR      r0,[r7,#0x60]
        0x00008790:    e58d4000    .@..    STR      r4,[sp,#0]
        0x00008794:    e59f0074    t...    LDR      r0,[pc,#116] ; [0x8810] = 0x1e958
        0x00008798:    ea000004    ....    B        0x87b0 ; sysStartTimer + 240
        0x0000879c:    e59d1000    ....    LDR      r1,[sp,#0]
        0x000087a0:    e7804201    .B..    STR      r4,[r0,r1,LSL #4]
        0x000087a4:    e59d1000    ....    LDR      r1,[sp,#0]
        0x000087a8:    e2811001    ....    ADD      r1,r1,#1
        0x000087ac:    e58d1000    ....    STR      r1,[sp,#0]
        0x000087b0:    e59d1000    ....    LDR      r1,[sp,#0]
        0x000087b4:    e351000a    ..Q.    CMP      r1,#0xa
        0x000087b8:    bafffff7    ....    BLT      0x879c ; sysStartTimer + 220
        0x000087bc:    e59f2050    P ..    LDR      r2,[pc,#80] ; [0x8814] = 0x8904
        0x000087c0:    e3a01011    ....    MOV      r1,#0x11
        0x000087c4:    e3a00041    A...    MOV      r0,#0x41
        0x000087c8:    ebfffedf    ....    BL       sysInstallISR ; 0x834c
        0x000087cc:    e5880024    $...    STR      r0,[r8,#0x24]
        0x000087d0:    e3a00011    ....    MOV      r0,#0x11
        0x000087d4:    ebfffc95    ....    BL       sysEnableInterrupt ; 0x7a30
        0x000087d8:    e5884010    .@..    STR      r4,[r8,#0x10]
        0x000087dc:    e5980008    ....    LDR      r0,[r8,#8]
        0x000087e0:    e1a01006    ....    MOV      r1,r6
        0x000087e4:    ebffe17a    z...    BL       __aeabi_uidiv ; 0xdd4
        0x000087e8:    e5870014    ....    STR      r0,[r7,#0x14]
        0x000087ec:    e5875010    .P..    STR      r5,[r7,#0x10]
        0x000087f0:    e3a0007f    ....    MOV      r0,#0x7f
        0x000087f4:    ebffff8d    ....    BL       sysSetLocalInterrupt ; 0x8630
        0x000087f8:    e3a00000    ....    MOV      r0,#0
        0x000087fc:    e8bd83f8    ....    POP      {r3-r9,pc}
    $d
        0x00008800:    0000a3b0    ....    DCD    41904
        0x00008804:    b8001000    ....    DCD    3087011840
        0x00008808:    0001e8b8    ....    DCD    125112
        0x0000880c:    00008818    ....    DCD    34840
        0x00008810:    0001e958    X...    DCD    125272
        0x00008814:    00008904    ....    DCD    35076
    $a
    i.sysTimer0ISR
    sysTimer0ISR
        0x00008818:    e92d4038    8@-.    PUSH     {r3-r5,lr}
        0x0000881c:    e59f00cc    ....    LDR      r0,[pc,#204] ; [0x88f0] = 0xa043
        0x00008820:    e5d00000    ....    LDRB     r0,[r0,#0]
        0x00008824:    e3500001    ..P.    CMP      r0,#1
        0x00008828:    0a000015    ....    BEQ      0x8884 ; sysTimer0ISR + 108
        0x0000882c:    e59f50c0    .P..    LDR      r5,[pc,#192] ; [0x88f4] = 0xb8001000
        0x00008830:    e5950060    `...    LDR      r0,[r5,#0x60]
        0x00008834:    e3100001    ....    TST      r0,#1
        0x00008838:    0a000013    ....    BEQ      0x888c ; sysTimer0ISR + 116
        0x0000883c:    e59f40b4    .@..    LDR      r4,[pc,#180] ; [0x88f8] = 0xa3b0
        0x00008840:    e5940028    (...    LDR      r0,[r4,#0x28]
        0x00008844:    e2800001    ....    ADD      r0,r0,#1
        0x00008848:    e5840028    (...    STR      r0,[r4,#0x28]
        0x0000884c:    e59f00a8    ....    LDR      r0,[pc,#168] ; [0x88fc] = 0x9fd4
        0x00008850:    e5901000    ....    LDR      r1,[r0,#0]
        0x00008854:    e2811001    ....    ADD      r1,r1,#1
        0x00008858:    e5801000    ....    STR      r1,[r0,#0]
        0x0000885c:    ebfff97f    ....    BL       protocol_D8_D9_command_time_dealwith ; 0x6e60
        0x00008860:    e3a00001    ....    MOV      r0,#1
        0x00008864:    e5850060    `...    STR      r0,[r5,#0x60]
        0x00008868:    e5d40000    ....    LDRB     r0,[r4,#0]
        0x0000886c:    e3500000    ..P.    CMP      r0,#0
        0x00008870:    0a000005    ....    BEQ      0x888c ; sysTimer0ISR + 116
        0x00008874:    e3a00000    ....    MOV      r0,#0
        0x00008878:    e58d0000    ....    STR      r0,[sp,#0]
        0x0000887c:    e59f407c    |@..    LDR      r4,[pc,#124] ; [0x8900] = 0x1e8b8
        0x00008880:    ea000016    ....    B        0x88e0 ; sysTimer0ISR + 200
        0x00008884:    e3a00002    ....    MOV      r0,#2
        0x00008888:    ebfffaa6    ....    BL       set_tim1msint ; 0x7328
        0x0000888c:    e8bd8038    8...    POP      {r3-r5,pc}
        0x00008890:    e59d0000    ....    LDR      r0,[sp,#0]
        0x00008894:    e7940200    ....    LDR      r0,[r4,r0,LSL #4]
        0x00008898:    e3500000    ..P.    CMP      r0,#0
        0x0000889c:    0a00000c    ....    BEQ      0x88d4 ; sysTimer0ISR + 188
        0x000088a0:    e59d0000    ....    LDR      r0,[sp,#0]
        0x000088a4:    e0842200    ."..    ADD      r2,r4,r0,LSL #4
        0x000088a8:    e5921008    ....    LDR      r1,[r2,#8]
        0x000088ac:    e2411001    ..A.    SUB      r1,r1,#1
        0x000088b0:    e5821008    ....    STR      r1,[r2,#8]
        0x000088b4:    e3510000    ..Q.    CMP      r1,#0
        0x000088b8:    1a000005    ....    BNE      0x88d4 ; sysTimer0ISR + 188
        0x000088bc:    e592000c    ....    LDR      r0,[r2,#0xc]
        0x000088c0:    e12fff30    0./.    BLX      r0
        0x000088c4:    e59d0000    ....    LDR      r0,[sp,#0]
        0x000088c8:    e0840200    ....    ADD      r0,r4,r0,LSL #4
        0x000088cc:    e5901004    ....    LDR      r1,[r0,#4]
        0x000088d0:    e5801008    ....    STR      r1,[r0,#8]
        0x000088d4:    e59d0000    ....    LDR      r0,[sp,#0]
        0x000088d8:    e2800001    ....    ADD      r0,r0,#1
        0x000088dc:    e58d0000    ....    STR      r0,[sp,#0]
        0x000088e0:    e59d0000    ....    LDR      r0,[sp,#0]
        0x000088e4:    e350000a    ..P.    CMP      r0,#0xa
        0x000088e8:    baffffe8    ....    BLT      0x8890 ; sysTimer0ISR + 120
        0x000088ec:    e8bd8038    8...    POP      {r3-r5,pc}
    $d
        0x000088f0:    0000a043    C...    DCD    41027
        0x000088f4:    b8001000    ....    DCD    3087011840
        0x000088f8:    0000a3b0    ....    DCD    41904
        0x000088fc:    00009fd4    ....    DCD    40916
        0x00008900:    0001e8b8    ....    DCD    125112
    $a
    i.sysTimer1ISR
    sysTimer1ISR
        0x00008904:    e92d4038    8@-.    PUSH     {r3-r5,lr}
        0x00008908:    e59f10ac    ....    LDR      r1,[pc,#172] ; [0x89bc] = 0xb8001000
        0x0000890c:    e5910060    `...    LDR      r0,[r1,#0x60]
        0x00008910:    e3100002    ....    TST      r0,#2
        0x00008914:    0a000027    '...    BEQ      0x89b8 ; sysTimer1ISR + 180
        0x00008918:    e59f00a0    ....    LDR      r0,[pc,#160] ; [0x89c0] = 0xa3b0
        0x0000891c:    e5902010    . ..    LDR      r2,[r0,#0x10]
        0x00008920:    e2822001    . ..    ADD      r2,r2,#1
        0x00008924:    e5802010    . ..    STR      r2,[r0,#0x10]
        0x00008928:    e3a02002    . ..    MOV      r2,#2
        0x0000892c:    e5812060    ` ..    STR      r2,[r1,#0x60]
        0x00008930:    e5902010    . ..    LDR      r2,[r0,#0x10]
        0x00008934:    e3a01000    ....    MOV      r1,#0
        0x00008938:    e372021f    ..r.    CMN      r2,#0xf0000001
        0x0000893c:    3a000000    ...:    BCC      0x8944 ; sysTimer1ISR + 64
        0x00008940:    e5801010    ....    STR      r1,[r0,#0x10]
        0x00008944:    e5d00001    ....    LDRB     r0,[r0,#1]
        0x00008948:    e3500000    ..P.    CMP      r0,#0
        0x0000894c:    0a000019    ....    BEQ      0x89b8 ; sysTimer1ISR + 180
        0x00008950:    e58d1000    ....    STR      r1,[sp,#0]
        0x00008954:    e59f4068    h@..    LDR      r4,[pc,#104] ; [0x89c4] = 0x1e958
        0x00008958:    ea000013    ....    B        0x89ac ; sysTimer1ISR + 168
        0x0000895c:    e59d0000    ....    LDR      r0,[sp,#0]
        0x00008960:    e7940200    ....    LDR      r0,[r4,r0,LSL #4]
        0x00008964:    e3500000    ..P.    CMP      r0,#0
        0x00008968:    0a00000c    ....    BEQ      0x89a0 ; sysTimer1ISR + 156
        0x0000896c:    e59d0000    ....    LDR      r0,[sp,#0]
        0x00008970:    e0842200    ."..    ADD      r2,r4,r0,LSL #4
        0x00008974:    e5921008    ....    LDR      r1,[r2,#8]
        0x00008978:    e2411001    ..A.    SUB      r1,r1,#1
        0x0000897c:    e5821008    ....    STR      r1,[r2,#8]
        0x00008980:    e3510000    ..Q.    CMP      r1,#0
        0x00008984:    1a000005    ....    BNE      0x89a0 ; sysTimer1ISR + 156
        0x00008988:    e592000c    ....    LDR      r0,[r2,#0xc]
        0x0000898c:    e12fff30    0./.    BLX      r0
        0x00008990:    e59d0000    ....    LDR      r0,[sp,#0]
        0x00008994:    e0840200    ....    ADD      r0,r4,r0,LSL #4
        0x00008998:    e5901004    ....    LDR      r1,[r0,#4]
        0x0000899c:    e5801008    ....    STR      r1,[r0,#8]
        0x000089a0:    e59d0000    ....    LDR      r0,[sp,#0]
        0x000089a4:    e2800001    ....    ADD      r0,r0,#1
        0x000089a8:    e58d0000    ....    STR      r0,[sp,#0]
        0x000089ac:    e59d0000    ....    LDR      r0,[sp,#0]
        0x000089b0:    e350000a    ..P.    CMP      r0,#0xa
        0x000089b4:    baffffe8    ....    BLT      0x895c ; sysTimer1ISR + 88
        0x000089b8:    e8bd8038    8...    POP      {r3-r5,pc}
    $d
        0x000089bc:    b8001000    ....    DCD    3087011840
        0x000089c0:    0000a3b0    ....    DCD    41904
        0x000089c4:    0001e958    X...    DCD    125272
    $a
    i.sysprintf
    sysprintf
        0x000089c8:    e92d000f    ..-.    PUSH     {r0-r3}
        0x000089cc:    e92d4010    .@-.    PUSH     {r4,lr}
        0x000089d0:    e28d400c    .@..    ADD      r4,sp,#0xc
        0x000089d4:    ea000004    ....    B        0x89ec ; sysprintf + 36
        0x000089d8:    e3500025    %.P.    CMP      r0,#0x25
        0x000089dc:    0a000008    ....    BEQ      0x8a04 ; sysprintf + 60
        0x000089e0:    e2821001    ....    ADD      r1,r2,#1
        0x000089e4:    e58d1008    ....    STR      r1,[sp,#8]
        0x000089e8:    ebfff1a6    ....    BL       _PutChar_f ; 0x5088
        0x000089ec:    e59d2008    . ..    LDR      r2,[sp,#8]
        0x000089f0:    e5d20000    ....    LDRB     r0,[r2,#0]
        0x000089f4:    e3500000    ..P.    CMP      r0,#0
        0x000089f8:    1afffff6    ....    BNE      0x89d8 ; sysprintf + 16
        0x000089fc:    e49d4004    .@..    POP      {r4}
        0x00008a00:    e49df014    ....    LDR      pc,[sp],#0x14
        0x00008a04:    e4941004    ....    LDR      r1,[r4],#4
        0x00008a08:    e2820001    ....    ADD      r0,r2,#1
        0x00008a0c:    ebffe3e2    ....    BL       FormatItem ; 0x199c
        0x00008a10:    e58d0008    ....    STR      r0,[sp,#8]
        0x00008a14:    eafffff4    ....    B        0x89ec ; sysprintf + 36
    i.uart0ISR
    uart0ISR
        0x00008a18:    e92d401c    .@-.    PUSH     {r2-r4,lr}
        0x00008a1c:    e3a0432e    .C..    MOV      r4,#0xb8000000
        0x00008a20:    e594001c    ....    LDR      r0,[r4,#0x1c]
        0x00008a24:    e20000ff    ....    AND      r0,r0,#0xff
        0x00008a28:    e58d0004    ....    STR      r0,[sp,#4]
        0x00008a2c:    e59d0004    ....    LDR      r0,[sp,#4]
        0x00008a30:    e3100002    ....    TST      r0,#2
        0x00008a34:    0a000001    ....    BEQ      0x8a40 ; uart0ISR + 40
        0x00008a38:    e3a00000    ....    MOV      r0,#0
        0x00008a3c:    ebfff479    y...    BL       _uartTransmitChars ; 0x5c28
        0x00008a40:    e59d0004    ....    LDR      r0,[sp,#4]
        0x00008a44:    e3100011    ....    TST      r0,#0x11
        0x00008a48:    0a000001    ....    BEQ      0x8a54 ; uart0ISR + 60
        0x00008a4c:    e3a00000    ....    MOV      r0,#0
        0x00008a50:    ebfff3bc    ....    BL       _uartReceiveChars ; 0x5948
        0x00008a54:    e59d0004    ....    LDR      r0,[sp,#4]
        0x00008a58:    e3100004    ....    TST      r0,#4
        0x00008a5c:    0a000007    ....    BEQ      0x8a80 ; uart0ISR + 104
        0x00008a60:    e5940018    ....    LDR      r0,[r4,#0x18]
        0x00008a64:    e58d0000    ....    STR      r0,[sp,#0]
        0x00008a68:    e59d0000    ....    LDR      r0,[sp,#0]
        0x00008a6c:    e3100040    @...    TST      r0,#0x40
        0x00008a70:    0a000002    ....    BEQ      0x8a80 ; uart0ISR + 104
        0x00008a74:    e59f1008    ....    LDR      r1,[pc,#8] ; [0x8a84] = 0xa56c
        0x00008a78:    e3a00001    ....    MOV      r0,#1
        0x00008a7c:    e5c10000    ....    STRB     r0,[r1,#0]
        0x00008a80:    e8bd801c    ....    POP      {r2-r4,pc}
    $d
        0x00008a84:    0000a56c    l...    DCD    42348
    $a
    i.uart10ISR
    uart10ISR
        0x00008a88:    e92d407f    .@-.    PUSH     {r0-r6,lr}
        0x00008a8c:    e59f00e0    ....    LDR      r0,[pc,#224] ; [0x8b74] = 0xb8000a1c
        0x00008a90:    e5900000    ....    LDR      r0,[r0,#0]
        0x00008a94:    e20000ff    ....    AND      r0,r0,#0xff
        0x00008a98:    e58d000c    ....    STR      r0,[sp,#0xc]
        0x00008a9c:    e59f00d4    ....    LDR      r0,[pc,#212] ; [0x8b78] = 0xb8000a30
        0x00008aa0:    e5900000    ....    LDR      r0,[r0,#0]
        0x00008aa4:    e58d0000    ....    STR      r0,[sp,#0]
        0x00008aa8:    e59d000c    ....    LDR      r0,[sp,#0xc]
        0x00008aac:    e3100002    ....    TST      r0,#2
        0x00008ab0:    0a000001    ....    BEQ      0x8abc ; uart10ISR + 52
        0x00008ab4:    e3a0000a    ....    MOV      r0,#0xa
        0x00008ab8:    ebfff45a    Z...    BL       _uartTransmitChars ; 0x5c28
        0x00008abc:    e59d0000    ....    LDR      r0,[sp,#0]
        0x00008ac0:    e3500003    ..P.    CMP      r0,#3
        0x00008ac4:    0a00001c    ....    BEQ      0x8b3c ; uart10ISR + 180
        0x00008ac8:    e59d0000    ....    LDR      r0,[sp,#0]
        0x00008acc:    e3500001    ..P.    CMP      r0,#1
        0x00008ad0:    0a00001c    ....    BEQ      0x8b48 ; uart10ISR + 192
        0x00008ad4:    e59d000c    ....    LDR      r0,[sp,#0xc]
        0x00008ad8:    e3100011    ....    TST      r0,#0x11
        0x00008adc:    0a000001    ....    BEQ      0x8ae8 ; uart10ISR + 96
        0x00008ae0:    e3a0000a    ....    MOV      r0,#0xa
        0x00008ae4:    ebfff397    ....    BL       _uartReceiveChars ; 0x5948
        0x00008ae8:    e59d000c    ....    LDR      r0,[sp,#0xc]
        0x00008aec:    e59f4088    .@..    LDR      r4,[pc,#136] ; [0x8b7c] = 0xa56c
        0x00008af0:    e3100008    ....    TST      r0,#8
        0x00008af4:    e3a05001    .P..    MOV      r5,#1
        0x00008af8:    0a000004    ....    BEQ      0x8b10 ; uart10ISR + 136
        0x00008afc:    e5d40015    ....    LDRB     r0,[r4,#0x15]
        0x00008b00:    e3500000    ..P.    CMP      r0,#0
        0x00008b04:    0a000012    ....    BEQ      0x8b54 ; uart10ISR + 204
        0x00008b08:    e3a0000a    ....    MOV      r0,#0xa
        0x00008b0c:    ebfff1b2    ....    BL       _uartCheckModemStatus ; 0x51dc
        0x00008b10:    e59d000c    ....    LDR      r0,[sp,#0xc]
        0x00008b14:    e3100004    ....    TST      r0,#4
        0x00008b18:    0a000006    ....    BEQ      0x8b38 ; uart10ISR + 176
        0x00008b1c:    e59f005c    \...    LDR      r0,[pc,#92] ; [0x8b80] = 0xb8000a18
        0x00008b20:    e5900000    ....    LDR      r0,[r0,#0]
        0x00008b24:    e58d0008    ....    STR      r0,[sp,#8]
        0x00008b28:    e59d0008    ....    LDR      r0,[sp,#8]
        0x00008b2c:    e3100040    @...    TST      r0,#0x40
        0x00008b30:    0a000000    ....    BEQ      0x8b38 ; uart10ISR + 176
        0x00008b34:    e5c4500a    .P..    STRB     r5,[r4,#0xa]
        0x00008b38:    e8bd807f    ....    POP      {r0-r6,pc}
        0x00008b3c:    e3a0000a    ....    MOV      r0,#0xa
        0x00008b40:    ebffe7d8    ....    BL       RS485_HANDLE ; 0x2aa8
        0x00008b44:    e8bd807f    ....    POP      {r0-r6,pc}
        0x00008b48:    e3a0000a    ....    MOV      r0,#0xa
        0x00008b4c:    ebffe541    A...    BL       LIN_HANDLE ; 0x2058
        0x00008b50:    e8bd807f    ....    POP      {r0-r6,pc}
        0x00008b54:    e59f0028    (...    LDR      r0,[pc,#40] ; [0x8b84] = 0xb8000a14
        0x00008b58:    e5900000    ....    LDR      r0,[r0,#0]
        0x00008b5c:    e58d0004    ....    STR      r0,[sp,#4]
        0x00008b60:    e59d0004    ....    LDR      r0,[sp,#4]
        0x00008b64:    e3100001    ....    TST      r0,#1
        0x00008b68:    0affffe8    ....    BEQ      0x8b10 ; uart10ISR + 136
        0x00008b6c:    e5c45014    .P..    STRB     r5,[r4,#0x14]
        0x00008b70:    eaffffe6    ....    B        0x8b10 ; uart10ISR + 136
    $d
        0x00008b74:    b8000a1c    ....    DCD    3087010332
        0x00008b78:    b8000a30    0...    DCD    3087010352
        0x00008b7c:    0000a56c    l...    DCD    42348
        0x00008b80:    b8000a18    ....    DCD    3087010328
        0x00008b84:    b8000a14    ....    DCD    3087010324
    $a
    i.uart1ISR
    uart1ISR
        0x00008b88:    e92d407f    .@-.    PUSH     {r0-r6,lr}
        0x00008b8c:    e3a0432e    .C..    MOV      r4,#0xb8000000
        0x00008b90:    e594011c    ....    LDR      r0,[r4,#0x11c]
        0x00008b94:    e20000ff    ....    AND      r0,r0,#0xff
        0x00008b98:    e58d000c    ....    STR      r0,[sp,#0xc]
        0x00008b9c:    e5940130    0...    LDR      r0,[r4,#0x130]
        0x00008ba0:    e58d0000    ....    STR      r0,[sp,#0]
        0x00008ba4:    e59d000c    ....    LDR      r0,[sp,#0xc]
        0x00008ba8:    e3100002    ....    TST      r0,#2
        0x00008bac:    0a000001    ....    BEQ      0x8bb8 ; uart1ISR + 48
        0x00008bb0:    e3a00001    ....    MOV      r0,#1
        0x00008bb4:    ebfff41b    ....    BL       _uartTransmitChars ; 0x5c28
        0x00008bb8:    e59d0000    ....    LDR      r0,[sp,#0]
        0x00008bbc:    e3500003    ..P.    CMP      r0,#3
        0x00008bc0:    0a00001b    ....    BEQ      0x8c34 ; uart1ISR + 172
        0x00008bc4:    e59d0000    ....    LDR      r0,[sp,#0]
        0x00008bc8:    e3500001    ..P.    CMP      r0,#1
        0x00008bcc:    0a00001b    ....    BEQ      0x8c40 ; uart1ISR + 184
        0x00008bd0:    e59d000c    ....    LDR      r0,[sp,#0xc]
        0x00008bd4:    e3100011    ....    TST      r0,#0x11
        0x00008bd8:    0a000001    ....    BEQ      0x8be4 ; uart1ISR + 92
        0x00008bdc:    e3a00001    ....    MOV      r0,#1
        0x00008be0:    ebfff358    X...    BL       _uartReceiveChars ; 0x5948
        0x00008be4:    e59d000c    ....    LDR      r0,[sp,#0xc]
        0x00008be8:    e59f5078    xP..    LDR      r5,[pc,#120] ; [0x8c68] = 0xa56c
        0x00008bec:    e3100008    ....    TST      r0,#8
        0x00008bf0:    e3a06001    .`..    MOV      r6,#1
        0x00008bf4:    0a000004    ....    BEQ      0x8c0c ; uart1ISR + 132
        0x00008bf8:    e5d50015    ....    LDRB     r0,[r5,#0x15]
        0x00008bfc:    e3500000    ..P.    CMP      r0,#0
        0x00008c00:    0a000011    ....    BEQ      0x8c4c ; uart1ISR + 196
        0x00008c04:    e3a00001    ....    MOV      r0,#1
        0x00008c08:    ebfff173    s...    BL       _uartCheckModemStatus ; 0x51dc
        0x00008c0c:    e59d000c    ....    LDR      r0,[sp,#0xc]
        0x00008c10:    e3100004    ....    TST      r0,#4
        0x00008c14:    0a000005    ....    BEQ      0x8c30 ; uart1ISR + 168
        0x00008c18:    e5940118    ....    LDR      r0,[r4,#0x118]
        0x00008c1c:    e58d0008    ....    STR      r0,[sp,#8]
        0x00008c20:    e59d0008    ....    LDR      r0,[sp,#8]
        0x00008c24:    e3100040    @...    TST      r0,#0x40
        0x00008c28:    0a000000    ....    BEQ      0x8c30 ; uart1ISR + 168
        0x00008c2c:    e5c56001    .`..    STRB     r6,[r5,#1]
        0x00008c30:    e8bd807f    ....    POP      {r0-r6,pc}
        0x00008c34:    e3a00001    ....    MOV      r0,#1
        0x00008c38:    ebffe79a    ....    BL       RS485_HANDLE ; 0x2aa8
        0x00008c3c:    e8bd807f    ....    POP      {r0-r6,pc}
        0x00008c40:    e3a00001    ....    MOV      r0,#1
        0x00008c44:    ebffe503    ....    BL       LIN_HANDLE ; 0x2058
        0x00008c48:    e8bd807f    ....    POP      {r0-r6,pc}
        0x00008c4c:    e5940114    ....    LDR      r0,[r4,#0x114]
        0x00008c50:    e58d0004    ....    STR      r0,[sp,#4]
        0x00008c54:    e59d0004    ....    LDR      r0,[sp,#4]
        0x00008c58:    e3100001    ....    TST      r0,#1
        0x00008c5c:    0affffea    ....    BEQ      0x8c0c ; uart1ISR + 132
        0x00008c60:    e5c5600b    .`..    STRB     r6,[r5,#0xb]
        0x00008c64:    eaffffe8    ....    B        0x8c0c ; uart1ISR + 132
    $d
        0x00008c68:    0000a56c    l...    DCD    42348
    $a
    i.uart2ISR
    uart2ISR
        0x00008c6c:    e92d407f    .@-.    PUSH     {r0-r6,lr}
        0x00008c70:    e3a0432e    .C..    MOV      r4,#0xb8000000
        0x00008c74:    e594021c    ....    LDR      r0,[r4,#0x21c]
        0x00008c78:    e20000ff    ....    AND      r0,r0,#0xff
        0x00008c7c:    e58d000c    ....    STR      r0,[sp,#0xc]
        0x00008c80:    e5940230    0...    LDR      r0,[r4,#0x230]
        0x00008c84:    e58d0000    ....    STR      r0,[sp,#0]
        0x00008c88:    e59d000c    ....    LDR      r0,[sp,#0xc]
        0x00008c8c:    e3100002    ....    TST      r0,#2
        0x00008c90:    0a000001    ....    BEQ      0x8c9c ; uart2ISR + 48
        0x00008c94:    e3a00002    ....    MOV      r0,#2
        0x00008c98:    ebfff3e2    ....    BL       _uartTransmitChars ; 0x5c28
        0x00008c9c:    e59d0000    ....    LDR      r0,[sp,#0]
        0x00008ca0:    e3500003    ..P.    CMP      r0,#3
        0x00008ca4:    0a000024    $...    BEQ      0x8d3c ; uart2ISR + 208
        0x00008ca8:    e59d0000    ....    LDR      r0,[sp,#0]
        0x00008cac:    e3500001    ..P.    CMP      r0,#1
        0x00008cb0:    0a000024    $...    BEQ      0x8d48 ; uart2ISR + 220
        0x00008cb4:    e59d000c    ....    LDR      r0,[sp,#0xc]
        0x00008cb8:    e3100011    ....    TST      r0,#0x11
        0x00008cbc:    0a000001    ....    BEQ      0x8cc8 ; uart2ISR + 92
        0x00008cc0:    e3a00002    ....    MOV      r0,#2
        0x00008cc4:    ebfff31f    ....    BL       _uartReceiveChars ; 0x5948
        0x00008cc8:    e59d000c    ....    LDR      r0,[sp,#0xc]
        0x00008ccc:    e59f509c    .P..    LDR      r5,[pc,#156] ; [0x8d70] = 0xa56c
        0x00008cd0:    e3100004    ....    TST      r0,#4
        0x00008cd4:    e3a06001    .`..    MOV      r6,#1
        0x00008cd8:    0a000005    ....    BEQ      0x8cf4 ; uart2ISR + 136
        0x00008cdc:    e5940218    ....    LDR      r0,[r4,#0x218]
        0x00008ce0:    e58d0008    ....    STR      r0,[sp,#8]
        0x00008ce4:    e59d0008    ....    LDR      r0,[sp,#8]
        0x00008ce8:    e3100040    @...    TST      r0,#0x40
        0x00008cec:    0a000000    ....    BEQ      0x8cf4 ; uart2ISR + 136
        0x00008cf0:    e5c56002    .`..    STRB     r6,[r5,#2]
        0x00008cf4:    e59d000c    ....    LDR      r0,[sp,#0xc]
        0x00008cf8:    e3100008    ....    TST      r0,#8
        0x00008cfc:    0a000004    ....    BEQ      0x8d14 ; uart2ISR + 168
        0x00008d00:    e5d50015    ....    LDRB     r0,[r5,#0x15]
        0x00008d04:    e3500000    ..P.    CMP      r0,#0
        0x00008d08:    0a000011    ....    BEQ      0x8d54 ; uart2ISR + 232
        0x00008d0c:    e3a00002    ....    MOV      r0,#2
        0x00008d10:    ebfff131    1...    BL       _uartCheckModemStatus ; 0x51dc
        0x00008d14:    e59d000c    ....    LDR      r0,[sp,#0xc]
        0x00008d18:    e3100004    ....    TST      r0,#4
        0x00008d1c:    0a000005    ....    BEQ      0x8d38 ; uart2ISR + 204
        0x00008d20:    e5940218    ....    LDR      r0,[r4,#0x218]
        0x00008d24:    e58d0008    ....    STR      r0,[sp,#8]
        0x00008d28:    e59d0008    ....    LDR      r0,[sp,#8]
        0x00008d2c:    e3100040    @...    TST      r0,#0x40
        0x00008d30:    0a000000    ....    BEQ      0x8d38 ; uart2ISR + 204
        0x00008d34:    e5c56002    .`..    STRB     r6,[r5,#2]
        0x00008d38:    e8bd807f    ....    POP      {r0-r6,pc}
        0x00008d3c:    e3a00002    ....    MOV      r0,#2
        0x00008d40:    ebffe758    X...    BL       RS485_HANDLE ; 0x2aa8
        0x00008d44:    e8bd807f    ....    POP      {r0-r6,pc}
        0x00008d48:    e3a00002    ....    MOV      r0,#2
        0x00008d4c:    ebffe4c1    ....    BL       LIN_HANDLE ; 0x2058
        0x00008d50:    e8bd807f    ....    POP      {r0-r6,pc}
        0x00008d54:    e5940214    ....    LDR      r0,[r4,#0x214]
        0x00008d58:    e58d0004    ....    STR      r0,[sp,#4]
        0x00008d5c:    e59d0004    ....    LDR      r0,[sp,#4]
        0x00008d60:    e3100001    ....    TST      r0,#1
        0x00008d64:    0affffea    ....    BEQ      0x8d14 ; uart2ISR + 168
        0x00008d68:    e5c5600c    .`..    STRB     r6,[r5,#0xc]
        0x00008d6c:    eaffffe8    ....    B        0x8d14 ; uart2ISR + 168
    $d
        0x00008d70:    0000a56c    l...    DCD    42348
    $a
    i.uart3ISR
    uart3ISR
        0x00008d74:    e92d407f    .@-.    PUSH     {r0-r6,lr}
        0x00008d78:    e3a0432e    .C..    MOV      r4,#0xb8000000
        0x00008d7c:    e594031c    ....    LDR      r0,[r4,#0x31c]
        0x00008d80:    e20000ff    ....    AND      r0,r0,#0xff
        0x00008d84:    e58d000c    ....    STR      r0,[sp,#0xc]
        0x00008d88:    e5940330    0...    LDR      r0,[r4,#0x330]
        0x00008d8c:    e58d0000    ....    STR      r0,[sp,#0]
        0x00008d90:    e59d000c    ....    LDR      r0,[sp,#0xc]
        0x00008d94:    e3100002    ....    TST      r0,#2
        0x00008d98:    0a000001    ....    BEQ      0x8da4 ; uart3ISR + 48
        0x00008d9c:    e3a00003    ....    MOV      r0,#3
        0x00008da0:    ebfff3a0    ....    BL       _uartTransmitChars ; 0x5c28
        0x00008da4:    e59d0000    ....    LDR      r0,[sp,#0]
        0x00008da8:    e3500003    ..P.    CMP      r0,#3
        0x00008dac:    0a00001b    ....    BEQ      0x8e20 ; uart3ISR + 172
        0x00008db0:    e59d0000    ....    LDR      r0,[sp,#0]
        0x00008db4:    e3500001    ..P.    CMP      r0,#1
        0x00008db8:    0a00001b    ....    BEQ      0x8e2c ; uart3ISR + 184
        0x00008dbc:    e59d000c    ....    LDR      r0,[sp,#0xc]
        0x00008dc0:    e3100011    ....    TST      r0,#0x11
        0x00008dc4:    0a000001    ....    BEQ      0x8dd0 ; uart3ISR + 92
        0x00008dc8:    e3a00003    ....    MOV      r0,#3
        0x00008dcc:    ebfff2dd    ....    BL       _uartReceiveChars ; 0x5948
        0x00008dd0:    e59d000c    ....    LDR      r0,[sp,#0xc]
        0x00008dd4:    e59f5078    xP..    LDR      r5,[pc,#120] ; [0x8e54] = 0xa56c
        0x00008dd8:    e3100008    ....    TST      r0,#8
        0x00008ddc:    e3a06001    .`..    MOV      r6,#1
        0x00008de0:    0a000004    ....    BEQ      0x8df8 ; uart3ISR + 132
        0x00008de4:    e5d50015    ....    LDRB     r0,[r5,#0x15]
        0x00008de8:    e3500000    ..P.    CMP      r0,#0
        0x00008dec:    0a000011    ....    BEQ      0x8e38 ; uart3ISR + 196
        0x00008df0:    e3a00003    ....    MOV      r0,#3
        0x00008df4:    ebfff0f8    ....    BL       _uartCheckModemStatus ; 0x51dc
        0x00008df8:    e59d000c    ....    LDR      r0,[sp,#0xc]
        0x00008dfc:    e3100004    ....    TST      r0,#4
        0x00008e00:    0a000005    ....    BEQ      0x8e1c ; uart3ISR + 168
        0x00008e04:    e5940318    ....    LDR      r0,[r4,#0x318]
        0x00008e08:    e58d0008    ....    STR      r0,[sp,#8]
        0x00008e0c:    e59d0008    ....    LDR      r0,[sp,#8]
        0x00008e10:    e3100040    @...    TST      r0,#0x40
        0x00008e14:    0a000000    ....    BEQ      0x8e1c ; uart3ISR + 168
        0x00008e18:    e5c56003    .`..    STRB     r6,[r5,#3]
        0x00008e1c:    e8bd807f    ....    POP      {r0-r6,pc}
        0x00008e20:    e3a00003    ....    MOV      r0,#3
        0x00008e24:    ebffe71f    ....    BL       RS485_HANDLE ; 0x2aa8
        0x00008e28:    e8bd807f    ....    POP      {r0-r6,pc}
        0x00008e2c:    e3a00003    ....    MOV      r0,#3
        0x00008e30:    ebffe488    ....    BL       LIN_HANDLE ; 0x2058
        0x00008e34:    e8bd807f    ....    POP      {r0-r6,pc}
        0x00008e38:    e5940314    ....    LDR      r0,[r4,#0x314]
        0x00008e3c:    e58d0004    ....    STR      r0,[sp,#4]
        0x00008e40:    e59d0004    ....    LDR      r0,[sp,#4]
        0x00008e44:    e3100001    ....    TST      r0,#1
        0x00008e48:    0affffea    ....    BEQ      0x8df8 ; uart3ISR + 132
        0x00008e4c:    e5c5600d    .`..    STRB     r6,[r5,#0xd]
        0x00008e50:    eaffffe8    ....    B        0x8df8 ; uart3ISR + 132
    $d
        0x00008e54:    0000a56c    l...    DCD    42348
    $a
    i.uart4ISR
    uart4ISR
        0x00008e58:    e92d407f    .@-.    PUSH     {r0-r6,lr}
        0x00008e5c:    e59f00e0    ....    LDR      r0,[pc,#224] ; [0x8f44] = 0xb800041c
        0x00008e60:    e5900000    ....    LDR      r0,[r0,#0]
        0x00008e64:    e20000ff    ....    AND      r0,r0,#0xff
        0x00008e68:    e58d000c    ....    STR      r0,[sp,#0xc]
        0x00008e6c:    e59f00d4    ....    LDR      r0,[pc,#212] ; [0x8f48] = 0xb8000430
        0x00008e70:    e5900000    ....    LDR      r0,[r0,#0]
        0x00008e74:    e58d0000    ....    STR      r0,[sp,#0]
        0x00008e78:    e59d000c    ....    LDR      r0,[sp,#0xc]
        0x00008e7c:    e3100002    ....    TST      r0,#2
        0x00008e80:    0a000001    ....    BEQ      0x8e8c ; uart4ISR + 52
        0x00008e84:    e3a00004    ....    MOV      r0,#4
        0x00008e88:    ebfff366    f...    BL       _uartTransmitChars ; 0x5c28
        0x00008e8c:    e59d0000    ....    LDR      r0,[sp,#0]
        0x00008e90:    e3500003    ..P.    CMP      r0,#3
        0x00008e94:    0a00001c    ....    BEQ      0x8f0c ; uart4ISR + 180
        0x00008e98:    e59d0000    ....    LDR      r0,[sp,#0]
        0x00008e9c:    e3500001    ..P.    CMP      r0,#1
        0x00008ea0:    0a00001c    ....    BEQ      0x8f18 ; uart4ISR + 192
        0x00008ea4:    e59d000c    ....    LDR      r0,[sp,#0xc]
        0x00008ea8:    e3100011    ....    TST      r0,#0x11
        0x00008eac:    0a000001    ....    BEQ      0x8eb8 ; uart4ISR + 96
        0x00008eb0:    e3a00004    ....    MOV      r0,#4
        0x00008eb4:    ebfff2a3    ....    BL       _uartReceiveChars ; 0x5948
        0x00008eb8:    e59d000c    ....    LDR      r0,[sp,#0xc]
        0x00008ebc:    e59f4088    .@..    LDR      r4,[pc,#136] ; [0x8f4c] = 0xa56c
        0x00008ec0:    e3100008    ....    TST      r0,#8
        0x00008ec4:    e3a05001    .P..    MOV      r5,#1
        0x00008ec8:    0a000004    ....    BEQ      0x8ee0 ; uart4ISR + 136
        0x00008ecc:    e5d40015    ....    LDRB     r0,[r4,#0x15]
        0x00008ed0:    e3500000    ..P.    CMP      r0,#0
        0x00008ed4:    0a000012    ....    BEQ      0x8f24 ; uart4ISR + 204
        0x00008ed8:    e3a00004    ....    MOV      r0,#4
        0x00008edc:    ebfff0be    ....    BL       _uartCheckModemStatus ; 0x51dc
        0x00008ee0:    e59d000c    ....    LDR      r0,[sp,#0xc]
        0x00008ee4:    e3100004    ....    TST      r0,#4
        0x00008ee8:    0a000006    ....    BEQ      0x8f08 ; uart4ISR + 176
        0x00008eec:    e59f005c    \...    LDR      r0,[pc,#92] ; [0x8f50] = 0xb8000418
        0x00008ef0:    e5900000    ....    LDR      r0,[r0,#0]
        0x00008ef4:    e58d0008    ....    STR      r0,[sp,#8]
        0x00008ef8:    e59d0008    ....    LDR      r0,[sp,#8]
        0x00008efc:    e3100040    @...    TST      r0,#0x40
        0x00008f00:    0a000000    ....    BEQ      0x8f08 ; uart4ISR + 176
        0x00008f04:    e5c45004    .P..    STRB     r5,[r4,#4]
        0x00008f08:    e8bd807f    ....    POP      {r0-r6,pc}
        0x00008f0c:    e3a00004    ....    MOV      r0,#4
        0x00008f10:    ebffe6e4    ....    BL       RS485_HANDLE ; 0x2aa8
        0x00008f14:    e8bd807f    ....    POP      {r0-r6,pc}
        0x00008f18:    e3a00004    ....    MOV      r0,#4
        0x00008f1c:    ebffe44d    M...    BL       LIN_HANDLE ; 0x2058
        0x00008f20:    e8bd807f    ....    POP      {r0-r6,pc}
        0x00008f24:    e59f0028    (...    LDR      r0,[pc,#40] ; [0x8f54] = 0xb8000414
        0x00008f28:    e5900000    ....    LDR      r0,[r0,#0]
        0x00008f2c:    e58d0004    ....    STR      r0,[sp,#4]
        0x00008f30:    e59d0004    ....    LDR      r0,[sp,#4]
        0x00008f34:    e3100001    ....    TST      r0,#1
        0x00008f38:    0affffe8    ....    BEQ      0x8ee0 ; uart4ISR + 136
        0x00008f3c:    e5c4500e    .P..    STRB     r5,[r4,#0xe]
        0x00008f40:    eaffffe6    ....    B        0x8ee0 ; uart4ISR + 136
    $d
        0x00008f44:    b800041c    ....    DCD    3087008796
        0x00008f48:    b8000430    0...    DCD    3087008816
        0x00008f4c:    0000a56c    l...    DCD    42348
        0x00008f50:    b8000418    ....    DCD    3087008792
        0x00008f54:    b8000414    ....    DCD    3087008788
    $a
    i.uart5ISR
    uart5ISR
        0x00008f58:    e92d407f    .@-.    PUSH     {r0-r6,lr}
        0x00008f5c:    e59f00e0    ....    LDR      r0,[pc,#224] ; [0x9044] = 0xb800051c
        0x00008f60:    e5900000    ....    LDR      r0,[r0,#0]
        0x00008f64:    e20000ff    ....    AND      r0,r0,#0xff
        0x00008f68:    e58d000c    ....    STR      r0,[sp,#0xc]
        0x00008f6c:    e59f00d4    ....    LDR      r0,[pc,#212] ; [0x9048] = 0xb8000530
        0x00008f70:    e5900000    ....    LDR      r0,[r0,#0]
        0x00008f74:    e58d0000    ....    STR      r0,[sp,#0]
        0x00008f78:    e59d000c    ....    LDR      r0,[sp,#0xc]
        0x00008f7c:    e3100002    ....    TST      r0,#2
        0x00008f80:    0a000001    ....    BEQ      0x8f8c ; uart5ISR + 52
        0x00008f84:    e3a00005    ....    MOV      r0,#5
        0x00008f88:    ebfff326    &...    BL       _uartTransmitChars ; 0x5c28
        0x00008f8c:    e59d0000    ....    LDR      r0,[sp,#0]
        0x00008f90:    e3500003    ..P.    CMP      r0,#3
        0x00008f94:    0a00001c    ....    BEQ      0x900c ; uart5ISR + 180
        0x00008f98:    e59d0000    ....    LDR      r0,[sp,#0]
        0x00008f9c:    e3500001    ..P.    CMP      r0,#1
        0x00008fa0:    0a00001c    ....    BEQ      0x9018 ; uart5ISR + 192
        0x00008fa4:    e59d000c    ....    LDR      r0,[sp,#0xc]
        0x00008fa8:    e3100011    ....    TST      r0,#0x11
        0x00008fac:    0a000001    ....    BEQ      0x8fb8 ; uart5ISR + 96
        0x00008fb0:    e3a00005    ....    MOV      r0,#5
        0x00008fb4:    ebfff263    c...    BL       _uartReceiveChars ; 0x5948
        0x00008fb8:    e59d000c    ....    LDR      r0,[sp,#0xc]
        0x00008fbc:    e59f4088    .@..    LDR      r4,[pc,#136] ; [0x904c] = 0xa56c
        0x00008fc0:    e3100008    ....    TST      r0,#8
        0x00008fc4:    e3a05001    .P..    MOV      r5,#1
        0x00008fc8:    0a000004    ....    BEQ      0x8fe0 ; uart5ISR + 136
        0x00008fcc:    e5d40015    ....    LDRB     r0,[r4,#0x15]
        0x00008fd0:    e3500000    ..P.    CMP      r0,#0
        0x00008fd4:    0a000012    ....    BEQ      0x9024 ; uart5ISR + 204
        0x00008fd8:    e3a00005    ....    MOV      r0,#5
        0x00008fdc:    ebfff07e    ~...    BL       _uartCheckModemStatus ; 0x51dc
        0x00008fe0:    e59d000c    ....    LDR      r0,[sp,#0xc]
        0x00008fe4:    e3100004    ....    TST      r0,#4
        0x00008fe8:    0a000006    ....    BEQ      0x9008 ; uart5ISR + 176
        0x00008fec:    e59f005c    \...    LDR      r0,[pc,#92] ; [0x9050] = 0xb8000518
        0x00008ff0:    e5900000    ....    LDR      r0,[r0,#0]
        0x00008ff4:    e58d0008    ....    STR      r0,[sp,#8]
        0x00008ff8:    e59d0008    ....    LDR      r0,[sp,#8]
        0x00008ffc:    e3100040    @...    TST      r0,#0x40
        0x00009000:    0a000000    ....    BEQ      0x9008 ; uart5ISR + 176
        0x00009004:    e5c45005    .P..    STRB     r5,[r4,#5]
        0x00009008:    e8bd807f    ....    POP      {r0-r6,pc}
        0x0000900c:    e3a00005    ....    MOV      r0,#5
        0x00009010:    ebffe6a4    ....    BL       RS485_HANDLE ; 0x2aa8
        0x00009014:    e8bd807f    ....    POP      {r0-r6,pc}
        0x00009018:    e3a00005    ....    MOV      r0,#5
        0x0000901c:    ebffe40d    ....    BL       LIN_HANDLE ; 0x2058
        0x00009020:    e8bd807f    ....    POP      {r0-r6,pc}
        0x00009024:    e59f0028    (...    LDR      r0,[pc,#40] ; [0x9054] = 0xb8000514
        0x00009028:    e5900000    ....    LDR      r0,[r0,#0]
        0x0000902c:    e58d0004    ....    STR      r0,[sp,#4]
        0x00009030:    e59d0004    ....    LDR      r0,[sp,#4]
        0x00009034:    e3100001    ....    TST      r0,#1
        0x00009038:    0affffe8    ....    BEQ      0x8fe0 ; uart5ISR + 136
        0x0000903c:    e5c4500f    .P..    STRB     r5,[r4,#0xf]
        0x00009040:    eaffffe6    ....    B        0x8fe0 ; uart5ISR + 136
    $d
        0x00009044:    b800051c    ....    DCD    3087009052
        0x00009048:    b8000530    0...    DCD    3087009072
        0x0000904c:    0000a56c    l...    DCD    42348
        0x00009050:    b8000518    ....    DCD    3087009048
        0x00009054:    b8000514    ....    DCD    3087009044
    $a
    i.uart6ISR
    uart6ISR
        0x00009058:    e92d407f    .@-.    PUSH     {r0-r6,lr}
        0x0000905c:    e59f00e0    ....    LDR      r0,[pc,#224] ; [0x9144] = 0xb800061c
        0x00009060:    e5900000    ....    LDR      r0,[r0,#0]
        0x00009064:    e20000ff    ....    AND      r0,r0,#0xff
        0x00009068:    e58d000c    ....    STR      r0,[sp,#0xc]
        0x0000906c:    e59f00d4    ....    LDR      r0,[pc,#212] ; [0x9148] = 0xb8000630
        0x00009070:    e5900000    ....    LDR      r0,[r0,#0]
        0x00009074:    e58d0000    ....    STR      r0,[sp,#0]
        0x00009078:    e59d000c    ....    LDR      r0,[sp,#0xc]
        0x0000907c:    e3100002    ....    TST      r0,#2
        0x00009080:    0a000001    ....    BEQ      0x908c ; uart6ISR + 52
        0x00009084:    e3a00006    ....    MOV      r0,#6
        0x00009088:    ebfff2e6    ....    BL       _uartTransmitChars ; 0x5c28
        0x0000908c:    e59d0000    ....    LDR      r0,[sp,#0]
        0x00009090:    e3500003    ..P.    CMP      r0,#3
        0x00009094:    0a00001c    ....    BEQ      0x910c ; uart6ISR + 180
        0x00009098:    e59d0000    ....    LDR      r0,[sp,#0]
        0x0000909c:    e3500001    ..P.    CMP      r0,#1
        0x000090a0:    0a00001c    ....    BEQ      0x9118 ; uart6ISR + 192
        0x000090a4:    e59d000c    ....    LDR      r0,[sp,#0xc]
        0x000090a8:    e3100011    ....    TST      r0,#0x11
        0x000090ac:    0a000001    ....    BEQ      0x90b8 ; uart6ISR + 96
        0x000090b0:    e3a00006    ....    MOV      r0,#6
        0x000090b4:    ebfff223    #...    BL       _uartReceiveChars ; 0x5948
        0x000090b8:    e59d000c    ....    LDR      r0,[sp,#0xc]
        0x000090bc:    e59f4088    .@..    LDR      r4,[pc,#136] ; [0x914c] = 0xa56c
        0x000090c0:    e3100008    ....    TST      r0,#8
        0x000090c4:    e3a05001    .P..    MOV      r5,#1
        0x000090c8:    0a000004    ....    BEQ      0x90e0 ; uart6ISR + 136
        0x000090cc:    e5d40015    ....    LDRB     r0,[r4,#0x15]
        0x000090d0:    e3500000    ..P.    CMP      r0,#0
        0x000090d4:    0a000012    ....    BEQ      0x9124 ; uart6ISR + 204
        0x000090d8:    e3a00006    ....    MOV      r0,#6
        0x000090dc:    ebfff03e    >...    BL       _uartCheckModemStatus ; 0x51dc
        0x000090e0:    e59d000c    ....    LDR      r0,[sp,#0xc]
        0x000090e4:    e3100004    ....    TST      r0,#4
        0x000090e8:    0a000006    ....    BEQ      0x9108 ; uart6ISR + 176
        0x000090ec:    e59f005c    \...    LDR      r0,[pc,#92] ; [0x9150] = 0xb8000618
        0x000090f0:    e5900000    ....    LDR      r0,[r0,#0]
        0x000090f4:    e58d0008    ....    STR      r0,[sp,#8]
        0x000090f8:    e59d0008    ....    LDR      r0,[sp,#8]
        0x000090fc:    e3100040    @...    TST      r0,#0x40
        0x00009100:    0a000000    ....    BEQ      0x9108 ; uart6ISR + 176
        0x00009104:    e5c45006    .P..    STRB     r5,[r4,#6]
        0x00009108:    e8bd807f    ....    POP      {r0-r6,pc}
        0x0000910c:    e3a00006    ....    MOV      r0,#6
        0x00009110:    ebffe664    d...    BL       RS485_HANDLE ; 0x2aa8
        0x00009114:    e8bd807f    ....    POP      {r0-r6,pc}
        0x00009118:    e3a00006    ....    MOV      r0,#6
        0x0000911c:    ebffe3cd    ....    BL       LIN_HANDLE ; 0x2058
        0x00009120:    e8bd807f    ....    POP      {r0-r6,pc}
        0x00009124:    e59f0028    (...    LDR      r0,[pc,#40] ; [0x9154] = 0xb8000614
        0x00009128:    e5900000    ....    LDR      r0,[r0,#0]
        0x0000912c:    e58d0004    ....    STR      r0,[sp,#4]
        0x00009130:    e59d0004    ....    LDR      r0,[sp,#4]
        0x00009134:    e3100001    ....    TST      r0,#1
        0x00009138:    0affffe8    ....    BEQ      0x90e0 ; uart6ISR + 136
        0x0000913c:    e5c45010    .P..    STRB     r5,[r4,#0x10]
        0x00009140:    eaffffe6    ....    B        0x90e0 ; uart6ISR + 136
    $d
        0x00009144:    b800061c    ....    DCD    3087009308
        0x00009148:    b8000630    0...    DCD    3087009328
        0x0000914c:    0000a56c    l...    DCD    42348
        0x00009150:    b8000618    ....    DCD    3087009304
        0x00009154:    b8000614    ....    DCD    3087009300
    $a
    i.uart7ISR
    uart7ISR
        0x00009158:    e92d407f    .@-.    PUSH     {r0-r6,lr}
        0x0000915c:    e59f00e0    ....    LDR      r0,[pc,#224] ; [0x9244] = 0xb800071c
        0x00009160:    e5900000    ....    LDR      r0,[r0,#0]
        0x00009164:    e20000ff    ....    AND      r0,r0,#0xff
        0x00009168:    e58d000c    ....    STR      r0,[sp,#0xc]
        0x0000916c:    e59f00d4    ....    LDR      r0,[pc,#212] ; [0x9248] = 0xb8000730
        0x00009170:    e5900000    ....    LDR      r0,[r0,#0]
        0x00009174:    e58d0000    ....    STR      r0,[sp,#0]
        0x00009178:    e59d000c    ....    LDR      r0,[sp,#0xc]
        0x0000917c:    e3100002    ....    TST      r0,#2
        0x00009180:    0a000001    ....    BEQ      0x918c ; uart7ISR + 52
        0x00009184:    e3a00007    ....    MOV      r0,#7
        0x00009188:    ebfff2a6    ....    BL       _uartTransmitChars ; 0x5c28
        0x0000918c:    e59d0000    ....    LDR      r0,[sp,#0]
        0x00009190:    e3500003    ..P.    CMP      r0,#3
        0x00009194:    0a00001c    ....    BEQ      0x920c ; uart7ISR + 180
        0x00009198:    e59d0000    ....    LDR      r0,[sp,#0]
        0x0000919c:    e3500001    ..P.    CMP      r0,#1
        0x000091a0:    0a00001c    ....    BEQ      0x9218 ; uart7ISR + 192
        0x000091a4:    e59d000c    ....    LDR      r0,[sp,#0xc]
        0x000091a8:    e3100011    ....    TST      r0,#0x11
        0x000091ac:    0a000001    ....    BEQ      0x91b8 ; uart7ISR + 96
        0x000091b0:    e3a00007    ....    MOV      r0,#7
        0x000091b4:    ebfff1e3    ....    BL       _uartReceiveChars ; 0x5948
        0x000091b8:    e59d000c    ....    LDR      r0,[sp,#0xc]
        0x000091bc:    e59f4088    .@..    LDR      r4,[pc,#136] ; [0x924c] = 0xa56c
        0x000091c0:    e3100008    ....    TST      r0,#8
        0x000091c4:    e3a05001    .P..    MOV      r5,#1
        0x000091c8:    0a000004    ....    BEQ      0x91e0 ; uart7ISR + 136
        0x000091cc:    e5d40015    ....    LDRB     r0,[r4,#0x15]
        0x000091d0:    e3500000    ..P.    CMP      r0,#0
        0x000091d4:    0a000012    ....    BEQ      0x9224 ; uart7ISR + 204
        0x000091d8:    e3a00007    ....    MOV      r0,#7
        0x000091dc:    ebffeffe    ....    BL       _uartCheckModemStatus ; 0x51dc
        0x000091e0:    e59d000c    ....    LDR      r0,[sp,#0xc]
        0x000091e4:    e3100004    ....    TST      r0,#4
        0x000091e8:    0a000006    ....    BEQ      0x9208 ; uart7ISR + 176
        0x000091ec:    e59f005c    \...    LDR      r0,[pc,#92] ; [0x9250] = 0xb8000718
        0x000091f0:    e5900000    ....    LDR      r0,[r0,#0]
        0x000091f4:    e58d0008    ....    STR      r0,[sp,#8]
        0x000091f8:    e59d0008    ....    LDR      r0,[sp,#8]
        0x000091fc:    e3100040    @...    TST      r0,#0x40
        0x00009200:    0a000000    ....    BEQ      0x9208 ; uart7ISR + 176
        0x00009204:    e5c45007    .P..    STRB     r5,[r4,#7]
        0x00009208:    e8bd807f    ....    POP      {r0-r6,pc}
        0x0000920c:    e3a00007    ....    MOV      r0,#7
        0x00009210:    ebffe624    $...    BL       RS485_HANDLE ; 0x2aa8
        0x00009214:    e8bd807f    ....    POP      {r0-r6,pc}
        0x00009218:    e3a00007    ....    MOV      r0,#7
        0x0000921c:    ebffe38d    ....    BL       LIN_HANDLE ; 0x2058
        0x00009220:    e8bd807f    ....    POP      {r0-r6,pc}
        0x00009224:    e59f0028    (...    LDR      r0,[pc,#40] ; [0x9254] = 0xb8000714
        0x00009228:    e5900000    ....    LDR      r0,[r0,#0]
        0x0000922c:    e58d0004    ....    STR      r0,[sp,#4]
        0x00009230:    e59d0004    ....    LDR      r0,[sp,#4]
        0x00009234:    e3100001    ....    TST      r0,#1
        0x00009238:    0affffe8    ....    BEQ      0x91e0 ; uart7ISR + 136
        0x0000923c:    e5c45011    .P..    STRB     r5,[r4,#0x11]
        0x00009240:    eaffffe6    ....    B        0x91e0 ; uart7ISR + 136
    $d
        0x00009244:    b800071c    ....    DCD    3087009564
        0x00009248:    b8000730    0...    DCD    3087009584
        0x0000924c:    0000a56c    l...    DCD    42348
        0x00009250:    b8000718    ....    DCD    3087009560
        0x00009254:    b8000714    ....    DCD    3087009556
    $a
    i.uart8ISR
    uart8ISR
        0x00009258:    e92d407f    .@-.    PUSH     {r0-r6,lr}
        0x0000925c:    e59f00e0    ....    LDR      r0,[pc,#224] ; [0x9344] = 0xb800081c
        0x00009260:    e5900000    ....    LDR      r0,[r0,#0]
        0x00009264:    e20000ff    ....    AND      r0,r0,#0xff
        0x00009268:    e58d000c    ....    STR      r0,[sp,#0xc]
        0x0000926c:    e59f00d4    ....    LDR      r0,[pc,#212] ; [0x9348] = 0xb8000830
        0x00009270:    e5900000    ....    LDR      r0,[r0,#0]
        0x00009274:    e58d0000    ....    STR      r0,[sp,#0]
        0x00009278:    e59d000c    ....    LDR      r0,[sp,#0xc]
        0x0000927c:    e3100002    ....    TST      r0,#2
        0x00009280:    0a000001    ....    BEQ      0x928c ; uart8ISR + 52
        0x00009284:    e3a00008    ....    MOV      r0,#8
        0x00009288:    ebfff266    f...    BL       _uartTransmitChars ; 0x5c28
        0x0000928c:    e59d0000    ....    LDR      r0,[sp,#0]
        0x00009290:    e3500003    ..P.    CMP      r0,#3
        0x00009294:    0a00001c    ....    BEQ      0x930c ; uart8ISR + 180
        0x00009298:    e59d0000    ....    LDR      r0,[sp,#0]
        0x0000929c:    e3500001    ..P.    CMP      r0,#1
        0x000092a0:    0a00001c    ....    BEQ      0x9318 ; uart8ISR + 192
        0x000092a4:    e59d000c    ....    LDR      r0,[sp,#0xc]
        0x000092a8:    e3100011    ....    TST      r0,#0x11
        0x000092ac:    0a000001    ....    BEQ      0x92b8 ; uart8ISR + 96
        0x000092b0:    e3a00008    ....    MOV      r0,#8
        0x000092b4:    ebfff1a3    ....    BL       _uartReceiveChars ; 0x5948
        0x000092b8:    e59d000c    ....    LDR      r0,[sp,#0xc]
        0x000092bc:    e59f4088    .@..    LDR      r4,[pc,#136] ; [0x934c] = 0xa56c
        0x000092c0:    e3100008    ....    TST      r0,#8
        0x000092c4:    e3a05001    .P..    MOV      r5,#1
        0x000092c8:    0a000004    ....    BEQ      0x92e0 ; uart8ISR + 136
        0x000092cc:    e5d40015    ....    LDRB     r0,[r4,#0x15]
        0x000092d0:    e3500000    ..P.    CMP      r0,#0
        0x000092d4:    0a000012    ....    BEQ      0x9324 ; uart8ISR + 204
        0x000092d8:    e3a00008    ....    MOV      r0,#8
        0x000092dc:    ebffefbe    ....    BL       _uartCheckModemStatus ; 0x51dc
        0x000092e0:    e59d000c    ....    LDR      r0,[sp,#0xc]
        0x000092e4:    e3100004    ....    TST      r0,#4
        0x000092e8:    0a000006    ....    BEQ      0x9308 ; uart8ISR + 176
        0x000092ec:    e59f005c    \...    LDR      r0,[pc,#92] ; [0x9350] = 0xb8000818
        0x000092f0:    e5900000    ....    LDR      r0,[r0,#0]
        0x000092f4:    e58d0008    ....    STR      r0,[sp,#8]
        0x000092f8:    e59d0008    ....    LDR      r0,[sp,#8]
        0x000092fc:    e3100040    @...    TST      r0,#0x40
        0x00009300:    0a000000    ....    BEQ      0x9308 ; uart8ISR + 176
        0x00009304:    e5c45008    .P..    STRB     r5,[r4,#8]
        0x00009308:    e8bd807f    ....    POP      {r0-r6,pc}
        0x0000930c:    e3a00008    ....    MOV      r0,#8
        0x00009310:    ebffe5e4    ....    BL       RS485_HANDLE ; 0x2aa8
        0x00009314:    e8bd807f    ....    POP      {r0-r6,pc}
        0x00009318:    e3a00008    ....    MOV      r0,#8
        0x0000931c:    ebffe34d    M...    BL       LIN_HANDLE ; 0x2058
        0x00009320:    e8bd807f    ....    POP      {r0-r6,pc}
        0x00009324:    e59f0028    (...    LDR      r0,[pc,#40] ; [0x9354] = 0xb8000814
        0x00009328:    e5900000    ....    LDR      r0,[r0,#0]
        0x0000932c:    e58d0004    ....    STR      r0,[sp,#4]
        0x00009330:    e59d0004    ....    LDR      r0,[sp,#4]
        0x00009334:    e3100001    ....    TST      r0,#1
        0x00009338:    0affffe8    ....    BEQ      0x92e0 ; uart8ISR + 136
        0x0000933c:    e5c45012    .P..    STRB     r5,[r4,#0x12]
        0x00009340:    eaffffe6    ....    B        0x92e0 ; uart8ISR + 136
    $d
        0x00009344:    b800081c    ....    DCD    3087009820
        0x00009348:    b8000830    0...    DCD    3087009840
        0x0000934c:    0000a56c    l...    DCD    42348
        0x00009350:    b8000818    ....    DCD    3087009816
        0x00009354:    b8000814    ....    DCD    3087009812
    $a
    i.uart9ISR
    uart9ISR
        0x00009358:    e92d407f    .@-.    PUSH     {r0-r6,lr}
        0x0000935c:    e59f00e0    ....    LDR      r0,[pc,#224] ; [0x9444] = 0xb800091c
        0x00009360:    e5900000    ....    LDR      r0,[r0,#0]
        0x00009364:    e20000ff    ....    AND      r0,r0,#0xff
        0x00009368:    e58d000c    ....    STR      r0,[sp,#0xc]
        0x0000936c:    e59f00d4    ....    LDR      r0,[pc,#212] ; [0x9448] = 0xb8000930
        0x00009370:    e5900000    ....    LDR      r0,[r0,#0]
        0x00009374:    e58d0000    ....    STR      r0,[sp,#0]
        0x00009378:    e59d000c    ....    LDR      r0,[sp,#0xc]
        0x0000937c:    e3100002    ....    TST      r0,#2
        0x00009380:    0a000001    ....    BEQ      0x938c ; uart9ISR + 52
        0x00009384:    e3a00009    ....    MOV      r0,#9
        0x00009388:    ebfff226    &...    BL       _uartTransmitChars ; 0x5c28
        0x0000938c:    e59d0000    ....    LDR      r0,[sp,#0]
        0x00009390:    e3500003    ..P.    CMP      r0,#3
        0x00009394:    0a00001c    ....    BEQ      0x940c ; uart9ISR + 180
        0x00009398:    e59d0000    ....    LDR      r0,[sp,#0]
        0x0000939c:    e3500001    ..P.    CMP      r0,#1
        0x000093a0:    0a00001c    ....    BEQ      0x9418 ; uart9ISR + 192
        0x000093a4:    e59d000c    ....    LDR      r0,[sp,#0xc]
        0x000093a8:    e3100011    ....    TST      r0,#0x11
        0x000093ac:    0a000001    ....    BEQ      0x93b8 ; uart9ISR + 96
        0x000093b0:    e3a00009    ....    MOV      r0,#9
        0x000093b4:    ebfff163    c...    BL       _uartReceiveChars ; 0x5948
        0x000093b8:    e59d000c    ....    LDR      r0,[sp,#0xc]
        0x000093bc:    e59f4088    .@..    LDR      r4,[pc,#136] ; [0x944c] = 0xa56c
        0x000093c0:    e3100008    ....    TST      r0,#8
        0x000093c4:    e3a05001    .P..    MOV      r5,#1
        0x000093c8:    0a000004    ....    BEQ      0x93e0 ; uart9ISR + 136
        0x000093cc:    e5d40015    ....    LDRB     r0,[r4,#0x15]
        0x000093d0:    e3500000    ..P.    CMP      r0,#0
        0x000093d4:    0a000012    ....    BEQ      0x9424 ; uart9ISR + 204
        0x000093d8:    e3a00009    ....    MOV      r0,#9
        0x000093dc:    ebffef7e    ~...    BL       _uartCheckModemStatus ; 0x51dc
        0x000093e0:    e59d000c    ....    LDR      r0,[sp,#0xc]
        0x000093e4:    e3100004    ....    TST      r0,#4
        0x000093e8:    0a000006    ....    BEQ      0x9408 ; uart9ISR + 176
        0x000093ec:    e59f005c    \...    LDR      r0,[pc,#92] ; [0x9450] = 0xb8000918
        0x000093f0:    e5900000    ....    LDR      r0,[r0,#0]
        0x000093f4:    e58d0008    ....    STR      r0,[sp,#8]
        0x000093f8:    e59d0008    ....    LDR      r0,[sp,#8]
        0x000093fc:    e3100040    @...    TST      r0,#0x40
        0x00009400:    0a000000    ....    BEQ      0x9408 ; uart9ISR + 176
        0x00009404:    e5c45009    .P..    STRB     r5,[r4,#9]
        0x00009408:    e8bd807f    ....    POP      {r0-r6,pc}
        0x0000940c:    e3a00009    ....    MOV      r0,#9
        0x00009410:    ebffe5a4    ....    BL       RS485_HANDLE ; 0x2aa8
        0x00009414:    e8bd807f    ....    POP      {r0-r6,pc}
        0x00009418:    e3a00009    ....    MOV      r0,#9
        0x0000941c:    ebffe30d    ....    BL       LIN_HANDLE ; 0x2058
        0x00009420:    e8bd807f    ....    POP      {r0-r6,pc}
        0x00009424:    e59f0028    (...    LDR      r0,[pc,#40] ; [0x9454] = 0xb8000914
        0x00009428:    e5900000    ....    LDR      r0,[r0,#0]
        0x0000942c:    e58d0004    ....    STR      r0,[sp,#4]
        0x00009430:    e59d0004    ....    LDR      r0,[sp,#4]
        0x00009434:    e3100001    ....    TST      r0,#1
        0x00009438:    0affffe8    ....    BEQ      0x93e0 ; uart9ISR + 136
        0x0000943c:    e5c45013    .P..    STRB     r5,[r4,#0x13]
        0x00009440:    eaffffe6    ....    B        0x93e0 ; uart9ISR + 136
    $d
        0x00009444:    b800091c    ....    DCD    3087010076
        0x00009448:    b8000930    0...    DCD    3087010096
        0x0000944c:    0000a56c    l...    DCD    42348
        0x00009450:    b8000918    ....    DCD    3087010072
        0x00009454:    b8000914    ....    DCD    3087010068
    $a
    i.uartIoctl
    uartIoctl
        0x00009458:    e92d47f0    .G-.    PUSH     {r4-r10,lr}
        0x0000945c:    e1a0c000    ....    MOV      r12,r0
        0x00009460:    e1a09001    ....    MOV      r9,r1
        0x00009464:    e1a00002    ....    MOV      r0,r2
        0x00009468:    e1a01003    ....    MOV      r1,r3
        0x0000946c:    e1a0340c    .4..    LSL      r3,r12,#8
        0x00009470:    e35c000b    ..\.    CMP      r12,#0xb
        0x00009474:    3a000001    ...:    BCC      0x9480 ; uartIoctl + 40
        0x00009478:    e59f0578    x...    LDR      r0,[pc,#1400] ; [0x99f8] = 0xffff1702
        0x0000947c:    e8bd87f0    ....    POP      {r4-r10,pc}
        0x00009480:    e08c208c    . ..    ADD      r2,r12,r12,LSL #1
        0x00009484:    e082418c    .A..    ADD      r4,r2,r12,LSL #3
        0x00009488:    e59f256c    l%..    LDR      r2,[pc,#1388] ; [0x99fc] = 0x6410c
        0x0000948c:    e0824104    .A..    ADD      r4,r2,r4,LSL #2
        0x00009490:    e5d4201e    . ..    LDRB     r2,[r4,#0x1e]
        0x00009494:    e59f8564    d...    LDR      r8,[pc,#1380] ; [0x9a00] = 0xffff1703
        0x00009498:    e3520000    ..R.    CMP      r2,#0
        0x0000949c:    1a000005    ....    BNE      0x94b8 ; uartIoctl + 96
        0x000094a0:    e3590008    ..Y.    CMP      r9,#8
        0x000094a4:    0a000003    ....    BEQ      0x94b8 ; uartIoctl + 96
        0x000094a8:    e3590007    ..Y.    CMP      r9,#7
        0x000094ac:    0a000001    ....    BEQ      0x94b8 ; uartIoctl + 96
        0x000094b0:    e1a00008    ....    MOV      r0,r8
        0x000094b4:    e8bd87f0    ....    POP      {r4-r10,pc}
        0x000094b8:    e59f5544    DU..    LDR      r5,[pc,#1348] ; [0x9a04] = 0xa56c
        0x000094bc:    e1a0640c    .d..    LSL      r6,r12,#8
        0x000094c0:    e3590020     .Y.    CMP      r9,#0x20
        0x000094c4:    e3a07000    .p..    MOV      r7,#0
        0x000094c8:    e3a02001    . ..    MOV      r2,#1
        0x000094cc:    e3e0a00b    ....    MVN      r10,#0xb
        0x000094d0:    e286632e    .c..    ADD      r6,r6,#0xb8000000
        0x000094d4:    308ff109    ...0    ADDCC    pc,pc,r9,LSL #2
        0x000094d8:    ea000144    D...    B        0x99f0 ; uartIoctl + 1432
        0x000094dc:    ea000143    C...    B        0x99f0 ; uartIoctl + 1432
        0x000094e0:    ea00001d    ....    B        0x955c ; uartIoctl + 260
        0x000094e4:    ea000027    '...    B        0x9588 ; uartIoctl + 304
        0x000094e8:    ea000037    7...    B        0x95cc ; uartIoctl + 372
        0x000094ec:    ea00003a    :...    B        0x95dc ; uartIoctl + 388
        0x000094f0:    ea00013e    >...    B        0x99f0 ; uartIoctl + 1432
        0x000094f4:    ea00003e    >...    B        0x95f4 ; uartIoctl + 412
        0x000094f8:    ea000046    F...    B        0x9618 ; uartIoctl + 448
        0x000094fc:    ea000049    I...    B        0x9628 ; uartIoctl + 464
        0x00009500:    ea00013a    :...    B        0x99f0 ; uartIoctl + 1432
        0x00009504:    ea000139    9...    B        0x99f0 ; uartIoctl + 1432
        0x00009508:    ea000138    8...    B        0x99f0 ; uartIoctl + 1432
        0x0000950c:    ea0000a5    ....    B        0x97a8 ; uartIoctl + 848
        0x00009510:    ea0000b0    ....    B        0x97d8 ; uartIoctl + 896
        0x00009514:    ea0000bc    ....    B        0x980c ; uartIoctl + 948
        0x00009518:    ea000053    S...    B        0x966c ; uartIoctl + 532
        0x0000951c:    ea000093    ....    B        0x9770 ; uartIoctl + 792
        0x00009520:    ea000043    C...    B        0x9634 ; uartIoctl + 476
        0x00009524:    ea0000e7    ....    B        0x98c8 ; uartIoctl + 1136
        0x00009528:    ea0000f9    ....    B        0x9914 ; uartIoctl + 1212
        0x0000952c:    ea00012f    /...    B        0x99f0 ; uartIoctl + 1432
        0x00009530:    ea00012e    ....    B        0x99f0 ; uartIoctl + 1432
        0x00009534:    ea00012d    -...    B        0x99f0 ; uartIoctl + 1432
        0x00009538:    ea00012c    ,...    B        0x99f0 ; uartIoctl + 1432
        0x0000953c:    ea0000fb    ....    B        0x9930 ; uartIoctl + 1240
        0x00009540:    ea0000fd    ....    B        0x993c ; uartIoctl + 1252
        0x00009544:    ea0000ff    ....    B        0x9948 ; uartIoctl + 1264
        0x00009548:    ea000106    ....    B        0x9968 ; uartIoctl + 1296
        0x0000954c:    ea000112    ....    B        0x999c ; uartIoctl + 1348
        0x00009550:    ea000119    ....    B        0x99bc ; uartIoctl + 1380
        0x00009554:    ea00011a    ....    B        0x99c4 ; uartIoctl + 1388
        0x00009558:    ea00011c    ....    B        0x99d0 ; uartIoctl + 1400
        0x0000955c:    e3500001    ..P.    CMP      r0,#1
        0x00009560:    0a000004    ....    BEQ      0x9578 ; uartIoctl + 288
        0x00009564:    e3500000    ..P.    CMP      r0,#0
        0x00009568:    0a000004    ....    BEQ      0x9580 ; uartIoctl + 296
        0x0000956c:    e584a028    (...    STR      r10,[r4,#0x28]
        0x00009570:    e1a00008    ....    MOV      r0,r8
        0x00009574:    e8bd87f0    ....    POP      {r4-r10,pc}
        0x00009578:    e5c4201c    . ..    STRB     r2,[r4,#0x1c]
        0x0000957c:    ea000119    ....    B        0x99e8 ; uartIoctl + 1424
        0x00009580:    e5c4701c    .p..    STRB     r7,[r4,#0x1c]
        0x00009584:    ea000117    ....    B        0x99e8 ; uartIoctl + 1424
        0x00009588:    e3500001    ..P.    CMP      r0,#1
        0x0000958c:    0a000004    ....    BEQ      0x95a4 ; uartIoctl + 332
        0x00009590:    e3500000    ..P.    CMP      r0,#0
        0x00009594:    0a000007    ....    BEQ      0x95b8 ; uartIoctl + 352
        0x00009598:    e584a028    (...    STR      r10,[r4,#0x28]
        0x0000959c:    e1a00008    ....    MOV      r0,r8
        0x000095a0:    e8bd87f0    ....    POP      {r4-r10,pc}
        0x000095a4:    e5c4201d    . ..    STRB     r2,[r4,#0x1d]
        0x000095a8:    e3a01001    ....    MOV      r1,#1
        0x000095ac:    e1a0000c    ....    MOV      r0,r12
        0x000095b0:    ebffefe8    ....    BL       _uartEnableInterrupt ; 0x5558
        0x000095b4:    ea00010b    ....    B        0x99e8 ; uartIoctl + 1424
        0x000095b8:    e5c4701d    .p..    STRB     r7,[r4,#0x1d]
        0x000095bc:    e3a01001    ....    MOV      r1,#1
        0x000095c0:    e1a0000c    ....    MOV      r0,r12
        0x000095c4:    ebffefd8    ....    BL       _uartDisableInterrupt ; 0x552c
        0x000095c8:    ea000106    ....    B        0x99e8 ; uartIoctl + 1424
        0x000095cc:    e3a0202c    , ..    MOV      r2,#0x2c
        0x000095d0:    e1a01004    ....    MOV      r1,r4
        0x000095d4:    ebffdc5e    ^...    BL       __aeabi_memcpy ; 0x754
        0x000095d8:    ea000102    ....    B        0x99e8 ; uartIoctl + 1424
        0x000095dc:    ebffef47    G...    BL       _uartConfigureUART ; 0x5300
        0x000095e0:    e3500000    ..P.    CMP      r0,#0
        0x000095e4:    aa0000ff    ....    BGE      0x99e8 ; uartIoctl + 1424
        0x000095e8:    e5840028    (...    STR      r0,[r4,#0x28]
        0x000095ec:    e1a00008    ....    MOV      r0,r8
        0x000095f0:    e8bd87f0    ....    POP      {r4-r10,pc}
        0x000095f4:    e1a02001    . ..    MOV      r2,r1
        0x000095f8:    e1a01000    ....    MOV      r1,r0
        0x000095fc:    e1a0000c    ....    MOV      r0,r12
        0x00009600:    ebfff0af    ....    BL       _uartPerformIrDA ; 0x58c4
        0x00009604:    e3500000    ..P.    CMP      r0,#0
        0x00009608:    aa0000f6    ....    BGE      0x99e8 ; uartIoctl + 1424
        0x0000960c:    e5840028    (...    STR      r0,[r4,#0x28]
        0x00009610:    e1a00008    ....    MOV      r0,r8
        0x00009614:    e8bd87f0    ....    POP      {r4-r10,pc}
        0x00009618:    e8bd47f0    .G..    POP      {r4-r10,lr}
        0x0000961c:    e1a01000    ....    MOV      r1,r0
        0x00009620:    e1a0000c    ....    MOV      r0,r12
        0x00009624:    eaffefd1    ....    B        _uartGetRegisterValue ; 0x5570
        0x00009628:    e5941028    (...    LDR      r1,[r4,#0x28]
        0x0000962c:    e5801000    ....    STR      r1,[r0,#0]
        0x00009630:    ea0000ec    ....    B        0x99e8 ; uartIoctl + 1424
        0x00009634:    e3500000    ..P.    CMP      r0,#0
        0x00009638:    0a000003    ....    BEQ      0x964c ; uartIoctl + 500
        0x0000963c:    e3500001    ..P.    CMP      r0,#1
        0x00009640:    0a000005    ....    BEQ      0x965c ; uartIoctl + 516
        0x00009644:    e1a00008    ....    MOV      r0,r8
        0x00009648:    e8bd87f0    ....    POP      {r4-r10,pc}
        0x0000964c:    e3a01008    ....    MOV      r1,#8
        0x00009650:    e1a0000c    ....    MOV      r0,r12
        0x00009654:    ebffefbf    ....    BL       _uartEnableInterrupt ; 0x5558
        0x00009658:    ea0000e2    ....    B        0x99e8 ; uartIoctl + 1424
        0x0000965c:    e3a01008    ....    MOV      r1,#8
        0x00009660:    e1a0000c    ....    MOV      r0,r12
        0x00009664:    ebffefb0    ....    BL       _uartDisableInterrupt ; 0x552c
        0x00009668:    ea0000de    ....    B        0x99e8 ; uartIoctl + 1424
        0x0000966c:    e35c0001    ..\.    CMP      r12,#1
        0x00009670:    0a000012    ....    BEQ      0x96c0 ; uartIoctl + 616
        0x00009674:    e35c0002    ..\.    CMP      r12,#2
        0x00009678:    0a000014    ....    BEQ      0x96d0 ; uartIoctl + 632
        0x0000967c:    e35c0003    ..\.    CMP      r12,#3
        0x00009680:    0a000016    ....    BEQ      0x96e0 ; uartIoctl + 648
        0x00009684:    e35c0004    ..\.    CMP      r12,#4
        0x00009688:    0a000018    ....    BEQ      0x96f0 ; uartIoctl + 664
        0x0000968c:    e35c0005    ..\.    CMP      r12,#5
        0x00009690:    0a00001a    ....    BEQ      0x9700 ; uartIoctl + 680
        0x00009694:    e35c0006    ..\.    CMP      r12,#6
        0x00009698:    0a00001c    ....    BEQ      0x9710 ; uartIoctl + 696
        0x0000969c:    e35c0007    ..\.    CMP      r12,#7
        0x000096a0:    0a00001e    ....    BEQ      0x9720 ; uartIoctl + 712
        0x000096a4:    e35c0008    ..\.    CMP      r12,#8
        0x000096a8:    0a000020     ...    BEQ      0x9730 ; uartIoctl + 728
        0x000096ac:    e35c0009    ..\.    CMP      r12,#9
        0x000096b0:    0a000022    "...    BEQ      0x9740 ; uartIoctl + 744
        0x000096b4:    e35c000a    ..\.    CMP      r12,#0xa
        0x000096b8:    0a000024    $...    BEQ      0x9750 ; uartIoctl + 760
        0x000096bc:    ea000026    &...    B        0x975c ; uartIoctl + 772
        0x000096c0:    e5d5200b    . ..    LDRB     r2,[r5,#0xb]
        0x000096c4:    e5802000    . ..    STR      r2,[r0,#0]
        0x000096c8:    e5c5700b    .p..    STRB     r7,[r5,#0xb]
        0x000096cc:    ea000022    "...    B        0x975c ; uartIoctl + 772
        0x000096d0:    e5d5200c    . ..    LDRB     r2,[r5,#0xc]
        0x000096d4:    e5802000    . ..    STR      r2,[r0,#0]
        0x000096d8:    e5c5700c    .p..    STRB     r7,[r5,#0xc]
        0x000096dc:    ea00001e    ....    B        0x975c ; uartIoctl + 772
        0x000096e0:    e5d5200d    . ..    LDRB     r2,[r5,#0xd]
        0x000096e4:    e5802000    . ..    STR      r2,[r0,#0]
        0x000096e8:    e5c5700d    .p..    STRB     r7,[r5,#0xd]
        0x000096ec:    ea00001a    ....    B        0x975c ; uartIoctl + 772
        0x000096f0:    e5d5200e    . ..    LDRB     r2,[r5,#0xe]
        0x000096f4:    e5802000    . ..    STR      r2,[r0,#0]
        0x000096f8:    e5c5700e    .p..    STRB     r7,[r5,#0xe]
        0x000096fc:    ea000016    ....    B        0x975c ; uartIoctl + 772
        0x00009700:    e5d5200f    . ..    LDRB     r2,[r5,#0xf]
        0x00009704:    e5802000    . ..    STR      r2,[r0,#0]
        0x00009708:    e5c5700f    .p..    STRB     r7,[r5,#0xf]
        0x0000970c:    ea000012    ....    B        0x975c ; uartIoctl + 772
        0x00009710:    e5d52010    . ..    LDRB     r2,[r5,#0x10]
        0x00009714:    e5802000    . ..    STR      r2,[r0,#0]
        0x00009718:    e5c57010    .p..    STRB     r7,[r5,#0x10]
        0x0000971c:    ea00000e    ....    B        0x975c ; uartIoctl + 772
        0x00009720:    e5d52011    . ..    LDRB     r2,[r5,#0x11]
        0x00009724:    e5802000    . ..    STR      r2,[r0,#0]
        0x00009728:    e5c57011    .p..    STRB     r7,[r5,#0x11]
        0x0000972c:    ea00000a    ....    B        0x975c ; uartIoctl + 772
        0x00009730:    e5d52012    . ..    LDRB     r2,[r5,#0x12]
        0x00009734:    e5802000    . ..    STR      r2,[r0,#0]
        0x00009738:    e5c57012    .p..    STRB     r7,[r5,#0x12]
        0x0000973c:    ea000006    ....    B        0x975c ; uartIoctl + 772
        0x00009740:    e5d52013    . ..    LDRB     r2,[r5,#0x13]
        0x00009744:    e5802000    . ..    STR      r2,[r0,#0]
        0x00009748:    e5c57013    .p..    STRB     r7,[r5,#0x13]
        0x0000974c:    ea000002    ....    B        0x975c ; uartIoctl + 772
        0x00009750:    e5d52014    . ..    LDRB     r2,[r5,#0x14]
        0x00009754:    e5802000    . ..    STR      r2,[r0,#0]
        0x00009758:    e5c57014    .p..    STRB     r7,[r5,#0x14]
        0x0000975c:    e5960014    ....    LDR      r0,[r6,#0x14]
        0x00009760:    e2000010    ....    AND      r0,r0,#0x10
        0x00009764:    e1a00220     ...    LSR      r0,r0,#4
        0x00009768:    e5810000    ....    STR      r0,[r1,#0]
        0x0000976c:    ea00009d    ....    B        0x99e8 ; uartIoctl + 1424
        0x00009770:    e3500001    ..P.    CMP      r0,#1
        0x00009774:    0a000003    ....    BEQ      0x9788 ; uartIoctl + 816
        0x00009778:    e3500000    ..P.    CMP      r0,#0
        0x0000977c:    0a000005    ....    BEQ      0x9798 ; uartIoctl + 832
        0x00009780:    e1a00008    ....    MOV      r0,r8
        0x00009784:    e8bd87f0    ....    POP      {r4-r10,pc}
        0x00009788:    e5960010    ....    LDR      r0,[r6,#0x10]
        0x0000978c:    e3c00002    ....    BIC      r0,r0,#2
        0x00009790:    e5860010    ....    STR      r0,[r6,#0x10]
        0x00009794:    ea000093    ....    B        0x99e8 ; uartIoctl + 1424
        0x00009798:    e5960010    ....    LDR      r0,[r6,#0x10]
        0x0000979c:    e3800002    ....    ORR      r0,r0,#2
        0x000097a0:    e5860010    ....    STR      r0,[r6,#0x10]
        0x000097a4:    ea00008f    ....    B        0x99e8 ; uartIoctl + 1424
        0x000097a8:    e3500001    ..P.    CMP      r0,#1
        0x000097ac:    0a000003    ....    BEQ      0x97c0 ; uartIoctl + 872
        0x000097b0:    e3500000    ..P.    CMP      r0,#0
        0x000097b4:    0a000004    ....    BEQ      0x97cc ; uartIoctl + 884
        0x000097b8:    e1a00008    ....    MOV      r0,r8
        0x000097bc:    e8bd87f0    ....    POP      {r4-r10,pc}
        0x000097c0:    e1a0000c    ....    MOV      r0,r12
        0x000097c4:    ebffef63    c...    BL       _uartEnableInterrupt ; 0x5558
        0x000097c8:    ea000086    ....    B        0x99e8 ; uartIoctl + 1424
        0x000097cc:    e1a0000c    ....    MOV      r0,r12
        0x000097d0:    ebffef55    U...    BL       _uartDisableInterrupt ; 0x552c
        0x000097d4:    ea000083    ....    B        0x99e8 ; uartIoctl + 1424
        0x000097d8:    e596100c    ....    LDR      r1,[r6,#0xc]
        0x000097dc:    e3500001    ..P.    CMP      r0,#1
        0x000097e0:    0a000003    ....    BEQ      0x97f4 ; uartIoctl + 924
        0x000097e4:    e3500000    ..P.    CMP      r0,#0
        0x000097e8:    0a000004    ....    BEQ      0x9800 ; uartIoctl + 936
        0x000097ec:    e1a00008    ....    MOV      r0,r8
        0x000097f0:    e8bd87f0    ....    POP      {r4-r10,pc}
        0x000097f4:    e3810040    @...    ORR      r0,r1,#0x40
        0x000097f8:    e586000c    ....    STR      r0,[r6,#0xc]
        0x000097fc:    ea000079    y...    B        0x99e8 ; uartIoctl + 1424
        0x00009800:    e3c10040    @...    BIC      r0,r1,#0x40
        0x00009804:    e586000c    ....    STR      r0,[r6,#0xc]
        0x00009808:    ea000076    v...    B        0x99e8 ; uartIoctl + 1424
        0x0000980c:    e35c000b    ..\.    CMP      r12,#0xb
        0x00009810:    308ff10c    ...0    ADDCC    pc,pc,r12,LSL #2
        0x00009814:    ea000073    s...    B        0x99e8 ; uartIoctl + 1424
        0x00009818:    ea000009    ....    B        0x9844 ; uartIoctl + 1004
        0x0000981c:    ea00000b    ....    B        0x9850 ; uartIoctl + 1016
        0x00009820:    ea00000d    ....    B        0x985c ; uartIoctl + 1028
        0x00009824:    ea00000f    ....    B        0x9868 ; uartIoctl + 1040
        0x00009828:    ea000011    ....    B        0x9874 ; uartIoctl + 1052
        0x0000982c:    ea000013    ....    B        0x9880 ; uartIoctl + 1064
        0x00009830:    ea000015    ....    B        0x988c ; uartIoctl + 1076
        0x00009834:    ea000017    ....    B        0x9898 ; uartIoctl + 1088
        0x00009838:    ea000019    ....    B        0x98a4 ; uartIoctl + 1100
        0x0000983c:    ea00001b    ....    B        0x98b0 ; uartIoctl + 1112
        0x00009840:    ea00001d    ....    B        0x98bc ; uartIoctl + 1124
        0x00009844:    e5d51000    ....    LDRB     r1,[r5,#0]
        0x00009848:    e5801000    ....    STR      r1,[r0,#0]
        0x0000984c:    ea000065    e...    B        0x99e8 ; uartIoctl + 1424
        0x00009850:    e5d51001    ....    LDRB     r1,[r5,#1]
        0x00009854:    e5801000    ....    STR      r1,[r0,#0]
        0x00009858:    ea000062    b...    B        0x99e8 ; uartIoctl + 1424
        0x0000985c:    e5d51002    ....    LDRB     r1,[r5,#2]
        0x00009860:    e5801000    ....    STR      r1,[r0,#0]
        0x00009864:    ea00005f    _...    B        0x99e8 ; uartIoctl + 1424
        0x00009868:    e5d51003    ....    LDRB     r1,[r5,#3]
        0x0000986c:    e5801000    ....    STR      r1,[r0,#0]
        0x00009870:    ea00005c    \...    B        0x99e8 ; uartIoctl + 1424
        0x00009874:    e5d51004    ....    LDRB     r1,[r5,#4]
        0x00009878:    e5801000    ....    STR      r1,[r0,#0]
        0x0000987c:    ea000059    Y...    B        0x99e8 ; uartIoctl + 1424
        0x00009880:    e5d51005    ....    LDRB     r1,[r5,#5]
        0x00009884:    e5801000    ....    STR      r1,[r0,#0]
        0x00009888:    ea000056    V...    B        0x99e8 ; uartIoctl + 1424
        0x0000988c:    e5d51006    ....    LDRB     r1,[r5,#6]
        0x00009890:    e5801000    ....    STR      r1,[r0,#0]
        0x00009894:    ea000053    S...    B        0x99e8 ; uartIoctl + 1424
        0x00009898:    e5d51007    ....    LDRB     r1,[r5,#7]
        0x0000989c:    e5801000    ....    STR      r1,[r0,#0]
        0x000098a0:    ea000050    P...    B        0x99e8 ; uartIoctl + 1424
        0x000098a4:    e5d51008    ....    LDRB     r1,[r5,#8]
        0x000098a8:    e5801000    ....    STR      r1,[r0,#0]
        0x000098ac:    ea00004d    M...    B        0x99e8 ; uartIoctl + 1424
        0x000098b0:    e5d51009    ....    LDRB     r1,[r5,#9]
        0x000098b4:    e5801000    ....    STR      r1,[r0,#0]
        0x000098b8:    ea00004a    J...    B        0x99e8 ; uartIoctl + 1424
        0x000098bc:    e5d5100a    ....    LDRB     r1,[r5,#0xa]
        0x000098c0:    e5801000    ....    STR      r1,[r0,#0]
        0x000098c4:    ea000047    G...    B        0x99e8 ; uartIoctl + 1424
        0x000098c8:    e5d50015    ....    LDRB     r0,[r5,#0x15]
        0x000098cc:    e3500002    ..P.    CMP      r0,#2
        0x000098d0:    0a00000d    ....    BEQ      0x990c ; uartIoctl + 1204
        0x000098d4:    e5c52015    . ..    STRB     r2,[r5,#0x15]
        0x000098d8:    e3a01001    ....    MOV      r1,#1
        0x000098dc:    e1a0000c    ....    MOV      r0,r12
        0x000098e0:    ebffef1c    ....    BL       _uartEnableInterrupt ; 0x5558
        0x000098e4:    e5960010    ....    LDR      r0,[r6,#0x10]
        0x000098e8:    e3800c02    ....    ORR      r0,r0,#0x200
        0x000098ec:    e5860010    ....    STR      r0,[r6,#0x10]
        0x000098f0:    e5960014    ....    LDR      r0,[r6,#0x14]
        0x000098f4:    e3800c01    ....    ORR      r0,r0,#0x100
        0x000098f8:    e5860014    ....    STR      r0,[r6,#0x14]
        0x000098fc:    e5960004    ....    LDR      r0,[r6,#4]
        0x00009900:    e3800a03    ....    ORR      r0,r0,#0x3000
        0x00009904:    e5860004    ....    STR      r0,[r6,#4]
        0x00009908:    ea000036    6...    B        0x99e8 ; uartIoctl + 1424
        0x0000990c:    e1a00008    ....    MOV      r0,r8
        0x00009910:    e8bd87f0    ....    POP      {r4-r10,pc}
        0x00009914:    e3a01008    ....    MOV      r1,#8
        0x00009918:    e1a0000c    ....    MOV      r0,r12
        0x0000991c:    ebffef02    ....    BL       _uartDisableInterrupt ; 0x552c
        0x00009920:    e5c57015    .p..    STRB     r7,[r5,#0x15]
        0x00009924:    e5c57016    .p..    STRB     r7,[r5,#0x16]
        0x00009928:    e5c57017    .p..    STRB     r7,[r5,#0x17]
        0x0000992c:    ea00002d    -...    B        0x99e8 ; uartIoctl + 1424
        0x00009930:    e5847004    .p..    STR      r7,[r4,#4]
        0x00009934:    e5847000    .p..    STR      r7,[r4,#0]
        0x00009938:    ea00002a    *...    B        0x99e8 ; uartIoctl + 1424
        0x0000993c:    e584700c    .p..    STR      r7,[r4,#0xc]
        0x00009940:    e5847008    .p..    STR      r7,[r4,#8]
        0x00009944:    ea000027    '...    B        0x99e8 ; uartIoctl + 1424
        0x00009948:    e3a02003    . ..    MOV      r2,#3
        0x0000994c:    e5862030    0 ..    STR      r2,[r6,#0x30]
        0x00009950:    e5867010    .p..    STR      r7,[r6,#0x10]
        0x00009954:    e3a0203b    ; ..    MOV      r2,#0x3b
        0x00009958:    e586200c    . ..    STR      r2,[r6,#0xc]
        0x0000995c:    e1800c01    ....    ORR      r0,r0,r1,LSL #24
        0x00009960:    e586002c    ,...    STR      r0,[r6,#0x2c]
        0x00009964:    ea00001f    ....    B        0x99e8 ; uartIoctl + 1424
        0x00009968:    e283132e    ....    ADD      r1,r3,#0xb8000000
        0x0000996c:    e5912018    . ..    LDR      r2,[r1,#0x18]
        0x00009970:    e3120201    ....    TST      r2,#0x10000000
        0x00009974:    0afffffc    ....    BEQ      0x996c ; uartIoctl + 1300
        0x00009978:    e591200c    . ..    LDR      r2,[r1,#0xc]
        0x0000997c:    e3a0302b    +0..    MOV      r3,#0x2b
        0x00009980:    e581300c    .0..    STR      r3,[r1,#0xc]
        0x00009984:    e5810000    ....    STR      r0,[r1,#0]
        0x00009988:    e5910018    ....    LDR      r0,[r1,#0x18]
        0x0000998c:    e3100201    ....    TST      r0,#0x10000000
        0x00009990:    0afffffc    ....    BEQ      0x9988 ; uartIoctl + 1328
        0x00009994:    e581200c    . ..    STR      r2,[r1,#0xc]
        0x00009998:    ea000012    ....    B        0x99e8 ; uartIoctl + 1424
        0x0000999c:    e5961008    ....    LDR      r1,[r6,#8]
        0x000099a0:    e3500001    ..P.    CMP      r0,#1
        0x000099a4:    0a000002    ....    BEQ      0x99b4 ; uartIoctl + 1372
        0x000099a8:    e3c10c01    ....    BIC      r0,r1,#0x100
        0x000099ac:    e5860008    ....    STR      r0,[r6,#8]
        0x000099b0:    ea00000c    ....    B        0x99e8 ; uartIoctl + 1424
        0x000099b4:    e3810c01    ....    ORR      r0,r1,#0x100
        0x000099b8:    eafffffb    ....    B        0x99ac ; uartIoctl + 1364
        0x000099bc:    e586002c    ,...    STR      r0,[r6,#0x2c]
        0x000099c0:    ea000008    ....    B        0x99e8 ; uartIoctl + 1424
        0x000099c4:    e596102c    ,...    LDR      r1,[r6,#0x2c]
        0x000099c8:    e5801000    ....    STR      r1,[r0,#0]
        0x000099cc:    ea000005    ....    B        0x99e8 ; uartIoctl + 1424
        0x000099d0:    e5862030    0 ..    STR      r2,[r6,#0x30]
        0x000099d4:    e596202c    , ..    LDR      r2,[r6,#0x2c]
        0x000099d8:    e3c220cf    . ..    BIC      r2,r2,#0xcf
        0x000099dc:    e1800001    ....    ORR      r0,r0,r1
        0x000099e0:    e1800002    ....    ORR      r0,r0,r2
        0x000099e4:    e586002c    ,...    STR      r0,[r6,#0x2c]
        0x000099e8:    e3a00000    ....    MOV      r0,#0
        0x000099ec:    e8bd87f0    ....    POP      {r4-r10,pc}
        0x000099f0:    e59f0010    ....    LDR      r0,[pc,#16] ; [0x9a08] = 0xffff1701
        0x000099f4:    e8bd87f0    ....    POP      {r4-r10,pc}
    $d
        0x000099f8:    ffff1702    ....    DCD    4294907650
        0x000099fc:    0006410c    .A..    DCD    409868
        0x00009a00:    ffff1703    ....    DCD    4294907651
        0x00009a04:    0000a56c    l...    DCD    42348
        0x00009a08:    ffff1701    ....    DCD    4294907649
    $a
    i.uartOpen
    uartOpen
        0x00009a0c:    e92d4010    .@-.    PUSH     {r4,lr}
        0x00009a10:    e1a04000    .@..    MOV      r4,r0
        0x00009a14:    ebffee39    9...    BL       _uartConfigureUART ; 0x5300
        0x00009a18:    e59f2048    H ..    LDR      r2,[pc,#72] ; [0x9a68] = 0x6410c
        0x00009a1c:    e2501000    ..P.    SUBS     r1,r0,#0
        0x00009a20:    aa000008    ....    BGE      0x9a48 ; uartOpen + 60
        0x00009a24:    e3710005    ..q.    CMN      r1,#5
        0x00009a28:    0a000004    ....    BEQ      0x9a40 ; uartOpen + 52
        0x00009a2c:    e5d40008    ....    LDRB     r0,[r4,#8]
        0x00009a30:    e0803080    .0..    ADD      r3,r0,r0,LSL #1
        0x00009a34:    e0830180    ....    ADD      r0,r3,r0,LSL #3
        0x00009a38:    e0820100    ....    ADD      r0,r2,r0,LSL #2
        0x00009a3c:    e5801028    (...    STR      r1,[r0,#0x28]
        0x00009a40:    e59f0024    $...    LDR      r0,[pc,#36] ; [0x9a6c] = 0xffff1703
        0x00009a44:    e8bd8010    ....    POP      {r4,pc}
        0x00009a48:    e5d40008    ....    LDRB     r0,[r4,#8]
        0x00009a4c:    e3a01000    ....    MOV      r1,#0
        0x00009a50:    e0803080    .0..    ADD      r3,r0,r0,LSL #1
        0x00009a54:    e0830180    ....    ADD      r0,r3,r0,LSL #3
        0x00009a58:    e0820100    ....    ADD      r0,r2,r0,LSL #2
        0x00009a5c:    e5801028    (...    STR      r1,[r0,#0x28]
        0x00009a60:    e3a00000    ....    MOV      r0,#0
        0x00009a64:    e8bd8010    ....    POP      {r4,pc}
    $d
        0x00009a68:    0006410c    .A..    DCD    409868
        0x00009a6c:    ffff1703    ....    DCD    4294907651
    $a
    i.uartWrite
    uartWrite
        0x00009a70:    e92d41f0    .A-.    PUSH     {r4-r8,lr}
        0x00009a74:    e1a05000    .P..    MOV      r5,r0
        0x00009a78:    e1a08001    ....    MOV      r8,r1
        0x00009a7c:    e1a06002    .`..    MOV      r6,r2
        0x00009a80:    e59f1094    ....    LDR      r1,[pc,#148] ; [0x9b1c] = 0x6410c
        0x00009a84:    e0850085    ....    ADD      r0,r5,r5,LSL #1
        0x00009a88:    e0800185    ....    ADD      r0,r0,r5,LSL #3
        0x00009a8c:    e0814100    .A..    ADD      r4,r1,r0,LSL #2
        0x00009a90:    e3a00000    ....    MOV      r0,#0
        0x00009a94:    e5840028    (...    STR      r0,[r4,#0x28]
        0x00009a98:    e5d4001e    ....    LDRB     r0,[r4,#0x1e]
        0x00009a9c:    e59f707c    |p..    LDR      r7,[pc,#124] ; [0x9b20] = 0xffff1703
        0x00009aa0:    e3500000    ..P.    CMP      r0,#0
        0x00009aa4:    0a000007    ....    BEQ      0x9ac8 ; uartWrite + 88
        0x00009aa8:    e3560078    x.V.    CMP      r6,#0x78
        0x00009aac:    8a000007    ....    BHI      0x9ad0 ; uartWrite + 96
        0x00009ab0:    e3560000    ..V.    CMP      r6,#0
        0x00009ab4:    0a000005    ....    BEQ      0x9ad0 ; uartWrite + 96
        0x00009ab8:    e5d4001c    ....    LDRB     r0,[r4,#0x1c]
        0x00009abc:    e3500001    ..P.    CMP      r0,#1
        0x00009ac0:    0a000004    ....    BEQ      0x9ad8 ; uartWrite + 104
        0x00009ac4:    ea00000a    ....    B        0x9af4 ; uartWrite + 132
        0x00009ac8:    e1a00007    ....    MOV      r0,r7
        0x00009acc:    e8bd81f0    ....    POP      {r4-r8,pc}
        0x00009ad0:    e1a00007    ....    MOV      r0,r7
        0x00009ad4:    e8bd81f0    ....    POP      {r4-r8,pc}
        0x00009ad8:    e5942004    . ..    LDR      r2,[r4,#4]
        0x00009adc:    e5941000    ....    LDR      r1,[r4,#0]
        0x00009ae0:    e1a03006    .0..    MOV      r3,r6
        0x00009ae4:    e1a00005    ....    MOV      r0,r5
        0x00009ae8:    ebffede0    ....    BL       _uartCheckTxBufSpace ; 0x5270
        0x00009aec:    e3500000    ..P.    CMP      r0,#0
        0x00009af0:    0a000005    ....    BEQ      0x9b0c ; uartWrite + 156
        0x00009af4:    e1a02006    . ..    MOV      r2,r6
        0x00009af8:    e1a01008    ....    MOV      r1,r8
        0x00009afc:    e1a00005    ....    MOV      r0,r5
        0x00009b00:    ebfff07e    ~...    BL       _uartWriteTxBuf ; 0x5d00
        0x00009b04:    e1a00006    ....    MOV      r0,r6
        0x00009b08:    e8bd81f0    ....    POP      {r4-r8,pc}
        0x00009b0c:    e3e0000a    ....    MVN      r0,#0xa
        0x00009b10:    e5840028    (...    STR      r0,[r4,#0x28]
        0x00009b14:    e1a00007    ....    MOV      r0,r7
        0x00009b18:    e8bd81f0    ....    POP      {r4-r8,pc}
    $d
        0x00009b1c:    0006410c    .A..    DCD    409868
        0x00009b20:    ffff1703    ....    DCD    4294907651
    $a
    i.unit_ram_to_sdram
    unit_ram_to_sdram
        0x00009b24:    e92d4070    p@-.    PUSH     {r4-r6,lr}
        0x00009b28:    e59f6038    8`..    LDR      r6,[pc,#56] ; [0x9b68] = 0xa187
        0x00009b2c:    e59f4030    0@..    LDR      r4,[pc,#48] ; [0x9b64] = 0xa838
        0x00009b30:    e5d60000    ....    LDRB     r0,[r6,#0]
        0x00009b34:    e59f5030    0P..    LDR      r5,[pc,#48] ; [0x9b6c] = 0x3e9
        0x00009b38:    e7941100    ....    LDR      r1,[r4,r0,LSL #2]
        0x00009b3c:    e3e00ffa    ....    MVN      r0,#0x3e8
        0x00009b40:    e0410000    ..A.    SUB      r0,r1,r0
        0x00009b44:    e1a02005    . ..    MOV      r2,r5
        0x00009b48:    ebffdb01    ....    BL       __aeabi_memcpy ; 0x754
        0x00009b4c:    e5d60000    ....    LDRB     r0,[r6,#0]
        0x00009b50:    e1a02005    . ..    MOV      r2,r5
        0x00009b54:    e7941100    ....    LDR      r1,[r4,r0,LSL #2]
        0x00009b58:    e0810085    ....    ADD      r0,r1,r5,LSL #1
        0x00009b5c:    e8bd4070    p@..    POP      {r4-r6,lr}
        0x00009b60:    eaffdafb    ....    B        __aeabi_memcpy ; 0x754
    $d
        0x00009b64:    0000a838    8...    DCD    43064
        0x00009b68:    0000a187    ....    DCD    41351
        0x00009b6c:    000003e9    ....    DCD    1001
    $a
    i.usb_deinit
    usb_deinit
        0x00009b70:    e3a0020b    ....    MOV      r0,#0xb0000000
        0x00009b74:    e5901094    ....    LDR      r1,[r0,#0x94]
        0x00009b78:    e3c114ff    ....    BIC      r1,r1,#0xff000000
        0x00009b7c:    e5801094    ....    STR      r1,[r0,#0x94]
        0x00009b80:    e59f1008    ....    LDR      r1,[pc,#8] ; [0x9b90] = 0xa00c
        0x00009b84:    e3a00000    ....    MOV      r0,#0
        0x00009b88:    e5c10000    ....    STRB     r0,[r1,#0]
        0x00009b8c:    e12fff1e    ../.    BX       lr
    $d
        0x00009b90:    0000a00c    ....    DCD    40972
    $a
    i.vpostGetFrameBuffer
    vpostGetFrameBuffer
        0x00009b94:    e92d4010    .@-.    PUSH     {r4,lr}
        0x00009b98:    e59f00a0    ....    LDR      r0,[pc,#160] ; [0x9c40] = 0x640d4
        0x00009b9c:    e5901000    ....    LDR      r1,[r0,#0]
        0x00009ba0:    e3510000    ..Q.    CMP      r1,#0
        0x00009ba4:    0a00000c    ....    BEQ      0x9bdc ; vpostGetFrameBuffer + 72
        0x00009ba8:    e5902004    . ..    LDR      r2,[r0,#4]
        0x00009bac:    e3520000    ..R.    CMP      r2,#0
        0x00009bb0:    0a000009    ....    BEQ      0x9bdc ; vpostGetFrameBuffer + 72
        0x00009bb4:    e2400014    ..@.    SUB      r0,r0,#0x14
        0x00009bb8:    e5900000    ....    LDR      r0,[r0,#0]
        0x00009bbc:    e3500c02    ..P.    CMP      r0,#0x200
        0x00009bc0:    0a00001c    ....    BEQ      0x9c38 ; vpostGetFrameBuffer + 164
        0x00009bc4:    ca000006    ....    BGT      0x9be4 ; vpostGetFrameBuffer + 80
        0x00009bc8:    e3500000    ..P.    CMP      r0,#0
        0x00009bcc:    0a000017    ....    BEQ      0x9c30 ; vpostGetFrameBuffer + 156
        0x00009bd0:    e3500c01    ..P.    CMP      r0,#0x100
        0x00009bd4:    1a000006    ....    BNE      0x9bf4 ; vpostGetFrameBuffer + 96
        0x00009bd8:    ea000014    ....    B        0x9c30 ; vpostGetFrameBuffer + 156
        0x00009bdc:    e3a00000    ....    MOV      r0,#0
        0x00009be0:    e8bd8010    ....    POP      {r4,pc}
        0x00009be4:    e3500c03    ..P.    CMP      r0,#0x300
        0x00009be8:    0a000012    ....    BEQ      0x9c38 ; vpostGetFrameBuffer + 164
        0x00009bec:    e3500b01    ..P.    CMP      r0,#0x400
        0x00009bf0:    0a00000e    ....    BEQ      0x9c30 ; vpostGetFrameBuffer + 156
        0x00009bf4:    e3a00002    ....    MOV      r0,#2
        0x00009bf8:    e0010192    ....    MUL      r1,r2,r1
        0x00009bfc:    e0000091    ....    MUL      r0,r1,r0
        0x00009c00:    e2800040    @...    ADD      r0,r0,#0x40
        0x00009c04:    faffd996    ....    BLX      _maybe_terminate_alloc ; 0x264
        0x00009c08:    e3a01020     ...    MOV      r1,#0x20
        0x00009c0c:    ebfff5d4    ....    BL       shift_pointer ; 0x7364
        0x00009c10:    e2800020     ...    ADD      r0,r0,#0x20
        0x00009c14:    e59f1028    (...    LDR      r1,[pc,#40] ; [0x9c44] = 0xb0008000
        0x00009c18:    e3800102    ....    ORR      r0,r0,#0x80000000
        0x00009c1c:    e5810024    $...    STR      r0,[r1,#0x24]
        0x00009c20:    e591202c    , ..    LDR      r2,[r1,#0x2c]
        0x00009c24:    e3c22103    .!..    BIC      r2,r2,#0xc0000000
        0x00009c28:    e581202c    , ..    STR      r2,[r1,#0x2c]
        0x00009c2c:    e8bd8010    ....    POP      {r4,pc}
        0x00009c30:    e3a00002    ....    MOV      r0,#2
        0x00009c34:    eaffffef    ....    B        0x9bf8 ; vpostGetFrameBuffer + 100
        0x00009c38:    e3a00004    ....    MOV      r0,#4
        0x00009c3c:    eaffffed    ....    B        0x9bf8 ; vpostGetFrameBuffer + 100
    $d
        0x00009c40:    000640d4    .@..    DCD    409812
        0x00009c44:    b0008000    ....    DCD    2952822784
    $a
    i.vpostLCMInit
    vpostLCMInit
        0x00009c48:    e92d4010    .@-.    PUSH     {r4,lr}
        0x00009c4c:    e1a04000    .@..    MOV      r4,r0
        0x00009c50:    e3a0120b    ....    MOV      r1,#0xb0000000
        0x00009c54:    e5912210    ."..    LDR      r2,[r1,#0x210]
        0x00009c58:    e3822402    .$..    ORR      r2,r2,#0x2000000
        0x00009c5c:    e5812210    ."..    STR      r2,[r1,#0x210]
        0x00009c60:    e59f0084    ....    LDR      r0,[pc,#132] ; [0x9cec] = 0x640d4
        0x00009c64:    e3a01038    8...    MOV      r1,#0x38
        0x00009c68:    ebffdb1b    ....    BL       __aeabi_memclr4 ; 0x8dc
        0x00009c6c:    e59f107c    |...    LDR      r1,[pc,#124] ; [0x9cf0] = 0xa500
        0x00009c70:    e59f0074    t...    LDR      r0,[pc,#116] ; [0x9cec] = 0x640d4
        0x00009c74:    e7911104    ....    LDR      r1,[r1,r4,LSL #2]
        0x00009c78:    e3a02038    8 ..    MOV      r2,#0x38
        0x00009c7c:    ebffdae9    ....    BL       __aeabi_memcpy4 ; 0x828
        0x00009c80:    e59f0064    d...    LDR      r0,[pc,#100] ; [0x9cec] = 0x640d4
        0x00009c84:    e5901008    ....    LDR      r1,[r0,#8]
        0x00009c88:    e590200c    . ..    LDR      r2,[r0,#0xc]
        0x00009c8c:    e1811002    ....    ORR      r1,r1,r2
        0x00009c90:    e5902010    . ..    LDR      r2,[r0,#0x10]
        0x00009c94:    e1811002    ....    ORR      r1,r1,r2
        0x00009c98:    e5902014    . ..    LDR      r2,[r0,#0x14]
        0x00009c9c:    e1811002    ....    ORR      r1,r1,r2
        0x00009ca0:    e5902018    . ..    LDR      r2,[r0,#0x18]
        0x00009ca4:    e1811002    ....    ORR      r1,r1,r2
        0x00009ca8:    e590201c    . ..    LDR      r2,[r0,#0x1c]
        0x00009cac:    e1811002    ....    ORR      r1,r1,r2
        0x00009cb0:    e5902020      ..    LDR      r2,[r0,#0x20]
        0x00009cb4:    e1822001    . ..    ORR      r2,r2,r1
        0x00009cb8:    e59f1034    4...    LDR      r1,[pc,#52] ; [0x9cf4] = 0xb0008000
        0x00009cbc:    e5812004    . ..    STR      r2,[r1,#4]
        0x00009cc0:    e5902024    $ ..    LDR      r2,[r0,#0x24]
        0x00009cc4:    e5812010    . ..    STR      r2,[r1,#0x10]
        0x00009cc8:    e5902028    ( ..    LDR      r2,[r0,#0x28]
        0x00009ccc:    e5812014    . ..    STR      r2,[r1,#0x14]
        0x00009cd0:    e590202c    , ..    LDR      r2,[r0,#0x2c]
        0x00009cd4:    e5812018    . ..    STR      r2,[r1,#0x18]
        0x00009cd8:    e5902030    0 ..    LDR      r2,[r0,#0x30]
        0x00009cdc:    e581201c    . ..    STR      r2,[r1,#0x1c]
        0x00009ce0:    e5900034    4...    LDR      r0,[r0,#0x34]
        0x00009ce4:    e5810020     ...    STR      r0,[r1,#0x20]
        0x00009ce8:    e8bd8010    ....    POP      {r4,pc}
    $d
        0x00009cec:    000640d4    .@..    DCD    409812
        0x00009cf0:    0000a500    ....    DCD    42240
        0x00009cf4:    b0008000    ....    DCD    2952822784
    $a
    i.vpostSetVASrc
    vpostSetVASrc
        0x00009cf8:    e92d4010    .@-.    PUSH     {r4,lr}
        0x00009cfc:    e59f10e4    ....    LDR      r1,[pc,#228] ; [0x9de8] = 0x640c0
        0x00009d00:    e5810000    ....    STR      r0,[r1,#0]
        0x00009d04:    e59f20e0    . ..    LDR      r2,[pc,#224] ; [0x9dec] = 0xb0008000
        0x00009d08:    e5921000    ....    LDR      r1,[r2,#0]
        0x00009d0c:    e3c11c07    ....    BIC      r1,r1,#0x700
        0x00009d10:    e5821000    ....    STR      r1,[r2,#0]
        0x00009d14:    e3500000    ..P.    CMP      r0,#0
        0x00009d18:    0a000003    ....    BEQ      0x9d2c ; vpostSetVASrc + 52
        0x00009d1c:    e5921000    ....    LDR      r1,[r2,#0]
        0x00009d20:    e1811000    ....    ORR      r1,r1,r0
        0x00009d24:    e5821000    ....    STR      r1,[r2,#0]
        0x00009d28:    ea000002    ....    B        0x9d38 ; vpostSetVASrc + 64
        0x00009d2c:    e5921000    ....    LDR      r1,[r2,#0]
        0x00009d30:    e3c11c07    ....    BIC      r1,r1,#0x700
        0x00009d34:    e5821000    ....    STR      r1,[r2,#0]
        0x00009d38:    e59f10b4    ....    LDR      r1,[pc,#180] ; [0x9df4] = 0x640d4
        0x00009d3c:    e59f30ac    .0..    LDR      r3,[pc,#172] ; [0x9df0] = 0xf800f800
        0x00009d40:    e5911000    ....    LDR      r1,[r1,#0]
        0x00009d44:    e3500c02    ..P.    CMP      r0,#0x200
        0x00009d48:    0a00000f    ....    BEQ      0x9d8c ; vpostSetVASrc + 148
        0x00009d4c:    e3500c03    ..P.    CMP      r0,#0x300
        0x00009d50:    0a00000d    ....    BEQ      0x9d8c ; vpostSetVASrc + 148
        0x00009d54:    e592c02c    ,...    LDR      r12,[r2,#0x2c]
        0x00009d58:    e1a040a1    .@..    LSR      r4,r1,#1
        0x00009d5c:    e00cc003    ....    AND      r12,r12,r3
        0x00009d60:    e18cc804    ....    ORR      r12,r12,r4,LSL #16
        0x00009d64:    e18cc0a1    ....    ORR      r12,r12,r1,LSR #1
        0x00009d68:    e582c02c    ,...    STR      r12,[r2,#0x2c]
        0x00009d6c:    e3500c02    ..P.    CMP      r0,#0x200
        0x00009d70:    0a00001a    ....    BEQ      0x9de0 ; vpostSetVASrc + 232
        0x00009d74:    ca00000a    ....    BGT      0x9da4 ; vpostSetVASrc + 172
        0x00009d78:    e3500000    ..P.    CMP      r0,#0
        0x00009d7c:    0a000015    ....    BEQ      0x9dd8 ; vpostSetVASrc + 224
        0x00009d80:    e3500c01    ..P.    CMP      r0,#0x100
        0x00009d84:    1a00000a    ....    BNE      0x9db4 ; vpostSetVASrc + 188
        0x00009d88:    ea000012    ....    B        0x9dd8 ; vpostSetVASrc + 224
        0x00009d8c:    e592c02c    ,...    LDR      r12,[r2,#0x2c]
        0x00009d90:    e00cc003    ....    AND      r12,r12,r3
        0x00009d94:    e18cc801    ....    ORR      r12,r12,r1,LSL #16
        0x00009d98:    e18cc001    ....    ORR      r12,r12,r1
        0x00009d9c:    e582c02c    ,...    STR      r12,[r2,#0x2c]
        0x00009da0:    eafffff1    ....    B        0x9d6c ; vpostSetVASrc + 116
        0x00009da4:    e3500c03    ..P.    CMP      r0,#0x300
        0x00009da8:    0a00000c    ....    BEQ      0x9de0 ; vpostSetVASrc + 232
        0x00009dac:    e3500b01    ..P.    CMP      r0,#0x400
        0x00009db0:    0a000008    ....    BEQ      0x9dd8 ; vpostSetVASrc + 224
        0x00009db4:    e3a00002    ....    MOV      r0,#2
        0x00009db8:    e0000091    ....    MUL      r0,r1,r0
        0x00009dbc:    e1a00120     ...    LSR      r0,r0,#2
        0x00009dc0:    e592102c    ,...    LDR      r1,[r2,#0x2c]
        0x00009dc4:    e0011003    ....    AND      r1,r1,r3
        0x00009dc8:    e1811800    ....    ORR      r1,r1,r0,LSL #16
        0x00009dcc:    e1800001    ....    ORR      r0,r0,r1
        0x00009dd0:    e582002c    ,...    STR      r0,[r2,#0x2c]
        0x00009dd4:    e8bd8010    ....    POP      {r4,pc}
        0x00009dd8:    e3a00002    ....    MOV      r0,#2
        0x00009ddc:    eafffff5    ....    B        0x9db8 ; vpostSetVASrc + 192
        0x00009de0:    e3a00004    ....    MOV      r0,#4
        0x00009de4:    eafffff3    ....    B        0x9db8 ; vpostSetVASrc + 192
    $d
        0x00009de8:    000640c0    .@..    DCD    409792
        0x00009dec:    b0008000    ....    DCD    2952822784
        0x00009df0:    f800f800    ....    DCD    4160813056
        0x00009df4:    000640d4    .@..    DCD    409812
    $a
    i.vpostVAScalingCtrl
    vpostVAScalingCtrl
        0x00009df8:    e92d4010    .@-.    PUSH     {r4,lr}
        0x00009dfc:    e59dc008    ....    LDR      r12,[sp,#8]
        0x00009e00:    e3a04067    g@..    MOV      r4,#0x67
        0x00009e04:    e0010194    ....    MUL      r1,r4,r1
        0x00009e08:    e0810500    ....    ADD      r0,r1,r0,LSL #10
        0x00009e0c:    e0010493    ....    MUL      r1,r3,r4
        0x00009e10:    e0811502    ....    ADD      r1,r1,r2,LSL #10
        0x00009e14:    e1800801    ....    ORR      r0,r0,r1,LSL #16
        0x00009e18:    e59f1008    ....    LDR      r1,[pc,#8] ; [0x9e28] = 0xb0008000
        0x00009e1c:    e180000c    ....    ORR      r0,r0,r12
        0x00009e20:    e5810030    0...    STR      r0,[r1,#0x30]
        0x00009e24:    e8bd8010    ....    POP      {r4,pc}
    $d
        0x00009e28:    b0008000    ....    DCD    2952822784
    $a
    i.vpostVAStartTrigger
    vpostVAStartTrigger
        0x00009e2c:    e59f0030    0...    LDR      r0,[pc,#48] ; [0x9e64] = 0xb0008000
        0x00009e30:    e5901000    ....    LDR      r1,[r0,#0]
        0x00009e34:    e3110080    ....    TST      r1,#0x80
        0x00009e38:    0a000002    ....    BEQ      0x9e48 ; vpostVAStartTrigger + 28
        0x00009e3c:    e5901000    ....    LDR      r1,[r0,#0]
        0x00009e40:    e3110002    ....    TST      r1,#2
        0x00009e44:    1afffffc    ....    BNE      0x9e3c ; vpostVAStartTrigger + 16
        0x00009e48:    e5901000    ....    LDR      r1,[r0,#0]
        0x00009e4c:    e3811008    ....    ORR      r1,r1,#8
        0x00009e50:    e5801000    ....    STR      r1,[r0,#0]
        0x00009e54:    e5901000    ....    LDR      r1,[r0,#0]
        0x00009e58:    e3811002    ....    ORR      r1,r1,#2
        0x00009e5c:    e5801000    ....    STR      r1,[r0,#0]
        0x00009e60:    e12fff1e    ../.    BX       lr
    $d
        0x00009e64:    b0008000    ....    DCD    2952822784
    $d.realdata
    .constdata
    logodata_sdrambuffer_size_arry
        0x00009e68:    00020000    ....    DCD    131072
        0x00009e6c:    00020000    ....    DCD    131072
        0x00009e70:    00020000    ....    DCD    131072
        0x00009e74:    00020000    ....    DCD    131072
        0x00009e78:    00020000    ....    DCD    131072
        0x00009e7c:    00020000    ....    DCD    131072
        0x00009e80:    00020000    ....    DCD    131072
        0x00009e84:    00020000    ....    DCD    131072
        0x00009e88:    00020000    ....    DCD    131072
        0x00009e8c:    00020000    ....    DCD    131072
        0x00009e90:    00020000    ....    DCD    131072
        0x00009e94:    00020000    ....    DCD    131072
        0x00009e98:    00020000    ....    DCD    131072
        0x00009e9c:    00020000    ....    DCD    131072
        0x00009ea0:    00020000    ....    DCD    131072
        0x00009ea4:    00020000    ....    DCD    131072
    .constdata
        0x00009ea8:    00000055    U...    DCD    85
    .constdata
    checksum_addr_nand_Arr
        0x00009eac:    00017e40    @~..    DCD    97856
        0x00009eb0:    00017e80    .~..    DCD    97920
        0x00009eb4:    00017ec0    .~..    DCD    97984
        0x00009eb8:    00017f00    ....    DCD    98048
        0x00009ebc:    0001eb80    ....    DCD    125824
        0x00009ec0:    0001ebc0    ....    DCD    125888
    .constdata
    uc_hextab
        0x00009ec4:    33323130    0123    DCD    858927408
        0x00009ec8:    37363534    4567    DCD    926299444
        0x00009ecc:    42413938    89AB    DCD    1111570744
        0x00009ed0:    46454443    CDEF    DCD    1178944579
        0x00009ed4:    00583040    @0X.    DCD    5779520
    lc_hextab
        0x00009ed8:    33323130    0123    DCD    858927408
        0x00009edc:    37363534    4567    DCD    926299444
        0x00009ee0:    62613938    89ab    DCD    1650538808
        0x00009ee4:    66656463    cdef    DCD    1717920867
        0x00009ee8:    00783040    @0x.    DCD    7876672
    .constdata
    maptable
        0x00009eec:    08000004    ....    DCD    134217732
        0x00009ef0:    00000000    ....    DCD    0
        0x00009ef4:    02000000    ....    DCD    33554432
        0x00009ef8:    00000100    ....    DCD    256
        0x00009efc:    00000010    ....    DCD    16
    .conststring
        0x00009f00:    6d646162    badm    DCD    1835295074
        0x00009f04:    67616e61    anag    DCD    1734438497
        0x00009f08:    74735f65    e_st    DCD    1953718117
        0x00009f0c:    423e2d72    r->B    DCD    1111371122
        0x00009f10:    4d5f4441    AD_M    DCD    1298089025
        0x00009f14:    47414e41    ANAG    DCD    1195462209
        0x00009f18:    74735f45    E_st    DCD    1953718085
        0x00009f1c:    6c662e72    r.fl    DCD    1818635890
        0x00009f20:    303d6761    ag=0    DCD    809330529
        0x00009f24:    38302578    x%08    DCD    942679416
        0x00009f28:    61622c78    x,ba    DCD    1633823864
        0x00009f2c:    6e616d64    dman    DCD    1851878756
        0x00009f30:    5f656761    age_    DCD    1600481121
        0x00009f34:    2d727473    str-    DCD    762475635
        0x00009f38:    4441423e    >BAD    DCD    1145127486
        0x00009f3c:    4e414d5f    _MAN    DCD    1312902495
        0x00009f40:    5f454741    AGE_    DCD    1598375745
        0x00009f44:    2e727473    str.    DCD    779252851
        0x00009f48:    3d6d756e    num=    DCD    1030583662
        0x00009f4c:    30257830    0x%0    DCD    807761968
        0x00009f50:    0a0d7838    8x..    DCD    168654904
        0x00009f54:    00000000    ....    DCD    0
    Region$$Table$$Base
        0x00009f58:    00009f88    ....    DCD    40840
        0x00009f5c:    0000a638    8...    DCD    42552
        0x00009f60:    000000f0    ....    DCD    240
        0x00009f64:    0000019c    ....    DCD    412
        0x00009f68:    0000a638    8...    DCD    42552
        0x00009f6c:    00009f88    ....    DCD    40840
        0x00009f70:    000006b0    ....    DCD    1712
        0x00009f74:    00000140    @...    DCD    320
        0x00009f78:    0000a078    x...    DCD    41080
        0x00009f7c:    0000a638    8...    DCD    42552
        0x00009f80:    00059ccc    ....    DCD    367820
        0x00009f84:    000001c4    ....    DCD    452
    Region$$Table$$Limit

** Section #2 'RW_RAM1' (SHT_PROGBITS) [SHF_ALLOC + SHF_WRITE]
    Size   : 240 bytes (alignment 32)
    Address: 0x00009f88


** Section #3 'RW_RAM1' (SHT_NOBITS) [SHF_ALLOC + SHF_WRITE]
    Size   : 367820 bytes (alignment 16384)
    Address: 0x0000a638


** Section #4 '.debug_abbrev' (SHT_PROGBITS)
    Size   : 1476 bytes


** Section #5 '.debug_frame' (SHT_PROGBITS)
    Size   : 7000 bytes


** Section #6 '.debug_info' (SHT_PROGBITS)
    Size   : 119472 bytes


** Section #7 '.debug_line' (SHT_PROGBITS)
    Size   : 60148 bytes


** Section #8 '.debug_loc' (SHT_PROGBITS)
    Size   : 28768 bytes


** Section #9 '.debug_macinfo' (SHT_PROGBITS)
    Size   : 142612 bytes


** Section #10 '.debug_pubnames' (SHT_PROGBITS)
    Size   : 16414 bytes


** Section #11 '.symtab' (SHT_SYMTAB)
    Size   : 25888 bytes (alignment 4)
    String table #12 '.strtab'
    Last local symbol no. 1188


** Section #12 '.strtab' (SHT_STRTAB)
    Size   : 17500 bytes


** Section #13 '.note' (SHT_NOTE)
    Size   : 28 bytes (alignment 4)


** Section #14 '.comment' (SHT_PROGBITS)
    Size   : 37716 bytes


** Section #15 '.shstrtab' (SHT_STRTAB)
    Size   : 152 bytes


